	.text
	.syntax unified
	.eabi_attribute	67, "2.09"
	.eabi_attribute	6, 10
	.eabi_attribute	7, 65
	.eabi_attribute	8, 1
	.eabi_attribute	9, 2
	.fpu	vfpv3-d16
	.eabi_attribute	34, 1
	.eabi_attribute	15, 1
	.eabi_attribute	16, 1
	.eabi_attribute	17, 2
	.eabi_attribute	20, 1
	.eabi_attribute	21, 1
	.eabi_attribute	23, 3
	.eabi_attribute	24, 1
	.eabi_attribute	25, 1
	.eabi_attribute	38, 1
	.eabi_attribute	14, 0
	.file	"aot"
	.weak	gc.safepoint_poll
	.p2align	2
	.type	gc.safepoint_poll,%function
	.code	32
gc.safepoint_poll:
.Lfunc_begin0:
	.fnstart
	ldr	r0, .LCPI0_0
.LPC0_0:
	add	r0, pc, r0
	ldr	r0, [r0, #28]
	ldr	r0, [r0]
	cmp	r0, #0
	bxeq	lr
	.save	{r11, lr}
	push	{r11, lr}
.Ltmp0:
.Ltmp1:
.Ltmp2:
	bl	mono_aot_Xamarin_Forms_Platform_Android_icall_cold_wrapper_265
	pop	{r11, lr}
	bx	lr
	.p2align	2
.LCPI0_0:
	.long	mono_aot_Xamarin_Forms_Platform_Android_llvm_got-(.LPC0_0+8)
.Lfunc_end0:
	.size	gc.safepoint_poll, .Lfunc_end0-gc.safepoint_poll
	.fnend

	.p2align	2
	.type	mono_aot_Xamarin_Forms_Platform_Android_icall_cold_wrapper_265,%function
	.code	32
mono_aot_Xamarin_Forms_Platform_Android_icall_cold_wrapper_265:
.Lfunc_begin1:
	.fnstart
	.save	{r11, lr}
	push	{r11, lr}
.Ltmp3:
.Ltmp4:
.Ltmp5:
	ldr	r0, .LCPI1_0
.LPC1_0:
	add	r0, pc, r0
	ldr	r0, [r0, #80]
	blx	r0
	pop	{r11, pc}
	.p2align	2
.LCPI1_0:
	.long	mono_aot_Xamarin_Forms_Platform_Android_llvm_got-(.LPC1_0+8)
.Lfunc_end1:
	.size	mono_aot_Xamarin_Forms_Platform_Android_icall_cold_wrapper_265, .Lfunc_end1-mono_aot_Xamarin_Forms_Platform_Android_icall_cold_wrapper_265
	.fnend

	.p2align	2
	.type	mono_aot_Xamarin_Forms_Platform_Android_init_method,%function
	.code	32
mono_aot_Xamarin_Forms_Platform_Android_init_method:
.Lfunc_begin2:
	.fnstart
	.save	{r4, r5, r11, lr}
	push	{r4, r5, r11, lr}
.Ltmp6:
.Ltmp7:
.Ltmp8:
.Ltmp9:
.Ltmp10:
	ldr	r5, .LCPI2_0
	mov	r4, r0
.LPC2_0:
	add	r5, pc, r5
	ldrb	r0, [r5, r4]
	cmp	r0, #0
	popne	{r4, r5, r11, pc}
	ldr	r0, .LCPI2_1
	mov	r2, r4
.LPC2_1:
	add	r0, pc, r0
	ldr	r1, [r0, #16]
	ldr	r3, [r0, #56]
	ldr	r0, .LCPI2_2
.LPC2_2:
	ldr	r0, [pc, r0]
	blx	r3
	mov	r0, #1
	strb	r0, [r5, r4]
	pop	{r4, r5, r11, pc}
	.p2align	2
.LCPI2_0:
	.long	mono_inited-(.LPC2_0+8)
.LCPI2_1:
	.long	mono_aot_Xamarin_Forms_Platform_Android_llvm_got-(.LPC2_1+8)
.LCPI2_2:
.Ltmp11:
	.long	mono_aot_file_info(GOT_PREL)-((.LPC2_2+8)-.Ltmp11)
.Lfunc_end2:
	.size	mono_aot_Xamarin_Forms_Platform_Android_init_method, .Lfunc_end2-mono_aot_Xamarin_Forms_Platform_Android_init_method
	.fnend

	.p2align	2
	.type	mono_aot_Xamarin_Forms_Platform_Android_init_method_gshared_mrgctx,%function
	.code	32
mono_aot_Xamarin_Forms_Platform_Android_init_method_gshared_mrgctx:
.Lfunc_begin3:
	.fnstart
	.save	{r4, r5, r11, lr}
	push	{r4, r5, r11, lr}
.Ltmp12:
.Ltmp13:
.Ltmp14:
.Ltmp15:
.Ltmp16:
	ldr	r5, .LCPI3_0
	mov	r4, r0
	mov	r3, r1
.LPC3_0:
	add	r5, pc, r5
	ldrb	r0, [r5, r4]
	cmp	r0, #0
	popne	{r4, r5, r11, pc}
	ldr	r0, .LCPI3_1
	mov	r2, r4
.LPC3_1:
	add	r0, pc, r0
	ldr	r1, [r0, #16]
	ldr	r12, [r0, #64]
	ldr	r0, .LCPI3_2
.LPC3_2:
	ldr	r0, [pc, r0]
	blx	r12
	mov	r0, #1
	strb	r0, [r5, r4]
	pop	{r4, r5, r11, pc}
	.p2align	2
.LCPI3_0:
	.long	mono_inited-(.LPC3_0+8)
.LCPI3_1:
	.long	mono_aot_Xamarin_Forms_Platform_Android_llvm_got-(.LPC3_1+8)
.LCPI3_2:
.Ltmp17:
	.long	mono_aot_file_info(GOT_PREL)-((.LPC3_2+8)-.Ltmp17)
.Lfunc_end3:
	.size	mono_aot_Xamarin_Forms_Platform_Android_init_method_gshared_mrgctx, .Lfunc_end3-mono_aot_Xamarin_Forms_Platform_Android_init_method_gshared_mrgctx
	.fnend

	.p2align	2
	.type	mono_aot_Xamarin_Forms_Platform_Android_init_method_gshared_this,%function
	.code	32
mono_aot_Xamarin_Forms_Platform_Android_init_method_gshared_this:
.Lfunc_begin4:
	.fnstart
	.save	{r4, r5, r11, lr}
	push	{r4, r5, r11, lr}
.Ltmp18:
.Ltmp19:
.Ltmp20:
.Ltmp21:
.Ltmp22:
	ldr	r5, .LCPI4_0
	mov	r4, r0
	mov	r3, r1
.LPC4_0:
	add	r5, pc, r5
	ldrb	r0, [r5, r4]
	cmp	r0, #0
	popne	{r4, r5, r11, pc}
	ldr	r0, .LCPI4_1
	mov	r2, r4
.LPC4_1:
	add	r0, pc, r0
	ldr	r1, [r0, #16]
	ldr	r12, [r0, #60]
	ldr	r0, .LCPI4_2
.LPC4_2:
	ldr	r0, [pc, r0]
	blx	r12
	mov	r0, #1
	strb	r0, [r5, r4]
	pop	{r4, r5, r11, pc}
	.p2align	2
.LCPI4_0:
	.long	mono_inited-(.LPC4_0+8)
.LCPI4_1:
	.long	mono_aot_Xamarin_Forms_Platform_Android_llvm_got-(.LPC4_1+8)
.LCPI4_2:
.Ltmp23:
	.long	mono_aot_file_info(GOT_PREL)-((.LPC4_2+8)-.Ltmp23)
.Lfunc_end4:
	.size	mono_aot_Xamarin_Forms_Platform_Android_init_method_gshared_this, .Lfunc_end4-mono_aot_Xamarin_Forms_Platform_Android_init_method_gshared_this
	.fnend

	.p2align	2
	.type	mono_aot_Xamarin_Forms_Platform_Android_init_method_gshared_vtable,%function
	.code	32
mono_aot_Xamarin_Forms_Platform_Android_init_method_gshared_vtable:
.Lfunc_begin5:
	.fnstart
	.save	{r4, r5, r11, lr}
	push	{r4, r5, r11, lr}
.Ltmp24:
.Ltmp25:
.Ltmp26:
.Ltmp27:
.Ltmp28:
	ldr	r5, .LCPI5_0
	mov	r4, r0
	mov	r3, r1
.LPC5_0:
	add	r5, pc, r5
	ldrb	r0, [r5, r4]
	cmp	r0, #0
	popne	{r4, r5, r11, pc}
	ldr	r0, .LCPI5_1
	mov	r2, r4
.LPC5_1:
	add	r0, pc, r0
	ldr	r1, [r0, #16]
	ldr	r12, [r0, #68]
	ldr	r0, .LCPI5_2
.LPC5_2:
	ldr	r0, [pc, r0]
	blx	r12
	mov	r0, #1
	strb	r0, [r5, r4]
	pop	{r4, r5, r11, pc}
	.p2align	2
.LCPI5_0:
	.long	mono_inited-(.LPC5_0+8)
.LCPI5_1:
	.long	mono_aot_Xamarin_Forms_Platform_Android_llvm_got-(.LPC5_1+8)
.LCPI5_2:
.Ltmp29:
	.long	mono_aot_file_info(GOT_PREL)-((.LPC5_2+8)-.Ltmp29)
.Lfunc_end5:
	.size	mono_aot_Xamarin_Forms_Platform_Android_init_method_gshared_vtable, .Lfunc_end5-mono_aot_Xamarin_Forms_Platform_Android_init_method_gshared_vtable
	.fnend

	.hidden	Xamarin_Forms_ExportCellAttribute__ctor_System_Type_System_Type
	.globl	Xamarin_Forms_ExportCellAttribute__ctor_System_Type_System_Type
	.p2align	2
	.type	Xamarin_Forms_ExportCellAttribute__ctor_System_Type_System_Type,%function
	.code	32
Xamarin_Forms_ExportCellAttribute__ctor_System_Type_System_Type:
.Lfunc_begin6:
	.fnstart
	.save	{r4, r5, r6, lr}
	push	{r4, r5, r6, lr}
.Ltmp30:
.Ltmp31:
.Ltmp32:
.Ltmp33:
.Ltmp34:
	mov	r6, r0
	ldr	r0, .LCPI6_0
	mov	r4, r2
	mov	r5, r1
.LPC6_0:
	add	r0, pc, r0
	ldr	r0, [r0, #28]
	ldr	r0, [r0]
	cmp	r0, #0
	blne	mono_aot_Xamarin_Forms_Platform_Android_icall_cold_wrapper_265
	mov	r0, r6
	mov	r1, r5
	mov	r2, r4
	bl	p_1_plt_Xamarin_Forms_HandlerAttribute__ctor_System_Type_System_Type_llvm
	pop	{r4, r5, r6, pc}
	.p2align	2
.LCPI6_0:
	.long	mono_aot_Xamarin_Forms_Platform_Android_llvm_got-(.LPC6_0+8)
.Lfunc_end6:
	.size	Xamarin_Forms_ExportCellAttribute__ctor_System_Type_System_Type, .Lfunc_end6-Xamarin_Forms_ExportCellAttribute__ctor_System_Type_System_Type
.Lexception0:
	.fnend

	.hidden	Xamarin_Forms_ExportImageSourceHandlerAttribute__ctor_System_Type_System_Type
	.globl	Xamarin_Forms_ExportImageSourceHandlerAttribute__ctor_System_Type_System_Type
	.p2align	2
	.type	Xamarin_Forms_ExportImageSourceHandlerAttribute__ctor_System_Type_System_Type,%function
	.code	32
Xamarin_Forms_ExportImageSourceHandlerAttribute__ctor_System_Type_System_Type:
.Lfunc_begin7:
	.fnstart
	.save	{r4, r5, r6, lr}
	push	{r4, r5, r6, lr}
.Ltmp35:
.Ltmp36:
.Ltmp37:
.Ltmp38:
.Ltmp39:
	mov	r6, r0
	ldr	r0, .LCPI7_0
	mov	r4, r2
	mov	r5, r1
.LPC7_0:
	add	r0, pc, r0
	ldr	r0, [r0, #28]
	ldr	r0, [r0]
	cmp	r0, #0
	blne	mono_aot_Xamarin_Forms_Platform_Android_icall_cold_wrapper_265
	mov	r0, r6
	mov	r1, r5
	mov	r2, r4
	bl	p_1_plt_Xamarin_Forms_HandlerAttribute__ctor_System_Type_System_Type_llvm
	pop	{r4, r5, r6, pc}
	.p2align	2
.LCPI7_0:
	.long	mono_aot_Xamarin_Forms_Platform_Android_llvm_got-(.LPC7_0+8)
.Lfunc_end7:
	.size	Xamarin_Forms_ExportImageSourceHandlerAttribute__ctor_System_Type_System_Type, .Lfunc_end7-Xamarin_Forms_ExportImageSourceHandlerAttribute__ctor_System_Type_System_Type
.Lexception1:
	.fnend

	.hidden	Xamarin_Forms_ExportRendererAttribute__ctor_System_Type_System_Type
	.globl	Xamarin_Forms_ExportRendererAttribute__ctor_System_Type_System_Type
	.p2align	2
	.type	Xamarin_Forms_ExportRendererAttribute__ctor_System_Type_System_Type,%function
	.code	32
Xamarin_Forms_ExportRendererAttribute__ctor_System_Type_System_Type:
.Lfunc_begin8:
	.fnstart
	.save	{r4, r5, r6, lr}
	push	{r4, r5, r6, lr}
.Ltmp40:
.Ltmp41:
.Ltmp42:
.Ltmp43:
.Ltmp44:
	mov	r6, r0
	ldr	r0, .LCPI8_0
	mov	r4, r2
	mov	r5, r1
.LPC8_0:
	add	r0, pc, r0
	ldr	r0, [r0, #28]
	ldr	r0, [r0]
	cmp	r0, #0
	blne	mono_aot_Xamarin_Forms_Platform_Android_icall_cold_wrapper_265
	mov	r0, r6
	mov	r1, r5
	mov	r2, r4
	mov	r3, #0
	bl	p_2_plt_Xamarin_Forms_ExportRendererAttribute__ctor_System_Type_System_Type_System_Type___llvm
	pop	{r4, r5, r6, pc}
	.p2align	2
.LCPI8_0:
	.long	mono_aot_Xamarin_Forms_Platform_Android_llvm_got-(.LPC8_0+8)
.Lfunc_end8:
	.size	Xamarin_Forms_ExportRendererAttribute__ctor_System_Type_System_Type, .Lfunc_end8-Xamarin_Forms_ExportRendererAttribute__ctor_System_Type_System_Type
.Lexception2:
	.fnend

	.hidden	Xamarin_Forms_Forms_get_IsLollipopOrNewer
	.globl	Xamarin_Forms_Forms_get_IsLollipopOrNewer
	.p2align	2
	.type	Xamarin_Forms_Forms_get_IsLollipopOrNewer,%function
	.code	32
Xamarin_Forms_Forms_get_IsLollipopOrNewer:
.Lfunc_begin9:
	.fnstart
	.save	{r4, r5, r11, lr}
	push	{r4, r5, r11, lr}
.Ltmp45:
.Ltmp46:
.Ltmp47:
.Ltmp48:
.Ltmp49:
	ldr	r4, .LCPI9_1
	ldr	r0, .LCPI9_2
.LPC9_1:
	add	r4, pc, r4
.LPC9_2:
	add	r0, pc, r0
	ldr	r1, [r4, #28]
	ldrb	r5, [r0, #22]
	ldr	r0, [r1]
	cmp	r0, #0
	blne	mono_aot_Xamarin_Forms_Platform_Android_icall_cold_wrapper_265
	cmp	r5, #0
	beq	.LBB9_5
.LBB9_1:
	ldr	r4, [r4, #100]
	cmp	r4, #0
	beq	.LBB9_6
	ldrb	r0, [r4]
	cmp	r0, #0
	bne	.LBB9_4
	mov	r5, #1
	bl	p_5_plt_Xamarin_Forms_Forms_get_SdkInt_llvm
	mov	r1, #0
	cmp	r0, #20
	movwgt	r1, #1
	strb	r5, [r4]
	strb	r1, [r4, #1]
.LBB9_4:
	mov	r0, r4
	bl	p_4_plt_System_Nullable_1_bool_get_Value_llvm
	pop	{r4, r5, r11, pc}
.LBB9_5:
	mov	r0, #22
	bl	mono_aot_Xamarin_Forms_Platform_Android_init_method
	b	.LBB9_1
.Ltmp50:
.LBB9_6:
	ldr	r0, .LCPI9_0
.LPC9_0:
	add	r1, pc, r0
	mov	r0, #225
	bl	p_3_plt__jit_icall_llvm_throw_corlib_exception_abs_trampoline_llvm
	.p2align	2
.LCPI9_0:
	.long	.Ltmp50-(.LPC9_0+8)
.LCPI9_1:
	.long	mono_aot_Xamarin_Forms_Platform_Android_llvm_got-(.LPC9_1+8)
.LCPI9_2:
	.long	mono_inited-(.LPC9_2+8)
.Lfunc_end9:
	.size	Xamarin_Forms_Forms_get_IsLollipopOrNewer, .Lfunc_end9-Xamarin_Forms_Forms_get_IsLollipopOrNewer
.Lexception3:
	.fnend

	.hidden	Xamarin_Forms_Forms_GetColorButtonNormal_Android_Content_Context
	.globl	Xamarin_Forms_Forms_GetColorButtonNormal_Android_Content_Context
	.p2align	2
	.type	Xamarin_Forms_Forms_GetColorButtonNormal_Android_Content_Context,%function
	.code	32
Xamarin_Forms_Forms_GetColorButtonNormal_Android_Content_Context:
.Lfunc_begin10:
	.fnstart
	.save	{r4, r5, r6, r7, r9, lr}
	push	{r4, r5, r6, r7, r9, lr}
.Ltmp51:
.Ltmp52:
.Ltmp53:
.Ltmp54:
.Ltmp55:
.Ltmp56:
.Ltmp57:
	.pad	#32
	sub	sp, sp, #32
.Ltmp58:
	ldr	r7, .LCPI10_0
	mov	r5, r0
	ldr	r0, .LCPI10_1
	mov	r4, r1
.LPC10_0:
	add	r7, pc, r7
.LPC10_1:
	add	r0, pc, r0
	ldr	r1, [r7, #28]
	ldrb	r6, [r0, #28]
	ldr	r0, [r1]
	cmp	r0, #0
	blne	mono_aot_Xamarin_Forms_Platform_Android_icall_cold_wrapper_265
	cmp	r6, #0
	beq	.LBB10_5
.LBB10_1:
	ldr	r6, [r7, #104]
	ldrb	r0, [r6]
	cmp	r0, #0
	beq	.LBB10_3
	ldr	r5, [r7, #108]
	b	.LBB10_4
.LBB10_3:
	mov	r9, sp
	mov	r0, r5
	mov	r1, r9
	bl	Xamarin_Forms_Forms_GetButtonColor_Android_Content_Context
	ldr	r5, [r7, #108]
	mov	r1, r9
	mov	r2, #32
	mov	r0, r5
	bl	memcpy
	mov	r0, #1
	strb	r0, [r6]
.LBB10_4:
	mov	r0, r4
	mov	r1, r5
	mov	r2, #32
	bl	memmove
	add	sp, sp, #32
	pop	{r4, r5, r6, r7, r9, pc}
.LBB10_5:
	mov	r0, #28
	bl	mono_aot_Xamarin_Forms_Platform_Android_init_method
	b	.LBB10_1
	.p2align	2
.LCPI10_0:
	.long	mono_aot_Xamarin_Forms_Platform_Android_llvm_got-(.LPC10_0+8)
.LCPI10_1:
	.long	mono_inited-(.LPC10_1+8)
.Lfunc_end10:
	.size	Xamarin_Forms_Forms_GetColorButtonNormal_Android_Content_Context, .Lfunc_end10-Xamarin_Forms_Forms_GetColorButtonNormal_Android_Content_Context
.Lexception4:
	.fnend

	.hidden	Xamarin_Forms_Forms_Init_Android_Content_Context_Android_OS_Bundle
	.globl	Xamarin_Forms_Forms_Init_Android_Content_Context_Android_OS_Bundle
	.p2align	2
	.type	Xamarin_Forms_Forms_Init_Android_Content_Context_Android_OS_Bundle,%function
	.code	32
Xamarin_Forms_Forms_Init_Android_Content_Context_Android_OS_Bundle:
.Lfunc_begin11:
	.fnstart
	.save	{r4, r5, r6, r7, r11, lr}
	push	{r4, r5, r6, r7, r11, lr}
.Ltmp59:
.Ltmp60:
.Ltmp61:
.Ltmp62:
.Ltmp63:
.Ltmp64:
.Ltmp65:
	.pad	#32
	sub	sp, sp, #32
.Ltmp66:
	ldr	r7, .LCPI11_0
	mov	r4, r0
	ldr	r0, .LCPI11_1
.LPC11_0:
	add	r7, pc, r7
.LPC11_1:
	add	r0, pc, r0
	ldr	r1, [r7, #28]
	ldrb	r5, [r0, #29]
	ldr	r0, [r1]
	cmp	r0, #0
	blne	mono_aot_Xamarin_Forms_Platform_Android_icall_cold_wrapper_265
	cmp	r5, #0
	beq	.LBB11_2
.LBB11_1:
	ldr	r5, [r7, #112]
	mov	r1, #195
	mov	r0, r5
	bl	p_7_plt_Xamarin_Forms_Internals_Profile_FrameBegin_string_int_llvm
	bl	p_8_plt_System_Reflection_Assembly_GetCallingAssembly_llvm
	mov	r6, r0
	mov	r0, r5
	bl	p_9_plt_Xamarin_Forms_Internals_Profile_FrameEnd_string_llvm
	ldr	r5, [r7, #116]
	mov	r1, #199
	mov	r0, r5
	bl	p_7_plt_Xamarin_Forms_Internals_Profile_FrameBegin_string_int_llvm
	mov	r0, #0
	mov	r1, r6
	str	r0, [sp]
	mov	r2, #0
	str	r0, [sp, #4]
	mov	r3, #0
	str	r0, [sp, #8]
	str	r0, [sp, #12]
	str	r0, [sp, #16]
	str	r0, [sp, #20]
	str	r0, [sp, #24]
	str	r0, [sp, #28]
	mov	r0, r4
	bl	p_10_plt_Xamarin_Forms_Forms_SetupInit_Android_Content_Context_System_Reflection_Assembly_System_Nullable_1_Xamarin_Forms_InitializationOptions_llvm
	mov	r0, r5
	bl	p_9_plt_Xamarin_Forms_Internals_Profile_FrameEnd_string_llvm
	add	sp, sp, #32
	pop	{r4, r5, r6, r7, r11, pc}
.LBB11_2:
	mov	r0, #29
	bl	mono_aot_Xamarin_Forms_Platform_Android_init_method
	b	.LBB11_1
	.p2align	2
.LCPI11_0:
	.long	mono_aot_Xamarin_Forms_Platform_Android_llvm_got-(.LPC11_0+8)
.LCPI11_1:
	.long	mono_inited-(.LPC11_1+8)
.Lfunc_end11:
	.size	Xamarin_Forms_Forms_Init_Android_Content_Context_Android_OS_Bundle, .Lfunc_end11-Xamarin_Forms_Forms_Init_Android_Content_Context_Android_OS_Bundle
.Lexception5:
	.fnend

	.hidden	Xamarin_Forms_Forms_SendViewInitialized_Xamarin_Forms_VisualElement_Android_Views_View
	.globl	Xamarin_Forms_Forms_SendViewInitialized_Xamarin_Forms_VisualElement_Android_Views_View
	.p2align	2
	.type	Xamarin_Forms_Forms_SendViewInitialized_Xamarin_Forms_VisualElement_Android_Views_View,%function
	.code	32
Xamarin_Forms_Forms_SendViewInitialized_Xamarin_Forms_VisualElement_Android_Views_View:
.Lfunc_begin12:
	.fnstart
	.save	{r4, r5, r6, r7, r11, lr}
	push	{r4, r5, r6, r7, r11, lr}
.Ltmp67:
.Ltmp68:
.Ltmp69:
.Ltmp70:
.Ltmp71:
.Ltmp72:
.Ltmp73:
	ldr	r7, .LCPI12_0
	mov	r4, r0
	ldr	r0, .LCPI12_1
	mov	r5, r1
.LPC12_0:
	add	r7, pc, r7
.LPC12_1:
	add	r0, pc, r0
	ldr	r1, [r7, #28]
	ldrb	r6, [r0, #36]
	ldr	r0, [r1]
	cmp	r0, #0
	blne	mono_aot_Xamarin_Forms_Platform_Android_icall_cold_wrapper_265
	cmp	r6, #0
	beq	.LBB12_4
.LBB12_1:
	ldr	r0, [r7, #120]
	ldr	r6, [r0]
	cmp	r6, #0
	beq	.LBB12_3
	ldr	r0, [r7, #124]
	mov	r1, #16
	bl	p_11_plt_wrapper_alloc_object_AllocSmall_intptr_intptr_llvm
	mov	r2, r0
	dmb	ish
	mov	r1, r2
	ldr	r0, [r7, #8]
	str	r4, [r1, #12]!
	mov	r3, #1
	lsr	r1, r1, #9
	strb	r3, [r1, r0]
	mov	r1, r2
	dmb	ish
	str	r5, [r1, #8]!
	lsr	r1, r1, #9
	strb	r3, [r1, r0]
	mov	r0, r6
	mov	r1, r4
	ldr	r3, [r6, #12]
	blx	r3
.LBB12_3:
	pop	{r4, r5, r6, r7, r11, pc}
.LBB12_4:
	mov	r0, #36
	bl	mono_aot_Xamarin_Forms_Platform_Android_init_method
	b	.LBB12_1
	.p2align	2
.LCPI12_0:
	.long	mono_aot_Xamarin_Forms_Platform_Android_llvm_got-(.LPC12_0+8)
.LCPI12_1:
	.long	mono_inited-(.LPC12_1+8)
.Lfunc_end12:
	.size	Xamarin_Forms_Forms_SendViewInitialized_Xamarin_Forms_VisualElement_Android_Views_View, .Lfunc_end12-Xamarin_Forms_Forms_SendViewInitialized_Xamarin_Forms_VisualElement_Android_Views_View
.Lexception6:
	.fnend

	.hidden	Xamarin_Forms_Forms_get_Flags
	.globl	Xamarin_Forms_Forms_get_Flags
	.p2align	2
	.type	Xamarin_Forms_Forms_get_Flags,%function
	.code	32
Xamarin_Forms_Forms_get_Flags:
.Lfunc_begin13:
	.fnstart
	.save	{r4, r5, r11, lr}
	push	{r4, r5, r11, lr}
.Ltmp74:
.Ltmp75:
.Ltmp76:
.Ltmp77:
.Ltmp78:
	ldr	r4, .LCPI13_0
	ldr	r0, .LCPI13_1
.LPC13_0:
	add	r4, pc, r4
.LPC13_1:
	add	r0, pc, r0
	ldr	r1, [r4, #28]
	ldrb	r5, [r0, #39]
	ldr	r0, [r1]
	cmp	r0, #0
	blne	mono_aot_Xamarin_Forms_Platform_Android_icall_cold_wrapper_265
	cmp	r5, #0
	beq	.LBB13_2
.LBB13_1:
	ldr	r5, [r4, #128]
	ldr	r0, [r5]
	cmp	r0, #0
	popne	{r4, r5, r11, pc}
	ldr	r0, [r4, #132]
	mov	r1, #0
	bl	p_12_plt_wrapper_alloc_object_AllocVector_intptr_intptr_llvm
	dmb	ish
	str	r0, [r5]
	pop	{r4, r5, r11, pc}
.LBB13_2:
	mov	r0, #39
	bl	mono_aot_Xamarin_Forms_Platform_Android_init_method
	b	.LBB13_1
	.p2align	2
.LCPI13_0:
	.long	mono_aot_Xamarin_Forms_Platform_Android_llvm_got-(.LPC13_0+8)
.LCPI13_1:
	.long	mono_inited-(.LPC13_1+8)
.Lfunc_end13:
	.size	Xamarin_Forms_Forms_get_Flags, .Lfunc_end13-Xamarin_Forms_Forms_get_Flags
.Lexception7:
	.fnend

	.hidden	Xamarin_Forms_Forms_GetAccentColor_Android_Content_Context
	.globl	Xamarin_Forms_Forms_GetAccentColor_Android_Content_Context
	.p2align	2
	.type	Xamarin_Forms_Forms_GetAccentColor_Android_Content_Context,%function
	.code	32
Xamarin_Forms_Forms_GetAccentColor_Android_Content_Context:
.Lfunc_begin14:
	.fnstart
	.save	{r4, r5, r6, r7, r8, lr}
	push	{r4, r5, r6, r7, r8, lr}
.Ltmp130:
.Ltmp131:
.Ltmp132:
.Ltmp133:
.Ltmp134:
.Ltmp135:
.Ltmp136:
	.pad	#120
	sub	sp, sp, #120
.Ltmp137:
	ldr	r7, .LCPI14_7
	mov	r4, r0
	ldr	r0, .LCPI14_8
.LPC14_7:
	add	r7, pc, r7
	str	r1, [sp, #112]
.LPC14_8:
	add	r0, pc, r0
	ldr	r2, [r7, #28]
	ldrb	r5, [r0, #41]
	ldr	r0, [r2]
	cmp	r0, #0
	blne	mono_aot_Xamarin_Forms_Platform_Android_icall_cold_wrapper_265
	cmp	r5, #0
	beq	.LBB14_30
.LBB14_1:
	ldr	r0, [r7, #136]
	mov	r1, #0
	str	r1, [sp, #100]
	str	r1, [sp, #96]
	str	r1, [sp, #92]
	str	r1, [sp, #88]
	str	r1, [sp, #84]
	str	r1, [sp, #80]
	str	r1, [sp, #76]
	str	r1, [sp, #72]
	str	r1, [sp, #108]
	bl	p_13_plt__jit_icall_ves_icall_object_new_specific_llvm
	mov	r5, r0
	bl	p_14_plt_Android_Util_TypedValue__ctor_llvm
	cmp	r4, #0
	str	r5, [sp, #108]
	beq	.LBB14_31
	ldr	r0, [r4]
	ldr	r1, [r0, #180]
.Ltmp79:
	mov	r0, r4
	blx	r1
.Ltmp80:
	ldr	r2, [sp, #108]
	cmp	r0, #0
	beq	.LBB14_33
.Ltmp81:
	movw	r1, #1077
	mov	r3, #1
	movt	r1, #257
	bl	p_15_plt_Android_Content_Res_Resources_Theme_ResolveAttribute_int_Android_Util_TypedValue_bool_llvm
.Ltmp82:
	tst	r0, #255
	beq	.LBB14_12
.Ltmp83:
	bl	Xamarin_Forms_Forms_get_IsLollipopOrNewer
.Ltmp84:
	tst	r0, #255
	beq	.LBB14_12
	ldr	r0, [sp, #108]
	cmp	r0, #0
	beq	.LBB14_39
.Ltmp85:
	bl	p_18_plt_Android_Util_TypedValue_get_Data_llvm
	mov	r1, r0
.Ltmp86:
.Ltmp87:
	add	r0, sp, #72
	bl	p_19_plt_Xamarin_Forms_Color_FromUint_uint_llvm
.Ltmp88:
	mov	r0, #0
	mov	r4, #4
	str	r0, [sp, #116]
	b	.LBB14_49
.LBB14_12:
	ldr	r0, [r4]
	ldr	r1, [r0, #180]
.Ltmp91:
	mov	r0, r4
	blx	r1
	mov	r5, r0
.Ltmp92:
	ldr	r0, [r4]
	ldr	r1, [r0, #184]
.Ltmp93:
	mov	r0, r4
	blx	r1
	mov	r6, r0
.Ltmp94:
	ldr	r0, [r4]
	ldr	r1, [r0, #188]
.Ltmp95:
	mov	r0, r4
	blx	r1
	mov	r3, r0
.Ltmp96:
	cmp	r6, #0
	beq	.LBB14_35
	ldr	r0, [r6]
	ldr	r1, [r7, #140]
	ldr	r2, [r7, #144]
	ldr	r4, [r0, #168]
.Ltmp97:
	mov	r0, r6
	blx	r4
	mov	r1, r0
.Ltmp98:
	ldr	r2, [sp, #108]
	cmp	r5, #0
	beq	.LBB14_37
.Ltmp99:
	mov	r0, r5
	mov	r3, #1
	bl	p_15_plt_Android_Content_Res_Resources_Theme_ResolveAttribute_int_Android_Util_TypedValue_bool_llvm
.Ltmp100:
	tst	r0, #255
	beq	.LBB14_24
	ldr	r0, [sp, #108]
	cmp	r0, #0
	beq	.LBB14_41
.Ltmp101:
	bl	p_18_plt_Android_Util_TypedValue_get_Data_llvm
	mov	r1, r0
.Ltmp102:
.Ltmp103:
	add	r0, sp, #72
	bl	p_19_plt_Xamarin_Forms_Color_FromUint_uint_llvm
.Ltmp104:
	mov	r0, #0
	mov	r4, #3
	str	r0, [sp, #116]
	b	.LBB14_49
.LBB14_24:
.Ltmp107:
	bl	p_5_plt_Xamarin_Forms_Forms_get_SdkInt_llvm
.Ltmp108:
	cmp	r0, #10
	ble	.LBB14_28
	ldr	r0, [r7, #148]
.Ltmp111:
	add	r1, sp, #72
	bl	p_16_plt_Xamarin_Forms_Color_FromHex_string_llvm
.Ltmp112:
	mov	r0, #0
	mov	r4, #1
	str	r0, [sp, #116]
	b	.LBB14_49
.LBB14_28:
	ldr	r0, [r7, #152]
.Ltmp109:
	add	r1, sp, #72
	bl	p_16_plt_Xamarin_Forms_Color_FromHex_string_llvm
.Ltmp110:
	mov	r0, #0
	mov	r4, #2
	str	r0, [sp, #116]
	b	.LBB14_49
.LBB14_30:
	mov	r0, #41
	bl	mono_aot_Xamarin_Forms_Platform_Android_init_method
	b	.LBB14_1
.Ltmp138:
.LBB14_31:
	ldr	r0, .LCPI14_5
.Ltmp119:
.LPC14_5:
	add	r1, pc, r0
	mov	r0, #225
	bl	p_3_plt__jit_icall_llvm_throw_corlib_exception_abs_trampoline_llvm
.Ltmp120:
.Ltmp139:
.LBB14_33:
	ldr	r0, .LCPI14_4
.Ltmp117:
.LPC14_4:
	add	r1, pc, r0
	mov	r0, #225
	bl	p_3_plt__jit_icall_llvm_throw_corlib_exception_abs_trampoline_llvm
.Ltmp118:
.Ltmp140:
.LBB14_35:
	ldr	r0, .LCPI14_3
.Ltmp115:
.LPC14_3:
	add	r1, pc, r0
	mov	r0, #225
	bl	p_3_plt__jit_icall_llvm_throw_corlib_exception_abs_trampoline_llvm
.Ltmp116:
.Ltmp141:
.LBB14_37:
	ldr	r0, .LCPI14_2
.Ltmp113:
.LPC14_2:
	add	r1, pc, r0
	mov	r0, #225
	bl	p_3_plt__jit_icall_llvm_throw_corlib_exception_abs_trampoline_llvm
.Ltmp114:
.Ltmp142:
.LBB14_39:
	ldr	r0, .LCPI14_0
.Ltmp89:
.LPC14_0:
	add	r1, pc, r0
	mov	r0, #225
	bl	p_3_plt__jit_icall_llvm_throw_corlib_exception_abs_trampoline_llvm
.Ltmp90:
.Ltmp143:
.LBB14_41:
	ldr	r0, .LCPI14_1
.Ltmp105:
.LPC14_1:
	add	r1, pc, r0
	mov	r0, #225
	bl	p_3_plt__jit_icall_llvm_throw_corlib_exception_abs_trampoline_llvm
.Ltmp106:
.LBB14_43:
	ldr	r0, [sp, #116]
	cmp	r0, #0
	beq	.LBB14_57
.Ltmp128:
	bl	p_17_plt__jit_icall_ves_icall_thread_finish_async_abort_llvm
.Ltmp129:
	b	.LBB14_57
.LBB14_45:
	ldr	r0, [sp, #116]
	cmp	r0, #0
	beq	.LBB14_57
.Ltmp126:
	bl	p_17_plt__jit_icall_ves_icall_thread_finish_async_abort_llvm
.Ltmp127:
	b	.LBB14_57
.LBB14_47:
	ldr	r0, [sp, #116]
	cmp	r0, #0
	beq	.LBB14_57
.Ltmp124:
	bl	p_17_plt__jit_icall_ves_icall_thread_finish_async_abort_llvm
.Ltmp125:
	b	.LBB14_57
.LBB14_49:
	ldr	r0, [sp, #108]
	cmp	r0, #0
	beq	.LBB14_52
	ldr	r0, [sp, #108]
	cmp	r0, #0
	beq	.LBB14_59
	ldr	r1, [r0]
	ldr	r2, [r7, #156]
	ldr	r1, [r1, #-20]
	str	r2, [sp, #36]
	ldr	r8, [sp, #36]
	blx	r1
.LBB14_52:
	and	r0, r4, #7
	sub	r0, r0, #1
	cmp	r0, #3
	bhi	.LBB14_58
	adr	r1, .LJTI14_0
	ldr	r0, [r1, r0, lsl #2]
	add	pc, r1, r0
	.p2align	2
.LJTI14_0:
	.long	.LBB14_43-.LJTI14_0
	.long	.LBB14_45-.LJTI14_0
	.long	.LBB14_47-.LJTI14_0
	.long	.LBB14_55-.LJTI14_0
.LBB14_55:
	ldr	r0, [sp, #116]
	cmp	r0, #0
	beq	.LBB14_57
.Ltmp122:
	bl	p_17_plt__jit_icall_ves_icall_thread_finish_async_abort_llvm
.Ltmp123:
.LBB14_57:
	add	r0, sp, #72
	mov	r1, sp
	mov	r2, r1
	ldm	r0!, {r3, r5, r6, r7}
	stm	r2!, {r3, r5, r6, r7}
	ldm	r0, {r3, r5, r6, r7}
	stm	r2, {r3, r5, r6, r7}
	mov	r2, #32
	ldr	r0, [sp, #112]
	bl	memcpy
	ldrb	r0, [sp, #40]
	ldrb	r0, [sp, #41]
	ldrb	r0, [sp, #42]
	ldrb	r0, [sp, #43]
	ldrb	r0, [sp, #44]
	ldrb	r0, [sp, #45]
	ldrb	r0, [sp, #46]
	ldrb	r0, [sp, #47]
	ldrb	r0, [sp, #48]
	ldrb	r0, [sp, #49]
	ldrb	r0, [sp, #50]
	ldrb	r0, [sp, #51]
	ldrb	r0, [sp, #52]
	ldrb	r0, [sp, #53]
	ldrb	r0, [sp, #54]
	ldrb	r0, [sp, #55]
	ldrb	r0, [sp, #56]
	ldrb	r0, [sp, #57]
	ldrb	r0, [sp, #58]
	ldrb	r0, [sp, #59]
	ldrb	r0, [sp, #60]
	ldrb	r0, [sp, #61]
	ldrb	r0, [sp, #62]
	ldrb	r0, [sp, #63]
	ldrb	r0, [sp, #64]
	ldrb	r0, [sp, #65]
	ldrb	r0, [sp, #66]
	ldrb	r0, [sp, #67]
	ldrb	r0, [sp, #68]
	ldrb	r0, [sp, #69]
	ldrb	r0, [sp, #70]
	ldrb	r0, [sp, #71]
	add	sp, sp, #120
	pop	{r4, r5, r6, r7, r8, pc}
.LBB14_58:
	bl	p_21_plt__jit_icall_llvm_resume_unwind_trampoline_llvm
.Ltmp144:
.LBB14_59:
	ldr	r0, .LCPI14_6
.LPC14_6:
	add	r1, pc, r0
	mov	r0, #225
	bl	p_3_plt__jit_icall_llvm_throw_corlib_exception_abs_trampoline_llvm
.LBB14_60:
.Ltmp121:
	mov	r4, #0
	b	.LBB14_49
	.p2align	2
.LCPI14_0:
	.long	.Ltmp142-(.LPC14_0+8)
.LCPI14_1:
	.long	.Ltmp143-(.LPC14_1+8)
.LCPI14_2:
	.long	.Ltmp141-(.LPC14_2+8)
.LCPI14_3:
	.long	.Ltmp140-(.LPC14_3+8)
.LCPI14_4:
	.long	.Ltmp139-(.LPC14_4+8)
.LCPI14_5:
	.long	.Ltmp138-(.LPC14_5+8)
.LCPI14_6:
	.long	.Ltmp144-(.LPC14_6+8)
.LCPI14_7:
	.long	mono_aot_Xamarin_Forms_Platform_Android_llvm_got-(.LPC14_7+8)
.LCPI14_8:
	.long	mono_inited-(.LPC14_8+8)
.Lfunc_end14:
	.size	Xamarin_Forms_Forms_GetAccentColor_Android_Content_Context, .Lfunc_end14-Xamarin_Forms_Forms_GetAccentColor_Android_Content_Context
.Lexception8:
	.fnend

	.hidden	Xamarin_Forms_Forms_GetButtonColor_Android_Content_Context
	.globl	Xamarin_Forms_Forms_GetButtonColor_Android_Content_Context
	.p2align	2
	.type	Xamarin_Forms_Forms_GetButtonColor_Android_Content_Context,%function
	.code	32
Xamarin_Forms_Forms_GetButtonColor_Android_Content_Context:
.Lfunc_begin15:
	.fnstart
	.save	{r4, r5, r6, r7, r8, r9, r10, r11, lr}
	push	{r4, r5, r6, r7, r8, r9, r10, r11, lr}
.Ltmp186:
.Ltmp187:
.Ltmp188:
.Ltmp189:
.Ltmp190:
.Ltmp191:
.Ltmp192:
.Ltmp193:
.Ltmp194:
.Ltmp195:
	.pad	#228
	sub	sp, sp, #228
.Ltmp196:
	ldr	r5, .LCPI15_7
	mov	r7, r0
	ldr	r0, .LCPI15_8
.LPC15_7:
	add	r5, pc, r5
	str	r1, [sp, #188]
.LPC15_8:
	add	r0, pc, r0
	ldr	r2, [r5, #28]
	ldrb	r4, [r0, #42]
	ldr	r0, [r2]
	cmp	r0, #0
	blne	mono_aot_Xamarin_Forms_Platform_Android_icall_cold_wrapper_265
	cmp	r4, #0
	beq	.LBB15_27
.LBB15_1:
	ldr	r6, [r5, #160]
	mov	r0, #0
	str	r0, [sp, #180]
	str	r0, [sp, #176]
	str	r0, [sp, #172]
	str	r0, [sp, #168]
	str	r0, [sp, #164]
	str	r0, [sp, #160]
	str	r0, [sp, #156]
	str	r0, [sp, #152]
	str	r0, [sp, #184]
	ldrb	r0, [r6, #25]
	cmp	r0, #0
	beq	.LBB15_28
.LBB15_2:
	ldr	r4, [r5, #164]
	add	r0, sp, #152
	mov	r2, #32
	str	r7, [sp, #76]
	mov	r1, r4
	bl	memcpy
	ldrb	r0, [r6, #25]
	cmp	r0, #0
	beq	.LBB15_29
.LBB15_3:
	ldr	r0, [r4]
	str	r0, [sp, #72]
	ldr	r0, [r4, #4]
	str	r0, [sp, #68]
	ldr	r0, [r4, #8]
	str	r0, [sp, #64]
	ldr	r0, [r4, #12]
	str	r0, [sp, #60]
	ldr	r0, [r4, #24]
	str	r0, [sp, #56]
	add	r0, sp, #196
	ldr	r9, [r4, #16]
	ldr	r10, [r4, #20]
	ldr	r11, [r4, #28]
	bl	p_22_plt_Xamarin_Forms_Color_get_Default_llvm
	add	r7, sp, #196
	add	r12, sp, #16
	ldm	r7, {r0, r1, r2, r3, r6, r7}
	ldr	r4, [sp, #220]
	ldr	r5, [sp, #224]
	str	r4, [sp, #40]
	str	r6, [sp, #32]
	str	r7, [sp, #36]
	str	r5, [sp, #44]
	stm	sp, {r9, r10}
	ldr	r7, [sp, #56]
	str	r7, [sp, #8]
	str	r11, [sp, #12]
	stm	r12, {r0, r1, r2, r3}
	ldr	r0, [sp, #72]
	ldr	r1, [sp, #68]
	ldr	r2, [sp, #64]
	ldr	r3, [sp, #60]
	bl	p_23_plt_Xamarin_Forms_Color_op_Equality_Xamarin_Forms_Color_Xamarin_Forms_Color_llvm
	ldr	r5, .LCPI15_9
	tst	r0, #255
	ldr	r7, [sp, #76]
.LPC15_9:
	add	r5, pc, r5
	beq	.LBB15_51
	ldr	r0, [r5, #136]
	bl	p_13_plt__jit_icall_ves_icall_object_new_specific_llvm
	mov	r4, r0
	bl	p_14_plt_Android_Util_TypedValue__ctor_llvm
	cmp	r7, #0
	str	r4, [sp, #184]
	beq	.LBB15_30
	ldr	r0, [r7]
	ldr	r1, [r0, #180]
.Ltmp145:
	mov	r0, r7
	blx	r1
.Ltmp146:
	ldr	r2, [sp, #184]
	cmp	r0, #0
	beq	.LBB15_32
.Ltmp147:
	movw	r1, #1067
	mov	r3, #1
	movt	r1, #257
	bl	p_15_plt_Android_Content_Res_Resources_Theme_ResolveAttribute_int_Android_Util_TypedValue_bool_llvm
.Ltmp148:
	tst	r0, #255
	beq	.LBB15_15
.Ltmp149:
	bl	Xamarin_Forms_Forms_get_IsLollipopOrNewer
.Ltmp150:
	tst	r0, #255
	beq	.LBB15_15
	ldr	r0, [sp, #184]
	cmp	r0, #0
	beq	.LBB15_38
.Ltmp151:
	bl	p_18_plt_Android_Util_TypedValue_get_Data_llvm
	mov	r1, r0
.Ltmp152:
.Ltmp153:
	add	r0, sp, #152
	bl	p_19_plt_Xamarin_Forms_Color_FromUint_uint_llvm
.Ltmp154:
	mov	r0, #0
	mov	r4, #2
	str	r0, [sp, #192]
	b	.LBB15_44
.LBB15_15:
	ldr	r0, [r7]
	ldr	r1, [r0, #180]
.Ltmp157:
	mov	r0, r7
	blx	r1
	mov	r6, r0
.Ltmp158:
	ldr	r0, [r7]
	ldr	r1, [r0, #184]
.Ltmp159:
	mov	r0, r7
	blx	r1
	mov	r4, r0
.Ltmp160:
	ldr	r0, [r7]
	ldr	r1, [r0, #188]
.Ltmp161:
	mov	r0, r7
	blx	r1
	mov	r3, r0
.Ltmp162:
	cmp	r4, #0
	beq	.LBB15_34
	ldr	r0, [r4]
	ldr	r1, [r5, #168]
	ldr	r2, [r5, #144]
	ldr	r7, [r0, #168]
.Ltmp163:
	mov	r0, r4
	blx	r7
	mov	r1, r0
.Ltmp164:
	ldr	r2, [sp, #184]
	cmp	r6, #0
	beq	.LBB15_36
.Ltmp165:
	mov	r0, r6
	mov	r3, #1
	bl	p_15_plt_Android_Content_Res_Resources_Theme_ResolveAttribute_int_Android_Util_TypedValue_bool_llvm
.Ltmp166:
	tst	r0, #255
	beq	.LBB15_26
	ldr	r0, [sp, #184]
	cmp	r0, #0
	beq	.LBB15_40
.Ltmp167:
	bl	p_18_plt_Android_Util_TypedValue_get_Data_llvm
	mov	r1, r0
.Ltmp168:
.Ltmp169:
	add	r0, sp, #152
	bl	p_19_plt_Xamarin_Forms_Color_FromUint_uint_llvm
.Ltmp170:
.LBB15_26:
	mov	r0, #0
	mov	r4, #1
	str	r0, [sp, #192]
	b	.LBB15_44
.LBB15_27:
	mov	r0, #42
	bl	mono_aot_Xamarin_Forms_Platform_Android_init_method
	b	.LBB15_1
.LBB15_28:
	mov	r0, r6
	bl	p_24_plt__jit_icall_mono_generic_class_init_llvm
	b	.LBB15_2
.LBB15_29:
	mov	r0, r6
	bl	p_24_plt__jit_icall_mono_generic_class_init_llvm
	b	.LBB15_3
.Ltmp197:
.LBB15_30:
	ldr	r0, .LCPI15_5
.Ltmp179:
.LPC15_5:
	add	r1, pc, r0
	mov	r0, #225
	bl	p_3_plt__jit_icall_llvm_throw_corlib_exception_abs_trampoline_llvm
.Ltmp180:
.Ltmp198:
.LBB15_32:
	ldr	r0, .LCPI15_4
.Ltmp177:
.LPC15_4:
	add	r1, pc, r0
	mov	r0, #225
	bl	p_3_plt__jit_icall_llvm_throw_corlib_exception_abs_trampoline_llvm
.Ltmp178:
.Ltmp199:
.LBB15_34:
	ldr	r0, .LCPI15_3
.Ltmp175:
.LPC15_3:
	add	r1, pc, r0
	mov	r0, #225
	bl	p_3_plt__jit_icall_llvm_throw_corlib_exception_abs_trampoline_llvm
.Ltmp176:
.Ltmp200:
.LBB15_36:
	ldr	r0, .LCPI15_2
.Ltmp173:
.LPC15_2:
	add	r1, pc, r0
	mov	r0, #225
	bl	p_3_plt__jit_icall_llvm_throw_corlib_exception_abs_trampoline_llvm
.Ltmp174:
.Ltmp201:
.LBB15_38:
	ldr	r0, .LCPI15_0
.Ltmp155:
.LPC15_0:
	add	r1, pc, r0
	mov	r0, #225
	bl	p_3_plt__jit_icall_llvm_throw_corlib_exception_abs_trampoline_llvm
.Ltmp156:
.Ltmp202:
.LBB15_40:
	ldr	r0, .LCPI15_1
.Ltmp171:
.LPC15_1:
	add	r1, pc, r0
	mov	r0, #225
	bl	p_3_plt__jit_icall_llvm_throw_corlib_exception_abs_trampoline_llvm
.Ltmp172:
.LBB15_42:
	ldr	r0, [sp, #192]
	cmp	r0, #0
	beq	.LBB15_51
.Ltmp184:
	bl	p_17_plt__jit_icall_ves_icall_thread_finish_async_abort_llvm
.Ltmp185:
	b	.LBB15_51
.LBB15_44:
	ldr	r0, [sp, #184]
	cmp	r0, #0
	beq	.LBB15_47
	ldr	r0, [sp, #184]
	cmp	r0, #0
	beq	.LBB15_53
	ldr	r1, [r0]
	ldr	r2, [r5, #156]
	ldr	r1, [r1, #-20]
	str	r2, [sp, #116]
	ldr	r8, [sp, #116]
	blx	r1
.LBB15_47:
	and	r0, r4, #3
	cmp	r0, #1
	beq	.LBB15_42
	cmp	r0, #2
	bne	.LBB15_52
	ldr	r0, [sp, #192]
	cmp	r0, #0
	beq	.LBB15_51
.Ltmp182:
	bl	p_17_plt__jit_icall_ves_icall_thread_finish_async_abort_llvm
.Ltmp183:
.LBB15_51:
	add	r2, sp, #152
	add	r1, sp, #80
	mov	r5, r2
	mov	r0, r1
	ldm	r5!, {r2, r3, r6, r7}
	stm	r0!, {r2, r3, r6, r7}
	ldm	r5, {r2, r3, r6, r7}
	stm	r0, {r2, r3, r6, r7}
	mov	r2, #32
	ldr	r0, [sp, #188]
	bl	memcpy
	ldrb	r0, [sp, #120]
	ldrb	r0, [sp, #121]
	ldrb	r0, [sp, #122]
	ldrb	r0, [sp, #123]
	ldrb	r0, [sp, #124]
	ldrb	r0, [sp, #125]
	ldrb	r0, [sp, #126]
	ldrb	r0, [sp, #127]
	ldrb	r0, [sp, #128]
	ldrb	r0, [sp, #129]
	ldrb	r0, [sp, #130]
	ldrb	r0, [sp, #131]
	ldrb	r0, [sp, #132]
	ldrb	r0, [sp, #133]
	ldrb	r0, [sp, #134]
	ldrb	r0, [sp, #135]
	ldrb	r0, [sp, #136]
	ldrb	r0, [sp, #137]
	ldrb	r0, [sp, #138]
	ldrb	r0, [sp, #139]
	ldrb	r0, [sp, #140]
	ldrb	r0, [sp, #141]
	ldrb	r0, [sp, #142]
	ldrb	r0, [sp, #143]
	ldrb	r0, [sp, #144]
	ldrb	r0, [sp, #145]
	ldrb	r0, [sp, #146]
	ldrb	r0, [sp, #147]
	ldrb	r0, [sp, #148]
	ldrb	r0, [sp, #149]
	ldrb	r0, [sp, #150]
	ldrb	r0, [sp, #151]
	add	sp, sp, #228
	pop	{r4, r5, r6, r7, r8, r9, r10, r11, pc}
.LBB15_52:
	bl	p_21_plt__jit_icall_llvm_resume_unwind_trampoline_llvm
.Ltmp203:
.LBB15_53:
	ldr	r0, .LCPI15_6
.LPC15_6:
	add	r1, pc, r0
	mov	r0, #225
	bl	p_3_plt__jit_icall_llvm_throw_corlib_exception_abs_trampoline_llvm
.LBB15_54:
.Ltmp181:
	mov	r4, #0
	b	.LBB15_44
	.p2align	2
.LCPI15_0:
	.long	.Ltmp201-(.LPC15_0+8)
.LCPI15_1:
	.long	.Ltmp202-(.LPC15_1+8)
.LCPI15_2:
	.long	.Ltmp200-(.LPC15_2+8)
.LCPI15_3:
	.long	.Ltmp199-(.LPC15_3+8)
.LCPI15_4:
	.long	.Ltmp198-(.LPC15_4+8)
.LCPI15_5:
	.long	.Ltmp197-(.LPC15_5+8)
.LCPI15_6:
	.long	.Ltmp203-(.LPC15_6+8)
.LCPI15_7:
	.long	mono_aot_Xamarin_Forms_Platform_Android_llvm_got-(.LPC15_7+8)
.LCPI15_8:
	.long	mono_inited-(.LPC15_8+8)
.LCPI15_9:
	.long	mono_aot_Xamarin_Forms_Platform_Android_llvm_got-(.LPC15_9+8)
.Lfunc_end15:
	.size	Xamarin_Forms_Forms_GetButtonColor_Android_Content_Context, .Lfunc_end15-Xamarin_Forms_Forms_GetButtonColor_Android_Content_Context
.Lexception9:
	.fnend

	.hidden	Xamarin_Forms_Forms__cctor
	.globl	Xamarin_Forms_Forms__cctor
	.p2align	2
	.type	Xamarin_Forms_Forms__cctor,%function
	.code	32
Xamarin_Forms_Forms__cctor:
.Lfunc_begin16:
	.fnstart
	.save	{r4, r5, r11, lr}
	push	{r4, r5, r11, lr}
.Ltmp204:
.Ltmp205:
.Ltmp206:
.Ltmp207:
.Ltmp208:
	.pad	#32
	sub	sp, sp, #32
.Ltmp209:
	ldr	r5, .LCPI16_0
	ldr	r0, .LCPI16_1
.LPC16_0:
	add	r5, pc, r5
.LPC16_1:
	add	r0, pc, r0
	ldr	r1, [r5, #28]
	ldrb	r4, [r0, #43]
	ldr	r0, [r1]
	cmp	r0, #0
	blne	mono_aot_Xamarin_Forms_Platform_Android_icall_cold_wrapper_265
	cmp	r4, #0
	beq	.LBB16_2
.LBB16_1:
	mov	r4, sp
	mov	r0, r4
	bl	p_22_plt_Xamarin_Forms_Color_get_Default_llvm
	ldr	r0, [r5, #108]
	mov	r1, r4
	mov	r2, #32
	bl	memcpy
	add	sp, sp, #32
	pop	{r4, r5, r11, pc}
.LBB16_2:
	mov	r0, #43
	bl	mono_aot_Xamarin_Forms_Platform_Android_init_method
	b	.LBB16_1
	.p2align	2
.LCPI16_0:
	.long	mono_aot_Xamarin_Forms_Platform_Android_llvm_got-(.LPC16_0+8)
.LCPI16_1:
	.long	mono_inited-(.LPC16_1+8)
.Lfunc_end16:
	.size	Xamarin_Forms_Forms__cctor, .Lfunc_end16-Xamarin_Forms_Forms__cctor
.Lexception10:
	.fnend

	.hidden	Xamarin_Forms_Forms_AndroidDeviceInfo__ctor_Android_Content_Context
	.globl	Xamarin_Forms_Forms_AndroidDeviceInfo__ctor_Android_Content_Context
	.p2align	2
	.type	Xamarin_Forms_Forms_AndroidDeviceInfo__ctor_Android_Content_Context,%function
	.code	32
Xamarin_Forms_Forms_AndroidDeviceInfo__ctor_Android_Content_Context:
.Lfunc_begin17:
	.fnstart
	.save	{r4, r5, r6, r7, r8, r9, r10, lr}
	push	{r4, r5, r6, r7, r8, r9, r10, lr}
.Ltmp210:
.Ltmp211:
.Ltmp212:
.Ltmp213:
.Ltmp214:
.Ltmp215:
.Ltmp216:
.Ltmp217:
.Ltmp218:
	.pad	#8
	sub	sp, sp, #8
.Ltmp219:
	ldr	r6, .LCPI17_5
	mov	r4, r0
	ldr	r0, .LCPI17_6
	mov	r5, r1
.LPC17_5:
	add	r6, pc, r6
.LPC17_6:
	add	r0, pc, r0
	ldr	r1, [r6, #28]
	ldrb	r7, [r0, #45]
	ldr	r0, [r1]
	cmp	r0, #0
	blne	mono_aot_Xamarin_Forms_Platform_Android_icall_cold_wrapper_265
	cmp	r7, #0
	beq	.LBB17_17
.LBB17_1:
	mov	r0, r4
	mov	r1, r5
	bl	p_25_plt_Xamarin_Forms_Forms_AndroidDeviceInfo_CheckOrientationChanged_Android_Content_Context_llvm
	cmp	r5, #0
	beq	.LBB17_16
	ldr	r0, [r5]
	ldr	r7, [r6, #192]
	ldr	r1, [r0, #20]
	cmp	r1, r7
	blo	.LBB17_4
	ldr	r1, [r0, #16]
	and	r2, r7, #7
	mov	r3, #1
	ldrb	r1, [r1, r7, asr #3]
	tst	r1, r3, lsl r2
	bne	.LBB17_7
.LBB17_4:
	ldr	r0, [r0]
	ldr	r1, [r6, #196]
	cmp	r0, r1
	bne	.LBB17_16
	ldr	r0, [r5, #16]
	cmp	r0, #0
	beq	.LBB17_16
	mov	r0, r5
	bl	p_26_plt_wrapper_proxy_isinst_object___proxy_isinst_wrapper_Xamarin_Forms_Platform_Android_IDeviceInfoProvider_object_llvm
	cmp	r0, #0
	beq	.LBB17_16
.LBB17_7:
	cmp	r4, #0
	beq	.LBB17_18
	ldr	r9, [r6, #8]
	mov	r0, r4
	dmb	ish
	str	r5, [r0, #20]!
	mov	r10, #1
	strb	r10, [r9, r0, lsr #9]
	ldr	r5, [r0]
	cmp	r5, #0
	beq	.LBB17_14
	ldr	r0, [r5]
	ldr	r1, [r0, #20]
	cmp	r1, r7
	blo	.LBB17_11
	ldr	r1, [r0, #16]
	and	r2, r7, #7
	mov	r3, #1
	ldrb	r1, [r1, r7, asr #3]
	tst	r1, r3, lsl r2
	bne	.LBB17_14
.LBB17_11:
	ldr	r0, [r0]
	ldr	r1, [r6, #196]
	cmp	r0, r1
	bne	.LBB17_20
	ldr	r0, [r5, #16]
	cmp	r0, #0
	beq	.LBB17_21
	mov	r0, r5
	bl	p_26_plt_wrapper_proxy_isinst_object___proxy_isinst_wrapper_Xamarin_Forms_Platform_Android_IDeviceInfoProvider_object_llvm
	cmp	r0, #0
	beq	.LBB17_22
.LBB17_14:
	ldr	r0, [r6, #172]
	mov	r1, #64
	bl	p_11_plt_wrapper_alloc_object_AllocSmall_intptr_intptr_llvm
	add	r3, r6, #176
	mov	r7, r0
	dmb	ish
	mov	r1, r7
	ldm	r3, {r0, r2, r3}
	cmp	r5, #0
	str	r4, [r1, #16]!
	lsr	r1, r1, #9
	strb	r10, [r1, r9]
	mov	r1, #0
	str	r0, [r7, #20]
	str	r2, [r7, #32]
	ldr	r0, [r3, #20]
	str	r0, [r7, #12]
	ldr	r0, [r3, #16]
	strb	r1, [r7, #56]
	str	r0, [r7, #8]
	beq	.LBB17_19
	ldr	r0, [r5]
	mov	r1, r7
	ldr	r2, [r0, #-56]
	ldr	r0, [r6, #188]
	str	r0, [sp, #4]
	mov	r0, r5
	ldr	r8, [sp, #4]
	blx	r2
.LBB17_16:
	add	sp, sp, #8
	pop	{r4, r5, r6, r7, r8, r9, r10, pc}
.LBB17_17:
	mov	r0, #45
	bl	mono_aot_Xamarin_Forms_Platform_Android_init_method
	b	.LBB17_1
.Ltmp220:
.LBB17_18:
	ldr	r0, .LCPI17_4
.LPC17_4:
	add	r1, pc, r0
	mov	r0, #225
	bl	p_3_plt__jit_icall_llvm_throw_corlib_exception_abs_trampoline_llvm
.Ltmp221:
.LBB17_19:
	ldr	r0, .LCPI17_3
.LPC17_3:
	add	r1, pc, r0
	mov	r0, #225
	bl	p_3_plt__jit_icall_llvm_throw_corlib_exception_abs_trampoline_llvm
.Ltmp222:
.LBB17_20:
	ldr	r0, .LCPI17_0
.LPC17_0:
	add	r1, pc, r0
	mov	r0, #203
	bl	p_3_plt__jit_icall_llvm_throw_corlib_exception_abs_trampoline_llvm
.Ltmp223:
.LBB17_21:
	ldr	r0, .LCPI17_2
.LPC17_2:
	add	r1, pc, r0
	mov	r0, #203
	bl	p_3_plt__jit_icall_llvm_throw_corlib_exception_abs_trampoline_llvm
.Ltmp224:
.LBB17_22:
	ldr	r0, .LCPI17_1
.LPC17_1:
	add	r1, pc, r0
	mov	r0, #203
	bl	p_3_plt__jit_icall_llvm_throw_corlib_exception_abs_trampoline_llvm
	.p2align	2
.LCPI17_0:
	.long	.Ltmp222-(.LPC17_0+8)
.LCPI17_1:
	.long	.Ltmp224-(.LPC17_1+8)
.LCPI17_2:
	.long	.Ltmp223-(.LPC17_2+8)
.LCPI17_3:
	.long	.Ltmp221-(.LPC17_3+8)
.LCPI17_4:
	.long	.Ltmp220-(.LPC17_4+8)
.LCPI17_5:
	.long	mono_aot_Xamarin_Forms_Platform_Android_llvm_got-(.LPC17_5+8)
.LCPI17_6:
	.long	mono_inited-(.LPC17_6+8)
.Lfunc_end17:
	.size	Xamarin_Forms_Forms_AndroidDeviceInfo__ctor_Android_Content_Context, .Lfunc_end17-Xamarin_Forms_Forms_AndroidDeviceInfo__ctor_Android_Content_Context
.Lexception11:
	.fnend

	.hidden	Xamarin_Forms_Forms_AndroidDeviceInfo_get_ScaledScreenSize
	.globl	Xamarin_Forms_Forms_AndroidDeviceInfo_get_ScaledScreenSize
	.p2align	2
	.type	Xamarin_Forms_Forms_AndroidDeviceInfo_get_ScaledScreenSize,%function
	.code	32
Xamarin_Forms_Forms_AndroidDeviceInfo_get_ScaledScreenSize:
.Lfunc_begin18:
	.fnstart
	cmp	r0, #0
	ldrne	r12, [r0, #32]
	ldrne	r3, [r0, #36]
	ldrne	r2, [r0, #40]
	ldrne	r0, [r0, #44]
	strne	r0, [r1, #12]
	strne	r2, [r1, #8]
	strne	r3, [r1, #4]
	strne	r12, [r1]
	bxne	lr
.Ltmp225:
.LBB18_1:
	.save	{r11, lr}
	push	{r11, lr}
.Ltmp226:
.Ltmp227:
.Ltmp228:
	ldr	r0, .LCPI18_0
.LPC18_0:
	add	r1, pc, r0
	mov	r0, #225
	bl	p_3_plt__jit_icall_llvm_throw_corlib_exception_abs_trampoline_llvm
	.p2align	2
.LCPI18_0:
	.long	.Ltmp225-(.LPC18_0+8)
.Lfunc_end18:
	.size	Xamarin_Forms_Forms_AndroidDeviceInfo_get_ScaledScreenSize, .Lfunc_end18-Xamarin_Forms_Forms_AndroidDeviceInfo_get_ScaledScreenSize
.Lexception12:
	.fnend

	.hidden	Xamarin_Forms_Forms_AndroidExpressionSearch_FindObjects_T_REF_System_Linq_Expressions_Expression
	.globl	Xamarin_Forms_Forms_AndroidExpressionSearch_FindObjects_T_REF_System_Linq_Expressions_Expression
	.p2align	2
	.type	Xamarin_Forms_Forms_AndroidExpressionSearch_FindObjects_T_REF_System_Linq_Expressions_Expression,%function
	.code	32
Xamarin_Forms_Forms_AndroidExpressionSearch_FindObjects_T_REF_System_Linq_Expressions_Expression:
.Lfunc_begin19:
	.fnstart
	.save	{r4, r5, r6, r7, r8, r9, r11, lr}
	push	{r4, r5, r6, r7, r8, r9, r11, lr}
.Ltmp229:
.Ltmp230:
.Ltmp231:
.Ltmp232:
.Ltmp233:
.Ltmp234:
.Ltmp235:
.Ltmp236:
.Ltmp237:
	.pad	#8
	sub	sp, sp, #8
.Ltmp238:
	ldr	r7, .LCPI19_2
	mov	r4, r0
	ldr	r0, .LCPI19_3
	mov	r9, r1
.LPC19_2:
	add	r7, pc, r7
.LPC19_3:
	add	r0, pc, r0
	ldr	r1, [r7, #28]
	ldrb	r6, [r0, #54]
	str	r8, [sp, #4]
	ldr	r0, [r1]
	cmp	r0, #0
	blne	mono_aot_Xamarin_Forms_Platform_Android_icall_cold_wrapper_265
	cmp	r6, #0
	beq	.LBB19_10
.LBB19_1:
	ldr	r6, [r7, #200]
	ldrb	r0, [r6, #25]
	cmp	r0, #0
	beq	.LBB19_11
.LBB19_2:
	mov	r0, r6
	mov	r1, #24
	bl	p_11_plt_wrapper_alloc_object_AllocSmall_intptr_intptr_llvm
	ldr	r1, [r7, #204]
	mov	r2, r0
	ldr	r6, [r7, #8]
	mov	r7, #1
	cmp	r4, #0
	ldr	r1, [r1]
	dmb	ish
	str	r1, [r2, #8]!
	strb	r7, [r6, r2, lsr #9]
	beq	.LBB19_15
	mov	r5, r4
	dmb	ish
	str	r0, [r5, #8]!
	strb	r7, [r6, r5, lsr #9]
	ldr	r0, [sp, #4]
	bl	p_27_plt__rgctx_fetch_0_llvm
	dmb	ish
	str	r0, [r4, #12]
	add	r0, r4, #12
	mov	r1, r9
	strb	r7, [r6, r0, lsr #9]
	ldr	r0, [r4]
	ldr	r2, [r0, #192]
	mov	r0, r4
	blx	r2
	ldr	r4, [r5]
	ldr	r0, [sp, #4]
	bl	p_28_plt__rgctx_fetch_1_llvm
	ldrb	r1, [r0, #25]
	cmp	r1, #0
	beq	.LBB19_12
.LBB19_4:
	ldr	r0, [sp, #4]
	bl	p_29_plt__rgctx_fetch_2_llvm
	ldr	r5, [r0, #4]
	cmp	r5, #0
	bne	.LBB19_9
	ldr	r0, [sp, #4]
	bl	p_28_plt__rgctx_fetch_1_llvm
	ldrb	r1, [r0, #25]
	cmp	r1, #0
	beq	.LBB19_13
.LBB19_6:
	ldr	r0, [sp, #4]
	bl	p_29_plt__rgctx_fetch_2_llvm
	ldr	r7, [r0]
	cmp	r7, #0
	beq	.LBB19_16
	ldr	r0, [sp, #4]
	bl	p_34_plt__rgctx_fetch_5_llvm
	mov	r1, #64
	bl	p_11_plt_wrapper_alloc_object_AllocSmall_intptr_intptr_llvm
	mov	r5, r0
	dmb	ish
	str	r7, [r0, #16]!
	mov	r1, #1
	lsr	r0, r0, #9
	strb	r1, [r0, r6]
	ldr	r0, [sp, #4]
	bl	p_35_plt__rgctx_fetch_6_llvm
	str	r0, [r5, #32]
	ldr	r0, [sp, #4]
	bl	p_36_plt__rgctx_fetch_7_llvm
	ldr	r1, [r0, #4]
	str	r1, [r5, #20]
	ldr	r1, [r0, #20]
	str	r1, [r5, #12]
	mov	r1, #0
	ldr	r0, [r0, #16]
	strb	r1, [r5, #56]
	str	r0, [r5, #8]
	ldr	r0, [sp, #4]
	bl	p_28_plt__rgctx_fetch_1_llvm
	ldrb	r1, [r0, #25]
	cmp	r1, #0
	beq	.LBB19_14
.LBB19_8:
	ldr	r0, [sp, #4]
	bl	p_29_plt__rgctx_fetch_2_llvm
	dmb	ish
	str	r5, [r0, #4]
.LBB19_9:
	ldr	r0, [sp, #4]
	bl	p_30_plt__rgctx_fetch_3_llvm
	str	r0, [sp]
	mov	r0, r4
	ldr	r8, [sp]
	mov	r1, r5
	bl	p_31_plt_System_Linq_Enumerable_Select_object_T_REF_System_Collections_Generic_IEnumerable_1_object_System_Func_2_object_T_REF_llvm
	mov	r4, r0
	ldr	r0, [sp, #4]
	bl	p_32_plt__rgctx_fetch_4_llvm
	str	r0, [sp]
	mov	r0, r4
	ldr	r8, [sp]
	bl	p_33_plt_System_Linq_Enumerable_ToList_T_REF_System_Collections_Generic_IEnumerable_1_T_REF_llvm
	add	sp, sp, #8
	pop	{r4, r5, r6, r7, r8, r9, r11, pc}
.LBB19_10:
	mov	r0, #54
	mov	r1, r8
	bl	mono_aot_Xamarin_Forms_Platform_Android_init_method_gshared_mrgctx
	b	.LBB19_1
.LBB19_11:
	mov	r0, r6
	bl	p_24_plt__jit_icall_mono_generic_class_init_llvm
	b	.LBB19_2
.LBB19_12:
	bl	p_24_plt__jit_icall_mono_generic_class_init_llvm
	b	.LBB19_4
.LBB19_13:
	bl	p_24_plt__jit_icall_mono_generic_class_init_llvm
	b	.LBB19_6
.LBB19_14:
	bl	p_24_plt__jit_icall_mono_generic_class_init_llvm
	b	.LBB19_8
.Ltmp239:
.LBB19_15:
	ldr	r0, .LCPI19_1
.LPC19_1:
	add	r1, pc, r0
	mov	r0, #225
	bl	p_3_plt__jit_icall_llvm_throw_corlib_exception_abs_trampoline_llvm
.Ltmp240:
.LBB19_16:
	ldr	r0, .LCPI19_0
.LPC19_0:
	add	r1, pc, r0
	mov	r0, #123
	bl	p_3_plt__jit_icall_llvm_throw_corlib_exception_abs_trampoline_llvm
	.p2align	2
.LCPI19_0:
	.long	.Ltmp240-(.LPC19_0+8)
.LCPI19_1:
	.long	.Ltmp239-(.LPC19_1+8)
.LCPI19_2:
	.long	mono_aot_Xamarin_Forms_Platform_Android_llvm_got-(.LPC19_2+8)
.LCPI19_3:
	.long	mono_inited-(.LPC19_3+8)
.Lfunc_end19:
	.size	Xamarin_Forms_Forms_AndroidExpressionSearch_FindObjects_T_REF_System_Linq_Expressions_Expression, .Lfunc_end19-Xamarin_Forms_Forms_AndroidExpressionSearch_FindObjects_T_REF_System_Linq_Expressions_Expression
.Lexception13:
	.fnend

	.hidden	Xamarin_Forms_Forms_AndroidExpressionSearch__c__2_1_T_REF__cctor
	.globl	Xamarin_Forms_Forms_AndroidExpressionSearch__c__2_1_T_REF__cctor
	.p2align	2
	.type	Xamarin_Forms_Forms_AndroidExpressionSearch__c__2_1_T_REF__cctor,%function
	.code	32
Xamarin_Forms_Forms_AndroidExpressionSearch__c__2_1_T_REF__cctor:
.Lfunc_begin20:
	.fnstart
	.save	{r4, lr}
	push	{r4, lr}
.Ltmp241:
.Ltmp242:
.Ltmp243:
	.pad	#8
	sub	sp, sp, #8
.Ltmp244:
	ldr	r0, .LCPI20_0
.LPC20_0:
	add	r0, pc, r0
	ldr	r0, [r0, #28]
	str	r8, [sp, #4]
	ldr	r4, [sp, #4]
	ldr	r0, [r0]
	cmp	r0, #0
	blne	mono_aot_Xamarin_Forms_Platform_Android_icall_cold_wrapper_265
	mov	r0, r4
	bl	p_37_plt__rgctx_fetch_8_llvm
	mov	r1, #8
	bl	p_11_plt_wrapper_alloc_object_AllocSmall_intptr_intptr_llvm
	mov	r4, r0
	bl	p_38_plt_Xamarin_Forms_Forms_AndroidExpressionSearch__c__2_1_T_REF__ctor_llvm
	ldr	r0, [sp, #4]
	bl	p_39_plt__rgctx_fetch_9_llvm
	dmb	ish
	str	r4, [r0]
	add	sp, sp, #8
	pop	{r4, pc}
	.p2align	2
.LCPI20_0:
	.long	mono_aot_Xamarin_Forms_Platform_Android_llvm_got-(.LPC20_0+8)
.Lfunc_end20:
	.size	Xamarin_Forms_Forms_AndroidExpressionSearch__c__2_1_T_REF__cctor, .Lfunc_end20-Xamarin_Forms_Forms_AndroidExpressionSearch__c__2_1_T_REF__cctor
.Lexception14:
	.fnend

	.hidden	Xamarin_Forms_Forms_AndroidExpressionSearch__c__2_1_T_REF__ctor
	.globl	Xamarin_Forms_Forms_AndroidExpressionSearch__c__2_1_T_REF__ctor
	.p2align	2
	.type	Xamarin_Forms_Forms_AndroidExpressionSearch__c__2_1_T_REF__ctor,%function
	.code	32
Xamarin_Forms_Forms_AndroidExpressionSearch__c__2_1_T_REF__ctor:
.Lfunc_begin21:
	.fnstart
	.save	{r11, lr}
	push	{r11, lr}
.Ltmp245:
.Ltmp246:
.Ltmp247:
	.pad	#8
	sub	sp, sp, #8
.Ltmp248:
	mov	r1, r0
	ldr	r0, .LCPI21_0
.LPC21_0:
	add	r0, pc, r0
	ldrb	r0, [r0, #58]
	str	r1, [sp, #4]
	cmp	r0, #0
	beq	.LBB21_2
	add	sp, sp, #8
	pop	{r11, pc}
.LBB21_2:
	mov	r0, #58
	bl	mono_aot_Xamarin_Forms_Platform_Android_init_method_gshared_this
	add	sp, sp, #8
	pop	{r11, pc}
	.p2align	2
.LCPI21_0:
	.long	mono_inited-(.LPC21_0+8)
.Lfunc_end21:
	.size	Xamarin_Forms_Forms_AndroidExpressionSearch__c__2_1_T_REF__ctor, .Lfunc_end21-Xamarin_Forms_Forms_AndroidExpressionSearch__c__2_1_T_REF__ctor
.Lexception15:
	.fnend

	.hidden	Xamarin_Forms_Forms_AndroidExpressionSearch__c__2_1_T_REF__FindObjectsb__2_0_object
	.globl	Xamarin_Forms_Forms_AndroidExpressionSearch__c__2_1_T_REF__FindObjectsb__2_0_object
	.p2align	2
	.type	Xamarin_Forms_Forms_AndroidExpressionSearch__c__2_1_T_REF__FindObjectsb__2_0_object,%function
	.code	32
Xamarin_Forms_Forms_AndroidExpressionSearch__c__2_1_T_REF__FindObjectsb__2_0_object:
.Lfunc_begin22:
	.fnstart
	.save	{r4, r5, r11, lr}
	push	{r4, r5, r11, lr}
.Ltmp249:
.Ltmp250:
.Ltmp251:
.Ltmp252:
.Ltmp253:
	.pad	#8
	sub	sp, sp, #8
.Ltmp254:
	mov	r4, r1
	ldr	r1, .LCPI22_0
	str	r0, [sp]
.LPC22_0:
	add	r1, pc, r1
	str	r0, [sp, #4]
	ldr	r0, [sp, #4]
	ldr	r1, [r1, #28]
	ldr	r5, [r0]
	ldr	r0, [r1]
	cmp	r0, #0
	blne	mono_aot_Xamarin_Forms_Platform_Android_icall_cold_wrapper_265
	mov	r0, r5
	bl	p_40_plt__rgctx_fetch_10_llvm
	mov	r2, r0
	mov	r0, r4
	ldr	r1, [r2, #4]
	bl	p_41_plt_wrapper_castclass_object___isinst_with_cache_object_intptr_intptr_llvm
	mov	r4, r0
	ldr	r0, [sp, #4]
	ldr	r0, [r0]
	bl	p_40_plt__rgctx_fetch_10_llvm
	mov	r2, r0
	mov	r0, r4
	ldr	r1, [r2, #4]
	bl	p_42_plt_wrapper_castclass_object___castclass_with_cache_object_intptr_intptr_llvm
	add	sp, sp, #8
	pop	{r4, r5, r11, pc}
	.p2align	2
.LCPI22_0:
	.long	mono_aot_Xamarin_Forms_Platform_Android_llvm_got-(.LPC22_0+8)
.Lfunc_end22:
	.size	Xamarin_Forms_Forms_AndroidExpressionSearch__c__2_1_T_REF__FindObjectsb__2_0_object, .Lfunc_end22-Xamarin_Forms_Forms_AndroidExpressionSearch__c__2_1_T_REF__FindObjectsb__2_0_object
.Lexception16:
	.fnend

	.hidden	Xamarin_Forms_Forms_AndroidPlatformServices__ctor_Android_Content_Context
	.globl	Xamarin_Forms_Forms_AndroidPlatformServices__ctor_Android_Content_Context
	.p2align	2
	.type	Xamarin_Forms_Forms_AndroidPlatformServices__ctor_Android_Content_Context,%function
	.code	32
Xamarin_Forms_Forms_AndroidPlatformServices__ctor_Android_Content_Context:
.Lfunc_begin23:
	.fnstart
	cmp	r0, #0
	beq	.LBB23_2
	ldr	r2, .LCPI23_1
	dmb	ish
	str	r1, [r0, #8]!
	mov	r1, #1
.LPC23_1:
	add	r2, pc, r2
	ldr	r2, [r2, #8]
	strb	r1, [r2, r0, lsr #9]
	bx	lr
.Ltmp255:
.LBB23_2:
	.save	{r11, lr}
	push	{r11, lr}
.Ltmp256:
.Ltmp257:
.Ltmp258:
	ldr	r0, .LCPI23_0
.LPC23_0:
	add	r1, pc, r0
	mov	r0, #225
	bl	p_3_plt__jit_icall_llvm_throw_corlib_exception_abs_trampoline_llvm
	.p2align	2
.LCPI23_0:
	.long	.Ltmp255-(.LPC23_0+8)
.LCPI23_1:
	.long	mono_aot_Xamarin_Forms_Platform_Android_llvm_got-(.LPC23_1+8)
.Lfunc_end23:
	.size	Xamarin_Forms_Forms_AndroidPlatformServices__ctor_Android_Content_Context, .Lfunc_end23-Xamarin_Forms_Forms_AndroidPlatformServices__ctor_Android_Content_Context
.Lexception17:
	.fnend

	.hidden	Xamarin_Forms_Forms_AndroidPlatformServices_BeginInvokeOnMainThread_System_Action
	.globl	Xamarin_Forms_Forms_AndroidPlatformServices_BeginInvokeOnMainThread_System_Action
	.p2align	2
	.type	Xamarin_Forms_Forms_AndroidPlatformServices_BeginInvokeOnMainThread_System_Action,%function
	.code	32
Xamarin_Forms_Forms_AndroidPlatformServices_BeginInvokeOnMainThread_System_Action:
.Lfunc_begin24:
	.fnstart
	.save	{r4, r5, r6, r7, r9, lr}
	push	{r4, r5, r6, r7, r9, lr}
.Ltmp259:
.Ltmp260:
.Ltmp261:
.Ltmp262:
.Ltmp263:
.Ltmp264:
.Ltmp265:
	ldr	r9, .LCPI24_3
	mov	r5, r0
	ldr	r0, .LCPI24_4
	mov	r4, r1
.LPC24_3:
	add	r9, pc, r9
.LPC24_4:
	add	r0, pc, r0
	ldr	r1, [r9, #28]
	ldrb	r6, [r0, #61]
	ldr	r0, [r1]
	cmp	r0, #0
	blne	mono_aot_Xamarin_Forms_Platform_Android_icall_cold_wrapper_265
	cmp	r6, #0
	beq	.LBB24_11
	cmp	r5, #0
	beq	.LBB24_12
.LBB24_2:
	ldr	r0, [r5, #8]
	bl	p_43_plt_Xamarin_Forms_Platform_Android_ContextExtensions_IsDesignerContext_Android_Content_Context_llvm
	tst	r0, #255
	beq	.LBB24_5
	cmp	r4, #0
	beq	.LBB24_13
	ldr	r1, [r4, #12]
	mov	r0, r4
	blx	r1
	pop	{r4, r5, r6, r7, r9, pc}
.LBB24_5:
	ldr	r7, [r9, #208]
	ldr	r0, [r7]
	cmp	r0, #0
	beq	.LBB24_7
	bl	p_47_plt_Android_OS_Handler_get_Looper_llvm
	mov	r5, r0
	bl	p_44_plt_Android_OS_Looper_get_MainLooper_llvm
	cmp	r5, r0
	beq	.LBB24_9
.LBB24_7:
	bl	p_44_plt_Android_OS_Looper_get_MainLooper_llvm
	mov	r6, r0
	ldr	r0, [r9, #212]
	bl	p_13_plt__jit_icall_ves_icall_object_new_specific_llvm
	mov	r1, r6
	mov	r5, r0
	bl	p_45_plt_Android_OS_Handler__ctor_Android_OS_Looper_llvm
	dmb	ish
	str	r5, [r7]
	cmp	r5, #0
	beq	.LBB24_10
.LBB24_8:
	mov	r0, r5
	mov	r1, r4
	bl	p_46_plt_Android_OS_Handler_Post_System_Action_llvm
	pop	{r4, r5, r6, r7, r9, pc}
.LBB24_9:
	ldr	r5, [r7]
	cmp	r5, #0
	bne	.LBB24_8
.Ltmp266:
.LBB24_10:
	ldr	r0, .LCPI24_1
.LPC24_1:
	add	r1, pc, r0
	mov	r0, #225
	bl	p_3_plt__jit_icall_llvm_throw_corlib_exception_abs_trampoline_llvm
.LBB24_11:
	mov	r0, #61
	bl	mono_aot_Xamarin_Forms_Platform_Android_init_method
	cmp	r5, #0
	bne	.LBB24_2
.Ltmp267:
.LBB24_12:
	ldr	r0, .LCPI24_2
.LPC24_2:
	add	r1, pc, r0
	mov	r0, #225
	bl	p_3_plt__jit_icall_llvm_throw_corlib_exception_abs_trampoline_llvm
.Ltmp268:
.LBB24_13:
	ldr	r0, .LCPI24_0
.LPC24_0:
	add	r1, pc, r0
	mov	r0, #225
	bl	p_3_plt__jit_icall_llvm_throw_corlib_exception_abs_trampoline_llvm
	.p2align	2
.LCPI24_0:
	.long	.Ltmp268-(.LPC24_0+8)
.LCPI24_1:
	.long	.Ltmp266-(.LPC24_1+8)
.LCPI24_2:
	.long	.Ltmp267-(.LPC24_2+8)
.LCPI24_3:
	.long	mono_aot_Xamarin_Forms_Platform_Android_llvm_got-(.LPC24_3+8)
.LCPI24_4:
	.long	mono_inited-(.LPC24_4+8)
.Lfunc_end24:
	.size	Xamarin_Forms_Forms_AndroidPlatformServices_BeginInvokeOnMainThread_System_Action, .Lfunc_end24-Xamarin_Forms_Forms_AndroidPlatformServices_BeginInvokeOnMainThread_System_Action
.Lexception18:
	.fnend

	.hidden	Xamarin_Forms_Forms_AndroidPlatformServices_CreateTicker
	.globl	Xamarin_Forms_Forms_AndroidPlatformServices_CreateTicker
	.p2align	2
	.type	Xamarin_Forms_Forms_AndroidPlatformServices_CreateTicker,%function
	.code	32
Xamarin_Forms_Forms_AndroidPlatformServices_CreateTicker:
.Lfunc_begin25:
	.fnstart
	.save	{r4, r5, r11, lr}
	push	{r4, r5, r11, lr}
.Ltmp269:
.Ltmp270:
.Ltmp271:
.Ltmp272:
.Ltmp273:
	ldr	r4, .LCPI25_0
	ldr	r0, .LCPI25_1
.LPC25_0:
	add	r4, pc, r4
.LPC25_1:
	add	r0, pc, r0
	ldr	r1, [r4, #28]
	ldrb	r5, [r0, #62]
	ldr	r0, [r1]
	cmp	r0, #0
	blne	mono_aot_Xamarin_Forms_Platform_Android_icall_cold_wrapper_265
	cmp	r5, #0
	beq	.LBB25_2
.LBB25_1:
	ldr	r0, [r4, #216]
	mov	r1, #32
	bl	p_11_plt_wrapper_alloc_object_AllocSmall_intptr_intptr_llvm
	mov	r4, r0
	bl	Xamarin_Forms_Platform_Android_AndroidTicker__ctor
	mov	r0, r4
	pop	{r4, r5, r11, pc}
.LBB25_2:
	mov	r0, #62
	bl	mono_aot_Xamarin_Forms_Platform_Android_init_method
	b	.LBB25_1
	.p2align	2
.LCPI25_0:
	.long	mono_aot_Xamarin_Forms_Platform_Android_llvm_got-(.LPC25_0+8)
.LCPI25_1:
	.long	mono_inited-(.LPC25_1+8)
.Lfunc_end25:
	.size	Xamarin_Forms_Forms_AndroidPlatformServices_CreateTicker, .Lfunc_end25-Xamarin_Forms_Forms_AndroidPlatformServices_CreateTicker
.Lexception19:
	.fnend

	.hidden	Xamarin_Forms_Forms_AndroidPlatformServices_GetAssemblies
	.globl	Xamarin_Forms_Forms_AndroidPlatformServices_GetAssemblies
	.p2align	2
	.type	Xamarin_Forms_Forms_AndroidPlatformServices_GetAssemblies,%function
	.code	32
Xamarin_Forms_Forms_AndroidPlatformServices_GetAssemblies:
.Lfunc_begin26:
	.fnstart
	.save	{r11, lr}
	push	{r11, lr}
.Ltmp274:
.Ltmp275:
.Ltmp276:
	ldr	r0, .LCPI26_1
.LPC26_1:
	add	r0, pc, r0
	ldr	r0, [r0, #28]
	ldr	r0, [r0]
	cmp	r0, #0
	blne	mono_aot_Xamarin_Forms_Platform_Android_icall_cold_wrapper_265
	bl	p_49_plt_System_AppDomain_get_CurrentDomain_llvm
	cmp	r0, #0
	beq	.LBB26_2
	bl	p_50_plt_wrapper_remoting_invoke_with_check_System_AppDomain_GetAssemblies_llvm
	pop	{r11, pc}
.Ltmp277:
.LBB26_2:
	ldr	r0, .LCPI26_0
.LPC26_0:
	add	r1, pc, r0
	mov	r0, #225
	bl	p_3_plt__jit_icall_llvm_throw_corlib_exception_abs_trampoline_llvm
	.p2align	2
.LCPI26_0:
	.long	.Ltmp277-(.LPC26_0+8)
.LCPI26_1:
	.long	mono_aot_Xamarin_Forms_Platform_Android_llvm_got-(.LPC26_1+8)
.Lfunc_end26:
	.size	Xamarin_Forms_Forms_AndroidPlatformServices_GetAssemblies, .Lfunc_end26-Xamarin_Forms_Forms_AndroidPlatformServices_GetAssemblies
.Lexception20:
	.fnend

	.hidden	Xamarin_Forms_Forms_AndroidPlatformServices_GetNamedSize_Xamarin_Forms_NamedSize_System_Type_bool
	.globl	Xamarin_Forms_Forms_AndroidPlatformServices_GetNamedSize_Xamarin_Forms_NamedSize_System_Type_bool
	.p2align	3
	.type	Xamarin_Forms_Forms_AndroidPlatformServices_GetNamedSize_Xamarin_Forms_NamedSize_System_Type_bool,%function
	.code	32
Xamarin_Forms_Forms_AndroidPlatformServices_GetNamedSize_Xamarin_Forms_NamedSize_System_Type_bool:
.Lfunc_begin27:
	.fnstart
	.save	{r4, r5, r6, r7, r9, r10, r11, lr}
	push	{r4, r5, r6, r7, r9, r10, r11, lr}
.Ltmp278:
.Ltmp279:
.Ltmp280:
.Ltmp281:
.Ltmp282:
.Ltmp283:
.Ltmp284:
.Ltmp285:
.Ltmp286:
	.pad	#8
	sub	sp, sp, #8
.Ltmp287:
	ldr	r11, .LCPI27_11
	mov	r4, r0
	ldr	r0, .LCPI27_12
	mov	r6, r1
.LPC27_10:
	add	r11, pc, r11
	mov	r7, r3
.LPC27_11:
	add	r0, pc, r0
	mov	r9, r2
	ldr	r1, [r11, #28]
	ldrb	r5, [r0, #66]
	ldr	r0, [r1]
	cmp	r0, #0
	blne	mono_aot_Xamarin_Forms_Platform_Android_icall_cold_wrapper_265
	cmp	r5, #0
	beq	.LBB27_70
	cmp	r4, #0
	beq	.LBB27_71
.LBB27_2:
	vldr	d1, [r4, #64]
	vcmp.f64	d1, #0
	vmrs	APSR_nzcv, fpscr
	beq	.LBB27_9
	cmp	r7, #0
	beq	.LBB27_35
.LBB27_4:
	cmp	r6, #9
	bhi	.LBB27_72
	sub	r0, r6, #1
	cmp	r0, #8
	bhi	.LBB27_52
	adr	r1, .LJTI27_0
	vmov.f64	d0, #1.000000e+01
	ldr	r0, [r1, r0, lsl #2]
	add	pc, r1, r0
	.p2align	2
.LJTI27_0:
	.long	.LBB27_69-.LJTI27_0
	.long	.LBB27_48-.LJTI27_0
	.long	.LBB27_68-.LJTI27_0
	.long	.LBB27_51-.LJTI27_0
	.long	.LBB27_8-.LJTI27_0
	.long	.LBB27_50-.LJTI27_0
	.long	.LBB27_49-.LJTI27_0
	.long	.LBB27_8-.LJTI27_0
	.long	.LBB27_48-.LJTI27_0
.LBB27_8:
	vmov.f64	d0, #1.600000e+01
	b	.LBB27_69
.LBB27_9:
	movw	r5, #64
	mov	r0, #0
	movt	r5, #257
	add	r1, r5, #2
	str	r0, [sp, #4]
	mov	r2, sp
	str	r0, [sp]
	mov	r0, r4
	bl	p_59_plt_Xamarin_Forms_Forms_AndroidPlatformServices_TryGetTextAppearance_int_double__llvm
	movw	r10, #431
	tst	r0, #255
	movt	r10, #259
	beq	.LBB27_11
	vldr	d0, [sp]
	vcmpe.f64	d0, #0
	vmrs	APSR_nzcv, fpscr
	bgt	.LBB27_13
.LBB27_11:
	add	r1, r10, #4
	mov	r2, sp
	mov	r0, r4
	bl	p_59_plt_Xamarin_Forms_Forms_AndroidPlatformServices_TryGetTextAppearance_int_double__llvm
	vmov.f64	d0, #1.200000e+01
	tst	r0, #255
	beq	.LBB27_14
	vldr	d1, [sp]
	vcmpe.f64	d1, #0
	vmrs	APSR_nzcv, fpscr
	vldrgt	d0, [sp]
	b	.LBB27_14
.LBB27_13:
	vldr	d0, [sp]
.LBB27_14:
	mov	r0, #0
	add	r1, r5, #1
	vstr	d0, [r4, #64]
	mov	r2, sp
	str	r0, [sp, #4]
	str	r0, [sp]
	mov	r0, r4
	bl	p_59_plt_Xamarin_Forms_Forms_AndroidPlatformServices_TryGetTextAppearance_int_double__llvm
	tst	r0, #255
	beq	.LBB27_16
	vldr	d0, [sp]
	vcmpe.f64	d0, #0
	vmrs	APSR_nzcv, fpscr
	bgt	.LBB27_18
.LBB27_16:
	add	r1, r10, #2
	mov	r2, sp
	mov	r0, r4
	bl	p_59_plt_Xamarin_Forms_Forms_AndroidPlatformServices_TryGetTextAppearance_int_double__llvm
	vmov.f64	d0, #1.400000e+01
	tst	r0, #255
	beq	.LBB27_19
	vldr	d1, [sp]
	vcmpe.f64	d1, #0
	vmrs	APSR_nzcv, fpscr
	vldrgt	d0, [sp]
	b	.LBB27_19
.LBB27_18:
	vldr	d0, [sp]
.LBB27_19:
	mov	r0, #0
	vstr	d0, [r4, #48]
	str	r0, [sp, #4]
	mov	r2, sp
	str	r0, [sp]
	mov	r0, r4
	mov	r1, r5
	bl	p_59_plt_Xamarin_Forms_Forms_AndroidPlatformServices_TryGetTextAppearance_int_double__llvm
	tst	r0, #255
	beq	.LBB27_21
	vldr	d0, [sp]
	vcmpe.f64	d0, #0
	vmrs	APSR_nzcv, fpscr
	bgt	.LBB27_23
.LBB27_21:
	mov	r2, sp
	mov	r0, r4
	mov	r1, r10
	bl	p_59_plt_Xamarin_Forms_Forms_AndroidPlatformServices_TryGetTextAppearance_int_double__llvm
	vmov.f64	d0, #1.800000e+01
	tst	r0, #255
	beq	.LBB27_24
	vldr	d1, [sp]
	vcmpe.f64	d1, #0
	vmrs	APSR_nzcv, fpscr
	vldrgt	d0, [sp]
	b	.LBB27_24
.LBB27_23:
	vldr	d0, [sp]
.LBB27_24:
	movw	r1, #519
	mov	r0, #0
	vstr	d0, [r4, #40]
	movt	r1, #257
	str	r0, [sp, #4]
	mov	r2, sp
	str	r0, [sp]
	mov	r0, r4
	bl	p_59_plt_Xamarin_Forms_Forms_AndroidPlatformServices_TryGetTextAppearance_int_double__llvm
	tst	r0, #255
	beq	.LBB27_26
	vldr	d0, [sp]
	vcmpe.f64	d0, #0
	vmrs	APSR_nzcv, fpscr
	bgt	.LBB27_28
.LBB27_26:
	add	r1, r10, #11
	mov	r2, sp
	mov	r0, r4
	bl	p_59_plt_Xamarin_Forms_Forms_AndroidPlatformServices_TryGetTextAppearance_int_double__llvm
	vmov.f64	d0, #1.400000e+01
	tst	r0, #255
	beq	.LBB27_29
	vldr	d1, [sp]
	vcmpe.f64	d1, #0
	vmrs	APSR_nzcv, fpscr
	vldrgt	d0, [sp]
	b	.LBB27_29
.LBB27_28:
	vldr	d0, [sp]
.LBB27_29:
	movw	r1, #76
	mov	r0, #0
	vstr	d0, [r4, #16]
	movt	r1, #259
	str	r0, [sp, #4]
	mov	r2, sp
	str	r0, [sp]
	mov	r0, r4
	bl	p_59_plt_Xamarin_Forms_Forms_AndroidPlatformServices_TryGetTextAppearance_int_double__llvm
	tst	r0, #255
	beq	.LBB27_31
	vldr	d0, [sp]
	vcmpe.f64	d0, #0
	vmrs	APSR_nzcv, fpscr
	bgt	.LBB27_33
.LBB27_31:
	add	r1, r10, #19
	mov	r2, sp
	mov	r0, r4
	bl	p_59_plt_Xamarin_Forms_Forms_AndroidPlatformServices_TryGetTextAppearance_int_double__llvm
	vmov.f64	d0, #1.800000e+01
	tst	r0, #255
	beq	.LBB27_34
	vldr	d1, [sp]
	vcmpe.f64	d1, #0
	vmrs	APSR_nzcv, fpscr
	vldrgt	d0, [sp]
	b	.LBB27_34
.LBB27_33:
	vldr	d0, [sp]
.LBB27_34:
	vldr	d1, [r4, #64]
	vldr	d2, [r4, #48]
	vmov.f64	d3, #1.000000e+00
	vsub.f64	d2, d2, d1
	vsub.f64	d2, d1, d2
	vcmpe.f64	d2, d3
	vmrs	APSR_nzcv, fpscr
	vstr	d0, [r4, #24]
	vstr	d1, [r4, #32]
	vmovmi.f64	d2, d3
	vstr	d2, [r4, #56]
	cmp	r7, #0
	bne	.LBB27_4
.LBB27_35:
	cmp	r6, #9
	bhi	.LBB27_72
	vmov.f64	d0, #1.600000e+01
	bhi	.LBB27_69
	adr	r0, .LJTI27_1
	ldr	r1, [r0, r6, lsl #2]
	add	pc, r0, r1
	.p2align	2
.LJTI27_1:
	.long	.LBB27_39-.LJTI27_1
	.long	.LBB27_57-.LJTI27_1
	.long	.LBB27_56-.LJTI27_1
	.long	.LBB27_47-.LJTI27_1
	.long	.LBB27_55-.LJTI27_1
	.long	.LBB27_69-.LJTI27_1
	.long	.LBB27_50-.LJTI27_1
	.long	.LBB27_49-.LJTI27_1
	.long	.LBB27_69-.LJTI27_1
	.long	.LBB27_48-.LJTI27_1
.LBB27_39:
	ldr	r0, [r11, #220]
	cmp	r0, #0
	beq	.LBB27_74
	ldr	r1, [r0]
	ldr	r2, [r1, #436]
	mov	r1, r9
	blx	r2
	tst	r0, #255
	bne	.LBB27_54
	ldr	r0, [r11, #224]
	cmp	r0, #0
	beq	.LBB27_76
	ldr	r1, [r0]
	ldr	r2, [r1, #436]
	mov	r1, r9
	blx	r2
	tst	r0, #255
	bne	.LBB27_60
	ldr	r0, [r11, #228]
	cmp	r0, #0
	beq	.LBB27_78
	ldr	r1, [r0]
	ldr	r2, [r1, #436]
	mov	r1, r9
	blx	r2
	tst	r0, #255
	bne	.LBB27_67
	ldr	r0, [r11, #232]
	cmp	r0, #0
	beq	.LBB27_80
	ldr	r1, [r0]
	ldr	r2, [r1, #436]
	mov	r1, r9
	blx	r2
	tst	r0, #255
	bne	.LBB27_67
.LBB27_47:
	vldr	d0, [r4, #48]
	b	.LBB27_69
.LBB27_48:
	vmov.f64	d0, #1.200000e+01
	b	.LBB27_69
.LBB27_49:
	vmov.f64	d0, #2.400000e+01
	b	.LBB27_69
.LBB27_50:
	vldr	d0, .LCPI27_0
	b	.LBB27_69
.LBB27_51:
	vmov.f64	d0, #1.800000e+01
	b	.LBB27_69
.LBB27_52:
	ldr	r0, [r11, #220]
	cmp	r0, #0
	beq	.LBB27_73
	ldr	r1, [r0]
	ldr	r2, [r1, #436]
	mov	r1, r9
	blx	r2
	tst	r0, #255
	beq	.LBB27_58
.LBB27_54:
	vldr	d0, [r4, #16]
	b	.LBB27_69
.LBB27_55:
	vldr	d0, [r4, #40]
	b	.LBB27_69
.LBB27_56:
	vmov.f64	d0, d1
	b	.LBB27_69
.LBB27_57:
	vldr	d0, [r4, #56]
	b	.LBB27_69
.LBB27_58:
	ldr	r0, [r11, #224]
	cmp	r0, #0
	beq	.LBB27_75
	ldr	r1, [r0]
	ldr	r2, [r1, #436]
	mov	r1, r9
	blx	r2
	tst	r0, #255
	beq	.LBB27_61
.LBB27_60:
	vldr	d0, [r4, #32]
	b	.LBB27_69
.LBB27_61:
	ldr	r0, [r11, #228]
	cmp	r0, #0
	beq	.LBB27_77
	ldr	r1, [r0]
	ldr	r2, [r1, #436]
	mov	r1, r9
	blx	r2
	tst	r0, #255
	bne	.LBB27_67
	ldr	r0, [r11, #232]
	cmp	r0, #0
	beq	.LBB27_79
	ldr	r1, [r0]
	ldr	r2, [r1, #436]
	mov	r1, r9
	blx	r2
	tst	r0, #255
	bne	.LBB27_67
	ldr	r0, [r11, #236]
	cmp	r0, #0
	beq	.LBB27_81
	ldr	r1, [r0]
	ldr	r2, [r1, #436]
	mov	r1, r9
	blx	r2
	tst	r0, #255
	beq	.LBB27_68
.LBB27_67:
	vldr	d0, [r4, #24]
	b	.LBB27_69
.LBB27_68:
	vmov.f64	d0, #1.400000e+01
.LBB27_69:
	vmov	r0, r1, d0
	add	sp, sp, #8
	pop	{r4, r5, r6, r7, r9, r10, r11, pc}
.LBB27_70:
	mov	r0, #66
	bl	mono_aot_Xamarin_Forms_Platform_Android_init_method
	cmp	r4, #0
	bne	.LBB27_2
.Ltmp288:
.LBB27_71:
	ldr	r0, .LCPI27_10
.LPC27_9:
	add	r1, pc, r0
	mov	r0, #225
	bl	p_3_plt__jit_icall_llvm_throw_corlib_exception_abs_trampoline_llvm
.LBB27_72:
	ldr	r0, .LCPI27_13
	movw	r1, #683
.LPC27_12:
	ldr	r0, [pc, r0]
	bl	p_51_plt__jit_icall_mono_helper_ldstr_llvm
	mov	r1, r0
	movw	r0, #125
	movt	r0, #512
	bl	p_52_plt__jit_icall_mono_create_corlib_exception_1_llvm
	bl	p_53_plt__jit_icall_mono_arch_throw_exception_llvm
.Ltmp289:
.LBB27_73:
	ldr	r0, .LCPI27_5
.LPC27_4:
	add	r1, pc, r0
	mov	r0, #225
	bl	p_3_plt__jit_icall_llvm_throw_corlib_exception_abs_trampoline_llvm
.Ltmp290:
.LBB27_74:
	ldr	r0, .LCPI27_9
.LPC27_8:
	add	r1, pc, r0
	mov	r0, #225
	bl	p_3_plt__jit_icall_llvm_throw_corlib_exception_abs_trampoline_llvm
.Ltmp291:
.LBB27_75:
	ldr	r0, .LCPI27_4
.LPC27_3:
	add	r1, pc, r0
	mov	r0, #225
	bl	p_3_plt__jit_icall_llvm_throw_corlib_exception_abs_trampoline_llvm
.Ltmp292:
.LBB27_76:
	ldr	r0, .LCPI27_8
.LPC27_7:
	add	r1, pc, r0
	mov	r0, #225
	bl	p_3_plt__jit_icall_llvm_throw_corlib_exception_abs_trampoline_llvm
.Ltmp293:
.LBB27_77:
	ldr	r0, .LCPI27_3
.LPC27_2:
	add	r1, pc, r0
	mov	r0, #225
	bl	p_3_plt__jit_icall_llvm_throw_corlib_exception_abs_trampoline_llvm
.Ltmp294:
.LBB27_78:
	ldr	r0, .LCPI27_7
.LPC27_6:
	add	r1, pc, r0
	mov	r0, #225
	bl	p_3_plt__jit_icall_llvm_throw_corlib_exception_abs_trampoline_llvm
.Ltmp295:
.LBB27_79:
	ldr	r0, .LCPI27_2
.LPC27_1:
	add	r1, pc, r0
	mov	r0, #225
	bl	p_3_plt__jit_icall_llvm_throw_corlib_exception_abs_trampoline_llvm
.Ltmp296:
.LBB27_80:
	ldr	r0, .LCPI27_6
.LPC27_5:
	add	r1, pc, r0
	mov	r0, #225
	bl	p_3_plt__jit_icall_llvm_throw_corlib_exception_abs_trampoline_llvm
.Ltmp297:
.LBB27_81:
	ldr	r0, .LCPI27_1
.LPC27_0:
	add	r1, pc, r0
	mov	r0, #225
	bl	p_3_plt__jit_icall_llvm_throw_corlib_exception_abs_trampoline_llvm
	.p2align	3
.LCPI27_0:
	.long	0
	.long	1079508992
.LCPI27_1:
	.long	.Ltmp297-(.LPC27_0+8)
.LCPI27_2:
	.long	.Ltmp295-(.LPC27_1+8)
.LCPI27_3:
	.long	.Ltmp293-(.LPC27_2+8)
.LCPI27_4:
	.long	.Ltmp291-(.LPC27_3+8)
.LCPI27_5:
	.long	.Ltmp289-(.LPC27_4+8)
.LCPI27_6:
	.long	.Ltmp296-(.LPC27_5+8)
.LCPI27_7:
	.long	.Ltmp294-(.LPC27_6+8)
.LCPI27_8:
	.long	.Ltmp292-(.LPC27_7+8)
.LCPI27_9:
	.long	.Ltmp290-(.LPC27_8+8)
.LCPI27_10:
	.long	.Ltmp288-(.LPC27_9+8)
.LCPI27_11:
	.long	mono_aot_Xamarin_Forms_Platform_Android_llvm_got-(.LPC27_10+8)
.LCPI27_12:
	.long	mono_inited-(.LPC27_11+8)
.LCPI27_13:
	.long	mono_aot_Xamarin_Forms_Platform_Android_llvm_got-(.LPC27_12+8)
.Lfunc_end27:
	.size	Xamarin_Forms_Forms_AndroidPlatformServices_GetNamedSize_Xamarin_Forms_NamedSize_System_Type_bool, .Lfunc_end27-Xamarin_Forms_Forms_AndroidPlatformServices_GetNamedSize_Xamarin_Forms_NamedSize_System_Type_bool
.Lexception21:
	.fnend

	.hidden	Xamarin_Forms_Forms_AndroidPlatformServices_get_IsInvokeRequired
	.globl	Xamarin_Forms_Forms_AndroidPlatformServices_get_IsInvokeRequired
	.p2align	2
	.type	Xamarin_Forms_Forms_AndroidPlatformServices_get_IsInvokeRequired,%function
	.code	32
Xamarin_Forms_Forms_AndroidPlatformServices_get_IsInvokeRequired:
.Lfunc_begin28:
	.fnstart
	.save	{r4, lr}
	push	{r4, lr}
.Ltmp298:
.Ltmp299:
.Ltmp300:
	ldr	r0, .LCPI28_0
.LPC28_0:
	add	r0, pc, r0
	ldr	r0, [r0, #28]
	ldr	r0, [r0]
	cmp	r0, #0
	blne	mono_aot_Xamarin_Forms_Platform_Android_icall_cold_wrapper_265
	bl	p_44_plt_Android_OS_Looper_get_MainLooper_llvm
	mov	r4, r0
	bl	p_55_plt_Android_OS_Looper_MyLooper_llvm
	mov	r1, #0
	cmp	r4, r0
	movwne	r1, #1
	mov	r0, r1
	pop	{r4, pc}
	.p2align	2
.LCPI28_0:
	.long	mono_aot_Xamarin_Forms_Platform_Android_llvm_got-(.LPC28_0+8)
.Lfunc_end28:
	.size	Xamarin_Forms_Forms_AndroidPlatformServices_get_IsInvokeRequired, .Lfunc_end28-Xamarin_Forms_Forms_AndroidPlatformServices_get_IsInvokeRequired
.Lexception22:
	.fnend

	.hidden	Xamarin_Forms_Forms_AndroidPlatformServices_get_RuntimePlatform
	.globl	Xamarin_Forms_Forms_AndroidPlatformServices_get_RuntimePlatform
	.p2align	2
	.type	Xamarin_Forms_Forms_AndroidPlatformServices_get_RuntimePlatform,%function
	.code	32
Xamarin_Forms_Forms_AndroidPlatformServices_get_RuntimePlatform:
.Lfunc_begin29:
	.fnstart
	ldr	r0, .LCPI29_0
.LPC29_0:
	add	r0, pc, r0
	ldrb	r0, [r0, #71]
	cmp	r0, #0
	beq	.LBB29_2
.LBB29_1:
	ldr	r0, .LCPI29_1
.LPC29_1:
	add	r0, pc, r0
	ldr	r0, [r0, #240]
	bx	lr
.LBB29_2:
	.save	{r11, lr}
	push	{r11, lr}
.Ltmp301:
.Ltmp302:
.Ltmp303:
	mov	r0, #71
	bl	mono_aot_Xamarin_Forms_Platform_Android_init_method
	pop	{r11, lr}
	b	.LBB29_1
	.p2align	2
.LCPI29_0:
	.long	mono_inited-(.LPC29_0+8)
.LCPI29_1:
	.long	mono_aot_Xamarin_Forms_Platform_Android_llvm_got-(.LPC29_1+8)
.Lfunc_end29:
	.size	Xamarin_Forms_Forms_AndroidPlatformServices_get_RuntimePlatform, .Lfunc_end29-Xamarin_Forms_Forms_AndroidPlatformServices_get_RuntimePlatform
.Lexception23:
	.fnend

	.hidden	Xamarin_Forms_Forms_AndroidPlatformServices_StartTimer_System_TimeSpan_System_Func_1_bool
	.globl	Xamarin_Forms_Forms_AndroidPlatformServices_StartTimer_System_TimeSpan_System_Func_1_bool
	.p2align	2
	.type	Xamarin_Forms_Forms_AndroidPlatformServices_StartTimer_System_TimeSpan_System_Func_1_bool,%function
	.code	32
Xamarin_Forms_Forms_AndroidPlatformServices_StartTimer_System_TimeSpan_System_Func_1_bool:
.Lfunc_begin30:
	.fnstart
	.save	{r4, r5, r6, r7, r9, r10, r11, lr}
	push	{r4, r5, r6, r7, r9, r10, r11, lr}
.Ltmp304:
.Ltmp305:
.Ltmp306:
.Ltmp307:
.Ltmp308:
.Ltmp309:
.Ltmp310:
.Ltmp311:
.Ltmp312:
	.pad	#8
	sub	sp, sp, #8
.Ltmp313:
	str	r2, [sp, #4]
	mov	r7, r0
	ldr	r9, .LCPI30_1
	mov	r4, r3
	ldr	r0, .LCPI30_2
.LPC30_1:
	add	r9, pc, r9
.LPC30_2:
	add	r0, pc, r0
	ldr	r1, [r9, #28]
	ldrb	r5, [r0, #73]
	ldr	r0, [r1]
	cmp	r0, #0
	blne	mono_aot_Xamarin_Forms_Platform_Android_icall_cold_wrapper_265
	ldr	r10, [sp, #40]
	cmp	r5, #0
	beq	.LBB30_3
.LBB30_1:
	ldr	r0, [r9, #244]
	mov	r1, #32
	bl	p_11_plt_wrapper_alloc_object_AllocSmall_intptr_intptr_llvm
	mov	r6, r0
	dmb	ish
	str	r10, [r0, #8]!
	mov	r10, #1
	ldr	r5, [r9, #8]
	mov	r11, r6
	lsr	r0, r0, #9
	strb	r10, [r0, r5]
	mov	r0, r6
	dmb	ish
	str	r7, [r0, #12]!
	lsr	r0, r0, #9
	strb	r10, [r0, r5]
	ldr	r0, [sp, #4]
	str	r4, [r6, #28]
	str	r0, [r11, #24]!
	bl	p_44_plt_Android_OS_Looper_get_MainLooper_llvm
	mov	r4, r0
	ldr	r0, [r9, #212]
	bl	p_13_plt__jit_icall_ves_icall_object_new_specific_llvm
	mov	r1, r4
	mov	r7, r0
	bl	p_45_plt_Android_OS_Handler__ctor_Android_OS_Looper_llvm
	add	r1, r6, #16
	ldr	r0, [r9, #248]
	dmb	ish
	str	r7, [r6, #16]
	lsr	r1, r1, #9
	strb	r10, [r1, r5]
	mov	r1, #64
	ldr	r4, [r6, #16]
	bl	p_11_plt_wrapper_alloc_object_AllocSmall_intptr_intptr_llvm
	add	r3, r9, #252
	mov	r7, r0
	dmb	ish
	str	r6, [r0, #16]!
	ldm	r3, {r1, r2, r3}
	lsr	r0, r0, #9
	strb	r10, [r0, r5]
	str	r1, [r7, #20]
	mov	r1, #0
	str	r2, [r7, #32]
	ldr	r0, [r3, #20]
	str	r0, [r7, #12]
	ldr	r0, [r3, #16]
	strb	r1, [r7, #56]
	str	r0, [r7, #8]
	mov	r0, r11
	bl	p_56_plt_System_TimeSpan_get_TotalMilliseconds_llvm
	bl	p_57_plt__jit_icall___emul_fconv_to_i8_llvm
	mov	r2, r0
	mov	r3, r1
	cmp	r4, #0
	beq	.LBB30_4
	mov	r0, r4
	mov	r1, r7
	bl	p_58_plt_Android_OS_Handler_PostDelayed_System_Action_long_llvm
	add	sp, sp, #8
	pop	{r4, r5, r6, r7, r9, r10, r11, pc}
.LBB30_3:
	mov	r0, #73
	bl	mono_aot_Xamarin_Forms_Platform_Android_init_method
	b	.LBB30_1
.Ltmp314:
.LBB30_4:
	ldr	r0, .LCPI30_0
.LPC30_0:
	add	r1, pc, r0
	mov	r0, #225
	bl	p_3_plt__jit_icall_llvm_throw_corlib_exception_abs_trampoline_llvm
	.p2align	2
.LCPI30_0:
	.long	.Ltmp314-(.LPC30_0+8)
.LCPI30_1:
	.long	mono_aot_Xamarin_Forms_Platform_Android_llvm_got-(.LPC30_1+8)
.LCPI30_2:
	.long	mono_inited-(.LPC30_2+8)
.Lfunc_end30:
	.size	Xamarin_Forms_Forms_AndroidPlatformServices_StartTimer_System_TimeSpan_System_Func_1_bool, .Lfunc_end30-Xamarin_Forms_Forms_AndroidPlatformServices_StartTimer_System_TimeSpan_System_Func_1_bool
.Lexception24:
	.fnend

	.hidden	Xamarin_Forms_Forms_AndroidPlatformServices_ConvertTextAppearanceToSize_int_int_double
	.globl	Xamarin_Forms_Forms_AndroidPlatformServices_ConvertTextAppearanceToSize_int_int_double
	.p2align	2
	.type	Xamarin_Forms_Forms_AndroidPlatformServices_ConvertTextAppearanceToSize_int_int_double,%function
	.code	32
Xamarin_Forms_Forms_AndroidPlatformServices_ConvertTextAppearanceToSize_int_int_double:
.Lfunc_begin31:
	.fnstart
	.save	{r4, r5, r6, lr}
	push	{r4, r5, r6, lr}
.Ltmp315:
.Ltmp316:
.Ltmp317:
.Ltmp318:
.Ltmp319:
	.vsave	{d8}
	vpush	{d8}
.Ltmp320:
.Ltmp321:
	.pad	#8
	sub	sp, sp, #8
.Ltmp322:
	mov	r5, r0
	ldr	r0, .LCPI31_0
	mov	r6, r1
	mov	r1, #0
.LPC31_0:
	add	r0, pc, r0
	str	r1, [sp, #4]
	str	r1, [sp]
	mov	r4, r2
	ldr	r0, [r0, #28]
	ldr	r0, [r0]
	cmp	r0, #0
	blne	mono_aot_Xamarin_Forms_Platform_Android_icall_cold_wrapper_265
	mov	r2, sp
	mov	r0, r5
	mov	r1, r6
	bl	p_59_plt_Xamarin_Forms_Forms_AndroidPlatformServices_TryGetTextAppearance_int_double__llvm
	tst	r0, #255
	beq	.LBB31_2
	vldr	d0, [sp]
	vcmpe.f64	d0, #0
	vmrs	APSR_nzcv, fpscr
	bgt	.LBB31_4
.LBB31_2:
	mov	r2, sp
	mov	r0, r5
	mov	r1, r4
	vldr	d8, [sp, #32]
	bl	p_59_plt_Xamarin_Forms_Forms_AndroidPlatformServices_TryGetTextAppearance_int_double__llvm
	tst	r0, #255
	beq	.LBB31_5
	vldr	d0, [sp]
	vcmpe.f64	d0, #0
	vmrs	APSR_nzcv, fpscr
	vldrgt	d8, [sp]
	b	.LBB31_5
.LBB31_4:
	vldr	d8, [sp]
.LBB31_5:
	vmov	r0, r1, d8
	add	sp, sp, #8
	vpop	{d8}
	pop	{r4, r5, r6, pc}
	.p2align	2
.LCPI31_0:
	.long	mono_aot_Xamarin_Forms_Platform_Android_llvm_got-(.LPC31_0+8)
.Lfunc_end31:
	.size	Xamarin_Forms_Forms_AndroidPlatformServices_ConvertTextAppearanceToSize_int_int_double, .Lfunc_end31-Xamarin_Forms_Forms_AndroidPlatformServices_ConvertTextAppearanceToSize_int_int_double
.Lexception25:
	.fnend

	.hidden	Xamarin_Forms_Forms__c__cctor
	.globl	Xamarin_Forms_Forms__c__cctor
	.p2align	2
	.type	Xamarin_Forms_Forms__c__cctor,%function
	.code	32
Xamarin_Forms_Forms__c__cctor:
.Lfunc_begin32:
	.fnstart
	.save	{r4, r5, r11, lr}
	push	{r4, r5, r11, lr}
.Ltmp323:
.Ltmp324:
.Ltmp325:
.Ltmp326:
.Ltmp327:
	ldr	r4, .LCPI32_0
	ldr	r0, .LCPI32_1
.LPC32_0:
	add	r4, pc, r4
.LPC32_1:
	add	r0, pc, r0
	ldr	r1, [r4, #28]
	ldrb	r5, [r0, #92]
	ldr	r0, [r1]
	cmp	r0, #0
	blne	mono_aot_Xamarin_Forms_Platform_Android_icall_cold_wrapper_265
	cmp	r5, #0
	beq	.LBB32_2
.LBB32_1:
	ldr	r0, [r4, #264]
	mov	r1, #8
	bl	p_11_plt_wrapper_alloc_object_AllocSmall_intptr_intptr_llvm
	ldr	r1, [r4, #268]
	dmb	ish
	str	r0, [r1]
	pop	{r4, r5, r11, pc}
.LBB32_2:
	mov	r0, #92
	bl	mono_aot_Xamarin_Forms_Platform_Android_init_method
	b	.LBB32_1
	.p2align	2
.LCPI32_0:
	.long	mono_aot_Xamarin_Forms_Platform_Android_llvm_got-(.LPC32_0+8)
.LCPI32_1:
	.long	mono_inited-(.LPC32_1+8)
.Lfunc_end32:
	.size	Xamarin_Forms_Forms__c__cctor, .Lfunc_end32-Xamarin_Forms_Forms__c__cctor
.Lexception26:
	.fnend

	.hidden	Xamarin_Forms_Forms__c__ctor
	.globl	Xamarin_Forms_Forms__c__ctor
	.p2align	2
	.type	Xamarin_Forms_Forms__c__ctor,%function
	.code	32
Xamarin_Forms_Forms__c__ctor:
.Lfunc_begin33:
	.fnstart
	ldr	r0, .LCPI33_0
.LPC33_0:
	add	r0, pc, r0
	ldrb	r0, [r0, #93]
	cmp	r0, #0
	bxne	lr
	.save	{r11, lr}
	push	{r11, lr}
.Ltmp328:
.Ltmp329:
.Ltmp330:
	mov	r0, #93
	bl	mono_aot_Xamarin_Forms_Platform_Android_init_method
	pop	{r11, lr}
	bx	lr
	.p2align	2
.LCPI33_0:
	.long	mono_inited-(.LPC33_0+8)
.Lfunc_end33:
	.size	Xamarin_Forms_Forms__c__ctor, .Lfunc_end33-Xamarin_Forms_Forms__c__ctor
.Lexception27:
	.fnend

	.hidden	Xamarin_Forms_Platform_Android_AndroidAppIndexProvider__ctor_Android_Content_Context
	.globl	Xamarin_Forms_Platform_Android_AndroidAppIndexProvider__ctor_Android_Content_Context
	.p2align	2
	.type	Xamarin_Forms_Platform_Android_AndroidAppIndexProvider__ctor_Android_Content_Context,%function
	.code	32
Xamarin_Forms_Platform_Android_AndroidAppIndexProvider__ctor_Android_Content_Context:
.Lfunc_begin34:
	.fnstart
	.save	{r4, r5, r6, r7, r9, lr}
	push	{r4, r5, r6, r7, r9, lr}
.Ltmp331:
.Ltmp332:
.Ltmp333:
.Ltmp334:
.Ltmp335:
.Ltmp336:
.Ltmp337:
	ldr	r9, .LCPI34_1
	mov	r4, r0
	ldr	r0, .LCPI34_2
	mov	r5, r1
.LPC34_1:
	add	r9, pc, r9
.LPC34_2:
	add	r0, pc, r0
	ldr	r1, [r9, #28]
	ldrb	r6, [r0, #133]
	ldr	r0, [r1]
	cmp	r0, #0
	blne	mono_aot_Xamarin_Forms_Platform_Android_icall_cold_wrapper_265
	cmp	r6, #0
	beq	.LBB34_12
.LBB34_1:
	ldr	r0, [r9, #272]
	mov	r1, #0
	bl	p_60_plt_System_Type_GetType_string_bool_llvm
	mov	r6, r0
	cmp	r6, #0
	beq	.LBB34_11
	ldr	r0, [r9, #276]
	mov	r1, #1
	bl	p_12_plt_wrapper_alloc_object_AllocVector_intptr_intptr_llvm
	mov	r7, r0
	mov	r1, #0
	ldr	r0, [r7]
	mov	r2, r5
	ldr	r3, [r0, #136]
	mov	r0, r7
	blx	r3
	mov	r0, r6
	mov	r1, r7
	mov	r2, #0
	bl	p_61_plt_System_Activator_CreateInstance_System_Type_object___object___llvm
	mov	r5, r0
	cmp	r5, #0
	beq	.LBB34_8
	ldr	r1, [r5]
	ldr	r0, [r9, #280]
	ldr	r2, [r1, #20]
	cmp	r2, r0
	blo	.LBB34_5
	ldr	r2, [r1, #16]
	mov	r3, #1
	ldrb	r2, [r2, r0, asr #3]
	and	r0, r0, #7
	tst	r2, r3, lsl r0
	mov	r0, r5
	bne	.LBB34_9
.LBB34_5:
	ldr	r1, [r1]
	mov	r0, #0
	ldr	r2, [r9, #196]
	cmp	r1, r2
	bne	.LBB34_9
	ldr	r1, [r5, #16]
	cmp	r1, #0
	beq	.LBB34_9
	mov	r0, r5
	bl	p_62_plt_wrapper_proxy_isinst_object___proxy_isinst_wrapper_Xamarin_Forms_IAppLinks_object_llvm
	cmp	r0, #0
	moveq	r5, r0
.LBB34_8:
	mov	r0, r5
.LBB34_9:
	cmp	r4, #0
	beq	.LBB34_13
	ldr	r1, [r9, #8]
	dmb	ish
	str	r0, [r4, #8]!
	mov	r0, #1
	strb	r0, [r1, r4, lsr #9]
.LBB34_11:
	pop	{r4, r5, r6, r7, r9, pc}
.LBB34_12:
	mov	r0, #133
	bl	mono_aot_Xamarin_Forms_Platform_Android_init_method
	b	.LBB34_1
.Ltmp338:
.LBB34_13:
	ldr	r0, .LCPI34_0
.LPC34_0:
	add	r1, pc, r0
	mov	r0, #225
	bl	p_3_plt__jit_icall_llvm_throw_corlib_exception_abs_trampoline_llvm
	.p2align	2
.LCPI34_0:
	.long	.Ltmp338-(.LPC34_0+8)
.LCPI34_1:
	.long	mono_aot_Xamarin_Forms_Platform_Android_llvm_got-(.LPC34_1+8)
.LCPI34_2:
	.long	mono_inited-(.LPC34_2+8)
.Lfunc_end34:
	.size	Xamarin_Forms_Platform_Android_AndroidAppIndexProvider__ctor_Android_Content_Context, .Lfunc_end34-Xamarin_Forms_Platform_Android_AndroidAppIndexProvider__ctor_Android_Content_Context
.Lexception28:
	.fnend

	.hidden	Xamarin_Forms_Platform_Android_AndroidTicker__ctor
	.globl	Xamarin_Forms_Platform_Android_AndroidTicker__ctor
	.p2align	2
	.type	Xamarin_Forms_Platform_Android_AndroidTicker__ctor,%function
	.code	32
Xamarin_Forms_Platform_Android_AndroidTicker__ctor:
.Lfunc_begin35:
	.fnstart
	.save	{r4, r5, r6, r7, r9, lr}
	push	{r4, r5, r6, r7, r9, lr}
.Ltmp339:
.Ltmp340:
.Ltmp341:
.Ltmp342:
.Ltmp343:
.Ltmp344:
.Ltmp345:
	ldr	r6, .LCPI35_4
	mov	r4, r0
	ldr	r0, .LCPI35_5
.LPC35_4:
	add	r6, pc, r6
.LPC35_5:
	add	r0, pc, r0
	ldr	r1, [r6, #28]
	ldrb	r5, [r0, #135]
	ldr	r0, [r1]
	cmp	r0, #0
	blne	mono_aot_Xamarin_Forms_Platform_Android_icall_cold_wrapper_265
	cmp	r5, #0
	beq	.LBB35_6
.LBB35_1:
	mov	r0, r4
	bl	p_63_plt_Xamarin_Forms_Internals_Ticker__ctor_llvm
	ldr	r0, [r6, #284]
	bl	p_13_plt__jit_icall_ves_icall_object_new_specific_llvm
	mov	r5, r0
	bl	p_64_plt_Android_Animation_ValueAnimator__ctor_llvm
	cmp	r4, #0
	beq	.LBB35_7
	ldr	r9, [r6, #8]
	mov	r1, r4
	dmb	ish
	str	r5, [r1, #24]!
	mov	r2, #1
	ldr	r0, [r6, #288]
	strb	r2, [r9, r1, lsr #9]
	ldr	r5, [r1]
	mov	r1, #2
	bl	p_12_plt_wrapper_alloc_object_AllocVector_intptr_intptr_llvm
	mov	r1, r0
	mov	r0, #100
	cmp	r5, #0
	str	r0, [r1, #20]
	beq	.LBB35_8
	ldr	r0, [r5]
	ldr	r2, [r0, #176]
	mov	r0, r5
	blx	r2
	ldr	r0, [r4, #24]
	cmp	r0, #0
	beq	.LBB35_9
	ldr	r1, [r0]
	ldr	r2, [r1, #188]
	mvn	r1, #0
	blx	r2
	ldr	r0, [r6, #292]
	mov	r1, #64
	ldr	r5, [r4, #24]
	bl	p_11_plt_wrapper_alloc_object_AllocSmall_intptr_intptr_llvm
	add	r3, r6, #296
	mov	r7, r0
	dmb	ish
	mov	r1, r7
	ldm	r3, {r0, r2, r3}
	mov	r6, #1
	cmp	r5, #0
	str	r4, [r1, #16]!
	lsr	r1, r1, #9
	strb	r6, [r1, r9]
	mov	r1, #0
	str	r0, [r7, #20]
	str	r2, [r7, #32]
	ldr	r0, [r3, #20]
	str	r0, [r7, #12]
	ldr	r0, [r3, #16]
	strb	r1, [r7, #56]
	str	r0, [r7, #8]
	beq	.LBB35_10
	mov	r0, r5
	mov	r1, r7
	bl	p_65_plt_Android_Animation_ValueAnimator_add_Update_System_EventHandler_1_Android_Animation_ValueAnimator_AnimatorUpdateEventArgs_llvm
	bl	p_66_plt_Xamarin_Forms_Platform_Android_AndroidTicker_IsAnimatorEnabled_llvm
	strb	r0, [r4, #28]
	mov	r0, r4
	bl	p_67_plt_Xamarin_Forms_Platform_Android_AndroidTicker_CheckAnimationEnabledStatus_llvm
	pop	{r4, r5, r6, r7, r9, pc}
.LBB35_6:
	mov	r0, #135
	bl	mono_aot_Xamarin_Forms_Platform_Android_init_method
	b	.LBB35_1
.Ltmp346:
.LBB35_7:
	ldr	r0, .LCPI35_3
.LPC35_3:
	add	r1, pc, r0
	mov	r0, #225
	bl	p_3_plt__jit_icall_llvm_throw_corlib_exception_abs_trampoline_llvm
.Ltmp347:
.LBB35_8:
	ldr	r0, .LCPI35_2
.LPC35_2:
	add	r1, pc, r0
	mov	r0, #225
	bl	p_3_plt__jit_icall_llvm_throw_corlib_exception_abs_trampoline_llvm
.Ltmp348:
.LBB35_9:
	ldr	r0, .LCPI35_1
.LPC35_1:
	add	r1, pc, r0
	mov	r0, #225
	bl	p_3_plt__jit_icall_llvm_throw_corlib_exception_abs_trampoline_llvm
.Ltmp349:
.LBB35_10:
	ldr	r0, .LCPI35_0
.LPC35_0:
	add	r1, pc, r0
	mov	r0, #225
	bl	p_3_plt__jit_icall_llvm_throw_corlib_exception_abs_trampoline_llvm
	.p2align	2
.LCPI35_0:
	.long	.Ltmp349-(.LPC35_0+8)
.LCPI35_1:
	.long	.Ltmp348-(.LPC35_1+8)
.LCPI35_2:
	.long	.Ltmp347-(.LPC35_2+8)
.LCPI35_3:
	.long	.Ltmp346-(.LPC35_3+8)
.LCPI35_4:
	.long	mono_aot_Xamarin_Forms_Platform_Android_llvm_got-(.LPC35_4+8)
.LCPI35_5:
	.long	mono_inited-(.LPC35_5+8)
.Lfunc_end35:
	.size	Xamarin_Forms_Platform_Android_AndroidTicker__ctor, .Lfunc_end35-Xamarin_Forms_Platform_Android_AndroidTicker__ctor
.Lexception29:
	.fnend

	.hidden	Xamarin_Forms_Platform_Android_AndroidTicker_Dispose
	.globl	Xamarin_Forms_Platform_Android_AndroidTicker_Dispose
	.p2align	2
	.type	Xamarin_Forms_Platform_Android_AndroidTicker_Dispose,%function
	.code	32
Xamarin_Forms_Platform_Android_AndroidTicker_Dispose:
.Lfunc_begin36:
	.fnstart
	.save	{r4, r5, r6, lr}
	push	{r4, r5, r6, lr}
.Ltmp350:
.Ltmp351:
.Ltmp352:
.Ltmp353:
.Ltmp354:
	ldr	r6, .LCPI36_2
	mov	r4, r0
	ldr	r0, .LCPI36_3
.LPC36_2:
	add	r6, pc, r6
.LPC36_3:
	add	r0, pc, r0
	ldr	r1, [r6, #28]
	ldrb	r5, [r0, #139]
	ldr	r0, [r1]
	cmp	r0, #0
	blne	mono_aot_Xamarin_Forms_Platform_Android_icall_cold_wrapper_265
	cmp	r5, #0
	beq	.LBB36_6
	cmp	r4, #0
	beq	.LBB36_7
.LBB36_2:
	ldr	r5, [r4, #24]
	cmp	r5, #0
	beq	.LBB36_5
	ldr	r0, [r6, #292]
	mov	r1, #64
	bl	p_11_plt_wrapper_alloc_object_AllocSmall_intptr_intptr_llvm
	mov	r2, r0
	dmb	ish
	mov	r1, r2
	ldr	lr, [r6, #8]
	str	r4, [r1, #16]!
	mov	r0, #1
	ldr	r12, [r6, #296]
	ldr	r3, [r6, #300]
	lsr	r1, r1, #9
	ldr	r6, [r6, #304]
	strb	r0, [r1, lr]
	mov	r1, #0
	str	r12, [r2, #20]
	str	r3, [r2, #32]
	ldr	r0, [r6, #20]
	str	r0, [r2, #12]
	ldr	r0, [r6, #16]
	strb	r1, [r2, #56]
	mov	r1, r2
	str	r0, [r2, #8]
	mov	r0, r5
	bl	p_68_plt_Android_Animation_ValueAnimator_remove_Update_System_EventHandler_1_Android_Animation_ValueAnimator_AnimatorUpdateEventArgs_llvm
	ldr	r0, [r4, #24]
	cmp	r0, #0
	beq	.LBB36_8
	bl	p_69_plt_Java_Lang_Object_Dispose_llvm
.LBB36_5:
	mov	r0, #0
	str	r0, [r4, #24]
	pop	{r4, r5, r6, pc}
.LBB36_6:
	mov	r0, #139
	bl	mono_aot_Xamarin_Forms_Platform_Android_init_method
	cmp	r4, #0
	bne	.LBB36_2
.Ltmp355:
.LBB36_7:
	ldr	r0, .LCPI36_1
.LPC36_1:
	add	r1, pc, r0
	mov	r0, #225
	bl	p_3_plt__jit_icall_llvm_throw_corlib_exception_abs_trampoline_llvm
.Ltmp356:
.LBB36_8:
	ldr	r0, .LCPI36_0
.LPC36_0:
	add	r1, pc, r0
	mov	r0, #225
	bl	p_3_plt__jit_icall_llvm_throw_corlib_exception_abs_trampoline_llvm
	.p2align	2
.LCPI36_0:
	.long	.Ltmp356-(.LPC36_0+8)
.LCPI36_1:
	.long	.Ltmp355-(.LPC36_1+8)
.LCPI36_2:
	.long	mono_aot_Xamarin_Forms_Platform_Android_llvm_got-(.LPC36_2+8)
.LCPI36_3:
	.long	mono_inited-(.LPC36_3+8)
.Lfunc_end36:
	.size	Xamarin_Forms_Platform_Android_AndroidTicker_Dispose, .Lfunc_end36-Xamarin_Forms_Platform_Android_AndroidTicker_Dispose
.Lexception30:
	.fnend

	.hidden	Xamarin_Forms_Platform_Android_FormsAppCompatActivity_get_AllowFragmentRestore
	.globl	Xamarin_Forms_Platform_Android_FormsAppCompatActivity_get_AllowFragmentRestore
	.p2align	2
	.type	Xamarin_Forms_Platform_Android_FormsAppCompatActivity_get_AllowFragmentRestore,%function
	.code	32
Xamarin_Forms_Platform_Android_FormsAppCompatActivity_get_AllowFragmentRestore:
.Lfunc_begin37:
	.fnstart
	mov	r0, #0
	bx	lr
.Lfunc_end37:
	.size	Xamarin_Forms_Platform_Android_FormsAppCompatActivity_get_AllowFragmentRestore, .Lfunc_end37-Xamarin_Forms_Platform_Android_FormsAppCompatActivity_get_AllowFragmentRestore
.Lexception31:
	.fnend

	.hidden	Xamarin_Forms_Platform_Android_FormsAppCompatActivity__ctor
	.globl	Xamarin_Forms_Platform_Android_FormsAppCompatActivity__ctor
	.p2align	2
	.type	Xamarin_Forms_Platform_Android_FormsAppCompatActivity__ctor,%function
	.code	32
Xamarin_Forms_Platform_Android_FormsAppCompatActivity__ctor:
.Lfunc_begin38:
	.fnstart
	.save	{r4, r5, r11, lr}
	push	{r4, r5, r11, lr}
.Ltmp357:
.Ltmp358:
.Ltmp359:
.Ltmp360:
.Ltmp361:
	mov	r4, r0
	ldr	r0, .LCPI38_1
	ldr	r1, .LCPI38_2
.LPC38_1:
	add	r0, pc, r0
.LPC38_2:
	add	r1, pc, r1
	ldr	r0, [r0, #28]
	ldrb	r5, [r1, #294]
	ldr	r0, [r0]
	cmp	r0, #0
	blne	mono_aot_Xamarin_Forms_Platform_Android_icall_cold_wrapper_265
	cmp	r5, #0
	beq	.LBB38_3
.LBB38_1:
	mov	r0, r4
	bl	p_70_plt_AndroidX_AppCompat_App_AppCompatActivity__ctor_llvm
	cmp	r4, #0
	beq	.LBB38_4
	mov	r0, #0
	str	r0, [r4, #52]
	str	r0, [r4, #56]
	mov	r0, r4
	bl	Xamarin_Forms_Platform_Android_PopupManager_Subscribe_Android_App_Activity
	pop	{r4, r5, r11, pc}
.LBB38_3:
	movw	r0, #294
	bl	mono_aot_Xamarin_Forms_Platform_Android_init_method
	b	.LBB38_1
.Ltmp362:
.LBB38_4:
	ldr	r0, .LCPI38_0
.LPC38_0:
	add	r1, pc, r0
	mov	r0, #225
	bl	p_3_plt__jit_icall_llvm_throw_corlib_exception_abs_trampoline_llvm
	.p2align	2
.LCPI38_0:
	.long	.Ltmp362-(.LPC38_0+8)
.LCPI38_1:
	.long	mono_aot_Xamarin_Forms_Platform_Android_llvm_got-(.LPC38_1+8)
.LCPI38_2:
	.long	mono_inited-(.LPC38_2+8)
.Lfunc_end38:
	.size	Xamarin_Forms_Platform_Android_FormsAppCompatActivity__ctor, .Lfunc_end38-Xamarin_Forms_Platform_Android_FormsAppCompatActivity__ctor
.Lexception32:
	.fnend

	.hidden	Xamarin_Forms_Platform_Android_FormsAppCompatActivity_add_ConfigurationChanged_System_EventHandler
	.globl	Xamarin_Forms_Platform_Android_FormsAppCompatActivity_add_ConfigurationChanged_System_EventHandler
	.p2align	2
	.type	Xamarin_Forms_Platform_Android_FormsAppCompatActivity_add_ConfigurationChanged_System_EventHandler,%function
	.code	32
Xamarin_Forms_Platform_Android_FormsAppCompatActivity_add_ConfigurationChanged_System_EventHandler:
.Lfunc_begin39:
	.fnstart
	.save	{r4, r5, r6, r7, r9, r10, r11, lr}
	push	{r4, r5, r6, r7, r9, r10, r11, lr}
.Ltmp363:
.Ltmp364:
.Ltmp365:
.Ltmp366:
.Ltmp367:
.Ltmp368:
.Ltmp369:
.Ltmp370:
.Ltmp371:
	mov	r11, r1
	ldr	r1, .LCPI39_2
	mov	r5, r0
	ldr	r0, .LCPI39_3
.LPC39_2:
	add	r1, pc, r1
.LPC39_3:
	add	r0, pc, r0
	ldr	r1, [r1, #28]
	ldrb	r4, [r0, #295]
	ldr	r0, [r1]
	cmp	r0, #0
	blne	mono_aot_Xamarin_Forms_Platform_Android_icall_cold_wrapper_265
	cmp	r4, #0
	beq	.LBB39_13
	cmp	r5, #0
	beq	.LBB39_14
.LBB39_2:
	ldr	r6, [r5, #48]!
	ldr	r0, .LCPI39_4
	lsr	r4, r5, #9
.LPC39_4:
	add	r0, pc, r0
	ldr	r7, [r0, #8]
	ldr	r10, [r0, #308]
.LBB39_3:
	mov	r0, r6
	mov	r1, r11
	bl	p_72_plt_System_Delegate_Combine_System_Delegate_System_Delegate_llvm
	cmp	r0, #0
	beq	.LBB39_5
	ldr	r1, [r0]
	ldr	r1, [r1]
	ldr	r1, [r1, #8]
	ldr	r1, [r1, #12]
	cmp	r1, r10
	bne	.LBB39_15
.LBB39_5:
	dmb	ish
	ldrex	r1, [r5]
	cmp	r1, r6
	bne	.LBB39_9
	dmb	ish
.LBB39_7:
	strex	r2, r0, [r5]
	cmp	r2, #0
	beq	.LBB39_10
	ldrex	r1, [r5]
	cmp	r1, r6
	beq	.LBB39_7
.LBB39_9:
	clrex
	mov	r9, #0
	dmb	ish
	b	.LBB39_11
.LBB39_10:
	dmb	ish
	mov	r9, #1
.LBB39_11:
	mov	r0, #1
	mov	r6, r1
	strb	r0, [r4, r7]
	ldr	r0, .LCPI39_5
.LPC39_5:
	add	r0, pc, r0
	ldr	r0, [r0, #28]
	ldr	r0, [r0]
	cmp	r0, #0
	blne	mono_aot_Xamarin_Forms_Platform_Android_icall_cold_wrapper_265
	cmp	r9, #0
	beq	.LBB39_3
	pop	{r4, r5, r6, r7, r9, r10, r11, pc}
.LBB39_13:
	movw	r0, #295
	bl	mono_aot_Xamarin_Forms_Platform_Android_init_method
	cmp	r5, #0
	bne	.LBB39_2
.Ltmp372:
.LBB39_14:
	ldr	r0, .LCPI39_1
.LPC39_1:
	add	r1, pc, r0
	mov	r0, #225
	bl	p_3_plt__jit_icall_llvm_throw_corlib_exception_abs_trampoline_llvm
.Ltmp373:
.LBB39_15:
	ldr	r0, .LCPI39_0
.LPC39_0:
	add	r1, pc, r0
	mov	r0, #203
	bl	p_3_plt__jit_icall_llvm_throw_corlib_exception_abs_trampoline_llvm
	.p2align	2
.LCPI39_0:
	.long	.Ltmp373-(.LPC39_0+8)
.LCPI39_1:
	.long	.Ltmp372-(.LPC39_1+8)
.LCPI39_2:
	.long	mono_aot_Xamarin_Forms_Platform_Android_llvm_got-(.LPC39_2+8)
.LCPI39_3:
	.long	mono_inited-(.LPC39_3+8)
.LCPI39_4:
	.long	mono_aot_Xamarin_Forms_Platform_Android_llvm_got-(.LPC39_4+8)
.LCPI39_5:
	.long	mono_aot_Xamarin_Forms_Platform_Android_llvm_got-(.LPC39_5+8)
.Lfunc_end39:
	.size	Xamarin_Forms_Platform_Android_FormsAppCompatActivity_add_ConfigurationChanged_System_EventHandler, .Lfunc_end39-Xamarin_Forms_Platform_Android_FormsAppCompatActivity_add_ConfigurationChanged_System_EventHandler
.Lexception33:
	.fnend

	.hidden	Xamarin_Forms_Platform_Android_FormsAppCompatActivity_LoadApplication_Xamarin_Forms_Application
	.globl	Xamarin_Forms_Platform_Android_FormsAppCompatActivity_LoadApplication_Xamarin_Forms_Application
	.p2align	2
	.type	Xamarin_Forms_Platform_Android_FormsAppCompatActivity_LoadApplication_Xamarin_Forms_Application,%function
	.code	32
Xamarin_Forms_Platform_Android_FormsAppCompatActivity_LoadApplication_Xamarin_Forms_Application:
.Lfunc_begin40:
	.fnstart
	.save	{r4, r5, r6, r7, r8, r9, r10, r11, lr}
	push	{r4, r5, r6, r7, r8, r9, r10, r11, lr}
.Ltmp374:
.Ltmp375:
.Ltmp376:
.Ltmp377:
.Ltmp378:
.Ltmp379:
.Ltmp380:
.Ltmp381:
.Ltmp382:
.Ltmp383:
	.pad	#12
	sub	sp, sp, #12
.Ltmp384:
	ldr	r5, .LCPI40_3
	mov	r4, r0
	ldr	r0, .LCPI40_4
	mov	r11, r1
.LPC40_3:
	add	r5, pc, r5
.LPC40_4:
	add	r0, pc, r0
	ldr	r1, [r5, #28]
	ldrb	r6, [r0, #303]
	ldr	r0, [r1]
	cmp	r0, #0
	blne	mono_aot_Xamarin_Forms_Platform_Android_icall_cold_wrapper_265
	cmp	r6, #0
	beq	.LBB40_13
.LBB40_1:
	ldr	r6, [r5, #312]
	mov	r1, #152
	mov	r0, r6
	bl	p_7_plt_Xamarin_Forms_Internals_Profile_FrameBegin_string_int_llvm
	cmp	r4, #0
	beq	.LBB40_16
	ldrb	r0, [r4, #61]
	cmp	r0, #0
	beq	.LBB40_17
	ldrb	r0, [r4, #60]
	str	r6, [sp, #4]
	cmp	r0, #0
	bne	.LBB40_5
	ldr	r0, [r5, #392]
	mov	r1, #160
	bl	p_73_plt_Xamarin_Forms_Internals_Profile_FramePartition_string_int_llvm
	bl	p_85_plt_Xamarin_Forms_Platform_Android_FormsAppCompatActivity_RegisterHandlers_llvm
	mov	r0, #1
	strb	r0, [r4, #60]
.LBB40_5:
	ldr	r7, [r4, #32]
	cmp	r7, #0
	beq	.LBB40_8
	ldr	r0, [r5, #368]
	mov	r1, #64
	bl	p_11_plt_wrapper_alloc_object_AllocSmall_intptr_intptr_llvm
	add	r6, r5, #372
	mov	r1, r0
	dmb	ish
	str	r4, [r0, #16]!
	ldm	r6, {r2, r3, r6}
	lsr	r12, r0, #9
	ldr	r10, [r5, #8]
	mov	r0, #1
	strb	r0, [r12, r10]
	str	r2, [r1, #20]
	mov	r2, #0
	str	r3, [r1, #32]
	ldr	r0, [r6, #20]
	str	r0, [r1, #12]
	ldr	r0, [r6, #16]
	strb	r2, [r1, #56]
	str	r0, [r1, #8]
	mov	r0, r7
	bl	p_83_plt_Xamarin_Forms_BindableObject_remove_PropertyChanging_Xamarin_Forms_PropertyChangingEventHandler_llvm
	ldr	r0, [r5, #352]
	mov	r1, #64
	ldr	r9, [r4, #32]
	bl	p_11_plt_wrapper_alloc_object_AllocSmall_intptr_intptr_llvm
	add	r6, r5, #356
	mov	r1, r0
	dmb	ish
	str	r4, [r0, #16]!
	ldm	r6, {r2, r3, r6}
	mov	r7, #1
	lsr	r0, r0, #9
	strb	r7, [r0, r10]
	cmp	r9, #0
	str	r2, [r1, #20]
	mov	r2, #0
	str	r3, [r1, #32]
	ldr	r0, [r6, #20]
	str	r0, [r1, #12]
	ldr	r0, [r6, #16]
	strb	r2, [r1, #56]
	str	r0, [r1, #8]
	beq	.LBB40_20
	mov	r0, r9
	bl	p_84_plt_Xamarin_Forms_BindableObject_remove_PropertyChanged_System_ComponentModel_PropertyChangedEventHandler_llvm
.LBB40_8:
	ldr	r0, [r5, #316]
	mov	r1, #171
	bl	p_73_plt_Xamarin_Forms_Internals_Profile_FramePartition_string_int_llvm
	cmp	r11, #0
	beq	.LBB40_18
	ldr	r10, [r5, #8]
	mov	r1, r4
	dmb	ish
	ldr	r0, [r5, #320]
	str	r11, [r1, #32]!
	mov	r2, #1
	strb	r2, [r10, r1, lsr #9]
	mov	r1, #12
	bl	p_11_plt_wrapper_alloc_object_AllocSmall_intptr_intptr_llvm
	mov	r1, r4
	mov	r7, r0
	bl	Xamarin_Forms_Platform_Android_AndroidAppIndexProvider__ctor_Android_Content_Context
	ldr	r0, [r11]
	ldr	r1, [r5, #324]
	ldr	r2, [r0, #-64]
	mov	r0, r11
	str	r1, [sp, #8]
	mov	r1, r7
	ldr	r8, [sp, #8]
	blx	r2
	ldr	r0, [r5, #328]
	mov	r1, #175
	bl	p_73_plt_Xamarin_Forms_Internals_Profile_FramePartition_string_int_llvm
	ldr	r7, [r5, #332]
	ldrb	r0, [r7, #25]
	cmp	r0, #0
	beq	.LBB40_14
.LBB40_10:
	ldr	r6, [r5, #336]
	mov	r1, #178
	ldr	r0, [r5, #340]
	dmb	ish
	str	r11, [r6]
	bl	p_73_plt_Xamarin_Forms_Internals_Profile_FramePartition_string_int_llvm
	ldrb	r0, [r7, #25]
	cmp	r0, #0
	beq	.LBB40_15
.LBB40_11:
	ldr	r1, [r5, #344]
	ldr	r0, [r6]
	str	r1, [sp, #8]
	ldr	r8, [sp, #8]
	bl	p_75_plt_Xamarin_Forms_Platform_Android_PlatformConfigurationExtensions_OnThisPlatform_Xamarin_Forms_Application_Xamarin_Forms_Application_llvm
	bl	p_76_plt_Xamarin_Forms_PlatformConfiguration_AndroidSpecific_Application_GetWindowSoftInputModeAdjust_Xamarin_Forms_IPlatformElementConfiguration_2_Xamarin_Forms_PlatformConfiguration_Android_Xamarin_Forms_Application_llvm
	cmp	r0, #2
	movne	r0, r4
	blne	Xamarin_Forms_Platform_Android_FormsAppCompatActivity_SetSoftInputMode
	ldr	r0, [r5, #348]
	mov	r1, #182
	bl	p_73_plt_Xamarin_Forms_Internals_Profile_FramePartition_string_int_llvm
	ldr	r0, [r4]
	ldr	r1, [r0, #592]
	mov	r0, r4
	blx	r1
	mov	r1, r0
	mov	r0, r4
	bl	Xamarin_Forms_Platform_Android_FormsAppCompatActivity_CheckForAppLink_Android_Content_Intent
	ldr	r0, [r5, #352]
	mov	r1, #64
	bl	p_11_plt_wrapper_alloc_object_AllocSmall_intptr_intptr_llvm
	mov	r1, r0
	dmb	ish
	str	r4, [r0, #16]!
	mov	r9, #1
	add	r3, r5, #356
	mov	r7, #0
	lsr	r0, r0, #9
	strb	r9, [r0, r10]
	ldm	r3, {r0, r2, r3}
	str	r0, [r1, #20]
	str	r2, [r1, #32]
	ldr	r0, [r3, #20]
	str	r0, [r1, #12]
	ldr	r0, [r3, #16]
	strb	r7, [r1, #56]
	str	r0, [r1, #8]
	mov	r0, r11
	bl	p_78_plt_Xamarin_Forms_BindableObject_add_PropertyChanged_System_ComponentModel_PropertyChangedEventHandler_llvm
	ldr	r0, [r5, #368]
	mov	r1, #64
	bl	p_11_plt_wrapper_alloc_object_AllocSmall_intptr_intptr_llvm
	add	r6, r5, #372
	mov	r1, r0
	dmb	ish
	str	r4, [r0, #16]!
	ldm	r6, {r2, r3, r6}
	lsr	r0, r0, #9
	strb	r9, [r0, r10]
	str	r2, [r1, #20]
	str	r3, [r1, #32]
	ldr	r0, [r6, #20]
	str	r0, [r1, #12]
	ldr	r0, [r6, #16]
	strb	r7, [r1, #56]
	str	r0, [r1, #8]
	mov	r0, r11
	bl	p_79_plt_Xamarin_Forms_BindableObject_add_PropertyChanging_Xamarin_Forms_PropertyChangingEventHandler_llvm
	ldr	r0, [r5, #384]
	ldr	r0, [r0]
	cmp	r0, #0
	beq	.LBB40_19
	bl	p_80_plt_System_Threading_ManualResetEventSlim_Wait_llvm
	ldr	r0, [r5, #388]
	mov	r1, #191
	bl	p_73_plt_Xamarin_Forms_Internals_Profile_FramePartition_string_int_llvm
	mov	r0, r4
	bl	Xamarin_Forms_Platform_Android_FormsAppCompatActivity_SetMainPage
	ldr	r0, [sp, #4]
	bl	p_9_plt_Xamarin_Forms_Internals_Profile_FrameEnd_string_llvm
	add	sp, sp, #12
	pop	{r4, r5, r6, r7, r8, r9, r10, r11, pc}
.LBB40_13:
	movw	r0, #303
	bl	mono_aot_Xamarin_Forms_Platform_Android_init_method
	b	.LBB40_1
.LBB40_14:
	mov	r0, r7
	bl	p_24_plt__jit_icall_mono_generic_class_init_llvm
	b	.LBB40_10
.LBB40_15:
	mov	r0, r7
	bl	p_24_plt__jit_icall_mono_generic_class_init_llvm
	b	.LBB40_11
.Ltmp385:
.LBB40_16:
	ldr	r0, .LCPI40_2
.LPC40_2:
	add	r1, pc, r0
	mov	r0, #225
	bl	p_3_plt__jit_icall_llvm_throw_corlib_exception_abs_trampoline_llvm
.LBB40_17:
	ldr	r0, .LCPI40_5
	movw	r1, #2686
.LPC40_5:
	ldr	r0, [pc, r0]
	bl	p_51_plt__jit_icall_mono_helper_ldstr_llvm
	mov	r1, r0
	movw	r0, #124
	movt	r0, #512
	add	r0, r0, #80
	bl	p_52_plt__jit_icall_mono_create_corlib_exception_1_llvm
	bl	p_53_plt__jit_icall_mono_arch_throw_exception_llvm
.LBB40_18:
	ldr	r0, .LCPI40_6
	movw	r1, #2975
.LPC40_6:
	ldr	r0, [pc, r0]
	bl	p_51_plt__jit_icall_mono_helper_ldstr_llvm
	mov	r1, r0
	movw	r0, #124
	movt	r0, #512
	bl	p_52_plt__jit_icall_mono_create_corlib_exception_1_llvm
	bl	p_53_plt__jit_icall_mono_arch_throw_exception_llvm
.Ltmp386:
.LBB40_19:
	ldr	r0, .LCPI40_1
.LPC40_1:
	add	r1, pc, r0
	mov	r0, #225
	bl	p_3_plt__jit_icall_llvm_throw_corlib_exception_abs_trampoline_llvm
.Ltmp387:
.LBB40_20:
	ldr	r0, .LCPI40_0
.LPC40_0:
	add	r1, pc, r0
	mov	r0, #225
	bl	p_3_plt__jit_icall_llvm_throw_corlib_exception_abs_trampoline_llvm
	.p2align	2
.LCPI40_0:
	.long	.Ltmp387-(.LPC40_0+8)
.LCPI40_1:
	.long	.Ltmp386-(.LPC40_1+8)
.LCPI40_2:
	.long	.Ltmp385-(.LPC40_2+8)
.LCPI40_3:
	.long	mono_aot_Xamarin_Forms_Platform_Android_llvm_got-(.LPC40_3+8)
.LCPI40_4:
	.long	mono_inited-(.LPC40_4+8)
.LCPI40_5:
	.long	mono_aot_Xamarin_Forms_Platform_Android_llvm_got-(.LPC40_5+8)
.LCPI40_6:
	.long	mono_aot_Xamarin_Forms_Platform_Android_llvm_got-(.LPC40_6+8)
.Lfunc_end40:
	.size	Xamarin_Forms_Platform_Android_FormsAppCompatActivity_LoadApplication_Xamarin_Forms_Application, .Lfunc_end40-Xamarin_Forms_Platform_Android_FormsAppCompatActivity_LoadApplication_Xamarin_Forms_Application
.Lexception34:
	.fnend

	.hidden	Xamarin_Forms_Platform_Android_FormsAppCompatActivity_OnCreate_Android_OS_Bundle
	.globl	Xamarin_Forms_Platform_Android_FormsAppCompatActivity_OnCreate_Android_OS_Bundle
	.p2align	2
	.type	Xamarin_Forms_Platform_Android_FormsAppCompatActivity_OnCreate_Android_OS_Bundle,%function
	.code	32
Xamarin_Forms_Platform_Android_FormsAppCompatActivity_OnCreate_Android_OS_Bundle:
.Lfunc_begin41:
	.fnstart
	.save	{r4, r5, r11, lr}
	push	{r4, r5, r11, lr}
.Ltmp388:
.Ltmp389:
.Ltmp390:
.Ltmp391:
.Ltmp392:
	mov	r5, r0
	ldr	r0, .LCPI41_0
	mov	r4, r1
.LPC41_0:
	add	r0, pc, r0
	ldr	r0, [r0, #28]
	ldr	r0, [r0]
	cmp	r0, #0
	blne	mono_aot_Xamarin_Forms_Platform_Android_icall_cold_wrapper_265
	mov	r0, r5
	mov	r1, r4
	mov	r2, #0
	mov	r3, #0
	bl	p_86_plt_Xamarin_Forms_Platform_Android_FormsAppCompatActivity_OnCreate_Android_OS_Bundle_Xamarin_Forms_Platform_Android_ActivationFlags_llvm
	pop	{r4, r5, r11, pc}
	.p2align	2
.LCPI41_0:
	.long	mono_aot_Xamarin_Forms_Platform_Android_llvm_got-(.LPC41_0+8)
.Lfunc_end41:
	.size	Xamarin_Forms_Platform_Android_FormsAppCompatActivity_OnCreate_Android_OS_Bundle, .Lfunc_end41-Xamarin_Forms_Platform_Android_FormsAppCompatActivity_OnCreate_Android_OS_Bundle
.Lexception35:
	.fnend

	.hidden	Xamarin_Forms_Platform_Android_FormsAppCompatActivity_OnResume
	.globl	Xamarin_Forms_Platform_Android_FormsAppCompatActivity_OnResume
	.p2align	2
	.type	Xamarin_Forms_Platform_Android_FormsAppCompatActivity_OnResume,%function
	.code	32
Xamarin_Forms_Platform_Android_FormsAppCompatActivity_OnResume:
.Lfunc_begin42:
	.fnstart
	.save	{r4, r5, r6, r7, r8, r9, r11, lr}
	push	{r4, r5, r6, r7, r8, r9, r11, lr}
.Ltmp393:
.Ltmp394:
.Ltmp395:
.Ltmp396:
.Ltmp397:
.Ltmp398:
.Ltmp399:
.Ltmp400:
.Ltmp401:
	.pad	#8
	sub	sp, sp, #8
.Ltmp402:
	ldr	r6, .LCPI42_1
	mov	r5, r0
	ldr	r0, .LCPI42_2
.LPC42_1:
	add	r6, pc, r6
.LPC42_2:
	add	r0, pc, r0
	ldr	r1, [r6, #28]
	ldrb	r4, [r0, #312]
	ldr	r0, [r1]
	cmp	r0, #0
	blne	mono_aot_Xamarin_Forms_Platform_Android_icall_cold_wrapper_265
	cmp	r4, #0
	beq	.LBB42_21
.LBB42_1:
	ldr	r4, [r6, #396]
	movw	r1, #377
	mov	r0, r4
	bl	p_7_plt_Xamarin_Forms_Internals_Profile_FrameBegin_string_int_llvm
	mov	r0, r5
	bl	p_87_plt_Android_App_Activity_OnResume_llvm
	cmp	r5, #0
	beq	.LBB42_22
	ldr	r0, [r5, #32]
	cmp	r0, #0
	beq	.LBB42_6
	ldr	r0, [r5]
	ldr	r1, [r0, #596]
	mov	r0, r5
	blx	r1
	cmp	r0, #0
	beq	.LBB42_6
	ldr	r1, [r6, #344]
	ldr	r0, [r5, #32]
	str	r1, [sp, #4]
	ldr	r8, [sp, #4]
	bl	p_75_plt_Xamarin_Forms_Platform_Android_PlatformConfigurationExtensions_OnThisPlatform_Xamarin_Forms_Application_Xamarin_Forms_Application_llvm
	bl	p_91_plt_Xamarin_Forms_PlatformConfiguration_AndroidSpecific_AppCompat_Application_GetShouldPreserveKeyboardOnResume_Xamarin_Forms_IPlatformElementConfiguration_2_Xamarin_Forms_PlatformConfiguration_Android_Xamarin_Forms_Application_llvm
	tst	r0, #255
	beq	.LBB42_6
	ldr	r0, [r5]
	ldr	r1, [r0, #596]
	mov	r0, r5
	blx	r1
	bl	p_92_plt_Xamarin_Forms_Platform_Android_KeyboardManager_ShowKeyboard_Android_Views_View_llvm
.LBB42_6:
	ldrb	r0, [r5, #62]
	mov	r2, #3
	ldr	r1, [r5, #52]
	cmp	r0, #0
	str	r2, [r5, #52]
	str	r1, [r5, #56]
	beq	.LBB42_8
	mov	r0, #0
	strb	r0, [r5, #62]
	mov	r0, r5
	bl	p_90_plt_Xamarin_Forms_Platform_Android_FormsAppCompatActivity_SettingMainPage_llvm
	mov	r0, r5
	bl	Xamarin_Forms_Platform_Android_FormsAppCompatActivity_SetMainPage
.LBB42_8:
	ldrb	r0, [r5, #63]
	cmp	r0, #0
	bne	.LBB42_11
	bl	Xamarin_Forms_Forms_get_IsLollipopOrNewer
	tst	r0, #255
	beq	.LBB42_11
	ldr	r0, [r6, #404]
	ldr	r9, [r5, #44]
	ldr	r7, [r6, #400]
	bl	p_13_plt__jit_icall_ves_icall_object_new_specific_llvm
	mov	r1, r7
	mov	r6, r0
	bl	p_89_plt_Android_Content_IntentFilter__ctor_string_llvm
	ldr	r0, [r5]
	mov	r1, r9
	mov	r2, r6
	ldr	r3, [r0, #164]
	mov	r0, r5
	blx	r3
	mov	r0, #1
	strb	r0, [r5, #63]
.LBB42_11:
	ldr	r0, [r5, #32]
	cmp	r0, #0
	beq	.LBB42_15
	ldr	r1, [r5, #56]
	cmp	r1, #6
	beq	.LBB42_18
	cmp	r1, #4
	beq	.LBB42_16
	cmp	r1, #1
	ldreq	r1, [r5, #52]
	cmpeq	r1, #2
	beq	.LBB42_20
.LBB42_15:
	mov	r0, r4
	bl	p_9_plt_Xamarin_Forms_Internals_Profile_FrameEnd_string_llvm
	add	sp, sp, #8
	pop	{r4, r5, r6, r7, r8, r9, r11, pc}
.LBB42_16:
	ldr	r1, [r5, #52]
	cmp	r1, #5
	bne	.LBB42_15
	bl	p_101_plt_Xamarin_Forms_Application_SendSleep_llvm
	b	.LBB42_15
.LBB42_18:
	ldr	r1, [r5, #52]
	cmp	r1, #2
	bne	.LBB42_15
	bl	p_102_plt_Xamarin_Forms_Application_SendResume_llvm
	b	.LBB42_15
.LBB42_20:
	bl	p_103_plt_Xamarin_Forms_Application_SendStart_llvm
	b	.LBB42_15
.LBB42_21:
	mov	r0, #312
	bl	mono_aot_Xamarin_Forms_Platform_Android_init_method
	b	.LBB42_1
.Ltmp403:
.LBB42_22:
	ldr	r0, .LCPI42_0
.LPC42_0:
	add	r1, pc, r0
	mov	r0, #225
	bl	p_3_plt__jit_icall_llvm_throw_corlib_exception_abs_trampoline_llvm
	.p2align	2
.LCPI42_0:
	.long	.Ltmp403-(.LPC42_0+8)
.LCPI42_1:
	.long	mono_aot_Xamarin_Forms_Platform_Android_llvm_got-(.LPC42_1+8)
.LCPI42_2:
	.long	mono_inited-(.LPC42_2+8)
.Lfunc_end42:
	.size	Xamarin_Forms_Platform_Android_FormsAppCompatActivity_OnResume, .Lfunc_end42-Xamarin_Forms_Platform_Android_FormsAppCompatActivity_OnResume
.Lexception36:
	.fnend

	.hidden	Xamarin_Forms_Platform_Android_FormsAppCompatActivity_OnStart
	.globl	Xamarin_Forms_Platform_Android_FormsAppCompatActivity_OnStart
	.p2align	2
	.type	Xamarin_Forms_Platform_Android_FormsAppCompatActivity_OnStart,%function
	.code	32
Xamarin_Forms_Platform_Android_FormsAppCompatActivity_OnStart:
.Lfunc_begin43:
	.fnstart
	.save	{r4, r5, r6, lr}
	push	{r4, r5, r6, lr}
.Ltmp404:
.Ltmp405:
.Ltmp406:
.Ltmp407:
.Ltmp408:
	ldr	r6, .LCPI43_1
	mov	r5, r0
	ldr	r0, .LCPI43_2
.LPC43_1:
	add	r6, pc, r6
.LPC43_2:
	add	r0, pc, r0
	ldr	r1, [r6, #28]
	ldrb	r4, [r0, #313]
	ldr	r0, [r1]
	cmp	r0, #0
	blne	mono_aot_Xamarin_Forms_Platform_Android_icall_cold_wrapper_265
	cmp	r4, #0
	beq	.LBB43_12
.LBB43_1:
	ldr	r4, [r6, #408]
	movw	r1, #414
	mov	r0, r4
	bl	p_7_plt_Xamarin_Forms_Internals_Profile_FrameBegin_string_int_llvm
	ldr	r0, [r6, #412]
	mov	r1, #416
	bl	p_73_plt_Xamarin_Forms_Internals_Profile_FramePartition_string_int_llvm
	mov	r0, r5
	bl	p_93_plt_Android_App_Activity_OnStart_llvm
	cmp	r5, #0
	beq	.LBB43_13
	ldr	r0, [r5, #52]
	mov	r1, #2
	str	r0, [r5, #56]
	ldr	r0, [r6, #416]
	str	r1, [r5, #52]
	movw	r1, #422
	bl	p_73_plt_Xamarin_Forms_Internals_Profile_FramePartition_string_int_llvm
	ldr	r0, [r5, #32]
	cmp	r0, #0
	beq	.LBB43_6
	ldr	r1, [r5, #56]
	cmp	r1, #6
	beq	.LBB43_9
	cmp	r1, #4
	beq	.LBB43_7
	cmp	r1, #1
	ldreq	r1, [r5, #52]
	cmpeq	r1, #2
	beq	.LBB43_11
.LBB43_6:
	mov	r0, r4
	bl	p_9_plt_Xamarin_Forms_Internals_Profile_FrameEnd_string_llvm
	pop	{r4, r5, r6, pc}
.LBB43_7:
	ldr	r1, [r5, #52]
	cmp	r1, #5
	bne	.LBB43_6
	bl	p_101_plt_Xamarin_Forms_Application_SendSleep_llvm
	b	.LBB43_6
.LBB43_9:
	ldr	r1, [r5, #52]
	cmp	r1, #2
	bne	.LBB43_6
	bl	p_102_plt_Xamarin_Forms_Application_SendResume_llvm
	b	.LBB43_6
.LBB43_11:
	bl	p_103_plt_Xamarin_Forms_Application_SendStart_llvm
	b	.LBB43_6
.LBB43_12:
	movw	r0, #313
	bl	mono_aot_Xamarin_Forms_Platform_Android_init_method
	b	.LBB43_1
.Ltmp409:
.LBB43_13:
	ldr	r0, .LCPI43_0
.LPC43_0:
	add	r1, pc, r0
	mov	r0, #225
	bl	p_3_plt__jit_icall_llvm_throw_corlib_exception_abs_trampoline_llvm
	.p2align	2
.LCPI43_0:
	.long	.Ltmp409-(.LPC43_0+8)
.LCPI43_1:
	.long	mono_aot_Xamarin_Forms_Platform_Android_llvm_got-(.LPC43_1+8)
.LCPI43_2:
	.long	mono_inited-(.LPC43_2+8)
.Lfunc_end43:
	.size	Xamarin_Forms_Platform_Android_FormsAppCompatActivity_OnStart, .Lfunc_end43-Xamarin_Forms_Platform_Android_FormsAppCompatActivity_OnStart
.Lexception37:
	.fnend

	.hidden	Xamarin_Forms_Platform_Android_FormsAppCompatActivity_CheckForAppLink_Android_Content_Intent
	.globl	Xamarin_Forms_Platform_Android_FormsAppCompatActivity_CheckForAppLink_Android_Content_Intent
	.p2align	2
	.type	Xamarin_Forms_Platform_Android_FormsAppCompatActivity_CheckForAppLink_Android_Content_Intent,%function
	.code	32
Xamarin_Forms_Platform_Android_FormsAppCompatActivity_CheckForAppLink_Android_Content_Intent:
.Lfunc_begin44:
	.fnstart
	.save	{r4, r5, r6, r7, r11, lr}
	push	{r4, r5, r6, r7, r11, lr}
.Ltmp410:
.Ltmp411:
.Ltmp412:
.Ltmp413:
.Ltmp414:
.Ltmp415:
.Ltmp416:
	ldr	r7, .LCPI44_2
	mov	r4, r0
	ldr	r0, .LCPI44_3
	mov	r5, r1
.LPC44_2:
	add	r7, pc, r7
.LPC44_3:
	add	r0, pc, r0
	ldr	r1, [r7, #28]
	ldrb	r6, [r0, #317]
	ldr	r0, [r1]
	cmp	r0, #0
	blne	mono_aot_Xamarin_Forms_Platform_Android_icall_cold_wrapper_265
	cmp	r6, #0
	beq	.LBB44_7
	cmp	r5, #0
	beq	.LBB44_8
.LBB44_2:
	ldr	r0, [r5]
	ldr	r1, [r0, #180]
	mov	r0, r5
	blx	r1
	mov	r6, r0
	ldr	r0, [r5]
	ldr	r1, [r0, #176]
	mov	r0, r5
	blx	r1
	mov	r5, r0
	ldr	r0, [r7, #420]
	mov	r1, r6
	bl	p_94_plt_string_op_Inequality_string_string_llvm
	tst	r0, #255
	bne	.LBB44_6
	mov	r0, r5
	bl	p_95_plt_string_IsNullOrWhiteSpace_string_llvm
	tst	r0, #255
	popne	{r4, r5, r6, r7, r11, pc}
	ldr	r0, [r7, #424]
	mov	r1, #48
	bl	p_11_plt_wrapper_alloc_object_AllocSmall_intptr_intptr_llvm
	mov	r1, r5
	mov	r6, r0
	bl	p_96_plt_System_Uri__ctor_string_llvm
	cmp	r4, #0
	beq	.LBB44_9
	ldr	r0, [r4, #32]
	cmp	r0, #0
	beq	.LBB44_6
	mov	r1, r6
	bl	p_97_plt_Xamarin_Forms_Application_SendOnAppLinkRequestReceived_System_Uri_llvm
.LBB44_6:
	pop	{r4, r5, r6, r7, r11, pc}
.LBB44_7:
	movw	r0, #317
	bl	mono_aot_Xamarin_Forms_Platform_Android_init_method
	cmp	r5, #0
	bne	.LBB44_2
.Ltmp417:
.LBB44_8:
	ldr	r0, .LCPI44_1
.LPC44_1:
	add	r1, pc, r0
	mov	r0, #225
	bl	p_3_plt__jit_icall_llvm_throw_corlib_exception_abs_trampoline_llvm
.Ltmp418:
.LBB44_9:
	ldr	r0, .LCPI44_0
.LPC44_0:
	add	r1, pc, r0
	mov	r0, #225
	bl	p_3_plt__jit_icall_llvm_throw_corlib_exception_abs_trampoline_llvm
	.p2align	2
.LCPI44_0:
	.long	.Ltmp418-(.LPC44_0+8)
.LCPI44_1:
	.long	.Ltmp417-(.LPC44_1+8)
.LCPI44_2:
	.long	mono_aot_Xamarin_Forms_Platform_Android_llvm_got-(.LPC44_2+8)
.LCPI44_3:
	.long	mono_inited-(.LPC44_3+8)
.Lfunc_end44:
	.size	Xamarin_Forms_Platform_Android_FormsAppCompatActivity_CheckForAppLink_Android_Content_Intent, .Lfunc_end44-Xamarin_Forms_Platform_Android_FormsAppCompatActivity_CheckForAppLink_Android_Content_Intent
.Lexception38:
	.fnend

	.hidden	Xamarin_Forms_Platform_Android_FormsAppCompatActivity_InternalSetPage_Xamarin_Forms_Page
	.globl	Xamarin_Forms_Platform_Android_FormsAppCompatActivity_InternalSetPage_Xamarin_Forms_Page
	.p2align	2
	.type	Xamarin_Forms_Platform_Android_FormsAppCompatActivity_InternalSetPage_Xamarin_Forms_Page,%function
	.code	32
Xamarin_Forms_Platform_Android_FormsAppCompatActivity_InternalSetPage_Xamarin_Forms_Page:
.Lfunc_begin45:
	.fnstart
	.save	{r4, r5, r6, r7, r11, lr}
	push	{r4, r5, r6, r7, r11, lr}
.Ltmp419:
.Ltmp420:
.Ltmp421:
.Ltmp422:
.Ltmp423:
.Ltmp424:
.Ltmp425:
	ldr	r7, .LCPI45_5
	mov	r4, r0
	ldr	r0, .LCPI45_6
	mov	r5, r1
.LPC45_5:
	add	r7, pc, r7
.LPC45_6:
	add	r0, pc, r0
	ldr	r1, [r7, #28]
	ldrb	r6, [r0, #318]
	ldr	r0, [r1]
	cmp	r0, #0
	blne	mono_aot_Xamarin_Forms_Platform_Android_icall_cold_wrapper_265
	cmp	r6, #0
	beq	.LBB45_11
.LBB45_1:
	ldr	r0, [r7, #160]
	ldrb	r1, [r0, #25]
	cmp	r1, #0
	beq	.LBB45_12
.LBB45_2:
	ldr	r0, [r7, #428]
	ldrb	r0, [r0]
	cmp	r0, #0
	beq	.LBB45_13
	cmp	r4, #0
	beq	.LBB45_14
	ldr	r0, [r4, #40]
	cmp	r0, #0
	beq	.LBB45_6
	mov	r1, r5
	bl	Xamarin_Forms_Platform_Android_AppCompat_Platform_SetPage_Xamarin_Forms_Page
	pop	{r4, r5, r6, r7, r11, pc}
.LBB45_6:
	mov	r0, r4
	bl	Xamarin_Forms_Platform_Android_PopupManager_ResetBusyCount_Android_App_Activity
	ldr	r0, [r7, #432]
	mov	r1, #60
	bl	p_11_plt_wrapper_alloc_object_AllocSmall_intptr_intptr_llvm
	mov	r1, r4
	mov	r6, r0
	bl	Xamarin_Forms_Platform_Android_AppCompat_Platform__ctor_Android_Content_Context
	ldr	r0, [r7, #8]
	add	r1, r4, #40
	mov	r2, #1
	dmb	ish
	str	r6, [r4, #40]
	strb	r2, [r0, r1, lsr #9]
	ldr	r0, [r4, #40]
	cmp	r0, #0
	beq	.LBB45_15
	mov	r1, r5
	bl	Xamarin_Forms_Platform_Android_AppCompat_Platform_SetPage_Xamarin_Forms_Page
	ldr	r1, [r4, #40]
	cmp	r1, #0
	beq	.LBB45_16
	ldr	r0, [r4, #36]
	cmp	r0, #0
	beq	.LBB45_17
	ldr	r2, [r0]
	ldr	r1, [r1, #40]
	ldr	r2, [r2, #1312]
	blx	r2
	ldr	r0, [r4, #36]
	cmp	r0, #0
	beq	.LBB45_18
	ldr	r1, [r0]
	ldr	r1, [r1, #528]
	blx	r1
	pop	{r4, r5, r6, r7, r11, pc}
.LBB45_11:
	movw	r0, #318
	bl	mono_aot_Xamarin_Forms_Platform_Android_init_method
	b	.LBB45_1
.LBB45_12:
	bl	p_24_plt__jit_icall_mono_generic_class_init_llvm
	b	.LBB45_2
.LBB45_13:
	ldr	r0, .LCPI45_7
	movw	r1, #4651
.LPC45_7:
	ldr	r0, [pc, r0]
	bl	p_51_plt__jit_icall_mono_helper_ldstr_llvm
	mov	r1, r0
	movw	r0, #204
	movt	r0, #512
	bl	p_52_plt__jit_icall_mono_create_corlib_exception_1_llvm
	bl	p_53_plt__jit_icall_mono_arch_throw_exception_llvm
.Ltmp426:
.LBB45_14:
	ldr	r0, .LCPI45_4
.LPC45_4:
	add	r1, pc, r0
	mov	r0, #225
	bl	p_3_plt__jit_icall_llvm_throw_corlib_exception_abs_trampoline_llvm
.Ltmp427:
.LBB45_15:
	ldr	r0, .LCPI45_3
.LPC45_3:
	add	r1, pc, r0
	mov	r0, #225
	bl	p_3_plt__jit_icall_llvm_throw_corlib_exception_abs_trampoline_llvm
.Ltmp428:
.LBB45_16:
	ldr	r0, .LCPI45_2
.LPC45_2:
	add	r1, pc, r0
	mov	r0, #225
	bl	p_3_plt__jit_icall_llvm_throw_corlib_exception_abs_trampoline_llvm
.Ltmp429:
.LBB45_17:
	ldr	r0, .LCPI45_1
.LPC45_1:
	add	r1, pc, r0
	mov	r0, #225
	bl	p_3_plt__jit_icall_llvm_throw_corlib_exception_abs_trampoline_llvm
.Ltmp430:
.LBB45_18:
	ldr	r0, .LCPI45_0
.LPC45_0:
	add	r1, pc, r0
	mov	r0, #225
	bl	p_3_plt__jit_icall_llvm_throw_corlib_exception_abs_trampoline_llvm
	.p2align	2
.LCPI45_0:
	.long	.Ltmp430-(.LPC45_0+8)
.LCPI45_1:
	.long	.Ltmp429-(.LPC45_1+8)
.LCPI45_2:
	.long	.Ltmp428-(.LPC45_2+8)
.LCPI45_3:
	.long	.Ltmp427-(.LPC45_3+8)
.LCPI45_4:
	.long	.Ltmp426-(.LPC45_4+8)
.LCPI45_5:
	.long	mono_aot_Xamarin_Forms_Platform_Android_llvm_got-(.LPC45_5+8)
.LCPI45_6:
	.long	mono_inited-(.LPC45_6+8)
.LCPI45_7:
	.long	mono_aot_Xamarin_Forms_Platform_Android_llvm_got-(.LPC45_7+8)
.Lfunc_end45:
	.size	Xamarin_Forms_Platform_Android_FormsAppCompatActivity_InternalSetPage_Xamarin_Forms_Page, .Lfunc_end45-Xamarin_Forms_Platform_Android_FormsAppCompatActivity_InternalSetPage_Xamarin_Forms_Page
.Lexception39:
	.fnend

	.hidden	Xamarin_Forms_Platform_Android_FormsAppCompatActivity_OnStateChanged
	.globl	Xamarin_Forms_Platform_Android_FormsAppCompatActivity_OnStateChanged
	.p2align	2
	.type	Xamarin_Forms_Platform_Android_FormsAppCompatActivity_OnStateChanged,%function
	.code	32
Xamarin_Forms_Platform_Android_FormsAppCompatActivity_OnStateChanged:
.Lfunc_begin46:
	.fnstart
	.save	{r4, lr}
	push	{r4, lr}
.Ltmp431:
.Ltmp432:
.Ltmp433:
	mov	r4, r0
	ldr	r0, .LCPI46_1
.LPC46_1:
	add	r0, pc, r0
	ldr	r0, [r0, #28]
	ldr	r0, [r0]
	cmp	r0, #0
	blne	mono_aot_Xamarin_Forms_Platform_Android_icall_cold_wrapper_265
	cmp	r4, #0
	beq	.LBB46_10
	ldr	r0, [r4, #32]
	cmp	r0, #0
	beq	.LBB46_9
	ldr	r1, [r4, #56]
	cmp	r1, #6
	beq	.LBB46_8
	cmp	r1, #4
	beq	.LBB46_6
	cmp	r1, #1
	ldreq	r1, [r4, #52]
	cmpeq	r1, #2
	bne	.LBB46_9
	bl	p_103_plt_Xamarin_Forms_Application_SendStart_llvm
	pop	{r4, pc}
.LBB46_6:
	ldr	r1, [r4, #52]
	cmp	r1, #5
	bne	.LBB46_9
	bl	p_101_plt_Xamarin_Forms_Application_SendSleep_llvm
	pop	{r4, pc}
.LBB46_8:
	ldr	r1, [r4, #52]
	cmp	r1, #2
	popne	{r4, pc}
	bl	p_102_plt_Xamarin_Forms_Application_SendResume_llvm
.LBB46_9:
	pop	{r4, pc}
.Ltmp434:
.LBB46_10:
	ldr	r0, .LCPI46_0
.LPC46_0:
	add	r1, pc, r0
	mov	r0, #225
	bl	p_3_plt__jit_icall_llvm_throw_corlib_exception_abs_trampoline_llvm
	.p2align	2
.LCPI46_0:
	.long	.Ltmp434-(.LPC46_0+8)
.LCPI46_1:
	.long	mono_aot_Xamarin_Forms_Platform_Android_llvm_got-(.LPC46_1+8)
.Lfunc_end46:
	.size	Xamarin_Forms_Platform_Android_FormsAppCompatActivity_OnStateChanged, .Lfunc_end46-Xamarin_Forms_Platform_Android_FormsAppCompatActivity_OnStateChanged
.Lexception40:
	.fnend

	.hidden	Xamarin_Forms_Platform_Android_FormsAppCompatActivity_RegisterHandlerForDefaultRenderer_System_Type_System_Type_System_Type
	.globl	Xamarin_Forms_Platform_Android_FormsAppCompatActivity_RegisterHandlerForDefaultRenderer_System_Type_System_Type_System_Type
	.p2align	2
	.type	Xamarin_Forms_Platform_Android_FormsAppCompatActivity_RegisterHandlerForDefaultRenderer_System_Type_System_Type_System_Type,%function
	.code	32
Xamarin_Forms_Platform_Android_FormsAppCompatActivity_RegisterHandlerForDefaultRenderer_System_Type_System_Type_System_Type:
.Lfunc_begin47:
	.fnstart
	.save	{r4, r5, r6, lr}
	push	{r4, r5, r6, lr}
.Ltmp435:
.Ltmp436:
.Ltmp437:
.Ltmp438:
.Ltmp439:
	ldr	r0, .LCPI47_0
	mov	r4, r3
	mov	r5, r2
	mov	r6, r1
.LPC47_0:
	add	r0, pc, r0
	ldr	r0, [r0, #28]
	ldr	r0, [r0]
	cmp	r0, #0
	blne	mono_aot_Xamarin_Forms_Platform_Android_icall_cold_wrapper_265
	mov	r0, r6
	mov	r1, r5
	mov	r2, r4
	bl	p_104_plt_Xamarin_Forms_Platform_Android_FormsAppCompatActivity_RegisterHandler_System_Type_System_Type_System_Type_llvm
	pop	{r4, r5, r6, pc}
	.p2align	2
.LCPI47_0:
	.long	mono_aot_Xamarin_Forms_Platform_Android_llvm_got-(.LPC47_0+8)
.Lfunc_end47:
	.size	Xamarin_Forms_Platform_Android_FormsAppCompatActivity_RegisterHandlerForDefaultRenderer_System_Type_System_Type_System_Type, .Lfunc_end47-Xamarin_Forms_Platform_Android_FormsAppCompatActivity_RegisterHandlerForDefaultRenderer_System_Type_System_Type_System_Type
.Lexception41:
	.fnend

	.hidden	Xamarin_Forms_Platform_Android_FormsAppCompatActivity_SetMainPage
	.globl	Xamarin_Forms_Platform_Android_FormsAppCompatActivity_SetMainPage
	.p2align	2
	.type	Xamarin_Forms_Platform_Android_FormsAppCompatActivity_SetMainPage,%function
	.code	32
Xamarin_Forms_Platform_Android_FormsAppCompatActivity_SetMainPage:
.Lfunc_begin48:
	.fnstart
	.save	{r4, lr}
	push	{r4, lr}
.Ltmp440:
.Ltmp441:
.Ltmp442:
	mov	r4, r0
	ldr	r0, .LCPI48_2
.LPC48_2:
	add	r0, pc, r0
	ldr	r0, [r0, #28]
	ldr	r0, [r0]
	cmp	r0, #0
	blne	mono_aot_Xamarin_Forms_Platform_Android_icall_cold_wrapper_265
	cmp	r4, #0
	beq	.LBB48_3
	ldr	r0, [r4, #32]
	cmp	r0, #0
	beq	.LBB48_4
	ldr	r1, [r0, #148]
	mov	r0, r4
	bl	Xamarin_Forms_Platform_Android_FormsAppCompatActivity_InternalSetPage_Xamarin_Forms_Page
	pop	{r4, pc}
.Ltmp443:
.LBB48_3:
	ldr	r0, .LCPI48_1
.LPC48_1:
	add	r1, pc, r0
	mov	r0, #225
	bl	p_3_plt__jit_icall_llvm_throw_corlib_exception_abs_trampoline_llvm
.Ltmp444:
.LBB48_4:
	ldr	r0, .LCPI48_0
.LPC48_0:
	add	r1, pc, r0
	mov	r0, #225
	bl	p_3_plt__jit_icall_llvm_throw_corlib_exception_abs_trampoline_llvm
	.p2align	2
.LCPI48_0:
	.long	.Ltmp444-(.LPC48_0+8)
.LCPI48_1:
	.long	.Ltmp443-(.LPC48_1+8)
.LCPI48_2:
	.long	mono_aot_Xamarin_Forms_Platform_Android_llvm_got-(.LPC48_2+8)
.Lfunc_end48:
	.size	Xamarin_Forms_Platform_Android_FormsAppCompatActivity_SetMainPage, .Lfunc_end48-Xamarin_Forms_Platform_Android_FormsAppCompatActivity_SetMainPage
.Lexception42:
	.fnend

	.hidden	Xamarin_Forms_Platform_Android_FormsAppCompatActivity_SetSoftInputMode
	.globl	Xamarin_Forms_Platform_Android_FormsAppCompatActivity_SetSoftInputMode
	.p2align	2
	.type	Xamarin_Forms_Platform_Android_FormsAppCompatActivity_SetSoftInputMode,%function
	.code	32
Xamarin_Forms_Platform_Android_FormsAppCompatActivity_SetSoftInputMode:
.Lfunc_begin49:
	.fnstart
	.save	{r4, r5, r6, r7, r8, lr}
	push	{r4, r5, r6, r7, r8, lr}
.Ltmp445:
.Ltmp446:
.Ltmp447:
.Ltmp448:
.Ltmp449:
.Ltmp450:
.Ltmp451:
	.pad	#8
	sub	sp, sp, #8
.Ltmp452:
	ldr	r6, .LCPI49_2
	mov	r4, r0
	ldr	r0, .LCPI49_3
.LPC49_2:
	add	r6, pc, r6
.LPC49_3:
	add	r0, pc, r0
	ldr	r1, [r6, #28]
	ldrb	r5, [r0, #323]
	ldr	r0, [r1]
	cmp	r0, #0
	blne	mono_aot_Xamarin_Forms_Platform_Android_icall_cold_wrapper_265
	cmp	r5, #0
	beq	.LBB49_9
.LBB49_1:
	ldr	r5, [r6, #332]
	ldrb	r0, [r5, #25]
	cmp	r0, #0
	beq	.LBB49_10
.LBB49_2:
	ldr	r7, [r6, #336]
	ldr	r0, [r7]
	cmp	r0, #0
	beq	.LBB49_7
	ldrb	r1, [r5, #25]
	cmp	r1, #0
	beq	.LBB49_11
.LBB49_4:
	ldr	r1, [r6, #344]
	str	r1, [sp, #4]
	ldr	r8, [sp, #4]
	bl	p_75_plt_Xamarin_Forms_Platform_Android_PlatformConfigurationExtensions_OnThisPlatform_Xamarin_Forms_Application_Xamarin_Forms_Application_llvm
	bl	p_76_plt_Xamarin_Forms_PlatformConfiguration_AndroidSpecific_Application_GetWindowSoftInputModeAdjust_Xamarin_Forms_IPlatformElementConfiguration_2_Xamarin_Forms_PlatformConfiguration_Android_Xamarin_Forms_Application_llvm
	mov	r5, #32
	cmp	r0, #2
	movweq	r5, #0
	cmp	r0, #1
	movweq	r5, #16
	cmp	r4, #0
	beq	.LBB49_8
.LBB49_5:
	ldr	r0, [r4]
	ldr	r1, [r0, #584]
	mov	r0, r4
	blx	r1
	cmp	r0, #0
	beq	.LBB49_12
	ldr	r1, [r0]
	ldr	r2, [r1, #160]
	mov	r1, r5
	blx	r2
	add	sp, sp, #8
	pop	{r4, r5, r6, r7, r8, pc}
.LBB49_7:
	mov	r5, #32
	cmp	r4, #0
	bne	.LBB49_5
.Ltmp453:
.LBB49_8:
	ldr	r0, .LCPI49_1
.LPC49_1:
	add	r1, pc, r0
	mov	r0, #225
	bl	p_3_plt__jit_icall_llvm_throw_corlib_exception_abs_trampoline_llvm
.LBB49_9:
	movw	r0, #323
	bl	mono_aot_Xamarin_Forms_Platform_Android_init_method
	b	.LBB49_1
.LBB49_10:
	mov	r0, r5
	bl	p_24_plt__jit_icall_mono_generic_class_init_llvm
	b	.LBB49_2
.LBB49_11:
	mov	r0, r5
	bl	p_24_plt__jit_icall_mono_generic_class_init_llvm
	ldr	r0, [r7]
	b	.LBB49_4
.Ltmp454:
.LBB49_12:
	ldr	r0, .LCPI49_0
.LPC49_0:
	add	r1, pc, r0
	mov	r0, #225
	bl	p_3_plt__jit_icall_llvm_throw_corlib_exception_abs_trampoline_llvm
	.p2align	2
.LCPI49_0:
	.long	.Ltmp454-(.LPC49_0+8)
.LCPI49_1:
	.long	.Ltmp453-(.LPC49_1+8)
.LCPI49_2:
	.long	mono_aot_Xamarin_Forms_Platform_Android_llvm_got-(.LPC49_2+8)
.LCPI49_3:
	.long	mono_inited-(.LPC49_3+8)
.Lfunc_end49:
	.size	Xamarin_Forms_Platform_Android_FormsAppCompatActivity_SetSoftInputMode, .Lfunc_end49-Xamarin_Forms_Platform_Android_FormsAppCompatActivity_SetSoftInputMode
.Lexception43:
	.fnend

	.hidden	Xamarin_Forms_Platform_Android_FormsAppCompatActivity_add_BackPressed_Xamarin_Forms_Platform_Android_FormsAppCompatActivity_BackButtonPressedEventHandler
	.globl	Xamarin_Forms_Platform_Android_FormsAppCompatActivity_add_BackPressed_Xamarin_Forms_Platform_Android_FormsAppCompatActivity_BackButtonPressedEventHandler
	.p2align	2
	.type	Xamarin_Forms_Platform_Android_FormsAppCompatActivity_add_BackPressed_Xamarin_Forms_Platform_Android_FormsAppCompatActivity_BackButtonPressedEventHandler,%function
	.code	32
Xamarin_Forms_Platform_Android_FormsAppCompatActivity_add_BackPressed_Xamarin_Forms_Platform_Android_FormsAppCompatActivity_BackButtonPressedEventHandler:
.Lfunc_begin50:
	.fnstart
	.save	{r4, r5, r6, r7, r9, r10, r11, lr}
	push	{r4, r5, r6, r7, r9, r10, r11, lr}
.Ltmp455:
.Ltmp456:
.Ltmp457:
.Ltmp458:
.Ltmp459:
.Ltmp460:
.Ltmp461:
.Ltmp462:
.Ltmp463:
	ldr	r1, .LCPI50_1
	mov	r11, r0
	ldr	r0, .LCPI50_2
.LPC50_1:
	add	r1, pc, r1
.LPC50_2:
	add	r0, pc, r0
	ldr	r1, [r1, #28]
	ldrb	r4, [r0, #324]
	ldr	r0, [r1]
	cmp	r0, #0
	blne	mono_aot_Xamarin_Forms_Platform_Android_icall_cold_wrapper_265
	cmp	r4, #0
	beq	.LBB50_12
.LBB50_1:
	ldr	r0, .LCPI50_3
.LPC50_3:
	add	r0, pc, r0
	ldr	r6, [r0, #436]
	ldr	r7, [r0, #8]
	ldr	r10, [r0, #440]
	ldr	r5, [r6]
	lsr	r4, r6, #9
.LBB50_2:
	mov	r0, r5
	mov	r1, r11
	bl	p_72_plt_System_Delegate_Combine_System_Delegate_System_Delegate_llvm
	cmp	r0, #0
	beq	.LBB50_4
	ldr	r1, [r0]
	ldr	r1, [r1]
	ldr	r1, [r1, #8]
	ldr	r1, [r1, #12]
	cmp	r1, r10
	bne	.LBB50_13
.LBB50_4:
	dmb	ish
	ldrex	r1, [r6]
	cmp	r1, r5
	bne	.LBB50_8
	dmb	ish
.LBB50_6:
	strex	r2, r0, [r6]
	cmp	r2, #0
	beq	.LBB50_9
	ldrex	r1, [r6]
	cmp	r1, r5
	beq	.LBB50_6
.LBB50_8:
	clrex
	mov	r9, #0
	dmb	ish
	b	.LBB50_10
.LBB50_9:
	dmb	ish
	mov	r9, #1
.LBB50_10:
	mov	r0, #1
	mov	r5, r1
	strb	r0, [r4, r7]
	ldr	r0, .LCPI50_4
.LPC50_4:
	add	r0, pc, r0
	ldr	r0, [r0, #28]
	ldr	r0, [r0]
	cmp	r0, #0
	blne	mono_aot_Xamarin_Forms_Platform_Android_icall_cold_wrapper_265
	cmp	r9, #0
	beq	.LBB50_2
	pop	{r4, r5, r6, r7, r9, r10, r11, pc}
.LBB50_12:
	mov	r0, #324
	bl	mono_aot_Xamarin_Forms_Platform_Android_init_method
	b	.LBB50_1
.Ltmp464:
.LBB50_13:
	ldr	r0, .LCPI50_0
.LPC50_0:
	add	r1, pc, r0
	mov	r0, #203
	bl	p_3_plt__jit_icall_llvm_throw_corlib_exception_abs_trampoline_llvm
	.p2align	2
.LCPI50_0:
	.long	.Ltmp464-(.LPC50_0+8)
.LCPI50_1:
	.long	mono_aot_Xamarin_Forms_Platform_Android_llvm_got-(.LPC50_1+8)
.LCPI50_2:
	.long	mono_inited-(.LPC50_2+8)
.LCPI50_3:
	.long	mono_aot_Xamarin_Forms_Platform_Android_llvm_got-(.LPC50_3+8)
.LCPI50_4:
	.long	mono_aot_Xamarin_Forms_Platform_Android_llvm_got-(.LPC50_4+8)
.Lfunc_end50:
	.size	Xamarin_Forms_Platform_Android_FormsAppCompatActivity_add_BackPressed_Xamarin_Forms_Platform_Android_FormsAppCompatActivity_BackButtonPressedEventHandler, .Lfunc_end50-Xamarin_Forms_Platform_Android_FormsAppCompatActivity_add_BackPressed_Xamarin_Forms_Platform_Android_FormsAppCompatActivity_BackButtonPressedEventHandler
.Lexception44:
	.fnend

	.hidden	Xamarin_Forms_Platform_Android_CellAdapter__ctor_Android_Content_Context
	.globl	Xamarin_Forms_Platform_Android_CellAdapter__ctor_Android_Content_Context
	.p2align	2
	.type	Xamarin_Forms_Platform_Android_CellAdapter__ctor_Android_Content_Context,%function
	.code	32
Xamarin_Forms_Platform_Android_CellAdapter__ctor_Android_Content_Context:
.Lfunc_begin51:
	.fnstart
	.save	{r4, r5, r6, lr}
	push	{r4, r5, r6, lr}
.Ltmp465:
.Ltmp466:
.Ltmp467:
.Ltmp468:
.Ltmp469:
	ldr	r6, .LCPI51_1
	mov	r4, r0
	mov	r5, r1
.LPC51_1:
	add	r6, pc, r6
	ldr	r0, [r6, #28]
	ldr	r0, [r0]
	cmp	r0, #0
	blne	mono_aot_Xamarin_Forms_Platform_Android_icall_cold_wrapper_265
	mov	r0, r4
	bl	p_106_plt_Android_Widget_BaseAdapter_1_object__ctor_llvm
	cmp	r5, #0
	beq	.LBB51_3
	cmp	r4, #0
	beq	.LBB51_4
	ldr	r0, [r6, #8]
	dmb	ish
	str	r5, [r4, #32]!
	mov	r1, #1
	strb	r1, [r0, r4, lsr #9]
	pop	{r4, r5, r6, pc}
.LBB51_3:
	ldr	r0, .LCPI51_2
	movw	r1, #5672
.LPC51_2:
	ldr	r0, [pc, r0]
	bl	p_51_plt__jit_icall_mono_helper_ldstr_llvm
	mov	r1, r0
	movw	r0, #124
	movt	r0, #512
	bl	p_52_plt__jit_icall_mono_create_corlib_exception_1_llvm
	bl	p_53_plt__jit_icall_mono_arch_throw_exception_llvm
.Ltmp470:
.LBB51_4:
	ldr	r0, .LCPI51_0
.LPC51_0:
	add	r1, pc, r0
	mov	r0, #225
	bl	p_3_plt__jit_icall_llvm_throw_corlib_exception_abs_trampoline_llvm
	.p2align	2
.LCPI51_0:
	.long	.Ltmp470-(.LPC51_0+8)
.LCPI51_1:
	.long	mono_aot_Xamarin_Forms_Platform_Android_llvm_got-(.LPC51_1+8)
.LCPI51_2:
	.long	mono_aot_Xamarin_Forms_Platform_Android_llvm_got-(.LPC51_2+8)
.Lfunc_end51:
	.size	Xamarin_Forms_Platform_Android_CellAdapter__ctor_Android_Content_Context, .Lfunc_end51-Xamarin_Forms_Platform_Android_CellAdapter__ctor_Android_Content_Context
.Lexception45:
	.fnend

	.hidden	Xamarin_Forms_Platform_Android_CellAdapter_UnsetSelectedBackground_Android_Views_View
	.globl	Xamarin_Forms_Platform_Android_CellAdapter_UnsetSelectedBackground_Android_Views_View
	.p2align	2
	.type	Xamarin_Forms_Platform_Android_CellAdapter_UnsetSelectedBackground_Android_Views_View,%function
	.code	32
Xamarin_Forms_Platform_Android_CellAdapter_UnsetSelectedBackground_Android_Views_View:
.Lfunc_begin52:
	.fnstart
	.save	{r4, lr}
	push	{r4, lr}
.Ltmp471:
.Ltmp472:
.Ltmp473:
	ldr	r0, .LCPI52_1
	mov	r4, r1
.LPC52_1:
	add	r0, pc, r0
	ldr	r0, [r0, #28]
	ldr	r0, [r0]
	cmp	r0, #0
	blne	mono_aot_Xamarin_Forms_Platform_Android_icall_cold_wrapper_265
	cmp	r4, #0
	beq	.LBB52_2
	ldr	r0, [r4]
	mov	r1, #0
	ldr	r2, [r0, #260]
	mov	r0, r4
	blx	r2
	pop	{r4, pc}
.Ltmp474:
.LBB52_2:
	ldr	r0, .LCPI52_0
.LPC52_0:
	add	r1, pc, r0
	mov	r0, #225
	bl	p_3_plt__jit_icall_llvm_throw_corlib_exception_abs_trampoline_llvm
	.p2align	2
.LCPI52_0:
	.long	.Ltmp474-(.LPC52_0+8)
.LCPI52_1:
	.long	mono_aot_Xamarin_Forms_Platform_Android_llvm_got-(.LPC52_1+8)
.Lfunc_end52:
	.size	Xamarin_Forms_Platform_Android_CellAdapter_UnsetSelectedBackground_Android_Views_View, .Lfunc_end52-Xamarin_Forms_Platform_Android_CellAdapter_UnsetSelectedBackground_Android_Views_View
.Lexception46:
	.fnend

	.hidden	Xamarin_Forms_Platform_Android_CellFactory_GetCell_Xamarin_Forms_Cell_Android_Views_View_Android_Views_ViewGroup_Android_Content_Context_Xamarin_Forms_View
	.globl	Xamarin_Forms_Platform_Android_CellFactory_GetCell_Xamarin_Forms_Cell_Android_Views_View_Android_Views_ViewGroup_Android_Content_Context_Xamarin_Forms_View
	.p2align	2
	.type	Xamarin_Forms_Platform_Android_CellFactory_GetCell_Xamarin_Forms_Cell_Android_Views_View_Android_Views_ViewGroup_Android_Content_Context_Xamarin_Forms_View,%function
	.code	32
Xamarin_Forms_Platform_Android_CellFactory_GetCell_Xamarin_Forms_Cell_Android_Views_View_Android_Views_ViewGroup_Android_Content_Context_Xamarin_Forms_View:
.Lfunc_begin53:
	.fnstart
	.save	{r4, r5, r6, r7, r8, r9, r10, r11, lr}
	push	{r4, r5, r6, r7, r8, r9, r10, r11, lr}
.Ltmp475:
.Ltmp476:
.Ltmp477:
.Ltmp478:
.Ltmp479:
.Ltmp480:
.Ltmp481:
.Ltmp482:
.Ltmp483:
.Ltmp484:
	.pad	#12
	sub	sp, sp, #12
.Ltmp485:
	ldr	r10, .LCPI53_6
	mov	r5, r0
	ldr	r0, .LCPI53_7
	mov	r7, r1
.LPC53_6:
	add	r10, pc, r10
	mov	r11, r3
.LPC53_7:
	add	r0, pc, r0
	mov	r6, r2
	ldr	r1, [r10, #28]
	ldrb	r4, [r0, #537]
	ldr	r0, [r1]
	cmp	r0, #0
	blne	mono_aot_Xamarin_Forms_Platform_Android_icall_cold_wrapper_265
	cmp	r4, #0
	beq	.LBB53_17
.LBB53_1:
	mov	r0, r5
	ldr	r9, [sp, #48]
	bl	Xamarin_Forms_Platform_Android_CellRenderer_GetRenderer_Xamarin_Forms_BindableObject
	cmp	r0, #0
	bne	.LBB53_5
	bl	p_111_plt_Xamarin_Forms_Internals_Registrar_get_Registered_llvm
	cmp	r0, #0
	beq	.LBB53_18
	ldr	r1, [r10, #452]
	str	r1, [sp, #8]
	mov	r1, r5
	ldr	r8, [sp, #8]
	bl	p_112_plt_Xamarin_Forms_Internals_Registrar_1_Xamarin_Forms_IRegisterable_GetHandlerForObject_Xamarin_Forms_Platform_Android_CellRenderer_object_llvm
	cmp	r0, #0
	beq	.LBB53_19
	ldr	r1, [r10, #8]
	mov	r2, r0
	dmb	ish
	str	r9, [r2, #12]!
	mov	r3, #1
	strb	r3, [r1, r2, lsr #9]
.LBB53_5:
	mov	r1, r5
	mov	r2, r7
	mov	r3, r6
	str	r11, [sp]
	bl	Xamarin_Forms_Platform_Android_CellRenderer_GetCell_Xamarin_Forms_Cell_Android_Views_View_Android_Views_ViewGroup_Android_Content_Context
	mov	r5, r0
	cmp	r9, #0
	beq	.LBB53_16
	ldr	r0, [r9]
	ldr	r0, [r0]
	ldrh	r2, [r0, #12]
	cmp	r2, #7
	blo	.LBB53_16
	ldr	r3, [r0, #8]
	ldr	r1, [r10, #448]
	ldr	r3, [r3, #24]
	cmp	r3, r1
	beq	.LBB53_13
	cmp	r2, #7
	bls	.LBB53_16
	ldr	r1, [r0, #8]
	ldr	r0, [r10, #444]
	ldr	r1, [r1, #28]
	cmp	r1, r0
	bne	.LBB53_16
	ldr	r1, [r9]
	ldr	r1, [r1]
	ldrh	r2, [r1, #12]
	cmp	r2, #8
	blo	.LBB53_22
	ldr	r1, [r1, #8]
	ldr	r1, [r1, #28]
	cmp	r1, r0
	bne	.LBB53_23
	mov	r0, r11
	mov	r1, r5
	mov	r2, r9
	bl	Xamarin_Forms_Platform_Android_CellFactory_UpdateMinimumHeightFromParent_Android_Content_Context_Android_Views_View_Xamarin_Forms_ListView
	b	.LBB53_16
.LBB53_13:
	ldr	r0, [r9]
	ldr	r0, [r0]
	ldrh	r2, [r0, #12]
	cmp	r2, #7
	blo	.LBB53_20
	ldr	r0, [r0, #8]
	ldr	r0, [r0, #24]
	cmp	r0, r1
	bne	.LBB53_21
	mov	r0, r11
	mov	r1, r5
	mov	r2, r9
	bl	p_110_plt_Xamarin_Forms_Platform_Android_CellFactory_UpdateMinimumHeightFromParent_Android_Content_Context_Android_Views_View_Xamarin_Forms_TableView_llvm
.LBB53_16:
	mov	r0, r5
	add	sp, sp, #12
	pop	{r4, r5, r6, r7, r8, r9, r10, r11, pc}
.LBB53_17:
	movw	r0, #537
	bl	mono_aot_Xamarin_Forms_Platform_Android_init_method
	b	.LBB53_1
.Ltmp486:
.LBB53_18:
	ldr	r0, .LCPI53_5
.LPC53_5:
	add	r1, pc, r0
	mov	r0, #225
	bl	p_3_plt__jit_icall_llvm_throw_corlib_exception_abs_trampoline_llvm
.Ltmp487:
.LBB53_19:
	ldr	r0, .LCPI53_4
.LPC53_4:
	add	r1, pc, r0
	mov	r0, #225
	bl	p_3_plt__jit_icall_llvm_throw_corlib_exception_abs_trampoline_llvm
.Ltmp488:
.LBB53_20:
	ldr	r0, .LCPI53_3
.LPC53_3:
	add	r1, pc, r0
	mov	r0, #203
	bl	p_3_plt__jit_icall_llvm_throw_corlib_exception_abs_trampoline_llvm
.Ltmp489:
.LBB53_21:
	ldr	r0, .LCPI53_2
.LPC53_2:
	add	r1, pc, r0
	mov	r0, #203
	bl	p_3_plt__jit_icall_llvm_throw_corlib_exception_abs_trampoline_llvm
.Ltmp490:
.LBB53_22:
	ldr	r0, .LCPI53_1
.LPC53_1:
	add	r1, pc, r0
	mov	r0, #203
	bl	p_3_plt__jit_icall_llvm_throw_corlib_exception_abs_trampoline_llvm
.Ltmp491:
.LBB53_23:
	ldr	r0, .LCPI53_0
.LPC53_0:
	add	r1, pc, r0
	mov	r0, #203
	bl	p_3_plt__jit_icall_llvm_throw_corlib_exception_abs_trampoline_llvm
	.p2align	2
.LCPI53_0:
	.long	.Ltmp491-(.LPC53_0+8)
.LCPI53_1:
	.long	.Ltmp490-(.LPC53_1+8)
.LCPI53_2:
	.long	.Ltmp489-(.LPC53_2+8)
.LCPI53_3:
	.long	.Ltmp488-(.LPC53_3+8)
.LCPI53_4:
	.long	.Ltmp487-(.LPC53_4+8)
.LCPI53_5:
	.long	.Ltmp486-(.LPC53_5+8)
.LCPI53_6:
	.long	mono_aot_Xamarin_Forms_Platform_Android_llvm_got-(.LPC53_6+8)
.LCPI53_7:
	.long	mono_inited-(.LPC53_7+8)
.Lfunc_end53:
	.size	Xamarin_Forms_Platform_Android_CellFactory_GetCell_Xamarin_Forms_Cell_Android_Views_View_Android_Views_ViewGroup_Android_Content_Context_Xamarin_Forms_View, .Lfunc_end53-Xamarin_Forms_Platform_Android_CellFactory_GetCell_Xamarin_Forms_Cell_Android_Views_View_Android_Views_ViewGroup_Android_Content_Context_Xamarin_Forms_View
.Lexception47:
	.fnend

	.hidden	Xamarin_Forms_Platform_Android_CellFactory_UpdateMinimumHeightFromParent_Android_Content_Context_Android_Views_View_Xamarin_Forms_ListView
	.globl	Xamarin_Forms_Platform_Android_CellFactory_UpdateMinimumHeightFromParent_Android_Content_Context_Android_Views_View_Xamarin_Forms_ListView
	.p2align	2
	.type	Xamarin_Forms_Platform_Android_CellFactory_UpdateMinimumHeightFromParent_Android_Content_Context_Android_Views_View_Xamarin_Forms_ListView,%function
	.code	32
Xamarin_Forms_Platform_Android_CellFactory_UpdateMinimumHeightFromParent_Android_Content_Context_Android_Views_View_Xamarin_Forms_ListView:
.Lfunc_begin54:
	.fnstart
	.save	{r4, r5, r6, r7, r9, lr}
	push	{r4, r5, r6, r7, r9, lr}
.Ltmp492:
.Ltmp493:
.Ltmp494:
.Ltmp495:
.Ltmp496:
.Ltmp497:
.Ltmp498:
	.vsave	{d8}
	vpush	{d8}
.Ltmp499:
.Ltmp500:
	ldr	r9, .LCPI54_2
	mov	r5, r0
	ldr	r0, .LCPI54_3
	mov	r4, r1
.LPC54_2:
	add	r9, pc, r9
	mov	r6, r2
.LPC54_3:
	add	r0, pc, r0
	ldr	r1, [r9, #28]
	ldrb	r7, [r0, #539]
	ldr	r0, [r1]
	cmp	r0, #0
	blne	mono_aot_Xamarin_Forms_Platform_Android_icall_cold_wrapper_265
	cmp	r7, #0
	beq	.LBB54_8
	cmp	r6, #0
	beq	.LBB54_9
.LBB54_2:
	mov	r0, r6
	bl	p_113_plt_Xamarin_Forms_ListView_get_HasUnevenRows_llvm
	tst	r0, #255
	bne	.LBB54_7
	mov	r0, r6
	bl	p_114_plt_Xamarin_Forms_ListView_get_RowHeight_llvm
	cmp	r0, #0
	ble	.LBB54_7
	mov	r0, r6
	bl	p_114_plt_Xamarin_Forms_ListView_get_RowHeight_llvm
	mov	r6, r0
	mov	r0, r5
	bl	Xamarin_Forms_Platform_Android_ContextExtensions_SetupMetrics_Android_Content_Context
	vmov	s0, r6
	ldr	r0, [r9, #456]
	vcvt.f64.s32	d8, s0
	ldrb	r1, [r0, #25]
	cmp	r1, #0
	beq	.LBB54_10
	cmp	r4, #0
	beq	.LBB54_11
.LBB54_6:
	ldr	r0, [r9, #460]
	vldr	s0, [r0]
	vcvt.f64.f32	d0, s0
	vmul.f64	d0, d8, d0
	vmov	r0, r1, d0
	bl	ceil
	vmov	d0, r0, r1
	ldr	r0, [r4]
	vcvt.f32.f64	s0, d0
	ldr	r2, [r0, #236]
	mov	r0, r4
	vcvt.s32.f32	s0, s0
	vmov	r1, s0
	blx	r2
.LBB54_7:
	vpop	{d8}
	pop	{r4, r5, r6, r7, r9, pc}
.LBB54_8:
	movw	r0, #539
	bl	mono_aot_Xamarin_Forms_Platform_Android_init_method
	cmp	r6, #0
	bne	.LBB54_2
.Ltmp501:
.LBB54_9:
	ldr	r0, .LCPI54_1
.LPC54_1:
	add	r1, pc, r0
	mov	r0, #225
	bl	p_3_plt__jit_icall_llvm_throw_corlib_exception_abs_trampoline_llvm
.LBB54_10:
	bl	p_24_plt__jit_icall_mono_generic_class_init_llvm
	cmp	r4, #0
	bne	.LBB54_6
.Ltmp502:
.LBB54_11:
	ldr	r0, .LCPI54_0
.LPC54_0:
	add	r1, pc, r0
	mov	r0, #225
	bl	p_3_plt__jit_icall_llvm_throw_corlib_exception_abs_trampoline_llvm
	.p2align	2
.LCPI54_0:
	.long	.Ltmp502-(.LPC54_0+8)
.LCPI54_1:
	.long	.Ltmp501-(.LPC54_1+8)
.LCPI54_2:
	.long	mono_aot_Xamarin_Forms_Platform_Android_llvm_got-(.LPC54_2+8)
.LCPI54_3:
	.long	mono_inited-(.LPC54_3+8)
.Lfunc_end54:
	.size	Xamarin_Forms_Platform_Android_CellFactory_UpdateMinimumHeightFromParent_Android_Content_Context_Android_Views_View_Xamarin_Forms_ListView, .Lfunc_end54-Xamarin_Forms_Platform_Android_CellFactory_UpdateMinimumHeightFromParent_Android_Content_Context_Android_Views_View_Xamarin_Forms_ListView
.Lexception48:
	.fnend

	.hidden	Xamarin_Forms_Platform_Android_CellRenderer_set_ParentView_Xamarin_Forms_View
	.globl	Xamarin_Forms_Platform_Android_CellRenderer_set_ParentView_Xamarin_Forms_View
	.p2align	2
	.type	Xamarin_Forms_Platform_Android_CellRenderer_set_ParentView_Xamarin_Forms_View,%function
	.code	32
Xamarin_Forms_Platform_Android_CellRenderer_set_ParentView_Xamarin_Forms_View:
.Lfunc_begin55:
	.fnstart
	cmp	r0, #0
	beq	.LBB55_2
	ldr	r2, .LCPI55_1
	dmb	ish
	str	r1, [r0, #12]!
	mov	r1, #1
.LPC55_1:
	add	r2, pc, r2
	ldr	r2, [r2, #8]
	strb	r1, [r2, r0, lsr #9]
	bx	lr
.Ltmp503:
.LBB55_2:
	.save	{r11, lr}
	push	{r11, lr}
.Ltmp504:
.Ltmp505:
.Ltmp506:
	ldr	r0, .LCPI55_0
.LPC55_0:
	add	r1, pc, r0
	mov	r0, #225
	bl	p_3_plt__jit_icall_llvm_throw_corlib_exception_abs_trampoline_llvm
	.p2align	2
.LCPI55_0:
	.long	.Ltmp503-(.LPC55_0+8)
.LCPI55_1:
	.long	mono_aot_Xamarin_Forms_Platform_Android_llvm_got-(.LPC55_1+8)
.Lfunc_end55:
	.size	Xamarin_Forms_Platform_Android_CellRenderer_set_ParentView_Xamarin_Forms_View, .Lfunc_end55-Xamarin_Forms_Platform_Android_CellRenderer_set_ParentView_Xamarin_Forms_View
.Lexception49:
	.fnend

	.hidden	Xamarin_Forms_Platform_Android_CellRenderer_GetCell_Xamarin_Forms_Cell_Android_Views_View_Android_Views_ViewGroup_Android_Content_Context
	.globl	Xamarin_Forms_Platform_Android_CellRenderer_GetCell_Xamarin_Forms_Cell_Android_Views_View_Android_Views_ViewGroup_Android_Content_Context
	.p2align	2
	.type	Xamarin_Forms_Platform_Android_CellRenderer_GetCell_Xamarin_Forms_Cell_Android_Views_View_Android_Views_ViewGroup_Android_Content_Context,%function
	.code	32
Xamarin_Forms_Platform_Android_CellRenderer_GetCell_Xamarin_Forms_Cell_Android_Views_View_Android_Views_ViewGroup_Android_Content_Context:
.Lfunc_begin56:
	.fnstart
	.save	{r4, r5, r6, r7, r8, r9, r10, r11, lr}
	push	{r4, r5, r6, r7, r8, r9, r10, r11, lr}
.Ltmp507:
.Ltmp508:
.Ltmp509:
.Ltmp510:
.Ltmp511:
.Ltmp512:
.Ltmp513:
.Ltmp514:
.Ltmp515:
.Ltmp516:
	.pad	#28
	sub	sp, sp, #28
.Ltmp517:
	ldr	r11, .LCPI56_5
	mov	r4, r0
	ldr	r0, .LCPI56_6
	mov	r10, r1
.LPC56_5:
	add	r11, pc, r11
	mov	r7, r3
.LPC56_6:
	add	r0, pc, r0
	mov	r9, r2
	ldr	r1, [r11, #28]
	ldrb	r6, [r0, #544]
	ldr	r0, [r1]
	cmp	r0, #0
	blne	mono_aot_Xamarin_Forms_Platform_Android_icall_cold_wrapper_265
	cmp	r6, #0
	beq	.LBB56_17
.LBB56_1:
	ldr	r5, [r11, #464]
	mov	r0, #0
	ldr	r6, [r11, #468]
	mov	r1, #0
	str	r0, [sp, #24]
	add	r0, sp, #24
	mov	r2, r5
	mov	r3, r6
	bl	p_116_plt_Xamarin_Forms_Internals_Performance_Start_string__string_string_string_llvm
	cmp	r4, #0
	beq	.LBB56_18
	str	r5, [sp, #12]
	mov	r1, r4
	str	r6, [sp, #16]
	mov	r2, #1
	ldr	r0, [r11, #8]
	dmb	ish
	str	r10, [r1, #16]!
	strb	r2, [r0, r1, lsr #9]
	ldr	r0, [r1]
	cmp	r0, #0
	beq	.LBB56_19
	ldr	r1, [r11, #472]
	str	r1, [sp, #8]
	ldr	r5, [sp, #64]
	ldr	r1, [r1]
	bl	p_84_plt_Xamarin_Forms_BindableObject_remove_PropertyChanged_System_ComponentModel_PropertyChangedEventHandler_llvm
	ldr	r0, [r4, #16]
	mov	r1, r4
	bl	Xamarin_Forms_Platform_Android_CellRenderer_SetRenderer_Xamarin_Forms_BindableObject_Xamarin_Forms_Platform_Android_CellRenderer
	cmp	r9, #0
	beq	.LBB56_7
	ldr	r0, [r9]
	ldr	r1, [r0, #612]
	mov	r0, r9
	blx	r1
	cmp	r0, #0
	beq	.LBB56_7
	ldr	r1, [r0]
	ldr	r2, [r11, #484]
	ldr	r1, [r1]
	ldr	r1, [r1, #8]
	ldr	r1, [r1, #8]
	cmp	r1, r2
	bne	.LBB56_7
	bl	p_122_plt_Xamarin_Forms_Platform_Android_CellRenderer_RendererHolder_get_Renderer_llvm
	cmp	r0, #0
	ldrne	r6, [r0, #16]
	cmpne	r6, #0
	bne	.LBB56_15
.LBB56_7:
	ldr	r0, [r4]
	mov	r1, r10
	mov	r2, r9
	mov	r3, r7
	ldr	r6, [r0, #60]
	mov	r0, r4
	str	r5, [sp]
	blx	r6
	mov	r5, r0
	mov	r0, r4
	mov	r1, r10
	mov	r2, r5
	bl	Xamarin_Forms_Platform_Android_CellRenderer_WireUpForceUpdateSizeRequested_Xamarin_Forms_Cell_Android_Views_View
	cmp	r5, #0
	beq	.LBB56_20
	ldr	r0, [r5]
	ldr	r1, [r0, #612]
	mov	r0, r5
	blx	r1
	cmp	r0, #0
	beq	.LBB56_10
	ldr	r1, [r0]
	ldr	r2, [r11, #484]
	ldr	r1, [r1]
	ldr	r1, [r1, #8]
	ldr	r1, [r1, #8]
	cmp	r1, r2
	beq	.LBB56_11
.LBB56_10:
	ldr	r0, [r11, #480]
	bl	p_13_plt__jit_icall_ves_icall_object_new_specific_llvm
	mov	r1, r4
	mov	r7, r0
	bl	Xamarin_Forms_Platform_Android_CellRenderer_RendererHolder__ctor_Xamarin_Forms_Platform_Android_CellRenderer
	ldr	r0, [r5]
	mov	r1, r7
	ldr	r2, [r0, #608]
	mov	r0, r5
	blx	r2
	b	.LBB56_12
.LBB56_11:
	mov	r1, r4
	bl	p_119_plt_Xamarin_Forms_Platform_Android_CellRenderer_RendererHolder_set_Renderer_Xamarin_Forms_Platform_Android_CellRenderer_llvm
.LBB56_12:
	ldr	r0, [r4, #16]
	cmp	r0, #0
	beq	.LBB56_21
	ldr	r1, [sp, #8]
	ldr	r1, [r1]
	bl	p_78_plt_Xamarin_Forms_BindableObject_add_PropertyChanged_System_ComponentModel_PropertyChangedEventHandler_llvm
	ldr	r0, [r4, #16]
	cmp	r0, #0
	beq	.LBB56_22
	ldr	r1, [r0]
	ldr	r2, [r11, #476]
	ldr	r1, [r1, #-28]
	str	r2, [sp, #20]
	ldr	r8, [sp, #20]
	blx	r1
	ldr	r0, [sp, #24]
	mov	r1, #0
	ldr	r2, [sp, #12]
	ldr	r3, [sp, #16]
	bl	p_120_plt_Xamarin_Forms_Internals_Performance_Stop_string_string_string_string_llvm
	mov	r0, r5
	add	sp, sp, #28
	pop	{r4, r5, r6, r7, r8, r9, r10, r11, pc}
.LBB56_15:
	ldr	r0, [r6]
	ldr	r1, [r0, #-60]
	ldr	r0, [r11, #488]
	str	r0, [sp, #20]
	mov	r0, r6
	ldr	r8, [sp, #20]
	blx	r1
	ldr	r0, [r4, #16]
	cmp	r0, r6
	beq	.LBB56_7
	mov	r0, r6
	mov	r1, #0
	bl	Xamarin_Forms_Platform_Android_CellRenderer_SetRenderer_Xamarin_Forms_BindableObject_Xamarin_Forms_Platform_Android_CellRenderer
	b	.LBB56_7
.LBB56_17:
	mov	r0, #544
	bl	mono_aot_Xamarin_Forms_Platform_Android_init_method
	b	.LBB56_1
.Ltmp518:
.LBB56_18:
	ldr	r0, .LCPI56_4
.LPC56_4:
	add	r1, pc, r0
	mov	r0, #225
	bl	p_3_plt__jit_icall_llvm_throw_corlib_exception_abs_trampoline_llvm
.Ltmp519:
.LBB56_19:
	ldr	r0, .LCPI56_3
.LPC56_3:
	add	r1, pc, r0
	mov	r0, #225
	bl	p_3_plt__jit_icall_llvm_throw_corlib_exception_abs_trampoline_llvm
.Ltmp520:
.LBB56_20:
	ldr	r0, .LCPI56_2
.LPC56_2:
	add	r1, pc, r0
	mov	r0, #225
	bl	p_3_plt__jit_icall_llvm_throw_corlib_exception_abs_trampoline_llvm
.Ltmp521:
.LBB56_21:
	ldr	r0, .LCPI56_1
.LPC56_1:
	add	r1, pc, r0
	mov	r0, #225
	bl	p_3_plt__jit_icall_llvm_throw_corlib_exception_abs_trampoline_llvm
.Ltmp522:
.LBB56_22:
	ldr	r0, .LCPI56_0
.LPC56_0:
	add	r1, pc, r0
	mov	r0, #225
	bl	p_3_plt__jit_icall_llvm_throw_corlib_exception_abs_trampoline_llvm
	.p2align	2
.LCPI56_0:
	.long	.Ltmp522-(.LPC56_0+8)
.LCPI56_1:
	.long	.Ltmp521-(.LPC56_1+8)
.LCPI56_2:
	.long	.Ltmp520-(.LPC56_2+8)
.LCPI56_3:
	.long	.Ltmp519-(.LPC56_3+8)
.LCPI56_4:
	.long	.Ltmp518-(.LPC56_4+8)
.LCPI56_5:
	.long	mono_aot_Xamarin_Forms_Platform_Android_llvm_got-(.LPC56_5+8)
.LCPI56_6:
	.long	mono_inited-(.LPC56_6+8)
.Lfunc_end56:
	.size	Xamarin_Forms_Platform_Android_CellRenderer_GetCell_Xamarin_Forms_Cell_Android_Views_View_Android_Views_ViewGroup_Android_Content_Context, .Lfunc_end56-Xamarin_Forms_Platform_Android_CellRenderer_GetCell_Xamarin_Forms_Cell_Android_Views_View_Android_Views_ViewGroup_Android_Content_Context
.Lexception50:
	.fnend

	.hidden	Xamarin_Forms_Platform_Android_CellRenderer_WireUpForceUpdateSizeRequested_Xamarin_Forms_Cell_Android_Views_View
	.globl	Xamarin_Forms_Platform_Android_CellRenderer_WireUpForceUpdateSizeRequested_Xamarin_Forms_Cell_Android_Views_View
	.p2align	2
	.type	Xamarin_Forms_Platform_Android_CellRenderer_WireUpForceUpdateSizeRequested_Xamarin_Forms_Cell_Android_Views_View,%function
	.code	32
Xamarin_Forms_Platform_Android_CellRenderer_WireUpForceUpdateSizeRequested_Xamarin_Forms_Cell_Android_Views_View:
.Lfunc_begin57:
	.fnstart
	.save	{r4, r5, r6, r7, r8, r9, r10, lr}
	push	{r4, r5, r6, r7, r8, r9, r10, lr}
.Ltmp523:
.Ltmp524:
.Ltmp525:
.Ltmp526:
.Ltmp527:
.Ltmp528:
.Ltmp529:
.Ltmp530:
.Ltmp531:
	.pad	#8
	sub	sp, sp, #8
.Ltmp532:
	ldr	r10, .LCPI57_2
	mov	r4, r0
	ldr	r0, .LCPI57_3
	mov	r9, r1
.LPC57_2:
	add	r10, pc, r10
	mov	r5, r2
.LPC57_3:
	add	r0, pc, r0
	ldr	r1, [r10, #28]
	ldrb	r6, [r0, #547]
	ldr	r0, [r1]
	cmp	r0, #0
	blne	mono_aot_Xamarin_Forms_Platform_Android_icall_cold_wrapper_265
	cmp	r6, #0
	beq	.LBB57_4
.LBB57_1:
	ldr	r0, [r10, #492]
	mov	r1, #16
	bl	p_11_plt_wrapper_alloc_object_AllocSmall_intptr_intptr_llvm
	mov	r6, r0
	dmb	ish
	str	r5, [r0, #8]!
	mov	r1, #1
	ldr	r7, [r10, #8]
	cmp	r4, #0
	lsr	r0, r0, #9
	strb	r1, [r0, r7]
	mov	r0, r6
	dmb	ish
	str	r9, [r0, #12]!
	lsr	r2, r0, #9
	strb	r1, [r2, r7]
	beq	.LBB57_5
	ldr	r5, [r0]
	cmp	r5, #0
	beq	.LBB57_6
	ldr	r0, [r5]
	ldr	r1, [r4, #8]!
	ldr	r2, [r0, #-72]
	ldr	r0, [r10, #496]
	str	r0, [sp, #4]
	mov	r0, r5
	ldr	r8, [sp, #4]
	blx	r2
	ldr	r0, [r10, #172]
	mov	r1, #64
	bl	p_11_plt_wrapper_alloc_object_AllocSmall_intptr_intptr_llvm
	mov	r1, r0
	dmb	ish
	str	r6, [r1, #16]!
	mov	r2, #1
	add	r6, r10, #500
	lsr	r1, r1, #9
	strb	r2, [r1, r7]
	ldm	r6, {r1, r3, r6}
	str	r1, [r0, #20]
	str	r3, [r0, #32]
	mov	r3, #0
	ldr	r1, [r6, #20]
	str	r1, [r0, #12]
	ldr	r1, [r6, #16]
	strb	r3, [r0, #56]
	str	r1, [r0, #8]
	dmb	ish
	str	r0, [r4]
	strb	r2, [r7, r4, lsr #9]
	ldr	r0, [r5]
	ldr	r2, [r10, #512]
	ldr	r1, [r4]
	ldr	r3, [r0, #-68]
	mov	r0, r5
	str	r2, [sp, #4]
	ldr	r8, [sp, #4]
	blx	r3
	add	sp, sp, #8
	pop	{r4, r5, r6, r7, r8, r9, r10, pc}
.LBB57_4:
	movw	r0, #547
	bl	mono_aot_Xamarin_Forms_Platform_Android_init_method
	b	.LBB57_1
.Ltmp533:
.LBB57_5:
	ldr	r0, .LCPI57_1
.LPC57_1:
	add	r1, pc, r0
	mov	r0, #225
	bl	p_3_plt__jit_icall_llvm_throw_corlib_exception_abs_trampoline_llvm
.Ltmp534:
.LBB57_6:
	ldr	r0, .LCPI57_0
.LPC57_0:
	add	r1, pc, r0
	mov	r0, #225
	bl	p_3_plt__jit_icall_llvm_throw_corlib_exception_abs_trampoline_llvm
	.p2align	2
.LCPI57_0:
	.long	.Ltmp534-(.LPC57_0+8)
.LCPI57_1:
	.long	.Ltmp533-(.LPC57_1+8)
.LCPI57_2:
	.long	mono_aot_Xamarin_Forms_Platform_Android_llvm_got-(.LPC57_2+8)
.LCPI57_3:
	.long	mono_inited-(.LPC57_3+8)
.Lfunc_end57:
	.size	Xamarin_Forms_Platform_Android_CellRenderer_WireUpForceUpdateSizeRequested_Xamarin_Forms_Cell_Android_Views_View, .Lfunc_end57-Xamarin_Forms_Platform_Android_CellRenderer_WireUpForceUpdateSizeRequested_Xamarin_Forms_Cell_Android_Views_View
.Lexception51:
	.fnend

	.hidden	Xamarin_Forms_Platform_Android_CellRenderer_GetRenderer_Xamarin_Forms_BindableObject
	.globl	Xamarin_Forms_Platform_Android_CellRenderer_GetRenderer_Xamarin_Forms_BindableObject
	.p2align	2
	.type	Xamarin_Forms_Platform_Android_CellRenderer_GetRenderer_Xamarin_Forms_BindableObject,%function
	.code	32
Xamarin_Forms_Platform_Android_CellRenderer_GetRenderer_Xamarin_Forms_BindableObject:
.Lfunc_begin58:
	.fnstart
	.save	{r4, r5, r6, lr}
	push	{r4, r5, r6, lr}
.Ltmp535:
.Ltmp536:
.Ltmp537:
.Ltmp538:
.Ltmp539:
	ldr	r5, .LCPI58_2
	mov	r4, r0
	ldr	r0, .LCPI58_3
.LPC58_2:
	add	r5, pc, r5
.LPC58_3:
	add	r0, pc, r0
	ldr	r1, [r5, #28]
	ldrb	r6, [r0, #548]
	ldr	r0, [r1]
	cmp	r0, #0
	blne	mono_aot_Xamarin_Forms_Platform_Android_icall_cold_wrapper_265
	cmp	r6, #0
	beq	.LBB58_6
	cmp	r4, #0
	beq	.LBB58_7
.LBB58_2:
	ldr	r0, [r5, #516]
	ldr	r1, [r0]
	mov	r0, r4
	bl	p_123_plt_Xamarin_Forms_BindableObject_GetValue_Xamarin_Forms_BindableProperty_llvm
	cmp	r0, #0
	beq	.LBB58_5
	ldr	r1, [r0]
	ldr	r2, [r5, #520]
	ldr	r1, [r1]
	ldr	r1, [r1, #8]
	ldr	r1, [r1, #4]
	cmp	r1, r2
	popeq	{r4, r5, r6, pc}
.Ltmp540:
.LBB58_4:
	ldr	r0, .LCPI58_0
.LPC58_0:
	add	r1, pc, r0
	mov	r0, #203
	bl	p_3_plt__jit_icall_llvm_throw_corlib_exception_abs_trampoline_llvm
.LBB58_5:
	pop	{r4, r5, r6, pc}
.LBB58_6:
	mov	r0, #548
	bl	mono_aot_Xamarin_Forms_Platform_Android_init_method
	cmp	r4, #0
	bne	.LBB58_2
.Ltmp541:
.LBB58_7:
	ldr	r0, .LCPI58_1
.LPC58_1:
	add	r1, pc, r0
	mov	r0, #225
	bl	p_3_plt__jit_icall_llvm_throw_corlib_exception_abs_trampoline_llvm
	.p2align	2
.LCPI58_0:
	.long	.Ltmp540-(.LPC58_0+8)
.LCPI58_1:
	.long	.Ltmp541-(.LPC58_1+8)
.LCPI58_2:
	.long	mono_aot_Xamarin_Forms_Platform_Android_llvm_got-(.LPC58_2+8)
.LCPI58_3:
	.long	mono_inited-(.LPC58_3+8)
.Lfunc_end58:
	.size	Xamarin_Forms_Platform_Android_CellRenderer_GetRenderer_Xamarin_Forms_BindableObject, .Lfunc_end58-Xamarin_Forms_Platform_Android_CellRenderer_GetRenderer_Xamarin_Forms_BindableObject
.Lexception52:
	.fnend

	.hidden	Xamarin_Forms_Platform_Android_CellRenderer_SetRenderer_Xamarin_Forms_BindableObject_Xamarin_Forms_Platform_Android_CellRenderer
	.globl	Xamarin_Forms_Platform_Android_CellRenderer_SetRenderer_Xamarin_Forms_BindableObject_Xamarin_Forms_Platform_Android_CellRenderer
	.p2align	2
	.type	Xamarin_Forms_Platform_Android_CellRenderer_SetRenderer_Xamarin_Forms_BindableObject_Xamarin_Forms_Platform_Android_CellRenderer,%function
	.code	32
Xamarin_Forms_Platform_Android_CellRenderer_SetRenderer_Xamarin_Forms_BindableObject_Xamarin_Forms_Platform_Android_CellRenderer:
.Lfunc_begin59:
	.fnstart
	.save	{r4, r5, r6, r7, r11, lr}
	push	{r4, r5, r6, r7, r11, lr}
.Ltmp542:
.Ltmp543:
.Ltmp544:
.Ltmp545:
.Ltmp546:
.Ltmp547:
.Ltmp548:
	ldr	r6, .LCPI59_1
	mov	r5, r0
	ldr	r0, .LCPI59_2
	mov	r4, r1
.LPC59_1:
	add	r6, pc, r6
.LPC59_2:
	add	r0, pc, r0
	ldr	r1, [r6, #28]
	ldrb	r7, [r0, #549]
	ldr	r0, [r1]
	cmp	r0, #0
	blne	mono_aot_Xamarin_Forms_Platform_Android_icall_cold_wrapper_265
	cmp	r7, #0
	beq	.LBB59_3
	cmp	r5, #0
	beq	.LBB59_4
.LBB59_2:
	ldr	r0, [r6, #516]
	mov	r2, r4
	ldr	r1, [r0]
	mov	r0, r5
	bl	p_124_plt_Xamarin_Forms_BindableObject_SetValue_Xamarin_Forms_BindableProperty_object_llvm
	pop	{r4, r5, r6, r7, r11, pc}
.LBB59_3:
	movw	r0, #549
	bl	mono_aot_Xamarin_Forms_Platform_Android_init_method
	cmp	r5, #0
	bne	.LBB59_2
.Ltmp549:
.LBB59_4:
	ldr	r0, .LCPI59_0
.LPC59_0:
	add	r1, pc, r0
	mov	r0, #225
	bl	p_3_plt__jit_icall_llvm_throw_corlib_exception_abs_trampoline_llvm
	.p2align	2
.LCPI59_0:
	.long	.Ltmp549-(.LPC59_0+8)
.LCPI59_1:
	.long	mono_aot_Xamarin_Forms_Platform_Android_llvm_got-(.LPC59_1+8)
.LCPI59_2:
	.long	mono_inited-(.LPC59_2+8)
.Lfunc_end59:
	.size	Xamarin_Forms_Platform_Android_CellRenderer_SetRenderer_Xamarin_Forms_BindableObject_Xamarin_Forms_Platform_Android_CellRenderer, .Lfunc_end59-Xamarin_Forms_Platform_Android_CellRenderer_SetRenderer_Xamarin_Forms_BindableObject_Xamarin_Forms_Platform_Android_CellRenderer
.Lexception53:
	.fnend

	.hidden	Xamarin_Forms_Platform_Android_CellRenderer__cctor
	.globl	Xamarin_Forms_Platform_Android_CellRenderer__cctor
	.p2align	2
	.type	Xamarin_Forms_Platform_Android_CellRenderer__cctor,%function
	.code	32
Xamarin_Forms_Platform_Android_CellRenderer__cctor:
.Lfunc_begin60:
	.fnstart
	.save	{r4, r5, r11, lr}
	push	{r4, r5, r11, lr}
.Ltmp550:
.Ltmp551:
.Ltmp552:
.Ltmp553:
.Ltmp554:
	.pad	#24
	sub	sp, sp, #24
.Ltmp555:
	ldr	r4, .LCPI60_0
	ldr	r0, .LCPI60_1
.LPC60_0:
	add	r4, pc, r4
.LPC60_1:
	add	r0, pc, r0
	ldr	r1, [r4, #28]
	ldrb	r5, [r0, #552]
	ldr	r0, [r1]
	cmp	r0, #0
	blne	mono_aot_Xamarin_Forms_Platform_Android_icall_cold_wrapper_265
	cmp	r5, #0
	beq	.LBB60_2
.LBB60_1:
	ldr	r0, [r4, #352]
	mov	r1, #64
	bl	p_11_plt_wrapper_alloc_object_AllocSmall_intptr_intptr_llvm
	add	r3, r4, #524
	ldr	r12, [r4, #472]
	mov	r5, #0
	ldm	r3, {r1, r2, r3}
	str	r1, [r0, #20]
	str	r2, [r0, #32]
	ldr	r2, [r4, #544]
	ldr	r1, [r3, #20]
	str	r1, [r0, #12]
	ldr	r1, [r3, #16]
	ldr	r3, [r4, #536]
	strb	r5, [r0, #56]
	str	r1, [r0, #8]
	ldr	r1, [r4, #540]
	dmb	ish
	str	r0, [r12]
	mov	r0, #2
	stm	sp, {r0, r5}
	mov	r0, r3
	mov	r3, #0
	str	r5, [sp, #8]
	str	r5, [sp, #12]
	str	r5, [sp, #16]
	str	r5, [sp, #20]
	bl	p_125_plt_Xamarin_Forms_BindableProperty_CreateAttached_string_System_Type_System_Type_object_Xamarin_Forms_BindingMode_Xamarin_Forms_BindableProperty_ValidateValueDelegate_Xamarin_Forms_BindableProperty_BindingPropertyChangedDelegate_Xamarin_Forms_BindableProperty_BindingPropertyChangingDelegate_Xamarin_Forms_BindableProperty_CoerceValueDelegate_Xamarin_Forms_BindableProperty_CreateDefaultValueDelegate_llvm
	ldr	r1, [r4, #516]
	dmb	ish
	str	r0, [r1]
	add	sp, sp, #24
	pop	{r4, r5, r11, pc}
.LBB60_2:
	mov	r0, #552
	bl	mono_aot_Xamarin_Forms_Platform_Android_init_method
	b	.LBB60_1
	.p2align	2
.LCPI60_0:
	.long	mono_aot_Xamarin_Forms_Platform_Android_llvm_got-(.LPC60_0+8)
.LCPI60_1:
	.long	mono_inited-(.LPC60_1+8)
.Lfunc_end60:
	.size	Xamarin_Forms_Platform_Android_CellRenderer__cctor, .Lfunc_end60-Xamarin_Forms_Platform_Android_CellRenderer__cctor
.Lexception54:
	.fnend

	.hidden	Xamarin_Forms_Platform_Android_CellRenderer_RendererHolder__ctor_Xamarin_Forms_Platform_Android_CellRenderer
	.globl	Xamarin_Forms_Platform_Android_CellRenderer_RendererHolder__ctor_Xamarin_Forms_Platform_Android_CellRenderer
	.p2align	2
	.type	Xamarin_Forms_Platform_Android_CellRenderer_RendererHolder__ctor_Xamarin_Forms_Platform_Android_CellRenderer,%function
	.code	32
Xamarin_Forms_Platform_Android_CellRenderer_RendererHolder__ctor_Xamarin_Forms_Platform_Android_CellRenderer:
.Lfunc_begin61:
	.fnstart
	.save	{r4, r5, r6, r7, r11, lr}
	push	{r4, r5, r6, r7, r11, lr}
.Ltmp556:
.Ltmp557:
.Ltmp558:
.Ltmp559:
.Ltmp560:
.Ltmp561:
.Ltmp562:
	ldr	r7, .LCPI61_1
	mov	r4, r0
	ldr	r0, .LCPI61_2
	mov	r5, r1
.LPC61_1:
	add	r7, pc, r7
.LPC61_2:
	add	r0, pc, r0
	ldr	r1, [r7, #28]
	ldrb	r6, [r0, #553]
	ldr	r0, [r1]
	cmp	r0, #0
	blne	mono_aot_Xamarin_Forms_Platform_Android_icall_cold_wrapper_265
	cmp	r6, #0
	beq	.LBB61_3
.LBB61_1:
	mov	r0, r4
	bl	p_126_plt_Java_Lang_Object__ctor_llvm
	ldr	r0, [r7, #548]
	bl	p_13_plt__jit_icall_ves_icall_object_new_specific_llvm
	mov	r1, r5
	mov	r6, r0
	bl	p_127_plt_System_WeakReference_1_Xamarin_Forms_Platform_Android_CellRenderer__ctor_Xamarin_Forms_Platform_Android_CellRenderer_llvm
	cmp	r4, #0
	beq	.LBB61_4
	ldr	r0, [r7, #8]
	dmb	ish
	str	r6, [r4, #32]!
	mov	r1, #1
	strb	r1, [r0, r4, lsr #9]
	pop	{r4, r5, r6, r7, r11, pc}
.LBB61_3:
	movw	r0, #553
	bl	mono_aot_Xamarin_Forms_Platform_Android_init_method
	b	.LBB61_1
.Ltmp563:
.LBB61_4:
	ldr	r0, .LCPI61_0
.LPC61_0:
	add	r1, pc, r0
	mov	r0, #225
	bl	p_3_plt__jit_icall_llvm_throw_corlib_exception_abs_trampoline_llvm
	.p2align	2
.LCPI61_0:
	.long	.Ltmp563-(.LPC61_0+8)
.LCPI61_1:
	.long	mono_aot_Xamarin_Forms_Platform_Android_llvm_got-(.LPC61_1+8)
.LCPI61_2:
	.long	mono_inited-(.LPC61_2+8)
.Lfunc_end61:
	.size	Xamarin_Forms_Platform_Android_CellRenderer_RendererHolder__ctor_Xamarin_Forms_Platform_Android_CellRenderer, .Lfunc_end61-Xamarin_Forms_Platform_Android_CellRenderer_RendererHolder__ctor_Xamarin_Forms_Platform_Android_CellRenderer
.Lexception55:
	.fnend

	.hidden	Xamarin_Forms_Platform_Android_ViewCellRenderer_GetCellCore_Xamarin_Forms_Cell_Android_Views_View_Android_Views_ViewGroup_Android_Content_Context
	.globl	Xamarin_Forms_Platform_Android_ViewCellRenderer_GetCellCore_Xamarin_Forms_Cell_Android_Views_View_Android_Views_ViewGroup_Android_Content_Context
	.p2align	2
	.type	Xamarin_Forms_Platform_Android_ViewCellRenderer_GetCellCore_Xamarin_Forms_Cell_Android_Views_View_Android_Views_ViewGroup_Android_Content_Context,%function
	.code	32
Xamarin_Forms_Platform_Android_ViewCellRenderer_GetCellCore_Xamarin_Forms_Cell_Android_Views_View_Android_Views_ViewGroup_Android_Content_Context:
.Lfunc_begin62:
	.fnstart
	.save	{r4, r5, r6, r7, r8, r9, r10, r11, lr}
	push	{r4, r5, r6, r7, r8, r9, r10, r11, lr}
.Ltmp564:
.Ltmp565:
.Ltmp566:
.Ltmp567:
.Ltmp568:
.Ltmp569:
.Ltmp570:
.Ltmp571:
.Ltmp572:
.Ltmp573:
	.pad	#28
	sub	sp, sp, #28
.Ltmp574:
	ldr	r11, .LCPI62_4
	mov	r7, r0
	ldr	r0, .LCPI62_5
	mov	r4, r1
.LPC62_4:
	add	r11, pc, r11
	mov	r6, r2
.LPC62_5:
	add	r0, pc, r0
	ldr	r1, [r11, #28]
	ldrb	r5, [r0, #629]
	ldr	r0, [r1]
	cmp	r0, #0
	blne	mono_aot_Xamarin_Forms_Platform_Android_icall_cold_wrapper_265
	cmp	r5, #0
	beq	.LBB62_21
.LBB62_1:
	ldr	r10, [r11, #552]
	mov	r0, #0
	ldr	r5, [r11, #556]
	str	r0, [sp, #24]
	add	r0, sp, #24
	mov	r1, r10
	mov	r3, r10
	mov	r2, r5
	bl	p_116_plt_Xamarin_Forms_Internals_Performance_Start_string__string_string_string_llvm
	cmp	r4, #0
	beq	.LBB62_3
	ldr	r0, [r4]
	ldr	r1, [r11, #588]
	ldr	r0, [r0]
	ldr	r0, [r0, #8]
	ldr	r0, [r0, #16]
	cmp	r0, r1
	bne	.LBB62_25
.LBB62_3:
	cmp	r6, #0
	beq	.LBB62_5
	ldr	r0, [r6]
	ldr	r1, [r11, #584]
	ldr	r0, [r0]
	ldr	r0, [r0, #8]
	ldr	r0, [r0, #16]
	cmp	r0, r1
	beq	.LBB62_12
.LBB62_5:
	cmp	r7, #0
	beq	.LBB62_22
	ldr	r0, [r7, #12]
	mov	r6, #0
	cmp	r0, #0
	beq	.LBB62_10
	ldr	r0, [r0]
	ldr	r0, [r0]
	ldrh	r1, [r0, #12]
	cmp	r1, #7
	blo	.LBB62_10
	ldr	r2, [r0, #8]
	ldr	r3, [r11, #448]
	ldr	r2, [r2, #24]
	cmp	r2, r3
	beq	.LBB62_13
	cmp	r1, #8
	bhs	.LBB62_14
.LBB62_10:
	mov	r9, #0
	cmp	r4, #0
	bne	.LBB62_17
.Ltmp575:
.LBB62_11:
	ldr	r0, .LCPI62_2
.LPC62_2:
	add	r1, pc, r0
	mov	r0, #225
	bl	p_3_plt__jit_icall_llvm_throw_corlib_exception_abs_trampoline_llvm
.LBB62_12:
	mov	r0, r6
	mov	r1, r4
	bl	p_134_plt_Xamarin_Forms_Platform_Android_ViewCellRenderer_ViewCellContainer_Update_Xamarin_Forms_ViewCell_llvm
	ldr	r0, [sp, #24]
	mov	r1, r10
	mov	r2, r5
	b	.LBB62_20
.LBB62_13:
	ldr	r0, [r11, #576]
	ldr	r1, [r11, #580]
	ldr	r9, [r0]
	ldr	r6, [r1]
	cmp	r4, #0
	bne	.LBB62_17
	b	.LBB62_11
.LBB62_14:
	ldr	r0, [r0, #8]
	mov	r9, #0
	ldr	r1, [r11, #444]
	ldr	r0, [r0, #28]
	cmp	r0, r1
	bne	.LBB62_16
	ldr	r0, [r11, #564]
	str	r0, [sp, #20]
	mov	r0, r4
	ldr	r8, [sp, #20]
	bl	p_132_plt_Xamarin_Forms_Cell_On_Xamarin_Forms_PlatformConfiguration_Android_llvm
	bl	p_133_plt_Xamarin_Forms_PlatformConfiguration_AndroidSpecific_ViewCell_GetIsContextActionsLegacyModeEnabled_Xamarin_Forms_IPlatformElementConfiguration_2_Xamarin_Forms_PlatformConfiguration_Android_Xamarin_Forms_Cell_llvm
	ldr	r1, [r11, #568]
	ldr	r2, [r11, #572]
	strb	r0, [r4, #176]
	ldr	r9, [r1]
	ldr	r6, [r2]
.LBB62_16:
	cmp	r4, #0
	beq	.LBB62_11
.LBB62_17:
	ldr	r0, [r4, #188]
	mov	r11, r6
	mov	r6, r7
	cmp	r0, #0
	beq	.LBB62_23
	ldr	r1, [sp, #64]
	str	r5, [sp, #16]
	bl	Xamarin_Forms_Platform_Android_Platform_CreateRenderer_Xamarin_Forms_VisualElement_Android_Content_Context
	mov	r7, r0
	ldr	r0, [r4, #188]
	mov	r1, r7
	bl	Xamarin_Forms_Platform_Android_Platform_SetRenderer_Xamarin_Forms_VisualElement_Xamarin_Forms_Platform_Android_IVisualElementRenderer
	ldr	r0, [r4, #188]
	cmp	r0, #0
	beq	.LBB62_24
	mov	r1, #1
	bl	p_130_plt_Xamarin_Forms_VisualElement_set_IsPlatformEnabled_bool_llvm
	ldr	r5, [r6, #12]
	ldr	r0, .LCPI62_6
.LPC62_6:
	add	r0, pc, r0
	ldr	r0, [r0, #560]
	bl	p_13_plt__jit_icall_ves_icall_object_new_specific_llvm
	ldr	r1, [sp, #64]
	mov	r2, r7
	mov	r3, r4
	mov	r6, r0
	stm	sp, {r5, r9, r11}
	bl	Xamarin_Forms_Platform_Android_ViewCellRenderer_ViewCellContainer__ctor_Android_Content_Context_Xamarin_Forms_Platform_Android_IVisualElementRenderer_Xamarin_Forms_ViewCell_Xamarin_Forms_View_Xamarin_Forms_BindableProperty_Xamarin_Forms_BindableProperty
	ldr	r0, [sp, #24]
	mov	r1, r10
	ldr	r2, [sp, #16]
.LBB62_20:
	mov	r3, r10
	bl	p_120_plt_Xamarin_Forms_Internals_Performance_Stop_string_string_string_string_llvm
	mov	r0, r6
	add	sp, sp, #28
	pop	{r4, r5, r6, r7, r8, r9, r10, r11, pc}
.LBB62_21:
	movw	r0, #629
	bl	mono_aot_Xamarin_Forms_Platform_Android_init_method
	b	.LBB62_1
.Ltmp576:
.LBB62_22:
	ldr	r0, .LCPI62_3
.LPC62_3:
	add	r1, pc, r0
	mov	r0, #225
	bl	p_3_plt__jit_icall_llvm_throw_corlib_exception_abs_trampoline_llvm
.LBB62_23:
	ldr	r0, .LCPI62_7
	movw	r1, #6105
.LPC62_7:
	ldr	r0, [pc, r0]
	bl	p_51_plt__jit_icall_mono_helper_ldstr_llvm
	mov	r1, r0
	movw	r0, #204
	movt	r0, #512
	bl	p_52_plt__jit_icall_mono_create_corlib_exception_1_llvm
	bl	p_53_plt__jit_icall_mono_arch_throw_exception_llvm
.Ltmp577:
.LBB62_24:
	ldr	r0, .LCPI62_1
.LPC62_1:
	add	r1, pc, r0
	mov	r0, #225
	bl	p_3_plt__jit_icall_llvm_throw_corlib_exception_abs_trampoline_llvm
.Ltmp578:
.LBB62_25:
	ldr	r0, .LCPI62_0
.LPC62_0:
	add	r1, pc, r0
	mov	r0, #203
	bl	p_3_plt__jit_icall_llvm_throw_corlib_exception_abs_trampoline_llvm
	.p2align	2
.LCPI62_0:
	.long	.Ltmp578-(.LPC62_0+8)
.LCPI62_1:
	.long	.Ltmp577-(.LPC62_1+8)
.LCPI62_2:
	.long	.Ltmp575-(.LPC62_2+8)
.LCPI62_3:
	.long	.Ltmp576-(.LPC62_3+8)
.LCPI62_4:
	.long	mono_aot_Xamarin_Forms_Platform_Android_llvm_got-(.LPC62_4+8)
.LCPI62_5:
	.long	mono_inited-(.LPC62_5+8)
.LCPI62_6:
	.long	mono_aot_Xamarin_Forms_Platform_Android_llvm_got-(.LPC62_6+8)
.LCPI62_7:
	.long	mono_aot_Xamarin_Forms_Platform_Android_llvm_got-(.LPC62_7+8)
.Lfunc_end62:
	.size	Xamarin_Forms_Platform_Android_ViewCellRenderer_GetCellCore_Xamarin_Forms_Cell_Android_Views_View_Android_Views_ViewGroup_Android_Content_Context, .Lfunc_end62-Xamarin_Forms_Platform_Android_ViewCellRenderer_GetCellCore_Xamarin_Forms_Cell_Android_Views_View_Android_Views_ViewGroup_Android_Content_Context
.Lexception56:
	.fnend

	.hidden	Xamarin_Forms_Platform_Android_ViewCellRenderer__ctor
	.globl	Xamarin_Forms_Platform_Android_ViewCellRenderer__ctor
	.p2align	2
	.type	Xamarin_Forms_Platform_Android_ViewCellRenderer__ctor,%function
	.code	32
Xamarin_Forms_Platform_Android_ViewCellRenderer__ctor:
.Lfunc_begin63:
	.fnstart
	bx	lr
.Lfunc_end63:
	.size	Xamarin_Forms_Platform_Android_ViewCellRenderer__ctor, .Lfunc_end63-Xamarin_Forms_Platform_Android_ViewCellRenderer__ctor
.Lexception57:
	.fnend

	.hidden	Xamarin_Forms_Platform_Android_ViewCellRenderer_ViewCellContainer__ctor_Android_Content_Context_Xamarin_Forms_Platform_Android_IVisualElementRenderer_Xamarin_Forms_ViewCell_Xamarin_Forms_View_Xamarin_Forms_BindableProperty_Xamarin_Forms_BindableProperty
	.globl	Xamarin_Forms_Platform_Android_ViewCellRenderer_ViewCellContainer__ctor_Android_Content_Context_Xamarin_Forms_Platform_Android_IVisualElementRenderer_Xamarin_Forms_ViewCell_Xamarin_Forms_View_Xamarin_Forms_BindableProperty_Xamarin_Forms_BindableProperty
	.p2align	2
	.type	Xamarin_Forms_Platform_Android_ViewCellRenderer_ViewCellContainer__ctor_Android_Content_Context_Xamarin_Forms_Platform_Android_IVisualElementRenderer_Xamarin_Forms_ViewCell_Xamarin_Forms_View_Xamarin_Forms_BindableProperty_Xamarin_Forms_BindableProperty,%function
	.code	32
Xamarin_Forms_Platform_Android_ViewCellRenderer_ViewCellContainer__ctor_Android_Content_Context_Xamarin_Forms_Platform_Android_IVisualElementRenderer_Xamarin_Forms_ViewCell_Xamarin_Forms_View_Xamarin_Forms_BindableProperty_Xamarin_Forms_BindableProperty:
.Lfunc_begin64:
	.fnstart
	.save	{r4, r5, r6, r7, r8, r9, r10, r11, lr}
	push	{r4, r5, r6, r7, r8, r9, r10, r11, lr}
.Ltmp579:
.Ltmp580:
.Ltmp581:
.Ltmp582:
.Ltmp583:
.Ltmp584:
.Ltmp585:
.Ltmp586:
.Ltmp587:
.Ltmp588:
	.pad	#4
	sub	sp, sp, #4
.Ltmp589:
	ldr	r9, .LCPI64_2
	mov	r5, r0
	ldr	r0, .LCPI64_3
	mov	r4, r1
.LPC64_2:
	add	r9, pc, r9
	mov	r10, r3
.LPC64_3:
	add	r0, pc, r0
	mov	r11, r2
	ldr	r1, [r9, #28]
	ldrb	r6, [r0, #635]
	ldr	r0, [r1]
	cmp	r0, #0
	blne	mono_aot_Xamarin_Forms_Platform_Android_icall_cold_wrapper_265
	cmp	r6, #0
	beq	.LBB64_4
.LBB64_1:
	mov	r0, r5
	mov	r1, r4
	bl	p_135_plt_Android_Views_ViewGroup__ctor_Android_Content_Context_llvm
	cmp	r5, #0
	beq	.LBB64_5
	ldr	r3, [r9, #8]
	mov	r4, r5
	dmb	ish
	str	r11, [r4, #64]!
	mov	r6, #1
	ldr	r2, [sp, #40]
	strb	r6, [r3, r4, lsr #9]
	mov	r7, r5
	dmb	ish
	cmp	r11, #0
	str	r2, [r7, #52]!
	mov	r2, r5
	ldr	r1, [sp, #44]
	strb	r6, [r3, r7, lsr #9]
	dmb	ish
	str	r1, [r2, #60]!
	mov	r1, r5
	ldr	r0, [sp, #48]
	strb	r6, [r3, r2, lsr #9]
	dmb	ish
	str	r0, [r1, #56]!
	mov	r0, r5
	strb	r6, [r3, r1, lsr #9]
	dmb	ish
	str	r10, [r0, #68]!
	strb	r6, [r3, r0, lsr #9]
	beq	.LBB64_6
	ldr	r0, [r11]
	ldr	r1, [r0, #-8]
	ldr	r0, [r9, #592]
	str	r0, [sp]
	mov	r0, r11
	ldr	r8, [sp]
	blx	r1
	mov	r1, r0
	ldr	r0, [r5]
	ldr	r2, [r0, #1312]
	mov	r0, r5
	blx	r2
	mov	r0, r5
	bl	Xamarin_Forms_Platform_Android_ViewCellRenderer_ViewCellContainer_UpdateIsEnabled
	mov	r0, r5
	bl	Xamarin_Forms_Platform_Android_ViewCellRenderer_ViewCellContainer_UpdateWatchForLongPress
	add	sp, sp, #4
	pop	{r4, r5, r6, r7, r8, r9, r10, r11, pc}
.LBB64_4:
	movw	r0, #635
	bl	mono_aot_Xamarin_Forms_Platform_Android_init_method
	b	.LBB64_1
.Ltmp590:
.LBB64_5:
	ldr	r0, .LCPI64_1
.LPC64_1:
	add	r1, pc, r0
	mov	r0, #225
	bl	p_3_plt__jit_icall_llvm_throw_corlib_exception_abs_trampoline_llvm
.Ltmp591:
.LBB64_6:
	ldr	r0, .LCPI64_0
.LPC64_0:
	add	r1, pc, r0
	mov	r0, #225
	bl	p_3_plt__jit_icall_llvm_throw_corlib_exception_abs_trampoline_llvm
	.p2align	2
.LCPI64_0:
	.long	.Ltmp591-(.LPC64_0+8)
.LCPI64_1:
	.long	.Ltmp590-(.LPC64_1+8)
.LCPI64_2:
	.long	mono_aot_Xamarin_Forms_Platform_Android_llvm_got-(.LPC64_2+8)
.LCPI64_3:
	.long	mono_inited-(.LPC64_3+8)
.Lfunc_end64:
	.size	Xamarin_Forms_Platform_Android_ViewCellRenderer_ViewCellContainer__ctor_Android_Content_Context_Xamarin_Forms_Platform_Android_IVisualElementRenderer_Xamarin_Forms_ViewCell_Xamarin_Forms_View_Xamarin_Forms_BindableProperty_Xamarin_Forms_BindableProperty, .Lfunc_end64-Xamarin_Forms_Platform_Android_ViewCellRenderer_ViewCellContainer__ctor_Android_Content_Context_Xamarin_Forms_Platform_Android_IVisualElementRenderer_Xamarin_Forms_ViewCell_Xamarin_Forms_View_Xamarin_Forms_BindableProperty_Xamarin_Forms_BindableProperty
.Lexception58:
	.fnend

	.hidden	Xamarin_Forms_Platform_Android_ViewCellRenderer_ViewCellContainer_get_ParentHasUnevenRows
	.globl	Xamarin_Forms_Platform_Android_ViewCellRenderer_ViewCellContainer_get_ParentHasUnevenRows
	.p2align	2
	.type	Xamarin_Forms_Platform_Android_ViewCellRenderer_ViewCellContainer_get_ParentHasUnevenRows,%function
	.code	32
Xamarin_Forms_Platform_Android_ViewCellRenderer_ViewCellContainer_get_ParentHasUnevenRows:
.Lfunc_begin65:
	.fnstart
	.save	{r4, r5, r6, lr}
	push	{r4, r5, r6, lr}
.Ltmp592:
.Ltmp593:
.Ltmp594:
.Ltmp595:
.Ltmp596:
	ldr	r5, .LCPI65_5
	mov	r4, r0
	ldr	r0, .LCPI65_6
.LPC65_5:
	add	r5, pc, r5
.LPC65_6:
	add	r0, pc, r0
	ldr	r1, [r5, #28]
	ldrb	r6, [r0, #636]
	ldr	r0, [r1]
	cmp	r0, #0
	blne	mono_aot_Xamarin_Forms_Platform_Android_icall_cold_wrapper_265
	cmp	r6, #0
	beq	.LBB65_7
	cmp	r4, #0
	beq	.LBB65_8
.LBB65_2:
	ldr	r0, [r4, #52]
	cmp	r0, #0
	beq	.LBB65_9
	ldr	r1, [r4, #60]
	bl	p_123_plt_Xamarin_Forms_BindableObject_GetValue_Xamarin_Forms_BindableProperty_llvm
	cmp	r0, #0
	beq	.LBB65_10
	ldr	r1, [r0]
	ldrb	r2, [r1, #24]
	cmp	r2, #0
	bne	.LBB65_11
	ldr	r1, [r1]
	ldr	r2, [r5, #596]
	ldr	r1, [r1]
	cmp	r1, r2
	ldrbeq	r0, [r0, #8]
	popeq	{r4, r5, r6, pc}
.Ltmp597:
.LBB65_6:
	ldr	r0, .LCPI65_1
.LPC65_1:
	add	r1, pc, r0
	mov	r0, #203
	bl	p_3_plt__jit_icall_llvm_throw_corlib_exception_abs_trampoline_llvm
.LBB65_7:
	mov	r0, #636
	bl	mono_aot_Xamarin_Forms_Platform_Android_init_method
	cmp	r4, #0
	bne	.LBB65_2
.Ltmp598:
.LBB65_8:
	ldr	r0, .LCPI65_4
.LPC65_4:
	add	r1, pc, r0
	mov	r0, #225
	bl	p_3_plt__jit_icall_llvm_throw_corlib_exception_abs_trampoline_llvm
.Ltmp599:
.LBB65_9:
	ldr	r0, .LCPI65_3
.LPC65_3:
	add	r1, pc, r0
	mov	r0, #225
	bl	p_3_plt__jit_icall_llvm_throw_corlib_exception_abs_trampoline_llvm
.Ltmp600:
.LBB65_10:
	ldr	r0, .LCPI65_2
.LPC65_2:
	add	r1, pc, r0
	mov	r0, #225
	bl	p_3_plt__jit_icall_llvm_throw_corlib_exception_abs_trampoline_llvm
.Ltmp601:
.LBB65_11:
	ldr	r0, .LCPI65_0
.LPC65_0:
	add	r1, pc, r0
	mov	r0, #203
	bl	p_3_plt__jit_icall_llvm_throw_corlib_exception_abs_trampoline_llvm
	.p2align	2
.LCPI65_0:
	.long	.Ltmp601-(.LPC65_0+8)
.LCPI65_1:
	.long	.Ltmp597-(.LPC65_1+8)
.LCPI65_2:
	.long	.Ltmp600-(.LPC65_2+8)
.LCPI65_3:
	.long	.Ltmp599-(.LPC65_3+8)
.LCPI65_4:
	.long	.Ltmp598-(.LPC65_4+8)
.LCPI65_5:
	.long	mono_aot_Xamarin_Forms_Platform_Android_llvm_got-(.LPC65_5+8)
.LCPI65_6:
	.long	mono_inited-(.LPC65_6+8)
.Lfunc_end65:
	.size	Xamarin_Forms_Platform_Android_ViewCellRenderer_ViewCellContainer_get_ParentHasUnevenRows, .Lfunc_end65-Xamarin_Forms_Platform_Android_ViewCellRenderer_ViewCellContainer_get_ParentHasUnevenRows
.Lexception59:
	.fnend

	.hidden	Xamarin_Forms_Platform_Android_ViewCellRenderer_ViewCellContainer_UpdateIsEnabled
	.globl	Xamarin_Forms_Platform_Android_ViewCellRenderer_ViewCellContainer_UpdateIsEnabled
	.p2align	2
	.type	Xamarin_Forms_Platform_Android_ViewCellRenderer_ViewCellContainer_UpdateIsEnabled,%function
	.code	32
Xamarin_Forms_Platform_Android_ViewCellRenderer_ViewCellContainer_UpdateIsEnabled:
.Lfunc_begin66:
	.fnstart
	.save	{r4, lr}
	push	{r4, lr}
.Ltmp602:
.Ltmp603:
.Ltmp604:
	mov	r4, r0
	ldr	r0, .LCPI66_2
.LPC66_2:
	add	r0, pc, r0
	ldr	r0, [r0, #28]
	ldr	r0, [r0]
	cmp	r0, #0
	blne	mono_aot_Xamarin_Forms_Platform_Android_icall_cold_wrapper_265
	cmp	r4, #0
	beq	.LBB66_3
	ldr	r0, [r4, #68]
	cmp	r0, #0
	beq	.LBB66_4
	bl	p_138_plt_Xamarin_Forms_Cell_get_IsEnabled_llvm
	ldr	r1, [r4]
	ldr	r2, [r1, #880]
	uxtb	r1, r0
	mov	r0, r4
	blx	r2
	pop	{r4, pc}
.Ltmp605:
.LBB66_3:
	ldr	r0, .LCPI66_1
.LPC66_1:
	add	r1, pc, r0
	mov	r0, #225
	bl	p_3_plt__jit_icall_llvm_throw_corlib_exception_abs_trampoline_llvm
.Ltmp606:
.LBB66_4:
	ldr	r0, .LCPI66_0
.LPC66_0:
	add	r1, pc, r0
	mov	r0, #225
	bl	p_3_plt__jit_icall_llvm_throw_corlib_exception_abs_trampoline_llvm
	.p2align	2
.LCPI66_0:
	.long	.Ltmp606-(.LPC66_0+8)
.LCPI66_1:
	.long	.Ltmp605-(.LPC66_1+8)
.LCPI66_2:
	.long	mono_aot_Xamarin_Forms_Platform_Android_llvm_got-(.LPC66_2+8)
.Lfunc_end66:
	.size	Xamarin_Forms_Platform_Android_ViewCellRenderer_ViewCellContainer_UpdateIsEnabled, .Lfunc_end66-Xamarin_Forms_Platform_Android_ViewCellRenderer_ViewCellContainer_UpdateIsEnabled
.Lexception60:
	.fnend

	.hidden	Xamarin_Forms_Platform_Android_ViewCellRenderer_ViewCellContainer_OnLayout_bool_int_int_int_int
	.globl	Xamarin_Forms_Platform_Android_ViewCellRenderer_ViewCellContainer_OnLayout_bool_int_int_int_int
	.p2align	3
	.type	Xamarin_Forms_Platform_Android_ViewCellRenderer_ViewCellContainer_OnLayout_bool_int_int_int_int,%function
	.code	32
Xamarin_Forms_Platform_Android_ViewCellRenderer_ViewCellContainer_OnLayout_bool_int_int_int_int:
.Lfunc_begin67:
	.fnstart
	.save	{r4, r5, r6, r7, r8, r9, r10, r11, lr}
	push	{r4, r5, r6, r7, r8, r9, r10, r11, lr}
.Ltmp607:
.Ltmp608:
.Ltmp609:
.Ltmp610:
.Ltmp611:
.Ltmp612:
.Ltmp613:
.Ltmp614:
.Ltmp615:
.Ltmp616:
	.pad	#4
	sub	sp, sp, #4
.Ltmp617:
	.vsave	{d8, d9, d10, d11}
	vpush	{d8, d9, d10, d11}
.Ltmp618:
.Ltmp619:
.Ltmp620:
.Ltmp621:
.Ltmp622:
	.pad	#72
	sub	sp, sp, #72
.Ltmp623:
	ldr	r10, .LCPI67_4
	mov	r9, r0
	ldr	r0, .LCPI67_5
	mov	r11, r3
.LPC67_3:
	add	r10, pc, r10
	mov	r7, r2
.LPC67_4:
	add	r0, pc, r0
	ldr	r1, [r10, #28]
	ldrb	r6, [r0, #643]
	ldr	r0, [r1]
	cmp	r0, #0
	blne	mono_aot_Xamarin_Forms_Platform_Android_icall_cold_wrapper_265
	ldr	r5, [sp, #144]
	cmp	r6, #0
	beq	.LBB67_7
.LBB67_1:
	ldr	r6, [r10, #556]
	mov	r0, #0
	ldr	r4, [r10, #600]
	mov	r1, #0
	str	r0, [sp, #36]
	add	r0, sp, #36
	mov	r2, r6
	mov	r3, r4
	bl	p_116_plt_Xamarin_Forms_Internals_Performance_Start_string__string_string_string_llvm
	mov	r0, r9
	bl	p_139_plt_Android_Views_View_get_Context_llvm
	bl	Xamarin_Forms_Platform_Android_ContextExtensions_SetupMetrics_Android_Content_Context
	sub	r0, r5, r7
	ldr	r5, [r10, #456]
	vmov	s0, r0
	vcvt.f64.s32	d8, s0
	ldrb	r0, [r5, #25]
	cmp	r0, #0
	beq	.LBB67_8
.LBB67_2:
	ldr	r7, [r10, #460]
	mov	r0, r9
	vldr	s18, [r7]
	bl	p_139_plt_Android_Views_View_get_Context_llvm
	bl	Xamarin_Forms_Platform_Android_ContextExtensions_SetupMetrics_Android_Content_Context
	ldr	r0, [sp, #148]
	sub	r0, r0, r11
	vmov	s0, r0
	vcvt.f64.s32	d10, s0
	ldrb	r0, [r5, #25]
	cmp	r0, #0
	beq	.LBB67_9
.LBB67_3:
	ldr	r11, [r10, #604]
	mov	r2, r6
	vldr	s22, [r7]
	mov	r3, r4
	ldr	r0, [sp, #36]
	mov	r1, r11
	bl	p_140_plt_Xamarin_Forms_Internals_Performance_Start_string_string_string_string_llvm
	cmp	r9, #0
	beq	.LBB67_10
	ldr	r0, [r9, #64]
	str	r4, [sp, #24]
	cmp	r0, #0
	str	r6, [sp, #28]
	beq	.LBB67_11
	vcvt.f64.f32	d0, s18
	ldr	r1, [r0]
	ldr	r2, [r10, #608]
	ldr	r1, [r1, #-76]
	str	r2, [sp, #32]
	vdiv.f64	d8, d8, d0
	ldr	r8, [sp, #32]
	vcvt.f64.f32	d0, s22
	vdiv.f64	d9, d10, d0
	blx	r1
	vldr	d0, .LCPI67_0
	mov	r10, r0
	mov	r0, #0
	vstr	d8, [sp, #8]
	vmov	r2, r3, d0
	str	r0, [sp, #68]
	str	r0, [sp, #64]
	str	r0, [sp, #60]
	str	r0, [sp, #56]
	str	r0, [sp, #52]
	str	r0, [sp, #48]
	str	r0, [sp, #44]
	str	r0, [sp, #40]
	str	r0, [sp]
	str	r0, [sp, #4]
	add	r0, sp, #40
	vstr	d9, [sp, #16]
	bl	p_141_plt_Xamarin_Forms_Rectangle__ctor_double_double_double_double_llvm
	add	r7, sp, #48
	ldr	r2, [sp, #40]
	ldr	r3, [sp, #44]
	ldm	r7, {r0, r1, r6, r7}
	ldr	r4, [sp, #64]
	ldr	r5, [sp, #68]
	stm	sp, {r0, r1, r6, r7}
	mov	r0, r10
	str	r4, [sp, #16]
	str	r5, [sp, #20]
	bl	p_142_plt_Xamarin_Forms_Layout_LayoutChildIntoBoundingRegion_Xamarin_Forms_VisualElement_Xamarin_Forms_Rectangle_llvm
	ldr	r0, [sp, #36]
	mov	r1, r11
	ldr	r4, [sp, #28]
	ldr	r5, [sp, #24]
	mov	r2, r4
	mov	r3, r5
	bl	p_120_plt_Xamarin_Forms_Internals_Performance_Stop_string_string_string_string_llvm
	ldr	r0, [r9, #64]
	cmp	r0, #0
	beq	.LBB67_12
	ldr	r1, [r0]
	ldr	r1, [r1, #-28]
	ldr	r2, .LCPI67_6
.LPC67_5:
	add	r2, pc, r2
	ldr	r2, [r2, #612]
	str	r2, [sp, #32]
	ldr	r8, [sp, #32]
	blx	r1
	ldr	r0, [sp, #36]
	mov	r1, #0
	mov	r2, r4
	mov	r3, r5
	bl	p_120_plt_Xamarin_Forms_Internals_Performance_Stop_string_string_string_string_llvm
	add	sp, sp, #72
	vpop	{d8, d9, d10, d11}
	add	sp, sp, #4
	pop	{r4, r5, r6, r7, r8, r9, r10, r11, pc}
.LBB67_7:
	movw	r0, #643
	bl	mono_aot_Xamarin_Forms_Platform_Android_init_method
	b	.LBB67_1
.LBB67_8:
	mov	r0, r5
	bl	p_24_plt__jit_icall_mono_generic_class_init_llvm
	b	.LBB67_2
.LBB67_9:
	mov	r0, r5
	bl	p_24_plt__jit_icall_mono_generic_class_init_llvm
	b	.LBB67_3
.Ltmp624:
.LBB67_10:
	ldr	r0, .LCPI67_3
.LPC67_2:
	add	r1, pc, r0
	mov	r0, #225
	bl	p_3_plt__jit_icall_llvm_throw_corlib_exception_abs_trampoline_llvm
.Ltmp625:
.LBB67_11:
	ldr	r0, .LCPI67_2
.LPC67_1:
	add	r1, pc, r0
	mov	r0, #225
	bl	p_3_plt__jit_icall_llvm_throw_corlib_exception_abs_trampoline_llvm
.Ltmp626:
.LBB67_12:
	ldr	r0, .LCPI67_1
.LPC67_0:
	add	r1, pc, r0
	mov	r0, #225
	bl	p_3_plt__jit_icall_llvm_throw_corlib_exception_abs_trampoline_llvm
	.p2align	3
.LCPI67_0:
	.long	0
	.long	0
.LCPI67_1:
	.long	.Ltmp626-(.LPC67_0+8)
.LCPI67_2:
	.long	.Ltmp625-(.LPC67_1+8)
.LCPI67_3:
	.long	.Ltmp624-(.LPC67_2+8)
.LCPI67_4:
	.long	mono_aot_Xamarin_Forms_Platform_Android_llvm_got-(.LPC67_3+8)
.LCPI67_5:
	.long	mono_inited-(.LPC67_4+8)
.LCPI67_6:
	.long	mono_aot_Xamarin_Forms_Platform_Android_llvm_got-(.LPC67_5+8)
.Lfunc_end67:
	.size	Xamarin_Forms_Platform_Android_ViewCellRenderer_ViewCellContainer_OnLayout_bool_int_int_int_int, .Lfunc_end67-Xamarin_Forms_Platform_Android_ViewCellRenderer_ViewCellContainer_OnLayout_bool_int_int_int_int
.Lexception61:
	.fnend

	.hidden	Xamarin_Forms_Platform_Android_ViewCellRenderer_ViewCellContainer_OnMeasure_int_int
	.globl	Xamarin_Forms_Platform_Android_ViewCellRenderer_ViewCellContainer_OnMeasure_int_int
	.p2align	3
	.type	Xamarin_Forms_Platform_Android_ViewCellRenderer_ViewCellContainer_OnMeasure_int_int,%function
	.code	32
Xamarin_Forms_Platform_Android_ViewCellRenderer_ViewCellContainer_OnMeasure_int_int:
.Lfunc_begin68:
	.fnstart
	.save	{r4, r5, r6, r7, r8, r9, r10, r11, lr}
	push	{r4, r5, r6, r7, r8, r9, r10, r11, lr}
.Ltmp627:
.Ltmp628:
.Ltmp629:
.Ltmp630:
.Ltmp631:
.Ltmp632:
.Ltmp633:
.Ltmp634:
.Ltmp635:
.Ltmp636:
	.pad	#4
	sub	sp, sp, #4
.Ltmp637:
	.vsave	{d8, d9}
	vpush	{d8, d9}
.Ltmp638:
.Ltmp639:
.Ltmp640:
	.pad	#56
	sub	sp, sp, #56
.Ltmp641:
	ldr	r7, .LCPI68_5
	mov	r4, r0
	ldr	r0, .LCPI68_6
	mov	r5, r1
.LPC68_4:
	add	r7, pc, r7
.LPC68_5:
	add	r0, pc, r0
	ldr	r1, [r7, #28]
	ldrb	r6, [r0, #644]
	ldr	r0, [r1]
	cmp	r0, #0
	blne	mono_aot_Xamarin_Forms_Platform_Android_icall_cold_wrapper_265
	cmp	r6, #0
	beq	.LBB68_15
.LBB68_1:
	ldr	r9, [r7, #556]
	mov	r0, #0
	ldr	r10, [r7, #616]
	mov	r1, #0
	str	r0, [sp, #52]
	str	r0, [sp, #48]
	mov	r2, r9
	str	r0, [sp, #44]
	mov	r3, r10
	str	r0, [sp, #40]
	str	r0, [sp, #36]
	str	r0, [sp, #32]
	str	r0, [sp, #28]
	str	r0, [sp, #24]
	str	r0, [sp, #20]
	add	r0, sp, #20
	bl	p_116_plt_Xamarin_Forms_Internals_Performance_Start_string__string_string_string_llvm
	mov	r0, r5
	bl	p_143_plt_Android_Views_View_MeasureSpec_GetSize_int_llvm
	mov	r11, r0
	mov	r0, r4
	bl	Xamarin_Forms_Platform_Android_ViewCellRenderer_ViewCellContainer_get_ParentHasUnevenRows
	tst	r0, #255
	beq	.LBB68_9
	cmp	r4, #0
	beq	.LBB68_19
	ldr	r0, [r4, #64]
	cmp	r0, #0
	beq	.LBB68_20
	ldr	r1, [r0]
	ldr	r2, [r7, #608]
	ldr	r1, [r1, #-76]
	str	r2, [sp, #16]
	ldr	r8, [sp, #16]
	blx	r1
	mov	r6, r0
	mov	r0, r4
	bl	p_139_plt_Android_Views_View_get_Context_llvm
	bl	Xamarin_Forms_Platform_Android_ContextExtensions_SetupMetrics_Android_Content_Context
	vmov	s0, r11
	ldr	r5, [r7, #456]
	vcvt.f64.s32	d8, s0
	ldrb	r0, [r5, #25]
	cmp	r0, #0
	beq	.LBB68_16
	cmp	r6, #0
	beq	.LBB68_17
.LBB68_6:
	ldr	r7, [r7, #460]
	movw	r12, #0
	movt	r12, #32752
	mov	r1, #0
	mov	r0, #1
	vldr	s0, [r7]
	stm	sp, {r1, r12}
	add	r1, sp, #24
	vcvt.f64.f32	d0, s0
	str	r0, [sp, #8]
	mov	r0, r6
	vdiv.f64	d0, d8, d0
	vmov	r2, r3, d0
	bl	p_147_plt_Xamarin_Forms_VisualElement_Measure_double_double_Xamarin_Forms_MeasureFlags_llvm
	mov	r0, r4
	bl	p_139_plt_Android_Views_View_get_Context_llvm
	ldr	r1, [r4, #68]
	cmp	r1, #0
	beq	.LBB68_21
	vldr	d8, [sp, #32]
	vldr	d9, [r1, #160]
	bl	Xamarin_Forms_Platform_Android_ContextExtensions_SetupMetrics_Android_Content_Context
	vcmpe.f64	d9, #0
	ldrb	r0, [r5, #25]
	vmrs	APSR_nzcv, fpscr
	vmovgt.f64	d8, d9
	cmp	r0, #0
	bne	.LBB68_14
	mov	r0, r5
	bl	p_24_plt__jit_icall_mono_generic_class_init_llvm
	b	.LBB68_14
.LBB68_9:
	mov	r0, r4
	bl	p_139_plt_Android_Views_View_get_Context_llvm
	mov	r5, r0
	mov	r0, r4
	bl	p_145_plt_Xamarin_Forms_Platform_Android_ViewCellRenderer_ViewCellContainer_get_ParentRowHeight_llvm
	cmn	r0, #1
	beq	.LBB68_11
	mov	r0, r4
	bl	p_145_plt_Xamarin_Forms_Platform_Android_ViewCellRenderer_ViewCellContainer_get_ParentRowHeight_llvm
	vmov	s0, r0
	vcvt.f64.s32	d8, s0
	b	.LBB68_12
.LBB68_11:
	vldr	d8, .LCPI68_4
.LBB68_12:
	mov	r0, r5
	bl	Xamarin_Forms_Platform_Android_ContextExtensions_SetupMetrics_Android_Content_Context
	ldr	r0, [r7, #456]
	ldrb	r1, [r0, #25]
	cmp	r1, #0
	beq	.LBB68_18
.LBB68_13:
	ldr	r7, [r7, #460]
.LBB68_14:
	vldr	s0, [r7]
	vcvt.f64.f32	d0, s0
	vmul.f64	d0, d8, d0
	vmov	r0, r1, d0
	bl	ceil
	vmov	d0, r0, r1
	mov	r0, r4
	mov	r1, r11
	vcvt.f32.f64	s0, d0
	vcvt.s32.f32	s0, s0
	vmov	r2, s0
	bl	p_146_plt_Android_Views_View_SetMeasuredDimension_int_int_llvm
	ldr	r0, [sp, #20]
	mov	r1, #0
	mov	r2, r9
	mov	r3, r10
	bl	p_120_plt_Xamarin_Forms_Internals_Performance_Stop_string_string_string_string_llvm
	add	sp, sp, #56
	vpop	{d8, d9}
	add	sp, sp, #4
	pop	{r4, r5, r6, r7, r8, r9, r10, r11, pc}
.LBB68_15:
	mov	r0, #644
	bl	mono_aot_Xamarin_Forms_Platform_Android_init_method
	b	.LBB68_1
.LBB68_16:
	mov	r0, r5
	bl	p_24_plt__jit_icall_mono_generic_class_init_llvm
	cmp	r6, #0
	bne	.LBB68_6
.Ltmp642:
.LBB68_17:
	ldr	r0, .LCPI68_1
.LPC68_1:
	add	r1, pc, r0
	mov	r0, #225
	bl	p_3_plt__jit_icall_llvm_throw_corlib_exception_abs_trampoline_llvm
.LBB68_18:
	bl	p_24_plt__jit_icall_mono_generic_class_init_llvm
	b	.LBB68_13
.Ltmp643:
.LBB68_19:
	ldr	r0, .LCPI68_3
.LPC68_3:
	add	r1, pc, r0
	mov	r0, #225
	bl	p_3_plt__jit_icall_llvm_throw_corlib_exception_abs_trampoline_llvm
.Ltmp644:
.LBB68_20:
	ldr	r0, .LCPI68_2
.LPC68_2:
	add	r1, pc, r0
	mov	r0, #225
	bl	p_3_plt__jit_icall_llvm_throw_corlib_exception_abs_trampoline_llvm
.Ltmp645:
.LBB68_21:
	ldr	r0, .LCPI68_0
.LPC68_0:
	add	r1, pc, r0
	mov	r0, #225
	bl	p_3_plt__jit_icall_llvm_throw_corlib_exception_abs_trampoline_llvm
	.p2align	3
.LCPI68_4:
	.long	0
	.long	1078329344
.LCPI68_0:
	.long	.Ltmp645-(.LPC68_0+8)
.LCPI68_1:
	.long	.Ltmp642-(.LPC68_1+8)
.LCPI68_2:
	.long	.Ltmp644-(.LPC68_2+8)
.LCPI68_3:
	.long	.Ltmp643-(.LPC68_3+8)
.LCPI68_5:
	.long	mono_aot_Xamarin_Forms_Platform_Android_llvm_got-(.LPC68_4+8)
.LCPI68_6:
	.long	mono_inited-(.LPC68_5+8)
.Lfunc_end68:
	.size	Xamarin_Forms_Platform_Android_ViewCellRenderer_ViewCellContainer_OnMeasure_int_int, .Lfunc_end68-Xamarin_Forms_Platform_Android_ViewCellRenderer_ViewCellContainer_OnMeasure_int_int
.Lexception62:
	.fnend

	.hidden	Xamarin_Forms_Platform_Android_ViewCellRenderer_ViewCellContainer_UpdateWatchForLongPress
	.globl	Xamarin_Forms_Platform_Android_ViewCellRenderer_ViewCellContainer_UpdateWatchForLongPress
	.p2align	2
	.type	Xamarin_Forms_Platform_Android_ViewCellRenderer_ViewCellContainer_UpdateWatchForLongPress,%function
	.code	32
Xamarin_Forms_Platform_Android_ViewCellRenderer_ViewCellContainer_UpdateWatchForLongPress:
.Lfunc_begin69:
	.fnstart
	.save	{r4, r5, r6, r8, r11, lr}
	push	{r4, r5, r6, r8, r11, lr}
.Ltmp646:
.Ltmp647:
.Ltmp648:
.Ltmp649:
.Ltmp650:
.Ltmp651:
.Ltmp652:
	.pad	#8
	sub	sp, sp, #8
.Ltmp653:
	ldr	r6, .LCPI69_4
	mov	r4, r0
	ldr	r0, .LCPI69_5
.LPC69_4:
	add	r6, pc, r6
.LPC69_5:
	add	r0, pc, r0
	ldr	r1, [r6, #28]
	ldrb	r5, [r0, #646]
	ldr	r0, [r1]
	cmp	r0, #0
	blne	mono_aot_Xamarin_Forms_Platform_Android_icall_cold_wrapper_265
	cmp	r5, #0
	beq	.LBB69_12
	cmp	r4, #0
	beq	.LBB69_13
.LBB69_2:
	ldr	r0, [r4, #64]
	cmp	r0, #0
	beq	.LBB69_14
	ldr	r1, [r0]
	ldr	r2, [r6, #608]
	ldr	r1, [r1, #-76]
	str	r2, [sp, #4]
	ldr	r8, [sp, #4]
	blx	r1
	mov	r5, r0
	cmp	r5, #0
	beq	.LBB69_5
	ldr	r0, [r5]
	ldr	r1, [r6, #624]
	ldr	r0, [r0]
	ldr	r0, [r0, #8]
	ldr	r0, [r0, #20]
	cmp	r0, r1
	beq	.LBB69_6
.LBB69_5:
	add	sp, sp, #8
	pop	{r4, r5, r6, r8, r11, pc}
.LBB69_6:
	ldr	r0, [r4, #68]
	cmp	r0, #0
	beq	.LBB69_15
	bl	p_148_plt_Xamarin_Forms_Cell_get_ContextActions_llvm
	cmp	r0, #0
	beq	.LBB69_16
	ldr	r1, [r0]
	ldr	r2, [r6, #620]
	ldr	r1, [r1, #-76]
	str	r2, [sp, #4]
	ldr	r8, [sp, #4]
	blx	r1
	cmp	r0, #1
	blt	.LBB69_10
	mov	r0, r5
	bl	p_149_plt_Xamarin_Forms_Platform_Android_ViewCellRenderer_ViewCellContainer_HasTapGestureRecognizers_Xamarin_Forms_View_llvm
	b	.LBB69_11
.LBB69_10:
	mov	r0, #0
.LBB69_11:
	strb	r0, [r4, #84]
	add	sp, sp, #8
	pop	{r4, r5, r6, r8, r11, pc}
.LBB69_12:
	movw	r0, #646
	bl	mono_aot_Xamarin_Forms_Platform_Android_init_method
	cmp	r4, #0
	bne	.LBB69_2
.Ltmp654:
.LBB69_13:
	ldr	r0, .LCPI69_3
.LPC69_3:
	add	r1, pc, r0
	mov	r0, #225
	bl	p_3_plt__jit_icall_llvm_throw_corlib_exception_abs_trampoline_llvm
.Ltmp655:
.LBB69_14:
	ldr	r0, .LCPI69_2
.LPC69_2:
	add	r1, pc, r0
	mov	r0, #225
	bl	p_3_plt__jit_icall_llvm_throw_corlib_exception_abs_trampoline_llvm
.Ltmp656:
.LBB69_15:
	ldr	r0, .LCPI69_1
.LPC69_1:
	add	r1, pc, r0
	mov	r0, #225
	bl	p_3_plt__jit_icall_llvm_throw_corlib_exception_abs_trampoline_llvm
.Ltmp657:
.LBB69_16:
	ldr	r0, .LCPI69_0
.LPC69_0:
	add	r1, pc, r0
	mov	r0, #225
	bl	p_3_plt__jit_icall_llvm_throw_corlib_exception_abs_trampoline_llvm
	.p2align	2
.LCPI69_0:
	.long	.Ltmp657-(.LPC69_0+8)
.LCPI69_1:
	.long	.Ltmp656-(.LPC69_1+8)
.LCPI69_2:
	.long	.Ltmp655-(.LPC69_2+8)
.LCPI69_3:
	.long	.Ltmp654-(.LPC69_3+8)
.LCPI69_4:
	.long	mono_aot_Xamarin_Forms_Platform_Android_llvm_got-(.LPC69_4+8)
.LCPI69_5:
	.long	mono_inited-(.LPC69_5+8)
.Lfunc_end69:
	.size	Xamarin_Forms_Platform_Android_ViewCellRenderer_ViewCellContainer_UpdateWatchForLongPress, .Lfunc_end69-Xamarin_Forms_Platform_Android_ViewCellRenderer_ViewCellContainer_UpdateWatchForLongPress
.Lexception63:
	.fnend

	.hidden	Xamarin_Forms_Platform_Android_GroupableItemsViewAdapter_2_TItemsView_REF_TItemsViewSource_REF__ctor_TItemsView_REF_System_Func_3_Xamarin_Forms_View_Android_Content_Context_Xamarin_Forms_Platform_Android_ItemContentView
	.globl	Xamarin_Forms_Platform_Android_GroupableItemsViewAdapter_2_TItemsView_REF_TItemsViewSource_REF__ctor_TItemsView_REF_System_Func_3_Xamarin_Forms_View_Android_Content_Context_Xamarin_Forms_Platform_Android_ItemContentView
	.p2align	2
	.type	Xamarin_Forms_Platform_Android_GroupableItemsViewAdapter_2_TItemsView_REF_TItemsViewSource_REF__ctor_TItemsView_REF_System_Func_3_Xamarin_Forms_View_Android_Content_Context_Xamarin_Forms_Platform_Android_ItemContentView,%function
	.code	32
Xamarin_Forms_Platform_Android_GroupableItemsViewAdapter_2_TItemsView_REF_TItemsViewSource_REF__ctor_TItemsView_REF_System_Func_3_Xamarin_Forms_View_Android_Content_Context_Xamarin_Forms_Platform_Android_ItemContentView:
.Lfunc_begin70:
	.fnstart
	.save	{r4, r5, r6, lr}
	push	{r4, r5, r6, lr}
.Ltmp658:
.Ltmp659:
.Ltmp660:
.Ltmp661:
.Ltmp662:
	.pad	#8
	sub	sp, sp, #8
.Ltmp663:
	mov	r5, r1
	ldr	r1, .LCPI70_0
	mov	r4, r2
.LPC70_0:
	add	r1, pc, r1
	ldr	r1, [r1, #28]
	str	r0, [sp]
	str	r0, [sp, #4]
	ldr	r6, [sp, #4]
	ldr	r0, [r1]
	cmp	r0, #0
	blne	mono_aot_Xamarin_Forms_Platform_Android_icall_cold_wrapper_265
	mov	r0, r6
	mov	r1, r5
	mov	r2, r4
	bl	p_150_plt_Xamarin_Forms_Platform_Android_SelectableItemsViewAdapter_2_TItemsView_REF_TItemsViewSource_REF__ctor_TItemsView_REF_System_Func_3_Xamarin_Forms_View_Android_Content_Context_Xamarin_Forms_Platform_Android_ItemContentView_llvm
	add	sp, sp, #8
	pop	{r4, r5, r6, pc}
	.p2align	2
.LCPI70_0:
	.long	mono_aot_Xamarin_Forms_Platform_Android_llvm_got-(.LPC70_0+8)
.Lfunc_end70:
	.size	Xamarin_Forms_Platform_Android_GroupableItemsViewAdapter_2_TItemsView_REF_TItemsViewSource_REF__ctor_TItemsView_REF_System_Func_3_Xamarin_Forms_View_Android_Content_Context_Xamarin_Forms_Platform_Android_ItemContentView, .Lfunc_end70-Xamarin_Forms_Platform_Android_GroupableItemsViewAdapter_2_TItemsView_REF_TItemsViewSource_REF__ctor_TItemsView_REF_System_Func_3_Xamarin_Forms_View_Android_Content_Context_Xamarin_Forms_Platform_Android_ItemContentView
.Lexception64:
	.fnend

	.hidden	Xamarin_Forms_Platform_Android_GroupableItemsViewAdapter_2_TItemsView_REF_TItemsViewSource_REF_CreateItemsSource
	.globl	Xamarin_Forms_Platform_Android_GroupableItemsViewAdapter_2_TItemsView_REF_TItemsViewSource_REF_CreateItemsSource
	.p2align	2
	.type	Xamarin_Forms_Platform_Android_GroupableItemsViewAdapter_2_TItemsView_REF_TItemsViewSource_REF_CreateItemsSource,%function
	.code	32
Xamarin_Forms_Platform_Android_GroupableItemsViewAdapter_2_TItemsView_REF_TItemsViewSource_REF_CreateItemsSource:
.Lfunc_begin71:
	.fnstart
	.save	{r4, lr}
	push	{r4, lr}
.Ltmp664:
.Ltmp665:
.Ltmp666:
	.pad	#8
	sub	sp, sp, #8
.Ltmp667:
	ldr	r1, .LCPI71_1
.LPC71_1:
	add	r1, pc, r1
	ldr	r1, [r1, #28]
	str	r0, [sp]
	str	r0, [sp, #4]
	ldr	r4, [sp, #4]
	ldr	r0, [r1]
	cmp	r0, #0
	blne	mono_aot_Xamarin_Forms_Platform_Android_icall_cold_wrapper_265
	cmp	r4, #0
	beq	.LBB71_2
	ldr	r0, [r4, #32]
	ldr	r1, [sp, #4]
	bl	p_151_plt_Xamarin_Forms_Platform_Android_ItemsSourceFactory_Create_Xamarin_Forms_GroupableItemsView_AndroidX_RecyclerView_Widget_RecyclerView_Adapter_llvm
	mov	r4, r0
	ldr	r0, [sp, #4]
	ldr	r0, [r0]
	bl	p_152_plt__rgctx_fetch_11_llvm
	mov	r2, r0
	mov	r0, r4
	ldr	r1, [r2, #4]
	bl	p_42_plt_wrapper_castclass_object___castclass_with_cache_object_intptr_intptr_llvm
	add	sp, sp, #8
	pop	{r4, pc}
.Ltmp668:
.LBB71_2:
	ldr	r0, .LCPI71_0
.LPC71_0:
	add	r1, pc, r0
	mov	r0, #225
	bl	p_3_plt__jit_icall_llvm_throw_corlib_exception_abs_trampoline_llvm
	.p2align	2
.LCPI71_0:
	.long	.Ltmp668-(.LPC71_0+8)
.LCPI71_1:
	.long	mono_aot_Xamarin_Forms_Platform_Android_llvm_got-(.LPC71_1+8)
.Lfunc_end71:
	.size	Xamarin_Forms_Platform_Android_GroupableItemsViewAdapter_2_TItemsView_REF_TItemsViewSource_REF_CreateItemsSource, .Lfunc_end71-Xamarin_Forms_Platform_Android_GroupableItemsViewAdapter_2_TItemsView_REF_TItemsViewSource_REF_CreateItemsSource
.Lexception65:
	.fnend

	.hidden	Xamarin_Forms_Platform_Android_GroupableItemsViewAdapter_2_TItemsView_REF_TItemsViewSource_REF_GetItemViewType_int
	.globl	Xamarin_Forms_Platform_Android_GroupableItemsViewAdapter_2_TItemsView_REF_TItemsViewSource_REF_GetItemViewType_int
	.p2align	2
	.type	Xamarin_Forms_Platform_Android_GroupableItemsViewAdapter_2_TItemsView_REF_TItemsViewSource_REF_GetItemViewType_int,%function
	.code	32
Xamarin_Forms_Platform_Android_GroupableItemsViewAdapter_2_TItemsView_REF_TItemsViewSource_REF_GetItemViewType_int:
.Lfunc_begin72:
	.fnstart
	.save	{r4, r5, r6, r7, r8, lr}
	push	{r4, r5, r6, r7, r8, lr}
.Ltmp669:
.Ltmp670:
.Ltmp671:
.Ltmp672:
.Ltmp673:
.Ltmp674:
.Ltmp675:
	.pad	#16
	sub	sp, sp, #16
.Ltmp676:
	mov	r5, r0
	ldr	r0, .LCPI72_4
	ldr	r6, .LCPI72_5
	mov	r4, r1
.LPC72_4:
	add	r0, pc, r0
.LPC72_5:
	add	r6, pc, r6
	ldrb	r7, [r0, #809]
	ldr	r0, [r6, #28]
	str	r5, [sp, #8]
	str	r5, [sp, #12]
	ldr	r0, [r0]
	cmp	r0, #0
	blne	mono_aot_Xamarin_Forms_Platform_Android_icall_cold_wrapper_265
	cmp	r7, #0
	beq	.LBB72_9
.LBB72_1:
	ldr	r0, [sp, #12]
	cmp	r0, #0
	beq	.LBB72_10
	ldr	r0, [r0, #40]
	cmp	r0, #0
	beq	.LBB72_11
	ldr	r1, [r0]
	ldr	r2, [r1, #-8]
	ldr	r1, [r6, #628]
	str	r1, [sp, #4]
	mov	r1, r4
	ldr	r8, [sp, #4]
	blx	r2
	mov	r1, r0
	mov	r0, #45
	tst	r1, #255
	bne	.LBB72_7
	ldr	r0, [sp, #12]
	cmp	r0, #0
	beq	.LBB72_12
	ldr	r0, [r0, #40]
	cmp	r0, #0
	beq	.LBB72_13
	ldr	r1, [r0]
	ldr	r2, [r1, #-28]
	ldr	r1, [r6, #632]
	str	r1, [sp, #4]
	mov	r1, r4
	ldr	r8, [sp, #4]
	blx	r2
	mov	r1, r0
	mov	r0, #46
	tst	r1, #255
	beq	.LBB72_8
.LBB72_7:
	add	sp, sp, #16
	pop	{r4, r5, r6, r7, r8, pc}
.LBB72_8:
	ldr	r0, [sp, #12]
	mov	r1, r4
	bl	p_153_plt_Xamarin_Forms_Platform_Android_StructuredItemsViewAdapter_2_TItemsView_REF_TItemsViewSource_REF_GetItemViewType_int_llvm
	add	sp, sp, #16
	pop	{r4, r5, r6, r7, r8, pc}
.LBB72_9:
	movw	r0, #809
	mov	r1, r5
	bl	mono_aot_Xamarin_Forms_Platform_Android_init_method_gshared_this
	b	.LBB72_1
.Ltmp677:
.LBB72_10:
	ldr	r0, .LCPI72_3
.LPC72_3:
	add	r1, pc, r0
	mov	r0, #225
	bl	p_3_plt__jit_icall_llvm_throw_corlib_exception_abs_trampoline_llvm
.Ltmp678:
.LBB72_11:
	ldr	r0, .LCPI72_2
.LPC72_2:
	add	r1, pc, r0
	mov	r0, #225
	bl	p_3_plt__jit_icall_llvm_throw_corlib_exception_abs_trampoline_llvm
.Ltmp679:
.LBB72_12:
	ldr	r0, .LCPI72_1
.LPC72_1:
	add	r1, pc, r0
	mov	r0, #225
	bl	p_3_plt__jit_icall_llvm_throw_corlib_exception_abs_trampoline_llvm
.Ltmp680:
.LBB72_13:
	ldr	r0, .LCPI72_0
.LPC72_0:
	add	r1, pc, r0
	mov	r0, #225
	bl	p_3_plt__jit_icall_llvm_throw_corlib_exception_abs_trampoline_llvm
	.p2align	2
.LCPI72_0:
	.long	.Ltmp680-(.LPC72_0+8)
.LCPI72_1:
	.long	.Ltmp679-(.LPC72_1+8)
.LCPI72_2:
	.long	.Ltmp678-(.LPC72_2+8)
.LCPI72_3:
	.long	.Ltmp677-(.LPC72_3+8)
.LCPI72_4:
	.long	mono_inited-(.LPC72_4+8)
.LCPI72_5:
	.long	mono_aot_Xamarin_Forms_Platform_Android_llvm_got-(.LPC72_5+8)
.Lfunc_end72:
	.size	Xamarin_Forms_Platform_Android_GroupableItemsViewAdapter_2_TItemsView_REF_TItemsViewSource_REF_GetItemViewType_int, .Lfunc_end72-Xamarin_Forms_Platform_Android_GroupableItemsViewAdapter_2_TItemsView_REF_TItemsViewSource_REF_GetItemViewType_int
.Lexception66:
	.fnend

	.hidden	Xamarin_Forms_Platform_Android_GroupableItemsViewAdapter_2_TItemsView_REF_TItemsViewSource_REF_OnCreateViewHolder_Android_Views_ViewGroup_int
	.globl	Xamarin_Forms_Platform_Android_GroupableItemsViewAdapter_2_TItemsView_REF_TItemsViewSource_REF_OnCreateViewHolder_Android_Views_ViewGroup_int
	.p2align	2
	.type	Xamarin_Forms_Platform_Android_GroupableItemsViewAdapter_2_TItemsView_REF_TItemsViewSource_REF_OnCreateViewHolder_Android_Views_ViewGroup_int,%function
	.code	32
Xamarin_Forms_Platform_Android_GroupableItemsViewAdapter_2_TItemsView_REF_TItemsViewSource_REF_OnCreateViewHolder_Android_Views_ViewGroup_int:
.Lfunc_begin73:
	.fnstart
	.save	{r4, r5, r6, r7, r9, lr}
	push	{r4, r5, r6, r7, r9, lr}
.Ltmp681:
.Ltmp682:
.Ltmp683:
.Ltmp684:
.Ltmp685:
.Ltmp686:
.Ltmp687:
	.pad	#8
	sub	sp, sp, #8
.Ltmp688:
	mov	r6, r0
	ldr	r0, .LCPI73_5
	ldr	r9, .LCPI73_6
	mov	r4, r2
.LPC73_5:
	add	r0, pc, r0
	mov	r5, r1
.LPC73_6:
	add	r9, pc, r9
	ldrb	r7, [r0, #810]
	ldr	r0, [r9, #28]
	str	r6, [sp]
	str	r6, [sp, #4]
	ldr	r0, [r0]
	cmp	r0, #0
	blne	mono_aot_Xamarin_Forms_Platform_Android_icall_cold_wrapper_265
	cmp	r7, #0
	beq	.LBB73_13
	cmp	r5, #0
	beq	.LBB73_14
.LBB73_2:
	mov	r0, r5
	bl	p_139_plt_Android_Views_View_get_Context_llvm
	mov	r6, r0
	cmp	r4, #46
	beq	.LBB73_7
	cmp	r4, #45
	bne	.LBB73_11
	ldr	r0, [r9, #636]
	bl	p_13_plt__jit_icall_ves_icall_object_new_specific_llvm
	mov	r1, r6
	mov	r4, r0
	bl	p_155_plt_Xamarin_Forms_Platform_Android_ItemContentView__ctor_Android_Content_Context_llvm
	ldr	r0, [sp, #4]
	cmp	r0, #0
	beq	.LBB73_15
	ldr	r0, [r0, #32]
	cmp	r0, #0
	beq	.LBB73_16
	bl	p_158_plt_Xamarin_Forms_GroupableItemsView_get_GroupHeaderTemplate_llvm
	b	.LBB73_10
.LBB73_7:
	ldr	r0, [r9, #636]
	bl	p_13_plt__jit_icall_ves_icall_object_new_specific_llvm
	mov	r1, r6
	mov	r4, r0
	bl	p_155_plt_Xamarin_Forms_Platform_Android_ItemContentView__ctor_Android_Content_Context_llvm
	ldr	r0, [sp, #4]
	cmp	r0, #0
	beq	.LBB73_17
	ldr	r0, [r0, #32]
	cmp	r0, #0
	beq	.LBB73_18
	bl	p_156_plt_Xamarin_Forms_GroupableItemsView_get_GroupFooterTemplate_llvm
.LBB73_10:
	mov	r6, r0
	ldr	r0, [r9, #640]
	bl	p_13_plt__jit_icall_ves_icall_object_new_specific_llvm
	mov	r1, r4
	mov	r2, r6
	mov	r3, #0
	mov	r5, r0
	bl	p_157_plt_Xamarin_Forms_Platform_Android_TemplatedItemViewHolder__ctor_Xamarin_Forms_Platform_Android_ItemContentView_Xamarin_Forms_DataTemplate_bool_llvm
	b	.LBB73_12
.LBB73_11:
	ldr	r0, [sp, #4]
	mov	r1, r5
	mov	r2, r4
	bl	p_154_plt_Xamarin_Forms_Platform_Android_StructuredItemsViewAdapter_2_TItemsView_REF_TItemsViewSource_REF_OnCreateViewHolder_Android_Views_ViewGroup_int_llvm
	mov	r5, r0
.LBB73_12:
	mov	r0, r5
	add	sp, sp, #8
	pop	{r4, r5, r6, r7, r9, pc}
.LBB73_13:
	movw	r0, #810
	mov	r1, r6
	bl	mono_aot_Xamarin_Forms_Platform_Android_init_method_gshared_this
	cmp	r5, #0
	bne	.LBB73_2
.Ltmp689:
.LBB73_14:
	ldr	r0, .LCPI73_4
.LPC73_4:
	add	r1, pc, r0
	mov	r0, #225
	bl	p_3_plt__jit_icall_llvm_throw_corlib_exception_abs_trampoline_llvm
.Ltmp690:
.LBB73_15:
	ldr	r0, .LCPI73_3
.LPC73_3:
	add	r1, pc, r0
	mov	r0, #225
	bl	p_3_plt__jit_icall_llvm_throw_corlib_exception_abs_trampoline_llvm
.Ltmp691:
.LBB73_16:
	ldr	r0, .LCPI73_2
.LPC73_2:
	add	r1, pc, r0
	mov	r0, #225
	bl	p_3_plt__jit_icall_llvm_throw_corlib_exception_abs_trampoline_llvm
.Ltmp692:
.LBB73_17:
	ldr	r0, .LCPI73_1
.LPC73_1:
	add	r1, pc, r0
	mov	r0, #225
	bl	p_3_plt__jit_icall_llvm_throw_corlib_exception_abs_trampoline_llvm
.Ltmp693:
.LBB73_18:
	ldr	r0, .LCPI73_0
.LPC73_0:
	add	r1, pc, r0
	mov	r0, #225
	bl	p_3_plt__jit_icall_llvm_throw_corlib_exception_abs_trampoline_llvm
	.p2align	2
.LCPI73_0:
	.long	.Ltmp693-(.LPC73_0+8)
.LCPI73_1:
	.long	.Ltmp692-(.LPC73_1+8)
.LCPI73_2:
	.long	.Ltmp691-(.LPC73_2+8)
.LCPI73_3:
	.long	.Ltmp690-(.LPC73_3+8)
.LCPI73_4:
	.long	.Ltmp689-(.LPC73_4+8)
.LCPI73_5:
	.long	mono_inited-(.LPC73_5+8)
.LCPI73_6:
	.long	mono_aot_Xamarin_Forms_Platform_Android_llvm_got-(.LPC73_6+8)
.Lfunc_end73:
	.size	Xamarin_Forms_Platform_Android_GroupableItemsViewAdapter_2_TItemsView_REF_TItemsViewSource_REF_OnCreateViewHolder_Android_Views_ViewGroup_int, .Lfunc_end73-Xamarin_Forms_Platform_Android_GroupableItemsViewAdapter_2_TItemsView_REF_TItemsViewSource_REF_OnCreateViewHolder_Android_Views_ViewGroup_int
.Lexception67:
	.fnend

	.hidden	Xamarin_Forms_Platform_Android_GroupableItemsViewAdapter_2_TItemsView_REF_TItemsViewSource_REF_OnBindViewHolder_AndroidX_RecyclerView_Widget_RecyclerView_ViewHolder_int
	.globl	Xamarin_Forms_Platform_Android_GroupableItemsViewAdapter_2_TItemsView_REF_TItemsViewSource_REF_OnBindViewHolder_AndroidX_RecyclerView_Widget_RecyclerView_ViewHolder_int
	.p2align	2
	.type	Xamarin_Forms_Platform_Android_GroupableItemsViewAdapter_2_TItemsView_REF_TItemsViewSource_REF_OnBindViewHolder_AndroidX_RecyclerView_Widget_RecyclerView_ViewHolder_int,%function
	.code	32
Xamarin_Forms_Platform_Android_GroupableItemsViewAdapter_2_TItemsView_REF_TItemsViewSource_REF_OnBindViewHolder_AndroidX_RecyclerView_Widget_RecyclerView_ViewHolder_int:
.Lfunc_begin74:
	.fnstart
	.save	{r4, r5, r6, r7, r8, r9, r11, lr}
	push	{r4, r5, r6, r7, r8, r9, r11, lr}
.Ltmp694:
.Ltmp695:
.Ltmp696:
.Ltmp697:
.Ltmp698:
.Ltmp699:
.Ltmp700:
.Ltmp701:
.Ltmp702:
	.pad	#16
	sub	sp, sp, #16
.Ltmp703:
	mov	r6, r0
	ldr	r0, .LCPI74_7
	ldr	r9, .LCPI74_8
	mov	r4, r2
.LPC74_7:
	add	r0, pc, r0
	mov	r5, r1
.LPC74_8:
	add	r9, pc, r9
	ldrb	r7, [r0, #811]
	ldr	r0, [r9, #28]
	str	r6, [sp, #8]
	str	r6, [sp, #12]
	ldr	r0, [r0]
	cmp	r0, #0
	blne	mono_aot_Xamarin_Forms_Platform_Android_icall_cold_wrapper_265
	cmp	r7, #0
	beq	.LBB74_14
	cmp	r5, #0
	beq	.LBB74_13
.LBB74_2:
	ldr	r0, [r5]
	ldr	r1, [r9, #648]
	ldr	r0, [r0]
	ldr	r0, [r0, #8]
	ldr	r0, [r0, #16]
	cmp	r0, r1
	bne	.LBB74_13
	ldr	r0, [sp, #12]
	cmp	r0, #0
	beq	.LBB74_15
	ldr	r0, [r0, #40]
	cmp	r0, #0
	beq	.LBB74_16
	ldr	r1, [r0]
	ldr	r2, [r1, #-28]
	ldr	r1, [r9, #632]
	str	r1, [sp, #4]
	mov	r1, r4
	ldr	r8, [sp, #4]
	blx	r2
	tst	r0, #255
	bne	.LBB74_9
	ldr	r0, [sp, #12]
	cmp	r0, #0
	beq	.LBB74_20
	ldr	r0, [r0, #40]
	cmp	r0, #0
	beq	.LBB74_21
	ldr	r1, [r0]
	ldr	r2, [r1, #-8]
	ldr	r1, [r9, #628]
	str	r1, [sp, #4]
	mov	r1, r4
	ldr	r8, [sp, #4]
	blx	r2
	tst	r0, #255
	beq	.LBB74_13
.LBB74_9:
	ldr	r6, [sp, #12]
	ldr	r0, [sp, #12]
	cmp	r0, #0
	beq	.LBB74_17
	ldr	r0, [r0, #40]
	cmp	r0, #0
	beq	.LBB74_18
	ldr	r1, [r0]
	ldr	r2, [r1, #-52]
	ldr	r1, [r9, #644]
	str	r1, [sp, #4]
	mov	r1, r4
	ldr	r8, [sp, #4]
	blx	r2
	mov	r2, r0
	cmp	r6, #0
	beq	.LBB74_19
	ldr	r0, [r6]
	mov	r1, r5
	ldr	r3, [r0, #212]
	mov	r0, r6
	blx	r3
.LBB74_13:
	ldr	r0, [sp, #12]
	mov	r1, r5
	mov	r2, r4
	bl	p_159_plt_Xamarin_Forms_Platform_Android_SelectableItemsViewAdapter_2_TItemsView_REF_TItemsViewSource_REF_OnBindViewHolder_AndroidX_RecyclerView_Widget_RecyclerView_ViewHolder_int_llvm
	add	sp, sp, #16
	pop	{r4, r5, r6, r7, r8, r9, r11, pc}
.LBB74_14:
	movw	r0, #811
	mov	r1, r6
	bl	mono_aot_Xamarin_Forms_Platform_Android_init_method_gshared_this
	cmp	r5, #0
	bne	.LBB74_2
	b	.LBB74_13
.Ltmp704:
.LBB74_15:
	ldr	r0, .LCPI74_6
.LPC74_6:
	add	r1, pc, r0
	mov	r0, #225
	bl	p_3_plt__jit_icall_llvm_throw_corlib_exception_abs_trampoline_llvm
.Ltmp705:
.LBB74_16:
	ldr	r0, .LCPI74_5
.LPC74_5:
	add	r1, pc, r0
	mov	r0, #225
	bl	p_3_plt__jit_icall_llvm_throw_corlib_exception_abs_trampoline_llvm
.Ltmp706:
.LBB74_17:
	ldr	r0, .LCPI74_2
.LPC74_2:
	add	r1, pc, r0
	mov	r0, #225
	bl	p_3_plt__jit_icall_llvm_throw_corlib_exception_abs_trampoline_llvm
.Ltmp707:
.LBB74_18:
	ldr	r0, .LCPI74_1
.LPC74_1:
	add	r1, pc, r0
	mov	r0, #225
	bl	p_3_plt__jit_icall_llvm_throw_corlib_exception_abs_trampoline_llvm
.Ltmp708:
.LBB74_19:
	ldr	r0, .LCPI74_0
.LPC74_0:
	add	r1, pc, r0
	mov	r0, #225
	bl	p_3_plt__jit_icall_llvm_throw_corlib_exception_abs_trampoline_llvm
.Ltmp709:
.LBB74_20:
	ldr	r0, .LCPI74_4
.LPC74_4:
	add	r1, pc, r0
	mov	r0, #225
	bl	p_3_plt__jit_icall_llvm_throw_corlib_exception_abs_trampoline_llvm
.Ltmp710:
.LBB74_21:
	ldr	r0, .LCPI74_3
.LPC74_3:
	add	r1, pc, r0
	mov	r0, #225
	bl	p_3_plt__jit_icall_llvm_throw_corlib_exception_abs_trampoline_llvm
	.p2align	2
.LCPI74_0:
	.long	.Ltmp708-(.LPC74_0+8)
.LCPI74_1:
	.long	.Ltmp707-(.LPC74_1+8)
.LCPI74_2:
	.long	.Ltmp706-(.LPC74_2+8)
.LCPI74_3:
	.long	.Ltmp710-(.LPC74_3+8)
.LCPI74_4:
	.long	.Ltmp709-(.LPC74_4+8)
.LCPI74_5:
	.long	.Ltmp705-(.LPC74_5+8)
.LCPI74_6:
	.long	.Ltmp704-(.LPC74_6+8)
.LCPI74_7:
	.long	mono_inited-(.LPC74_7+8)
.LCPI74_8:
	.long	mono_aot_Xamarin_Forms_Platform_Android_llvm_got-(.LPC74_8+8)
.Lfunc_end74:
	.size	Xamarin_Forms_Platform_Android_GroupableItemsViewAdapter_2_TItemsView_REF_TItemsViewSource_REF_OnBindViewHolder_AndroidX_RecyclerView_Widget_RecyclerView_ViewHolder_int, .Lfunc_end74-Xamarin_Forms_Platform_Android_GroupableItemsViewAdapter_2_TItemsView_REF_TItemsViewSource_REF_OnBindViewHolder_AndroidX_RecyclerView_Widget_RecyclerView_ViewHolder_int
.Lexception68:
	.fnend

	.hidden	Xamarin_Forms_Platform_Android_GroupableItemsViewRenderer_3_TItemsView_REF_TAdapter_REF_TItemsViewSource_REF__ctor_Android_Content_Context
	.globl	Xamarin_Forms_Platform_Android_GroupableItemsViewRenderer_3_TItemsView_REF_TAdapter_REF_TItemsViewSource_REF__ctor_Android_Content_Context
	.p2align	2
	.type	Xamarin_Forms_Platform_Android_GroupableItemsViewRenderer_3_TItemsView_REF_TAdapter_REF_TItemsViewSource_REF__ctor_Android_Content_Context,%function
	.code	32
Xamarin_Forms_Platform_Android_GroupableItemsViewRenderer_3_TItemsView_REF_TAdapter_REF_TItemsViewSource_REF__ctor_Android_Content_Context:
.Lfunc_begin75:
	.fnstart
	.save	{r4, r5, r11, lr}
	push	{r4, r5, r11, lr}
.Ltmp711:
.Ltmp712:
.Ltmp713:
.Ltmp714:
.Ltmp715:
	.pad	#8
	sub	sp, sp, #8
.Ltmp716:
	mov	r4, r1
	ldr	r1, .LCPI75_0
.LPC75_0:
	add	r1, pc, r1
	ldr	r1, [r1, #28]
	str	r0, [sp]
	str	r0, [sp, #4]
	ldr	r5, [sp, #4]
	ldr	r0, [r1]
	cmp	r0, #0
	blne	mono_aot_Xamarin_Forms_Platform_Android_icall_cold_wrapper_265
	mov	r0, r5
	mov	r1, r4
	bl	p_160_plt_Xamarin_Forms_Platform_Android_SelectableItemsViewRenderer_3_TItemsView_REF_TAdapter_REF_TItemsViewSource_REF__ctor_Android_Content_Context_llvm
	add	sp, sp, #8
	pop	{r4, r5, r11, pc}
	.p2align	2
.LCPI75_0:
	.long	mono_aot_Xamarin_Forms_Platform_Android_llvm_got-(.LPC75_0+8)
.Lfunc_end75:
	.size	Xamarin_Forms_Platform_Android_GroupableItemsViewRenderer_3_TItemsView_REF_TAdapter_REF_TItemsViewSource_REF__ctor_Android_Content_Context, .Lfunc_end75-Xamarin_Forms_Platform_Android_GroupableItemsViewRenderer_3_TItemsView_REF_TAdapter_REF_TItemsViewSource_REF__ctor_Android_Content_Context
.Lexception69:
	.fnend

	.hidden	Xamarin_Forms_Platform_Android_GroupableItemsViewRenderer_3_TItemsView_REF_TAdapter_REF_TItemsViewSource_REF_OnElementPropertyChanged_object_System_ComponentModel_PropertyChangedEventArgs
	.globl	Xamarin_Forms_Platform_Android_GroupableItemsViewRenderer_3_TItemsView_REF_TAdapter_REF_TItemsViewSource_REF_OnElementPropertyChanged_object_System_ComponentModel_PropertyChangedEventArgs
	.p2align	2
	.type	Xamarin_Forms_Platform_Android_GroupableItemsViewRenderer_3_TItemsView_REF_TAdapter_REF_TItemsViewSource_REF_OnElementPropertyChanged_object_System_ComponentModel_PropertyChangedEventArgs,%function
	.code	32
Xamarin_Forms_Platform_Android_GroupableItemsViewRenderer_3_TItemsView_REF_TAdapter_REF_TItemsViewSource_REF_OnElementPropertyChanged_object_System_ComponentModel_PropertyChangedEventArgs:
.Lfunc_begin76:
	.fnstart
	.save	{r4, r5, r6, r7, r9, lr}
	push	{r4, r5, r6, r7, r9, lr}
.Ltmp717:
.Ltmp718:
.Ltmp719:
.Ltmp720:
.Ltmp721:
.Ltmp722:
.Ltmp723:
	.pad	#8
	sub	sp, sp, #8
.Ltmp724:
	mov	r6, r0
	ldr	r0, .LCPI76_5
	ldr	r7, .LCPI76_6
	mov	r4, r2
.LPC76_5:
	add	r0, pc, r0
	mov	r9, r1
.LPC76_6:
	add	r7, pc, r7
	ldrb	r5, [r0, #813]
	ldr	r0, [r7, #28]
	str	r6, [sp]
	str	r6, [sp, #4]
	ldr	r0, [r0]
	cmp	r0, #0
	blne	mono_aot_Xamarin_Forms_Platform_Android_icall_cold_wrapper_265
	cmp	r5, #0
	beq	.LBB76_11
.LBB76_1:
	ldr	r0, [sp, #4]
	mov	r1, r9
	mov	r2, r4
	bl	p_161_plt_Xamarin_Forms_Platform_Android_SelectableItemsViewRenderer_3_TItemsView_REF_TAdapter_REF_TItemsViewSource_REF_OnElementPropertyChanged_object_System_ComponentModel_PropertyChangedEventArgs_llvm
	cmp	r4, #0
	beq	.LBB76_12
	add	r2, r7, #652
	ldm	r2, {r0, r1, r2}
	ldr	r7, [r0]
	ldr	r0, [r4]
	ldr	r6, [r1]
	ldr	r5, [r2]
	ldr	r1, [r0, #56]
	mov	r0, r4
	blx	r1
	cmp	r7, #0
	beq	.LBB76_13
	ldr	r1, [r7, #16]
	bl	p_162_plt_string_op_Equality_string_string_llvm
	tst	r0, #255
	bne	.LBB76_8
	ldr	r0, [r4]
	ldr	r1, [r0, #56]
	mov	r0, r4
	blx	r1
	cmp	r6, #0
	beq	.LBB76_15
	ldr	r1, [r6, #16]
	bl	p_162_plt_string_op_Equality_string_string_llvm
	tst	r0, #255
	bne	.LBB76_8
	ldr	r0, [r4]
	ldr	r1, [r0, #56]
	mov	r0, r4
	blx	r1
	cmp	r5, #0
	beq	.LBB76_16
	ldr	r1, [r5, #16]
	bl	p_162_plt_string_op_Equality_string_string_llvm
	tst	r0, #255
	beq	.LBB76_10
.LBB76_8:
	ldr	r0, [sp, #4]
	cmp	r0, #0
	beq	.LBB76_14
	ldr	r1, [r0]
	ldr	r1, [r1, #1916]
	blx	r1
.LBB76_10:
	add	sp, sp, #8
	pop	{r4, r5, r6, r7, r9, pc}
.LBB76_11:
	movw	r0, #813
	mov	r1, r6
	bl	mono_aot_Xamarin_Forms_Platform_Android_init_method_gshared_this
	b	.LBB76_1
.Ltmp725:
.LBB76_12:
	ldr	r0, .LCPI76_4
.LPC76_4:
	add	r1, pc, r0
	mov	r0, #225
	bl	p_3_plt__jit_icall_llvm_throw_corlib_exception_abs_trampoline_llvm
.Ltmp726:
.LBB76_13:
	ldr	r0, .LCPI76_3
.LPC76_3:
	add	r1, pc, r0
	mov	r0, #225
	bl	p_3_plt__jit_icall_llvm_throw_corlib_exception_abs_trampoline_llvm
.Ltmp727:
.LBB76_14:
	ldr	r0, .LCPI76_0
.LPC76_0:
	add	r1, pc, r0
	mov	r0, #225
	bl	p_3_plt__jit_icall_llvm_throw_corlib_exception_abs_trampoline_llvm
.Ltmp728:
.LBB76_15:
	ldr	r0, .LCPI76_2
.LPC76_2:
	add	r1, pc, r0
	mov	r0, #225
	bl	p_3_plt__jit_icall_llvm_throw_corlib_exception_abs_trampoline_llvm
.Ltmp729:
.LBB76_16:
	ldr	r0, .LCPI76_1
.LPC76_1:
	add	r1, pc, r0
	mov	r0, #225
	bl	p_3_plt__jit_icall_llvm_throw_corlib_exception_abs_trampoline_llvm
	.p2align	2
.LCPI76_0:
	.long	.Ltmp727-(.LPC76_0+8)
.LCPI76_1:
	.long	.Ltmp729-(.LPC76_1+8)
.LCPI76_2:
	.long	.Ltmp728-(.LPC76_2+8)
.LCPI76_3:
	.long	.Ltmp726-(.LPC76_3+8)
.LCPI76_4:
	.long	.Ltmp725-(.LPC76_4+8)
.LCPI76_5:
	.long	mono_inited-(.LPC76_5+8)
.LCPI76_6:
	.long	mono_aot_Xamarin_Forms_Platform_Android_llvm_got-(.LPC76_6+8)
.Lfunc_end76:
	.size	Xamarin_Forms_Platform_Android_GroupableItemsViewRenderer_3_TItemsView_REF_TAdapter_REF_TItemsViewSource_REF_OnElementPropertyChanged_object_System_ComponentModel_PropertyChangedEventArgs, .Lfunc_end76-Xamarin_Forms_Platform_Android_GroupableItemsViewRenderer_3_TItemsView_REF_TAdapter_REF_TItemsViewSource_REF_OnElementPropertyChanged_object_System_ComponentModel_PropertyChangedEventArgs
.Lexception70:
	.fnend

	.hidden	Xamarin_Forms_Platform_Android_GroupableItemsViewRenderer_3_TItemsView_REF_TAdapter_REF_TItemsViewSource_REF_CreateAdapter
	.globl	Xamarin_Forms_Platform_Android_GroupableItemsViewRenderer_3_TItemsView_REF_TAdapter_REF_TItemsViewSource_REF_CreateAdapter
	.p2align	2
	.type	Xamarin_Forms_Platform_Android_GroupableItemsViewRenderer_3_TItemsView_REF_TAdapter_REF_TItemsViewSource_REF_CreateAdapter,%function
	.code	32
Xamarin_Forms_Platform_Android_GroupableItemsViewRenderer_3_TItemsView_REF_TAdapter_REF_TItemsViewSource_REF_CreateAdapter:
.Lfunc_begin77:
	.fnstart
	.save	{r4, r5, r11, lr}
	push	{r4, r5, r11, lr}
.Ltmp730:
.Ltmp731:
.Ltmp732:
.Ltmp733:
.Ltmp734:
	.pad	#8
	sub	sp, sp, #8
.Ltmp735:
	ldr	r1, .LCPI77_1
.LPC77_1:
	add	r1, pc, r1
	ldr	r1, [r1, #28]
	str	r0, [sp]
	str	r0, [sp, #4]
	ldr	r4, [sp, #4]
	ldr	r0, [r1]
	cmp	r0, #0
	blne	mono_aot_Xamarin_Forms_Platform_Android_icall_cold_wrapper_265
	cmp	r4, #0
	beq	.LBB77_2
	ldr	r4, [r4, #76]
	ldr	r0, [sp, #4]
	ldr	r0, [r0]
	bl	p_163_plt__rgctx_fetch_12_llvm
	bl	p_13_plt__jit_icall_ves_icall_object_new_specific_llvm
	mov	r1, r4
	mov	r2, #0
	mov	r5, r0
	bl	p_164_plt_Xamarin_Forms_Platform_Android_GroupableItemsViewAdapter_2_TItemsView_REF_TItemsViewSource_REF__ctor_TItemsView_REF_System_Func_3_Xamarin_Forms_View_Android_Content_Context_Xamarin_Forms_Platform_Android_ItemContentView_llvm
	ldr	r0, [sp, #4]
	ldr	r0, [r0]
	bl	p_165_plt__rgctx_fetch_13_llvm
	mov	r2, r0
	mov	r0, r5
	ldr	r1, [r2, #4]
	bl	p_42_plt_wrapper_castclass_object___castclass_with_cache_object_intptr_intptr_llvm
	add	sp, sp, #8
	pop	{r4, r5, r11, pc}
.Ltmp736:
.LBB77_2:
	ldr	r0, .LCPI77_0
.LPC77_0:
	add	r1, pc, r0
	mov	r0, #225
	bl	p_3_plt__jit_icall_llvm_throw_corlib_exception_abs_trampoline_llvm
	.p2align	2
.LCPI77_0:
	.long	.Ltmp736-(.LPC77_0+8)
.LCPI77_1:
	.long	mono_aot_Xamarin_Forms_Platform_Android_llvm_got-(.LPC77_1+8)
.Lfunc_end77:
	.size	Xamarin_Forms_Platform_Android_GroupableItemsViewRenderer_3_TItemsView_REF_TAdapter_REF_TItemsViewSource_REF_CreateAdapter, .Lfunc_end77-Xamarin_Forms_Platform_Android_GroupableItemsViewRenderer_3_TItemsView_REF_TAdapter_REF_TItemsViewSource_REF_CreateAdapter
.Lexception71:
	.fnend

	.hidden	Xamarin_Forms_Platform_Android_ItemsViewAdapter_2_TItemsView_REF_TItemsViewSource_REF__ctor_TItemsView_REF_System_Func_3_Xamarin_Forms_View_Android_Content_Context_Xamarin_Forms_Platform_Android_ItemContentView
	.globl	Xamarin_Forms_Platform_Android_ItemsViewAdapter_2_TItemsView_REF_TItemsViewSource_REF__ctor_TItemsView_REF_System_Func_3_Xamarin_Forms_View_Android_Content_Context_Xamarin_Forms_Platform_Android_ItemContentView
	.p2align	2
	.type	Xamarin_Forms_Platform_Android_ItemsViewAdapter_2_TItemsView_REF_TItemsViewSource_REF__ctor_TItemsView_REF_System_Func_3_Xamarin_Forms_View_Android_Content_Context_Xamarin_Forms_Platform_Android_ItemContentView,%function
	.code	32
Xamarin_Forms_Platform_Android_ItemsViewAdapter_2_TItemsView_REF_TItemsViewSource_REF__ctor_TItemsView_REF_System_Func_3_Xamarin_Forms_View_Android_Content_Context_Xamarin_Forms_Platform_Android_ItemContentView:
.Lfunc_begin78:
	.fnstart
	.save	{r4, r5, r6, r7, r9, r10, r11, lr}
	push	{r4, r5, r6, r7, r9, r10, r11, lr}
.Ltmp737:
.Ltmp738:
.Ltmp739:
.Ltmp740:
.Ltmp741:
.Ltmp742:
.Ltmp743:
.Ltmp744:
.Ltmp745:
	.pad	#8
	sub	sp, sp, #8
.Ltmp746:
	mov	r6, r0
	ldr	r0, .LCPI78_9
	ldr	r11, .LCPI78_10
	mov	r9, r2
.LPC78_9:
	add	r0, pc, r0
	mov	r5, r1
.LPC78_10:
	add	r11, pc, r11
	ldrb	r4, [r0, #882]
	ldr	r0, [r11, #28]
	str	r6, [sp]
	str	r6, [sp, #4]
	ldr	r0, [r0]
	cmp	r0, #0
	blne	mono_aot_Xamarin_Forms_Platform_Android_icall_cold_wrapper_265
	cmp	r4, #0
	beq	.LBB78_19
.LBB78_1:
	ldr	r0, [sp, #4]
	bl	p_166_plt_AndroidX_RecyclerView_Widget_RecyclerView_Adapter__ctor_llvm
	ldr	r0, [sp, #4]
	cmp	r5, #0
	beq	.LBB78_23
	cmp	r0, #0
	beq	.LBB78_24
	ldr	r10, [r11, #8]
	dmb	ish
	str	r5, [r0, #32]!
	mov	r1, #1
	strb	r1, [r10, r0, lsr #9]
	ldr	r0, [sp, #4]
	bl	p_167_plt_Xamarin_Forms_Platform_Android_ItemsViewAdapter_2_TItemsView_REF_TItemsViewSource_REF_UpdateUsingItemTemplate_llvm
	ldr	r0, [sp, #4]
	cmp	r0, #0
	beq	.LBB78_25
	ldr	r5, [r0, #32]
	ldr	r7, [sp, #4]
	ldr	r0, [sp, #4]
	ldr	r0, [r0]
	bl	p_168_plt__rgctx_fetch_14_llvm
	mov	r1, r0
	mov	r0, r7
	bl	p_169_plt__jit_icall_mono_ldvirtfn_gshared_llvm
	mov	r4, r0
	ldr	r0, [r11, #352]
	mov	r1, #64
	bl	p_11_plt_wrapper_alloc_object_AllocSmall_intptr_intptr_llvm
	mov	r1, r7
	mov	r2, r4
	mov	r6, r0
	bl	p_170_plt_System_ComponentModel_PropertyChangedEventHandler__ctor_object_intptr_llvm
	cmp	r5, #0
	beq	.LBB78_26
	mov	r0, r5
	mov	r1, r6
	bl	p_78_plt_Xamarin_Forms_BindableObject_add_PropertyChanged_System_ComponentModel_PropertyChangedEventHandler_llvm
	ldr	r0, [sp, #4]
	cmp	r0, #0
	beq	.LBB78_27
	dmb	ish
	str	r9, [r0, #36]!
	mov	r1, #1
	lsr	r0, r0, #9
	strb	r1, [r0, r10]
	ldr	r4, [sp, #4]
	ldr	r0, [sp, #4]
	cmp	r0, #0
	beq	.LBB78_28
	ldr	r1, [r0]
	ldr	r1, [r1, #224]
	blx	r1
	cmp	r4, #0
	beq	.LBB78_29
	dmb	ish
	str	r0, [r4, #40]!
	mov	r1, #1
	lsr	r0, r4, #9
	strb	r1, [r0, r10]
	ldr	r0, [sp, #4]
	cmp	r0, #0
	beq	.LBB78_30
	ldr	r0, [r0, #36]
	cmp	r0, #0
	beq	.LBB78_11
	add	sp, sp, #8
	pop	{r4, r5, r6, r7, r9, r10, r11, pc}
.LBB78_11:
	ldr	r5, [sp, #4]
	ldr	r0, [sp, #4]
	ldr	r0, [r0]
	bl	p_171_plt__rgctx_fetch_15_llvm
	ldrb	r1, [r0, #25]
	cmp	r1, #0
	beq	.LBB78_20
.LBB78_12:
	ldr	r0, [sp, #4]
	ldr	r0, [r0]
	bl	p_172_plt__rgctx_fetch_16_llvm
	ldr	r4, [r0, #4]
	cmp	r4, #0
	bne	.LBB78_17
	ldr	r0, [sp, #4]
	ldr	r0, [r0]
	bl	p_171_plt__rgctx_fetch_15_llvm
	ldrb	r1, [r0, #25]
	cmp	r1, #0
	beq	.LBB78_21
.LBB78_14:
	ldr	r0, [sp, #4]
	ldr	r0, [r0]
	bl	p_172_plt__rgctx_fetch_16_llvm
	ldr	r6, [r0]
	cmp	r6, #0
	beq	.LBB78_32
	ldr	r0, [r11, #664]
	mov	r1, #64
	bl	p_11_plt_wrapper_alloc_object_AllocSmall_intptr_intptr_llvm
	mov	r4, r0
	dmb	ish
	str	r6, [r0, #16]!
	mov	r1, #1
	lsr	r0, r0, #9
	strb	r1, [r0, r10]
	ldr	r0, [sp, #4]
	ldr	r0, [r0]
	bl	p_173_plt__rgctx_fetch_17_llvm
	str	r0, [r4, #32]
	ldr	r0, [sp, #4]
	ldr	r0, [r0]
	bl	p_174_plt__rgctx_fetch_18_llvm
	ldr	r1, [r0, #4]
	str	r1, [r4, #20]
	ldr	r1, [r0, #20]
	str	r1, [r4, #12]
	mov	r1, #0
	ldr	r0, [r0, #16]
	strb	r1, [r4, #56]
	str	r0, [r4, #8]
	ldr	r0, [sp, #4]
	ldr	r0, [r0]
	bl	p_171_plt__rgctx_fetch_15_llvm
	ldrb	r1, [r0, #25]
	cmp	r1, #0
	beq	.LBB78_22
.LBB78_16:
	ldr	r0, [sp, #4]
	ldr	r0, [r0]
	bl	p_172_plt__rgctx_fetch_16_llvm
	dmb	ish
	str	r4, [r0, #4]
.LBB78_17:
	cmp	r5, #0
	beq	.LBB78_31
	dmb	ish
	str	r4, [r5, #36]!
	mov	r1, #1
	lsr	r0, r5, #9
	strb	r1, [r0, r10]
	add	sp, sp, #8
	pop	{r4, r5, r6, r7, r9, r10, r11, pc}
.LBB78_19:
	movw	r0, #882
	mov	r1, r6
	bl	mono_aot_Xamarin_Forms_Platform_Android_init_method_gshared_this
	b	.LBB78_1
.LBB78_20:
	bl	p_24_plt__jit_icall_mono_generic_class_init_llvm
	b	.LBB78_12
.LBB78_21:
	bl	p_24_plt__jit_icall_mono_generic_class_init_llvm
	b	.LBB78_14
.LBB78_22:
	bl	p_24_plt__jit_icall_mono_generic_class_init_llvm
	b	.LBB78_16
.LBB78_23:
	ldr	r0, .LCPI78_11
	movw	r1, #6638
.LPC78_11:
	ldr	r0, [pc, r0]
	bl	p_51_plt__jit_icall_mono_helper_ldstr_llvm
	mov	r1, r0
	movw	r0, #124
	movt	r0, #512
	bl	p_52_plt__jit_icall_mono_create_corlib_exception_1_llvm
	bl	p_53_plt__jit_icall_mono_arch_throw_exception_llvm
.Ltmp747:
.LBB78_24:
	ldr	r0, .LCPI78_8
.LPC78_8:
	add	r1, pc, r0
	mov	r0, #225
	bl	p_3_plt__jit_icall_llvm_throw_corlib_exception_abs_trampoline_llvm
.Ltmp748:
.LBB78_25:
	ldr	r0, .LCPI78_7
.LPC78_7:
	add	r1, pc, r0
	mov	r0, #225
	bl	p_3_plt__jit_icall_llvm_throw_corlib_exception_abs_trampoline_llvm
.Ltmp749:
.LBB78_26:
	ldr	r0, .LCPI78_6
.LPC78_6:
	add	r1, pc, r0
	mov	r0, #225
	bl	p_3_plt__jit_icall_llvm_throw_corlib_exception_abs_trampoline_llvm
.Ltmp750:
.LBB78_27:
	ldr	r0, .LCPI78_5
.LPC78_5:
	add	r1, pc, r0
	mov	r0, #225
	bl	p_3_plt__jit_icall_llvm_throw_corlib_exception_abs_trampoline_llvm
.Ltmp751:
.LBB78_28:
	ldr	r0, .LCPI78_4
.LPC78_4:
	add	r1, pc, r0
	mov	r0, #225
	bl	p_3_plt__jit_icall_llvm_throw_corlib_exception_abs_trampoline_llvm
.Ltmp752:
.LBB78_29:
	ldr	r0, .LCPI78_3
.LPC78_3:
	add	r1, pc, r0
	mov	r0, #225
	bl	p_3_plt__jit_icall_llvm_throw_corlib_exception_abs_trampoline_llvm
.Ltmp753:
.LBB78_30:
	ldr	r0, .LCPI78_2
.LPC78_2:
	add	r1, pc, r0
	mov	r0, #225
	bl	p_3_plt__jit_icall_llvm_throw_corlib_exception_abs_trampoline_llvm
.Ltmp754:
.LBB78_31:
	ldr	r0, .LCPI78_0
.LPC78_0:
	add	r1, pc, r0
	mov	r0, #225
	bl	p_3_plt__jit_icall_llvm_throw_corlib_exception_abs_trampoline_llvm
.Ltmp755:
.LBB78_32:
	ldr	r0, .LCPI78_1
.LPC78_1:
	add	r1, pc, r0
	mov	r0, #123
	bl	p_3_plt__jit_icall_llvm_throw_corlib_exception_abs_trampoline_llvm
	.p2align	2
.LCPI78_0:
	.long	.Ltmp754-(.LPC78_0+8)
.LCPI78_1:
	.long	.Ltmp755-(.LPC78_1+8)
.LCPI78_2:
	.long	.Ltmp753-(.LPC78_2+8)
.LCPI78_3:
	.long	.Ltmp752-(.LPC78_3+8)
.LCPI78_4:
	.long	.Ltmp751-(.LPC78_4+8)
.LCPI78_5:
	.long	.Ltmp750-(.LPC78_5+8)
.LCPI78_6:
	.long	.Ltmp749-(.LPC78_6+8)
.LCPI78_7:
	.long	.Ltmp748-(.LPC78_7+8)
.LCPI78_8:
	.long	.Ltmp747-(.LPC78_8+8)
.LCPI78_9:
	.long	mono_inited-(.LPC78_9+8)
.LCPI78_10:
	.long	mono_aot_Xamarin_Forms_Platform_Android_llvm_got-(.LPC78_10+8)
.LCPI78_11:
	.long	mono_aot_Xamarin_Forms_Platform_Android_llvm_got-(.LPC78_11+8)
.Lfunc_end78:
	.size	Xamarin_Forms_Platform_Android_ItemsViewAdapter_2_TItemsView_REF_TItemsViewSource_REF__ctor_TItemsView_REF_System_Func_3_Xamarin_Forms_View_Android_Content_Context_Xamarin_Forms_Platform_Android_ItemContentView, .Lfunc_end78-Xamarin_Forms_Platform_Android_ItemsViewAdapter_2_TItemsView_REF_TItemsViewSource_REF__ctor_TItemsView_REF_System_Func_3_Xamarin_Forms_View_Android_Content_Context_Xamarin_Forms_Platform_Android_ItemContentView
.Lexception72:
	.fnend

	.hidden	Xamarin_Forms_Platform_Android_ItemsViewAdapter_2_TItemsView_REF_TItemsViewSource_REF_CreateItemsSource
	.globl	Xamarin_Forms_Platform_Android_ItemsViewAdapter_2_TItemsView_REF_TItemsViewSource_REF_CreateItemsSource
	.p2align	2
	.type	Xamarin_Forms_Platform_Android_ItemsViewAdapter_2_TItemsView_REF_TItemsViewSource_REF_CreateItemsSource,%function
	.code	32
Xamarin_Forms_Platform_Android_ItemsViewAdapter_2_TItemsView_REF_TItemsViewSource_REF_CreateItemsSource:
.Lfunc_begin79:
	.fnstart
	.save	{r4, lr}
	push	{r4, lr}
.Ltmp756:
.Ltmp757:
.Ltmp758:
	.pad	#8
	sub	sp, sp, #8
.Ltmp759:
	ldr	r1, .LCPI79_1
.LPC79_1:
	add	r1, pc, r1
	ldr	r1, [r1, #28]
	str	r0, [sp]
	str	r0, [sp, #4]
	ldr	r4, [sp, #4]
	ldr	r0, [r1]
	cmp	r0, #0
	blne	mono_aot_Xamarin_Forms_Platform_Android_icall_cold_wrapper_265
	cmp	r4, #0
	beq	.LBB79_2
	ldr	r0, [r4, #32]
	ldr	r1, [sp, #4]
	bl	p_175_plt_Xamarin_Forms_Platform_Android_ItemsSourceFactory_Create_Xamarin_Forms_ItemsView_AndroidX_RecyclerView_Widget_RecyclerView_Adapter_llvm
	mov	r4, r0
	ldr	r0, [sp, #4]
	ldr	r0, [r0]
	bl	p_176_plt__rgctx_fetch_19_llvm
	mov	r2, r0
	mov	r0, r4
	ldr	r1, [r2, #4]
	bl	p_42_plt_wrapper_castclass_object___castclass_with_cache_object_intptr_intptr_llvm
	add	sp, sp, #8
	pop	{r4, pc}
.Ltmp760:
.LBB79_2:
	ldr	r0, .LCPI79_0
.LPC79_0:
	add	r1, pc, r0
	mov	r0, #225
	bl	p_3_plt__jit_icall_llvm_throw_corlib_exception_abs_trampoline_llvm
	.p2align	2
.LCPI79_0:
	.long	.Ltmp760-(.LPC79_0+8)
.LCPI79_1:
	.long	mono_aot_Xamarin_Forms_Platform_Android_llvm_got-(.LPC79_1+8)
.Lfunc_end79:
	.size	Xamarin_Forms_Platform_Android_ItemsViewAdapter_2_TItemsView_REF_TItemsViewSource_REF_CreateItemsSource, .Lfunc_end79-Xamarin_Forms_Platform_Android_ItemsViewAdapter_2_TItemsView_REF_TItemsViewSource_REF_CreateItemsSource
.Lexception73:
	.fnend

	.hidden	Xamarin_Forms_Platform_Android_ItemsViewAdapter_2_TItemsView_REF_TItemsViewSource_REF_ItemsViewPropertyChanged_object_System_ComponentModel_PropertyChangedEventArgs
	.globl	Xamarin_Forms_Platform_Android_ItemsViewAdapter_2_TItemsView_REF_TItemsViewSource_REF_ItemsViewPropertyChanged_object_System_ComponentModel_PropertyChangedEventArgs
	.p2align	2
	.type	Xamarin_Forms_Platform_Android_ItemsViewAdapter_2_TItemsView_REF_TItemsViewSource_REF_ItemsViewPropertyChanged_object_System_ComponentModel_PropertyChangedEventArgs,%function
	.code	32
Xamarin_Forms_Platform_Android_ItemsViewAdapter_2_TItemsView_REF_TItemsViewSource_REF_ItemsViewPropertyChanged_object_System_ComponentModel_PropertyChangedEventArgs:
.Lfunc_begin80:
	.fnstart
	.save	{r4, r5, r6, r7, r11, lr}
	push	{r4, r5, r6, r7, r11, lr}
.Ltmp761:
.Ltmp762:
.Ltmp763:
.Ltmp764:
.Ltmp765:
.Ltmp766:
.Ltmp767:
	.pad	#8
	sub	sp, sp, #8
.Ltmp768:
	mov	r5, r0
	ldr	r0, .LCPI80_3
	ldr	r6, .LCPI80_4
	mov	r4, r2
.LPC80_3:
	add	r0, pc, r0
.LPC80_4:
	add	r6, pc, r6
	ldrb	r7, [r0, #884]
	ldr	r0, [r6, #28]
	str	r5, [sp]
	str	r5, [sp, #4]
	ldr	r0, [r0]
	cmp	r0, #0
	blne	mono_aot_Xamarin_Forms_Platform_Android_icall_cold_wrapper_265
	cmp	r7, #0
	beq	.LBB80_9
	cmp	r4, #0
	beq	.LBB80_10
.LBB80_2:
	ldr	r0, [r6, #668]
	ldr	r5, [r0]
	ldr	r0, [r4]
	ldr	r1, [r0, #56]
	mov	r0, r4
	blx	r1
	cmp	r5, #0
	beq	.LBB80_11
	ldr	r1, [r5, #16]
	bl	p_162_plt_string_op_Equality_string_string_llvm
	tst	r0, #255
	beq	.LBB80_5
	ldr	r0, [sp, #4]
	bl	p_177_plt_Xamarin_Forms_Platform_Android_ItemsViewAdapter_2_TItemsView_REF_TItemsViewSource_REF_UpdateItemsSource_llvm
	add	sp, sp, #8
	pop	{r4, r5, r6, r7, r11, pc}
.LBB80_5:
	ldr	r0, [r4]
	ldr	r1, [r6, #672]
	ldr	r2, [r0, #56]
	mov	r0, r4
	ldr	r5, [r1]
	blx	r2
	cmp	r5, #0
	beq	.LBB80_12
	ldr	r1, [r5, #16]
	bl	p_162_plt_string_op_Equality_string_string_llvm
	tst	r0, #255
	beq	.LBB80_8
	ldr	r0, [sp, #4]
	bl	p_167_plt_Xamarin_Forms_Platform_Android_ItemsViewAdapter_2_TItemsView_REF_TItemsViewSource_REF_UpdateUsingItemTemplate_llvm
.LBB80_8:
	add	sp, sp, #8
	pop	{r4, r5, r6, r7, r11, pc}
.LBB80_9:
	mov	r0, #884
	mov	r1, r5
	bl	mono_aot_Xamarin_Forms_Platform_Android_init_method_gshared_this
	cmp	r4, #0
	bne	.LBB80_2
.Ltmp769:
.LBB80_10:
	ldr	r0, .LCPI80_2
.LPC80_2:
	add	r1, pc, r0
	mov	r0, #225
	bl	p_3_plt__jit_icall_llvm_throw_corlib_exception_abs_trampoline_llvm
.Ltmp770:
.LBB80_11:
	ldr	r0, .LCPI80_1
.LPC80_1:
	add	r1, pc, r0
	mov	r0, #225
	bl	p_3_plt__jit_icall_llvm_throw_corlib_exception_abs_trampoline_llvm
.Ltmp771:
.LBB80_12:
	ldr	r0, .LCPI80_0
.LPC80_0:
	add	r1, pc, r0
	mov	r0, #225
	bl	p_3_plt__jit_icall_llvm_throw_corlib_exception_abs_trampoline_llvm
	.p2align	2
.LCPI80_0:
	.long	.Ltmp771-(.LPC80_0+8)
.LCPI80_1:
	.long	.Ltmp770-(.LPC80_1+8)
.LCPI80_2:
	.long	.Ltmp769-(.LPC80_2+8)
.LCPI80_3:
	.long	mono_inited-(.LPC80_3+8)
.LCPI80_4:
	.long	mono_aot_Xamarin_Forms_Platform_Android_llvm_got-(.LPC80_4+8)
.Lfunc_end80:
	.size	Xamarin_Forms_Platform_Android_ItemsViewAdapter_2_TItemsView_REF_TItemsViewSource_REF_ItemsViewPropertyChanged_object_System_ComponentModel_PropertyChangedEventArgs, .Lfunc_end80-Xamarin_Forms_Platform_Android_ItemsViewAdapter_2_TItemsView_REF_TItemsViewSource_REF_ItemsViewPropertyChanged_object_System_ComponentModel_PropertyChangedEventArgs
.Lexception74:
	.fnend

	.hidden	Xamarin_Forms_Platform_Android_ItemsViewAdapter_2_TItemsView_REF_TItemsViewSource_REF_OnViewRecycled_Java_Lang_Object
	.globl	Xamarin_Forms_Platform_Android_ItemsViewAdapter_2_TItemsView_REF_TItemsViewSource_REF_OnViewRecycled_Java_Lang_Object
	.p2align	2
	.type	Xamarin_Forms_Platform_Android_ItemsViewAdapter_2_TItemsView_REF_TItemsViewSource_REF_OnViewRecycled_Java_Lang_Object,%function
	.code	32
Xamarin_Forms_Platform_Android_ItemsViewAdapter_2_TItemsView_REF_TItemsViewSource_REF_OnViewRecycled_Java_Lang_Object:
.Lfunc_begin81:
	.fnstart
	.save	{r4, r5, r6, r7, r11, lr}
	push	{r4, r5, r6, r7, r11, lr}
.Ltmp772:
.Ltmp773:
.Ltmp774:
.Ltmp775:
.Ltmp776:
.Ltmp777:
.Ltmp778:
	.pad	#8
	sub	sp, sp, #8
.Ltmp779:
	mov	r5, r0
	ldr	r0, .LCPI81_1
	ldr	r6, .LCPI81_2
	mov	r4, r1
.LPC81_1:
	add	r0, pc, r0
.LPC81_2:
	add	r6, pc, r6
	ldrb	r7, [r0, #885]
	ldr	r0, [r6, #28]
	str	r5, [sp]
	str	r5, [sp, #4]
	ldr	r0, [r0]
	cmp	r0, #0
	blne	mono_aot_Xamarin_Forms_Platform_Android_icall_cold_wrapper_265
	cmp	r7, #0
	beq	.LBB81_6
	cmp	r4, #0
	beq	.LBB81_5
.LBB81_2:
	ldr	r0, [r4]
	ldr	r1, [r6, #648]
	ldr	r0, [r0]
	ldr	r0, [r0, #8]
	ldr	r0, [r0, #16]
	cmp	r0, r1
	bne	.LBB81_5
	ldr	r0, [sp, #4]
	cmp	r0, #0
	beq	.LBB81_7
	ldr	r1, [r0, #32]
	mov	r0, r4
	bl	p_179_plt_Xamarin_Forms_Platform_Android_TemplatedItemViewHolder_Recycle_Xamarin_Forms_ItemsView_llvm
.LBB81_5:
	ldr	r0, [sp, #4]
	mov	r1, r4
	bl	p_178_plt_AndroidX_RecyclerView_Widget_RecyclerView_Adapter_OnViewRecycled_Java_Lang_Object_llvm
	add	sp, sp, #8
	pop	{r4, r5, r6, r7, r11, pc}
.LBB81_6:
	movw	r0, #885
	mov	r1, r5
	bl	mono_aot_Xamarin_Forms_Platform_Android_init_method_gshared_this
	cmp	r4, #0
	bne	.LBB81_2
	b	.LBB81_5
.Ltmp780:
.LBB81_7:
	ldr	r0, .LCPI81_0
.LPC81_0:
	add	r1, pc, r0
	mov	r0, #225
	bl	p_3_plt__jit_icall_llvm_throw_corlib_exception_abs_trampoline_llvm
	.p2align	2
.LCPI81_0:
	.long	.Ltmp780-(.LPC81_0+8)
.LCPI81_1:
	.long	mono_inited-(.LPC81_1+8)
.LCPI81_2:
	.long	mono_aot_Xamarin_Forms_Platform_Android_llvm_got-(.LPC81_2+8)
.Lfunc_end81:
	.size	Xamarin_Forms_Platform_Android_ItemsViewAdapter_2_TItemsView_REF_TItemsViewSource_REF_OnViewRecycled_Java_Lang_Object, .Lfunc_end81-Xamarin_Forms_Platform_Android_ItemsViewAdapter_2_TItemsView_REF_TItemsViewSource_REF_OnViewRecycled_Java_Lang_Object
.Lexception75:
	.fnend

	.hidden	Xamarin_Forms_Platform_Android_ItemsViewAdapter_2_TItemsView_REF_TItemsViewSource_REF_OnBindViewHolder_AndroidX_RecyclerView_Widget_RecyclerView_ViewHolder_int
	.globl	Xamarin_Forms_Platform_Android_ItemsViewAdapter_2_TItemsView_REF_TItemsViewSource_REF_OnBindViewHolder_AndroidX_RecyclerView_Widget_RecyclerView_ViewHolder_int
	.p2align	2
	.type	Xamarin_Forms_Platform_Android_ItemsViewAdapter_2_TItemsView_REF_TItemsViewSource_REF_OnBindViewHolder_AndroidX_RecyclerView_Widget_RecyclerView_ViewHolder_int,%function
	.code	32
Xamarin_Forms_Platform_Android_ItemsViewAdapter_2_TItemsView_REF_TItemsViewSource_REF_OnBindViewHolder_AndroidX_RecyclerView_Widget_RecyclerView_ViewHolder_int:
.Lfunc_begin82:
	.fnstart
	.save	{r4, r5, r6, r7, r8, r9, r11, lr}
	push	{r4, r5, r6, r7, r8, r9, r11, lr}
.Ltmp781:
.Ltmp782:
.Ltmp783:
.Ltmp784:
.Ltmp785:
.Ltmp786:
.Ltmp787:
.Ltmp788:
.Ltmp789:
	.pad	#16
	sub	sp, sp, #16
.Ltmp790:
	mov	r6, r0
	ldr	r0, .LCPI82_7
	ldr	r7, .LCPI82_8
	mov	r9, r2
.LPC82_7:
	add	r0, pc, r0
	mov	r5, r1
.LPC82_8:
	add	r7, pc, r7
	ldrb	r4, [r0, #886]
	ldr	r0, [r7, #28]
	str	r6, [sp, #8]
	str	r6, [sp, #12]
	ldr	r0, [r0]
	cmp	r0, #0
	blne	mono_aot_Xamarin_Forms_Platform_Android_icall_cold_wrapper_265
	cmp	r4, #0
	beq	.LBB82_14
	cmp	r5, #0
	beq	.LBB82_13
.LBB82_2:
	ldr	r0, [r5]
	ldr	r1, [r7, #676]
	ldr	r0, [r0]
	ldr	r0, [r0, #8]
	ldr	r0, [r0, #16]
	cmp	r0, r1
	beq	.LBB82_8
	ldr	r1, [r7, #648]
	cmp	r0, r1
	bne	.LBB82_13
	ldr	r6, [sp, #12]
	ldr	r0, [sp, #12]
	cmp	r0, #0
	beq	.LBB82_19
	ldr	r0, [r0, #40]
	cmp	r0, #0
	beq	.LBB82_20
	ldr	r1, [r0]
	ldr	r2, [r1, #-52]
	ldr	r1, [r7, #644]
	str	r1, [sp, #4]
	mov	r1, r9
	ldr	r8, [sp, #4]
	blx	r2
	mov	r2, r0
	cmp	r6, #0
	beq	.LBB82_21
	ldr	r0, [r6]
	mov	r1, r5
	ldr	r3, [r0, #212]
	mov	r0, r6
	blx	r3
	add	sp, sp, #16
	pop	{r4, r5, r6, r7, r8, r9, r11, pc}
.LBB82_8:
	ldr	r5, [r5, #48]
	ldr	r0, [sp, #12]
	cmp	r0, #0
	beq	.LBB82_15
	ldr	r0, [r0, #40]
	cmp	r0, #0
	beq	.LBB82_16
	ldr	r1, [r0]
	ldr	r2, [r1, #-52]
	ldr	r1, [r7, #644]
	str	r1, [sp, #4]
	mov	r1, r9
	ldr	r8, [sp, #4]
	blx	r2
	cmp	r0, #0
	beq	.LBB82_17
	ldr	r1, [r0]
	ldr	r1, [r1, #40]
	blx	r1
	mov	r1, r0
	cmp	r5, #0
	beq	.LBB82_18
	mov	r0, r5
	bl	p_180_plt_Android_Widget_TextView_set_Text_string_llvm
.LBB82_13:
	add	sp, sp, #16
	pop	{r4, r5, r6, r7, r8, r9, r11, pc}
.LBB82_14:
	movw	r0, #886
	mov	r1, r6
	bl	mono_aot_Xamarin_Forms_Platform_Android_init_method_gshared_this
	cmp	r5, #0
	bne	.LBB82_2
	b	.LBB82_13
.Ltmp791:
.LBB82_15:
	ldr	r0, .LCPI82_6
.LPC82_6:
	add	r1, pc, r0
	mov	r0, #225
	bl	p_3_plt__jit_icall_llvm_throw_corlib_exception_abs_trampoline_llvm
.Ltmp792:
.LBB82_16:
	ldr	r0, .LCPI82_5
.LPC82_5:
	add	r1, pc, r0
	mov	r0, #225
	bl	p_3_plt__jit_icall_llvm_throw_corlib_exception_abs_trampoline_llvm
.Ltmp793:
.LBB82_17:
	ldr	r0, .LCPI82_4
.LPC82_4:
	add	r1, pc, r0
	mov	r0, #225
	bl	p_3_plt__jit_icall_llvm_throw_corlib_exception_abs_trampoline_llvm
.Ltmp794:
.LBB82_18:
	ldr	r0, .LCPI82_3
.LPC82_3:
	add	r1, pc, r0
	mov	r0, #225
	bl	p_3_plt__jit_icall_llvm_throw_corlib_exception_abs_trampoline_llvm
.Ltmp795:
.LBB82_19:
	ldr	r0, .LCPI82_2
.LPC82_2:
	add	r1, pc, r0
	mov	r0, #225
	bl	p_3_plt__jit_icall_llvm_throw_corlib_exception_abs_trampoline_llvm
.Ltmp796:
.LBB82_20:
	ldr	r0, .LCPI82_1
.LPC82_1:
	add	r1, pc, r0
	mov	r0, #225
	bl	p_3_plt__jit_icall_llvm_throw_corlib_exception_abs_trampoline_llvm
.Ltmp797:
.LBB82_21:
	ldr	r0, .LCPI82_0
.LPC82_0:
	add	r1, pc, r0
	mov	r0, #225
	bl	p_3_plt__jit_icall_llvm_throw_corlib_exception_abs_trampoline_llvm
	.p2align	2
.LCPI82_0:
	.long	.Ltmp797-(.LPC82_0+8)
.LCPI82_1:
	.long	.Ltmp796-(.LPC82_1+8)
.LCPI82_2:
	.long	.Ltmp795-(.LPC82_2+8)
.LCPI82_3:
	.long	.Ltmp794-(.LPC82_3+8)
.LCPI82_4:
	.long	.Ltmp793-(.LPC82_4+8)
.LCPI82_5:
	.long	.Ltmp792-(.LPC82_5+8)
.LCPI82_6:
	.long	.Ltmp791-(.LPC82_6+8)
.LCPI82_7:
	.long	mono_inited-(.LPC82_7+8)
.LCPI82_8:
	.long	mono_aot_Xamarin_Forms_Platform_Android_llvm_got-(.LPC82_8+8)
.Lfunc_end82:
	.size	Xamarin_Forms_Platform_Android_ItemsViewAdapter_2_TItemsView_REF_TItemsViewSource_REF_OnBindViewHolder_AndroidX_RecyclerView_Widget_RecyclerView_ViewHolder_int, .Lfunc_end82-Xamarin_Forms_Platform_Android_ItemsViewAdapter_2_TItemsView_REF_TItemsViewSource_REF_OnBindViewHolder_AndroidX_RecyclerView_Widget_RecyclerView_ViewHolder_int
.Lexception76:
	.fnend

	.hidden	Xamarin_Forms_Platform_Android_ItemsViewAdapter_2_TItemsView_REF_TItemsViewSource_REF_OnCreateViewHolder_Android_Views_ViewGroup_int
	.globl	Xamarin_Forms_Platform_Android_ItemsViewAdapter_2_TItemsView_REF_TItemsViewSource_REF_OnCreateViewHolder_Android_Views_ViewGroup_int
	.p2align	2
	.type	Xamarin_Forms_Platform_Android_ItemsViewAdapter_2_TItemsView_REF_TItemsViewSource_REF_OnCreateViewHolder_Android_Views_ViewGroup_int,%function
	.code	32
Xamarin_Forms_Platform_Android_ItemsViewAdapter_2_TItemsView_REF_TItemsViewSource_REF_OnCreateViewHolder_Android_Views_ViewGroup_int:
.Lfunc_begin83:
	.fnstart
	.save	{r4, r5, r6, r7, r9, lr}
	push	{r4, r5, r6, r7, r9, lr}
.Ltmp798:
.Ltmp799:
.Ltmp800:
.Ltmp801:
.Ltmp802:
.Ltmp803:
.Ltmp804:
	.pad	#8
	sub	sp, sp, #8
.Ltmp805:
	mov	r6, r0
	ldr	r0, .LCPI83_6
	ldr	r9, .LCPI83_7
	mov	r4, r2
.LPC83_6:
	add	r0, pc, r0
	mov	r5, r1
.LPC83_7:
	add	r9, pc, r9
	ldrb	r7, [r0, #887]
	ldr	r0, [r9, #28]
	str	r6, [sp]
	str	r6, [sp, #4]
	ldr	r0, [r0]
	cmp	r0, #0
	blne	mono_aot_Xamarin_Forms_Platform_Android_icall_cold_wrapper_265
	cmp	r7, #0
	beq	.LBB83_11
	cmp	r5, #0
	beq	.LBB83_12
.LBB83_2:
	mov	r0, r5
	bl	p_139_plt_Android_Views_View_get_Context_llvm
	mov	r5, r0
	cmp	r4, #41
	bne	.LBB83_4
	ldr	r0, [r9, #680]
	bl	p_13_plt__jit_icall_ves_icall_object_new_specific_llvm
	mov	r1, r5
	mov	r4, r0
	bl	p_182_plt_Android_Widget_TextView__ctor_Android_Content_Context_llvm
	ldr	r0, [r9, #684]
	bl	p_13_plt__jit_icall_ves_icall_object_new_specific_llvm
	mov	r1, r4
	mov	r2, #1
	mov	r5, r0
	bl	p_183_plt_Xamarin_Forms_Platform_Android_TextViewHolder__ctor_Android_Widget_TextView_bool_llvm
	b	.LBB83_10
.LBB83_4:
	ldr	r0, [sp, #4]
	cmp	r0, #0
	beq	.LBB83_13
	ldr	r0, [r0, #36]
	ldr	r1, [sp, #4]
	cmp	r1, #0
	beq	.LBB83_14
	cmp	r0, #0
	beq	.LBB83_15
	ldr	r3, [r0, #12]
	mov	r2, r5
	ldr	r1, [r1, #32]
	blx	r3
	mov	r4, r0
	ldr	r0, [sp, #4]
	cmp	r0, #0
	beq	.LBB83_16
	ldr	r0, [r0, #32]
	cmp	r0, #0
	beq	.LBB83_17
	bl	p_181_plt_Xamarin_Forms_ItemsView_get_ItemTemplate_llvm
	mov	r6, r0
	ldr	r0, [r9, #640]
	bl	p_13_plt__jit_icall_ves_icall_object_new_specific_llvm
	mov	r1, r4
	mov	r2, r6
	mov	r3, #1
	mov	r5, r0
	bl	p_157_plt_Xamarin_Forms_Platform_Android_TemplatedItemViewHolder__ctor_Xamarin_Forms_Platform_Android_ItemContentView_Xamarin_Forms_DataTemplate_bool_llvm
.LBB83_10:
	mov	r0, r5
	add	sp, sp, #8
	pop	{r4, r5, r6, r7, r9, pc}
.LBB83_11:
	movw	r0, #887
	mov	r1, r6
	bl	mono_aot_Xamarin_Forms_Platform_Android_init_method_gshared_this
	cmp	r5, #0
	bne	.LBB83_2
.Ltmp806:
.LBB83_12:
	ldr	r0, .LCPI83_5
.LPC83_5:
	add	r1, pc, r0
	mov	r0, #225
	bl	p_3_plt__jit_icall_llvm_throw_corlib_exception_abs_trampoline_llvm
.Ltmp807:
.LBB83_13:
	ldr	r0, .LCPI83_4
.LPC83_4:
	add	r1, pc, r0
	mov	r0, #225
	bl	p_3_plt__jit_icall_llvm_throw_corlib_exception_abs_trampoline_llvm
.Ltmp808:
.LBB83_14:
	ldr	r0, .LCPI83_3
.LPC83_3:
	add	r1, pc, r0
	mov	r0, #225
	bl	p_3_plt__jit_icall_llvm_throw_corlib_exception_abs_trampoline_llvm
.Ltmp809:
.LBB83_15:
	ldr	r0, .LCPI83_2
.LPC83_2:
	add	r1, pc, r0
	mov	r0, #225
	bl	p_3_plt__jit_icall_llvm_throw_corlib_exception_abs_trampoline_llvm
.Ltmp810:
.LBB83_16:
	ldr	r0, .LCPI83_1
.LPC83_1:
	add	r1, pc, r0
	mov	r0, #225
	bl	p_3_plt__jit_icall_llvm_throw_corlib_exception_abs_trampoline_llvm
.Ltmp811:
.LBB83_17:
	ldr	r0, .LCPI83_0
.LPC83_0:
	add	r1, pc, r0
	mov	r0, #225
	bl	p_3_plt__jit_icall_llvm_throw_corlib_exception_abs_trampoline_llvm
	.p2align	2
.LCPI83_0:
	.long	.Ltmp811-(.LPC83_0+8)
.LCPI83_1:
	.long	.Ltmp810-(.LPC83_1+8)
.LCPI83_2:
	.long	.Ltmp809-(.LPC83_2+8)
.LCPI83_3:
	.long	.Ltmp808-(.LPC83_3+8)
.LCPI83_4:
	.long	.Ltmp807-(.LPC83_4+8)
.LCPI83_5:
	.long	.Ltmp806-(.LPC83_5+8)
.LCPI83_6:
	.long	mono_inited-(.LPC83_6+8)
.LCPI83_7:
	.long	mono_aot_Xamarin_Forms_Platform_Android_llvm_got-(.LPC83_7+8)
.Lfunc_end83:
	.size	Xamarin_Forms_Platform_Android_ItemsViewAdapter_2_TItemsView_REF_TItemsViewSource_REF_OnCreateViewHolder_Android_Views_ViewGroup_int, .Lfunc_end83-Xamarin_Forms_Platform_Android_ItemsViewAdapter_2_TItemsView_REF_TItemsViewSource_REF_OnCreateViewHolder_Android_Views_ViewGroup_int
.Lexception77:
	.fnend

	.hidden	Xamarin_Forms_Platform_Android_ItemsViewAdapter_2_TItemsView_REF_TItemsViewSource_REF_get_ItemCount
	.globl	Xamarin_Forms_Platform_Android_ItemsViewAdapter_2_TItemsView_REF_TItemsViewSource_REF_get_ItemCount
	.p2align	2
	.type	Xamarin_Forms_Platform_Android_ItemsViewAdapter_2_TItemsView_REF_TItemsViewSource_REF_get_ItemCount,%function
	.code	32
Xamarin_Forms_Platform_Android_ItemsViewAdapter_2_TItemsView_REF_TItemsViewSource_REF_get_ItemCount:
.Lfunc_begin84:
	.fnstart
	.save	{r4, r5, r6, r8, r11, lr}
	push	{r4, r5, r6, r8, r11, lr}
.Ltmp812:
.Ltmp813:
.Ltmp814:
.Ltmp815:
.Ltmp816:
.Ltmp817:
.Ltmp818:
	.pad	#16
	sub	sp, sp, #16
.Ltmp819:
	mov	r4, r0
	ldr	r0, .LCPI84_2
	ldr	r5, .LCPI84_3
.LPC84_2:
	add	r0, pc, r0
.LPC84_3:
	add	r5, pc, r5
	ldrb	r6, [r0, #888]
	ldr	r0, [r5, #28]
	str	r4, [sp, #8]
	str	r4, [sp, #12]
	ldr	r0, [r0]
	cmp	r0, #0
	blne	mono_aot_Xamarin_Forms_Platform_Android_icall_cold_wrapper_265
	cmp	r6, #0
	beq	.LBB84_4
.LBB84_1:
	ldr	r0, [sp, #12]
	cmp	r0, #0
	beq	.LBB84_5
	ldr	r0, [r0, #40]
	cmp	r0, #0
	beq	.LBB84_6
	ldr	r1, [r0]
	ldr	r2, [r5, #688]
	ldr	r1, [r1, #-36]
	str	r2, [sp, #4]
	ldr	r8, [sp, #4]
	blx	r1
	add	sp, sp, #16
	pop	{r4, r5, r6, r8, r11, pc}
.LBB84_4:
	mov	r0, #888
	mov	r1, r4
	bl	mono_aot_Xamarin_Forms_Platform_Android_init_method_gshared_this
	b	.LBB84_1
.Ltmp820:
.LBB84_5:
	ldr	r0, .LCPI84_1
.LPC84_1:
	add	r1, pc, r0
	mov	r0, #225
	bl	p_3_plt__jit_icall_llvm_throw_corlib_exception_abs_trampoline_llvm
.Ltmp821:
.LBB84_6:
	ldr	r0, .LCPI84_0
.LPC84_0:
	add	r1, pc, r0
	mov	r0, #225
	bl	p_3_plt__jit_icall_llvm_throw_corlib_exception_abs_trampoline_llvm
	.p2align	2
.LCPI84_0:
	.long	.Ltmp821-(.LPC84_0+8)
.LCPI84_1:
	.long	.Ltmp820-(.LPC84_1+8)
.LCPI84_2:
	.long	mono_inited-(.LPC84_2+8)
.LCPI84_3:
	.long	mono_aot_Xamarin_Forms_Platform_Android_llvm_got-(.LPC84_3+8)
.Lfunc_end84:
	.size	Xamarin_Forms_Platform_Android_ItemsViewAdapter_2_TItemsView_REF_TItemsViewSource_REF_get_ItemCount, .Lfunc_end84-Xamarin_Forms_Platform_Android_ItemsViewAdapter_2_TItemsView_REF_TItemsViewSource_REF_get_ItemCount
.Lexception78:
	.fnend

	.hidden	Xamarin_Forms_Platform_Android_ItemsViewAdapter_2_TItemsView_REF_TItemsViewSource_REF_GetItemViewType_int
	.globl	Xamarin_Forms_Platform_Android_ItemsViewAdapter_2_TItemsView_REF_TItemsViewSource_REF_GetItemViewType_int
	.p2align	2
	.type	Xamarin_Forms_Platform_Android_ItemsViewAdapter_2_TItemsView_REF_TItemsViewSource_REF_GetItemViewType_int,%function
	.code	32
Xamarin_Forms_Platform_Android_ItemsViewAdapter_2_TItemsView_REF_TItemsViewSource_REF_GetItemViewType_int:
.Lfunc_begin85:
	.fnstart
	.save	{r11, lr}
	push	{r11, lr}
.Ltmp822:
.Ltmp823:
.Ltmp824:
	.pad	#8
	sub	sp, sp, #8
.Ltmp825:
	str	r0, [sp]
	str	r0, [sp, #4]
	ldr	r0, [sp, #4]
	cmp	r0, #0
	beq	.LBB85_2
	ldrb	r1, [r0, #45]
	mov	r0, #42
	cmp	r1, #0
	movweq	r0, #41
	add	sp, sp, #8
	pop	{r11, pc}
.Ltmp826:
.LBB85_2:
	ldr	r0, .LCPI85_0
.LPC85_0:
	add	r1, pc, r0
	mov	r0, #225
	bl	p_3_plt__jit_icall_llvm_throw_corlib_exception_abs_trampoline_llvm
	.p2align	2
.LCPI85_0:
	.long	.Ltmp826-(.LPC85_0+8)
.Lfunc_end85:
	.size	Xamarin_Forms_Platform_Android_ItemsViewAdapter_2_TItemsView_REF_TItemsViewSource_REF_GetItemViewType_int, .Lfunc_end85-Xamarin_Forms_Platform_Android_ItemsViewAdapter_2_TItemsView_REF_TItemsViewSource_REF_GetItemViewType_int
.Lexception79:
	.fnend

	.hidden	Xamarin_Forms_Platform_Android_ItemsViewAdapter_2_TItemsView_REF_TItemsViewSource_REF_Dispose_bool
	.globl	Xamarin_Forms_Platform_Android_ItemsViewAdapter_2_TItemsView_REF_TItemsViewSource_REF_Dispose_bool
	.p2align	2
	.type	Xamarin_Forms_Platform_Android_ItemsViewAdapter_2_TItemsView_REF_TItemsViewSource_REF_Dispose_bool,%function
	.code	32
Xamarin_Forms_Platform_Android_ItemsViewAdapter_2_TItemsView_REF_TItemsViewSource_REF_Dispose_bool:
.Lfunc_begin86:
	.fnstart
	.save	{r4, r5, r6, r7, r8, r9, r11, lr}
	push	{r4, r5, r6, r7, r8, r9, r11, lr}
.Ltmp827:
.Ltmp828:
.Ltmp829:
.Ltmp830:
.Ltmp831:
.Ltmp832:
.Ltmp833:
.Ltmp834:
.Ltmp835:
	.pad	#16
	sub	sp, sp, #16
.Ltmp836:
	mov	r5, r0
	ldr	r0, .LCPI86_6
	ldr	r9, .LCPI86_7
	mov	r4, r1
.LPC86_6:
	add	r0, pc, r0
.LPC86_7:
	add	r9, pc, r9
	ldrb	r6, [r0, #890]
	ldr	r0, [r9, #28]
	str	r5, [sp, #4]
	str	r5, [sp, #8]
	ldr	r0, [r0]
	cmp	r0, #0
	blne	mono_aot_Xamarin_Forms_Platform_Android_icall_cold_wrapper_265
	cmp	r6, #0
	beq	.LBB86_16
.LBB86_1:
	ldr	r0, [sp, #8]
	mov	r1, #0
	str	r1, [sp, #12]
	cmp	r0, #0
	beq	.LBB86_17
	ldrb	r0, [r0, #44]
	cmp	r0, #0
	beq	.LBB86_4
	add	sp, sp, #16
	pop	{r4, r5, r6, r7, r8, r9, r11, pc}
.LBB86_4:
	cmp	r4, #0
	beq	.LBB86_14
	ldr	r0, [sp, #8]
	cmp	r0, #0
	beq	.LBB86_19
	mov	r1, #0
	add	r0, r0, #40
	str	r1, [sp, #12]
	ldr	r1, [sp, #12]
	cmp	r1, #0
	bne	.LBB86_9
	ldr	r0, [r0]
	str	r0, [sp, #12]
	ldr	r0, [sp, #12]
	cmp	r0, #0
	beq	.LBB86_11
	add	r0, sp, #12
.LBB86_9:
	ldr	r0, [r0]
	cmp	r0, #0
	beq	.LBB86_22
	ldr	r1, [r0]
	ldr	r2, [r9, #156]
	ldr	r1, [r1, #-20]
	str	r2, [sp]
	ldr	r8, [sp]
	blx	r1
.LBB86_11:
	ldr	r0, [sp, #8]
	cmp	r0, #0
	beq	.LBB86_20
	ldr	r4, [r0, #32]
	ldr	r6, [sp, #8]
	ldr	r0, [sp, #8]
	ldr	r0, [r0]
	bl	p_168_plt__rgctx_fetch_14_llvm
	mov	r1, r0
	mov	r0, r6
	bl	p_169_plt__jit_icall_mono_ldvirtfn_gshared_llvm
	mov	r7, r0
	ldr	r0, [r9, #352]
	mov	r1, #64
	bl	p_11_plt_wrapper_alloc_object_AllocSmall_intptr_intptr_llvm
	mov	r1, r6
	mov	r2, r7
	mov	r5, r0
	bl	p_170_plt_System_ComponentModel_PropertyChangedEventHandler__ctor_object_intptr_llvm
	cmp	r4, #0
	beq	.LBB86_21
	mov	r0, r4
	mov	r1, r5
	bl	p_84_plt_Xamarin_Forms_BindableObject_remove_PropertyChanged_System_ComponentModel_PropertyChangedEventHandler_llvm
.LBB86_14:
	ldr	r0, [sp, #8]
	cmp	r0, #0
	beq	.LBB86_18
	mov	r1, #1
	strb	r1, [r0, #44]
	add	sp, sp, #16
	pop	{r4, r5, r6, r7, r8, r9, r11, pc}
.LBB86_16:
	movw	r0, #890
	mov	r1, r5
	bl	mono_aot_Xamarin_Forms_Platform_Android_init_method_gshared_this
	b	.LBB86_1
.Ltmp837:
.LBB86_17:
	ldr	r0, .LCPI86_5
.LPC86_5:
	add	r1, pc, r0
	mov	r0, #225
	bl	p_3_plt__jit_icall_llvm_throw_corlib_exception_abs_trampoline_llvm
.Ltmp838:
.LBB86_18:
	ldr	r0, .LCPI86_4
.LPC86_4:
	add	r1, pc, r0
	mov	r0, #225
	bl	p_3_plt__jit_icall_llvm_throw_corlib_exception_abs_trampoline_llvm
.Ltmp839:
.LBB86_19:
	ldr	r0, .LCPI86_3
.LPC86_3:
	add	r1, pc, r0
	mov	r0, #225
	bl	p_3_plt__jit_icall_llvm_throw_corlib_exception_abs_trampoline_llvm
.Ltmp840:
.LBB86_20:
	ldr	r0, .LCPI86_2
.LPC86_2:
	add	r1, pc, r0
	mov	r0, #225
	bl	p_3_plt__jit_icall_llvm_throw_corlib_exception_abs_trampoline_llvm
.Ltmp841:
.LBB86_21:
	ldr	r0, .LCPI86_1
.LPC86_1:
	add	r1, pc, r0
	mov	r0, #225
	bl	p_3_plt__jit_icall_llvm_throw_corlib_exception_abs_trampoline_llvm
.Ltmp842:
.LBB86_22:
	ldr	r0, .LCPI86_0
.LPC86_0:
	add	r1, pc, r0
	mov	r0, #225
	bl	p_3_plt__jit_icall_llvm_throw_corlib_exception_abs_trampoline_llvm
	.p2align	2
.LCPI86_0:
	.long	.Ltmp842-(.LPC86_0+8)
.LCPI86_1:
	.long	.Ltmp841-(.LPC86_1+8)
.LCPI86_2:
	.long	.Ltmp840-(.LPC86_2+8)
.LCPI86_3:
	.long	.Ltmp839-(.LPC86_3+8)
.LCPI86_4:
	.long	.Ltmp838-(.LPC86_4+8)
.LCPI86_5:
	.long	.Ltmp837-(.LPC86_5+8)
.LCPI86_6:
	.long	mono_inited-(.LPC86_6+8)
.LCPI86_7:
	.long	mono_aot_Xamarin_Forms_Platform_Android_llvm_got-(.LPC86_7+8)
.Lfunc_end86:
	.size	Xamarin_Forms_Platform_Android_ItemsViewAdapter_2_TItemsView_REF_TItemsViewSource_REF_Dispose_bool, .Lfunc_end86-Xamarin_Forms_Platform_Android_ItemsViewAdapter_2_TItemsView_REF_TItemsViewSource_REF_Dispose_bool
.Lexception80:
	.fnend

	.hidden	Xamarin_Forms_Platform_Android_ItemsViewAdapter_2_TItemsView_REF_TItemsViewSource_REF_GetPositionForItem_object
	.globl	Xamarin_Forms_Platform_Android_ItemsViewAdapter_2_TItemsView_REF_TItemsViewSource_REF_GetPositionForItem_object
	.p2align	2
	.type	Xamarin_Forms_Platform_Android_ItemsViewAdapter_2_TItemsView_REF_TItemsViewSource_REF_GetPositionForItem_object,%function
	.code	32
Xamarin_Forms_Platform_Android_ItemsViewAdapter_2_TItemsView_REF_TItemsViewSource_REF_GetPositionForItem_object:
.Lfunc_begin87:
	.fnstart
	.save	{r4, r5, r6, r7, r8, lr}
	push	{r4, r5, r6, r7, r8, lr}
.Ltmp843:
.Ltmp844:
.Ltmp845:
.Ltmp846:
.Ltmp847:
.Ltmp848:
.Ltmp849:
	.pad	#16
	sub	sp, sp, #16
.Ltmp850:
	mov	r5, r0
	ldr	r0, .LCPI87_2
	ldr	r6, .LCPI87_3
	mov	r4, r1
.LPC87_2:
	add	r0, pc, r0
.LPC87_3:
	add	r6, pc, r6
	ldrb	r7, [r0, #891]
	ldr	r0, [r6, #28]
	str	r5, [sp, #8]
	str	r5, [sp, #12]
	ldr	r0, [r0]
	cmp	r0, #0
	blne	mono_aot_Xamarin_Forms_Platform_Android_icall_cold_wrapper_265
	cmp	r7, #0
	beq	.LBB87_4
.LBB87_1:
	ldr	r0, [sp, #12]
	cmp	r0, #0
	beq	.LBB87_5
	ldr	r0, [r0, #40]
	cmp	r0, #0
	beq	.LBB87_6
	ldr	r1, [r0]
	ldr	r2, [r1, #-60]
	ldr	r1, [r6, #692]
	str	r1, [sp, #4]
	mov	r1, r4
	ldr	r8, [sp, #4]
	blx	r2
	add	sp, sp, #16
	pop	{r4, r5, r6, r7, r8, pc}
.LBB87_4:
	movw	r0, #891
	mov	r1, r5
	bl	mono_aot_Xamarin_Forms_Platform_Android_init_method_gshared_this
	b	.LBB87_1
.Ltmp851:
.LBB87_5:
	ldr	r0, .LCPI87_1
.LPC87_1:
	add	r1, pc, r0
	mov	r0, #225
	bl	p_3_plt__jit_icall_llvm_throw_corlib_exception_abs_trampoline_llvm
.Ltmp852:
.LBB87_6:
	ldr	r0, .LCPI87_0
.LPC87_0:
	add	r1, pc, r0
	mov	r0, #225
	bl	p_3_plt__jit_icall_llvm_throw_corlib_exception_abs_trampoline_llvm
	.p2align	2
.LCPI87_0:
	.long	.Ltmp852-(.LPC87_0+8)
.LCPI87_1:
	.long	.Ltmp851-(.LPC87_1+8)
.LCPI87_2:
	.long	mono_inited-(.LPC87_2+8)
.LCPI87_3:
	.long	mono_aot_Xamarin_Forms_Platform_Android_llvm_got-(.LPC87_3+8)
.Lfunc_end87:
	.size	Xamarin_Forms_Platform_Android_ItemsViewAdapter_2_TItemsView_REF_TItemsViewSource_REF_GetPositionForItem_object, .Lfunc_end87-Xamarin_Forms_Platform_Android_ItemsViewAdapter_2_TItemsView_REF_TItemsViewSource_REF_GetPositionForItem_object
.Lexception81:
	.fnend

	.hidden	Xamarin_Forms_Platform_Android_ItemsViewAdapter_2_TItemsView_REF_TItemsViewSource_REF_BindTemplatedItemViewHolder_Xamarin_Forms_Platform_Android_TemplatedItemViewHolder_object
	.globl	Xamarin_Forms_Platform_Android_ItemsViewAdapter_2_TItemsView_REF_TItemsViewSource_REF_BindTemplatedItemViewHolder_Xamarin_Forms_Platform_Android_TemplatedItemViewHolder_object
	.p2align	2
	.type	Xamarin_Forms_Platform_Android_ItemsViewAdapter_2_TItemsView_REF_TItemsViewSource_REF_BindTemplatedItemViewHolder_Xamarin_Forms_Platform_Android_TemplatedItemViewHolder_object,%function
	.code	32
Xamarin_Forms_Platform_Android_ItemsViewAdapter_2_TItemsView_REF_TItemsViewSource_REF_BindTemplatedItemViewHolder_Xamarin_Forms_Platform_Android_TemplatedItemViewHolder_object:
.Lfunc_begin88:
	.fnstart
	.save	{r4, r5, r6, lr}
	push	{r4, r5, r6, lr}
.Ltmp853:
.Ltmp854:
.Ltmp855:
.Ltmp856:
.Ltmp857:
	.pad	#32
	sub	sp, sp, #32
.Ltmp858:
	mov	r5, r1
	ldr	r1, .LCPI88_2
	mov	r4, r2
.LPC88_2:
	add	r1, pc, r1
	ldr	r1, [r1, #28]
	str	r0, [sp, #24]
	str	r0, [sp, #28]
	ldr	r6, [sp, #28]
	ldr	r0, [r1]
	cmp	r0, #0
	blne	mono_aot_Xamarin_Forms_Platform_Android_icall_cold_wrapper_265
	cmp	r6, #0
	beq	.LBB88_3
	cmp	r5, #0
	beq	.LBB88_4
	ldr	r2, [r6, #32]
	mov	r0, #0
	str	r0, [sp]
	mov	r1, r4
	str	r0, [sp, #4]
	mov	r3, #0
	str	r0, [sp, #8]
	str	r0, [sp, #12]
	str	r0, [sp, #16]
	str	r0, [sp, #20]
	mov	r0, r5
	bl	p_184_plt_Xamarin_Forms_Platform_Android_TemplatedItemViewHolder_Bind_object_Xamarin_Forms_ItemsView_System_Action_1_Xamarin_Forms_Size_System_Nullable_1_Xamarin_Forms_Size_llvm
	add	sp, sp, #32
	pop	{r4, r5, r6, pc}
.Ltmp859:
.LBB88_3:
	ldr	r0, .LCPI88_1
.LPC88_1:
	add	r1, pc, r0
	mov	r0, #225
	bl	p_3_plt__jit_icall_llvm_throw_corlib_exception_abs_trampoline_llvm
.Ltmp860:
.LBB88_4:
	ldr	r0, .LCPI88_0
.LPC88_0:
	add	r1, pc, r0
	mov	r0, #225
	bl	p_3_plt__jit_icall_llvm_throw_corlib_exception_abs_trampoline_llvm
	.p2align	2
.LCPI88_0:
	.long	.Ltmp860-(.LPC88_0+8)
.LCPI88_1:
	.long	.Ltmp859-(.LPC88_1+8)
.LCPI88_2:
	.long	mono_aot_Xamarin_Forms_Platform_Android_llvm_got-(.LPC88_2+8)
.Lfunc_end88:
	.size	Xamarin_Forms_Platform_Android_ItemsViewAdapter_2_TItemsView_REF_TItemsViewSource_REF_BindTemplatedItemViewHolder_Xamarin_Forms_Platform_Android_TemplatedItemViewHolder_object, .Lfunc_end88-Xamarin_Forms_Platform_Android_ItemsViewAdapter_2_TItemsView_REF_TItemsViewSource_REF_BindTemplatedItemViewHolder_Xamarin_Forms_Platform_Android_TemplatedItemViewHolder_object
.Lexception82:
	.fnend

	.hidden	Xamarin_Forms_Platform_Android_ItemsViewAdapter_2_TItemsView_REF_TItemsViewSource_REF_UpdateItemsSource
	.globl	Xamarin_Forms_Platform_Android_ItemsViewAdapter_2_TItemsView_REF_TItemsViewSource_REF_UpdateItemsSource
	.p2align	2
	.type	Xamarin_Forms_Platform_Android_ItemsViewAdapter_2_TItemsView_REF_TItemsViewSource_REF_UpdateItemsSource,%function
	.code	32
Xamarin_Forms_Platform_Android_ItemsViewAdapter_2_TItemsView_REF_TItemsViewSource_REF_UpdateItemsSource:
.Lfunc_begin89:
	.fnstart
	.save	{r4, r5, r6, r8, r11, lr}
	push	{r4, r5, r6, r8, r11, lr}
.Ltmp861:
.Ltmp862:
.Ltmp863:
.Ltmp864:
.Ltmp865:
.Ltmp866:
.Ltmp867:
	.pad	#16
	sub	sp, sp, #16
.Ltmp868:
	mov	r4, r0
	ldr	r0, .LCPI89_4
	ldr	r5, .LCPI89_5
.LPC89_4:
	add	r0, pc, r0
.LPC89_5:
	add	r5, pc, r5
	ldrb	r6, [r0, #893]
	ldr	r0, [r5, #28]
	str	r4, [sp, #4]
	str	r4, [sp, #8]
	ldr	r0, [r0]
	cmp	r0, #0
	blne	mono_aot_Xamarin_Forms_Platform_Android_icall_cold_wrapper_265
	cmp	r6, #0
	beq	.LBB89_10
.LBB89_1:
	ldr	r0, [sp, #8]
	mov	r1, #0
	str	r1, [sp, #12]
	cmp	r0, #0
	beq	.LBB89_11
	str	r1, [sp, #12]
	add	r0, r0, #40
	ldr	r1, [sp, #12]
	cmp	r1, #0
	bne	.LBB89_5
	ldr	r0, [r0]
	str	r0, [sp, #12]
	ldr	r0, [sp, #12]
	cmp	r0, #0
	beq	.LBB89_7
	add	r0, sp, #12
.LBB89_5:
	ldr	r0, [r0]
	cmp	r0, #0
	beq	.LBB89_14
	ldr	r1, [r0]
	ldr	r2, [r5, #156]
	ldr	r1, [r1, #-20]
	str	r2, [sp]
	ldr	r8, [sp]
	blx	r1
.LBB89_7:
	ldr	r4, [sp, #8]
	ldr	r0, [sp, #8]
	cmp	r0, #0
	beq	.LBB89_12
	ldr	r1, [r0]
	ldr	r1, [r1, #224]
	blx	r1
	cmp	r4, #0
	beq	.LBB89_13
	ldr	r1, [r5, #8]
	dmb	ish
	str	r0, [r4, #40]!
	mov	r0, #1
	strb	r0, [r1, r4, lsr #9]
	add	sp, sp, #16
	pop	{r4, r5, r6, r8, r11, pc}
.LBB89_10:
	movw	r0, #893
	mov	r1, r4
	bl	mono_aot_Xamarin_Forms_Platform_Android_init_method_gshared_this
	b	.LBB89_1
.Ltmp869:
.LBB89_11:
	ldr	r0, .LCPI89_3
.LPC89_3:
	add	r1, pc, r0
	mov	r0, #225
	bl	p_3_plt__jit_icall_llvm_throw_corlib_exception_abs_trampoline_llvm
.Ltmp870:
.LBB89_12:
	ldr	r0, .LCPI89_2
.LPC89_2:
	add	r1, pc, r0
	mov	r0, #225
	bl	p_3_plt__jit_icall_llvm_throw_corlib_exception_abs_trampoline_llvm
.Ltmp871:
.LBB89_13:
	ldr	r0, .LCPI89_1
.LPC89_1:
	add	r1, pc, r0
	mov	r0, #225
	bl	p_3_plt__jit_icall_llvm_throw_corlib_exception_abs_trampoline_llvm
.Ltmp872:
.LBB89_14:
	ldr	r0, .LCPI89_0
.LPC89_0:
	add	r1, pc, r0
	mov	r0, #225
	bl	p_3_plt__jit_icall_llvm_throw_corlib_exception_abs_trampoline_llvm
	.p2align	2
.LCPI89_0:
	.long	.Ltmp872-(.LPC89_0+8)
.LCPI89_1:
	.long	.Ltmp871-(.LPC89_1+8)
.LCPI89_2:
	.long	.Ltmp870-(.LPC89_2+8)
.LCPI89_3:
	.long	.Ltmp869-(.LPC89_3+8)
.LCPI89_4:
	.long	mono_inited-(.LPC89_4+8)
.LCPI89_5:
	.long	mono_aot_Xamarin_Forms_Platform_Android_llvm_got-(.LPC89_5+8)
.Lfunc_end89:
	.size	Xamarin_Forms_Platform_Android_ItemsViewAdapter_2_TItemsView_REF_TItemsViewSource_REF_UpdateItemsSource, .Lfunc_end89-Xamarin_Forms_Platform_Android_ItemsViewAdapter_2_TItemsView_REF_TItemsViewSource_REF_UpdateItemsSource
.Lexception83:
	.fnend

	.hidden	Xamarin_Forms_Platform_Android_ItemsViewAdapter_2_TItemsView_REF_TItemsViewSource_REF_UpdateUsingItemTemplate
	.globl	Xamarin_Forms_Platform_Android_ItemsViewAdapter_2_TItemsView_REF_TItemsViewSource_REF_UpdateUsingItemTemplate
	.p2align	2
	.type	Xamarin_Forms_Platform_Android_ItemsViewAdapter_2_TItemsView_REF_TItemsViewSource_REF_UpdateUsingItemTemplate,%function
	.code	32
Xamarin_Forms_Platform_Android_ItemsViewAdapter_2_TItemsView_REF_TItemsViewSource_REF_UpdateUsingItemTemplate:
.Lfunc_begin90:
	.fnstart
	.save	{r4, r5, r11, lr}
	push	{r4, r5, r11, lr}
.Ltmp873:
.Ltmp874:
.Ltmp875:
.Ltmp876:
.Ltmp877:
	.pad	#8
	sub	sp, sp, #8
.Ltmp878:
	ldr	r1, .LCPI90_3
.LPC90_3:
	add	r1, pc, r1
	ldr	r1, [r1, #28]
	str	r0, [sp]
	str	r0, [sp, #4]
	ldr	r4, [sp, #4]
	ldr	r5, [sp, #4]
	ldr	r0, [r1]
	cmp	r0, #0
	blne	mono_aot_Xamarin_Forms_Platform_Android_icall_cold_wrapper_265
	cmp	r5, #0
	beq	.LBB90_4
	ldr	r0, [r5, #32]
	cmp	r0, #0
	beq	.LBB90_5
	bl	p_181_plt_Xamarin_Forms_ItemsView_get_ItemTemplate_llvm
	cmp	r4, #0
	beq	.LBB90_6
	cmp	r0, #0
	movwne	r0, #1
	strb	r0, [r4, #45]
	add	sp, sp, #8
	pop	{r4, r5, r11, pc}
.Ltmp879:
.LBB90_4:
	ldr	r0, .LCPI90_2
.LPC90_2:
	add	r1, pc, r0
	mov	r0, #225
	bl	p_3_plt__jit_icall_llvm_throw_corlib_exception_abs_trampoline_llvm
.Ltmp880:
.LBB90_5:
	ldr	r0, .LCPI90_1
.LPC90_1:
	add	r1, pc, r0
	mov	r0, #225
	bl	p_3_plt__jit_icall_llvm_throw_corlib_exception_abs_trampoline_llvm
.Ltmp881:
.LBB90_6:
	ldr	r0, .LCPI90_0
.LPC90_0:
	add	r1, pc, r0
	mov	r0, #225
	bl	p_3_plt__jit_icall_llvm_throw_corlib_exception_abs_trampoline_llvm
	.p2align	2
.LCPI90_0:
	.long	.Ltmp881-(.LPC90_0+8)
.LCPI90_1:
	.long	.Ltmp880-(.LPC90_1+8)
.LCPI90_2:
	.long	.Ltmp879-(.LPC90_2+8)
.LCPI90_3:
	.long	mono_aot_Xamarin_Forms_Platform_Android_llvm_got-(.LPC90_3+8)
.Lfunc_end90:
	.size	Xamarin_Forms_Platform_Android_ItemsViewAdapter_2_TItemsView_REF_TItemsViewSource_REF_UpdateUsingItemTemplate, .Lfunc_end90-Xamarin_Forms_Platform_Android_ItemsViewAdapter_2_TItemsView_REF_TItemsViewSource_REF_UpdateUsingItemTemplate
.Lexception84:
	.fnend

	.hidden	Xamarin_Forms_Platform_Android_ItemsViewAdapter_2__c_TItemsView_REF_TItemsViewSource_REF__cctor
	.globl	Xamarin_Forms_Platform_Android_ItemsViewAdapter_2__c_TItemsView_REF_TItemsViewSource_REF__cctor
	.p2align	2
	.type	Xamarin_Forms_Platform_Android_ItemsViewAdapter_2__c_TItemsView_REF_TItemsViewSource_REF__cctor,%function
	.code	32
Xamarin_Forms_Platform_Android_ItemsViewAdapter_2__c_TItemsView_REF_TItemsViewSource_REF__cctor:
.Lfunc_begin91:
	.fnstart
	.save	{r4, lr}
	push	{r4, lr}
.Ltmp882:
.Ltmp883:
.Ltmp884:
	.pad	#8
	sub	sp, sp, #8
.Ltmp885:
	ldr	r0, .LCPI91_0
.LPC91_0:
	add	r0, pc, r0
	ldr	r0, [r0, #28]
	str	r8, [sp, #4]
	ldr	r4, [sp, #4]
	ldr	r0, [r0]
	cmp	r0, #0
	blne	mono_aot_Xamarin_Forms_Platform_Android_icall_cold_wrapper_265
	mov	r0, r4
	bl	p_185_plt__rgctx_fetch_20_llvm
	mov	r1, #8
	bl	p_11_plt_wrapper_alloc_object_AllocSmall_intptr_intptr_llvm
	mov	r4, r0
	bl	p_186_plt_Xamarin_Forms_Platform_Android_ItemsViewAdapter_2__c_TItemsView_REF_TItemsViewSource_REF__ctor_llvm
	ldr	r0, [sp, #4]
	bl	p_187_plt__rgctx_fetch_21_llvm
	dmb	ish
	str	r4, [r0]
	add	sp, sp, #8
	pop	{r4, pc}
	.p2align	2
.LCPI91_0:
	.long	mono_aot_Xamarin_Forms_Platform_Android_llvm_got-(.LPC91_0+8)
.Lfunc_end91:
	.size	Xamarin_Forms_Platform_Android_ItemsViewAdapter_2__c_TItemsView_REF_TItemsViewSource_REF__cctor, .Lfunc_end91-Xamarin_Forms_Platform_Android_ItemsViewAdapter_2__c_TItemsView_REF_TItemsViewSource_REF__cctor
.Lexception85:
	.fnend

	.hidden	Xamarin_Forms_Platform_Android_ItemsViewAdapter_2__c_TItemsView_REF_TItemsViewSource_REF__ctor
	.globl	Xamarin_Forms_Platform_Android_ItemsViewAdapter_2__c_TItemsView_REF_TItemsViewSource_REF__ctor
	.p2align	2
	.type	Xamarin_Forms_Platform_Android_ItemsViewAdapter_2__c_TItemsView_REF_TItemsViewSource_REF__ctor,%function
	.code	32
Xamarin_Forms_Platform_Android_ItemsViewAdapter_2__c_TItemsView_REF_TItemsViewSource_REF__ctor:
.Lfunc_begin92:
	.fnstart
	.save	{r11, lr}
	push	{r11, lr}
.Ltmp886:
.Ltmp887:
.Ltmp888:
	.pad	#8
	sub	sp, sp, #8
.Ltmp889:
	mov	r1, r0
	ldr	r0, .LCPI92_0
.LPC92_0:
	add	r0, pc, r0
	ldrb	r0, [r0, #896]
	str	r1, [sp, #4]
	cmp	r0, #0
	beq	.LBB92_2
	add	sp, sp, #8
	pop	{r11, pc}
.LBB92_2:
	mov	r0, #896
	bl	mono_aot_Xamarin_Forms_Platform_Android_init_method_gshared_this
	add	sp, sp, #8
	pop	{r11, pc}
	.p2align	2
.LCPI92_0:
	.long	mono_inited-(.LPC92_0+8)
.Lfunc_end92:
	.size	Xamarin_Forms_Platform_Android_ItemsViewAdapter_2__c_TItemsView_REF_TItemsViewSource_REF__ctor, .Lfunc_end92-Xamarin_Forms_Platform_Android_ItemsViewAdapter_2__c_TItemsView_REF_TItemsViewSource_REF__ctor
.Lexception86:
	.fnend

	.hidden	Xamarin_Forms_Platform_Android_ItemsViewAdapter_2__c_TItemsView_REF_TItemsViewSource_REF___ctorb__5_0_Xamarin_Forms_View_Android_Content_Context
	.globl	Xamarin_Forms_Platform_Android_ItemsViewAdapter_2__c_TItemsView_REF_TItemsViewSource_REF___ctorb__5_0_Xamarin_Forms_View_Android_Content_Context
	.p2align	2
	.type	Xamarin_Forms_Platform_Android_ItemsViewAdapter_2__c_TItemsView_REF_TItemsViewSource_REF___ctorb__5_0_Xamarin_Forms_View_Android_Content_Context,%function
	.code	32
Xamarin_Forms_Platform_Android_ItemsViewAdapter_2__c_TItemsView_REF_TItemsViewSource_REF___ctorb__5_0_Xamarin_Forms_View_Android_Content_Context:
.Lfunc_begin93:
	.fnstart
	.save	{r4, r5, r6, r7, r11, lr}
	push	{r4, r5, r6, r7, r11, lr}
.Ltmp890:
.Ltmp891:
.Ltmp892:
.Ltmp893:
.Ltmp894:
.Ltmp895:
.Ltmp896:
	.pad	#8
	sub	sp, sp, #8
.Ltmp897:
	ldr	r6, .LCPI93_0
	mov	r5, r0
	ldr	r0, .LCPI93_1
	mov	r4, r2
.LPC93_0:
	add	r6, pc, r6
.LPC93_1:
	add	r0, pc, r0
	ldr	r1, [r6, #28]
	ldrb	r7, [r0, #897]
	str	r5, [sp, #4]
	ldr	r0, [r1]
	cmp	r0, #0
	blne	mono_aot_Xamarin_Forms_Platform_Android_icall_cold_wrapper_265
	cmp	r7, #0
	beq	.LBB93_2
.LBB93_1:
	ldr	r0, [r6, #636]
	bl	p_13_plt__jit_icall_ves_icall_object_new_specific_llvm
	mov	r1, r4
	mov	r5, r0
	bl	p_155_plt_Xamarin_Forms_Platform_Android_ItemContentView__ctor_Android_Content_Context_llvm
	mov	r0, r5
	add	sp, sp, #8
	pop	{r4, r5, r6, r7, r11, pc}
.LBB93_2:
	movw	r0, #897
	mov	r1, r5
	bl	mono_aot_Xamarin_Forms_Platform_Android_init_method_gshared_this
	b	.LBB93_1
	.p2align	2
.LCPI93_0:
	.long	mono_aot_Xamarin_Forms_Platform_Android_llvm_got-(.LPC93_0+8)
.LCPI93_1:
	.long	mono_inited-(.LPC93_1+8)
.Lfunc_end93:
	.size	Xamarin_Forms_Platform_Android_ItemsViewAdapter_2__c_TItemsView_REF_TItemsViewSource_REF___ctorb__5_0_Xamarin_Forms_View_Android_Content_Context, .Lfunc_end93-Xamarin_Forms_Platform_Android_ItemsViewAdapter_2__c_TItemsView_REF_TItemsViewSource_REF___ctorb__5_0_Xamarin_Forms_View_Android_Content_Context
.Lexception87:
	.fnend

	.hidden	Xamarin_Forms_Platform_Android_ItemsViewRenderer_3_TItemsView_REF_TAdapter_REF_TItemsViewSource_REF_get_ItemsLayout
	.globl	Xamarin_Forms_Platform_Android_ItemsViewRenderer_3_TItemsView_REF_TAdapter_REF_TItemsViewSource_REF_get_ItemsLayout
	.p2align	2
	.type	Xamarin_Forms_Platform_Android_ItemsViewRenderer_3_TItemsView_REF_TAdapter_REF_TItemsViewSource_REF_get_ItemsLayout,%function
	.code	32
Xamarin_Forms_Platform_Android_ItemsViewRenderer_3_TItemsView_REF_TAdapter_REF_TItemsViewSource_REF_get_ItemsLayout:
.Lfunc_begin94:
	.fnstart
	.save	{r11, lr}
	push	{r11, lr}
.Ltmp898:
.Ltmp899:
.Ltmp900:
	.pad	#8
	sub	sp, sp, #8
.Ltmp901:
	str	r0, [sp]
	str	r0, [sp, #4]
	ldr	r0, [sp, #4]
	cmp	r0, #0
	ldrne	r0, [r0, #80]
	addne	sp, sp, #8
	popne	{r11, pc}
.Ltmp902:
.LBB94_1:
	ldr	r0, .LCPI94_0
.LPC94_0:
	add	r1, pc, r0
	mov	r0, #225
	bl	p_3_plt__jit_icall_llvm_throw_corlib_exception_abs_trampoline_llvm
	.p2align	2
.LCPI94_0:
	.long	.Ltmp902-(.LPC94_0+8)
.Lfunc_end94:
	.size	Xamarin_Forms_Platform_Android_ItemsViewRenderer_3_TItemsView_REF_TAdapter_REF_TItemsViewSource_REF_get_ItemsLayout, .Lfunc_end94-Xamarin_Forms_Platform_Android_ItemsViewRenderer_3_TItemsView_REF_TAdapter_REF_TItemsViewSource_REF_get_ItemsLayout
.Lexception88:
	.fnend

	.hidden	Xamarin_Forms_Platform_Android_ItemsViewRenderer_3_TItemsView_REF_TAdapter_REF_TItemsViewSource_REF_set_ItemsLayout_Xamarin_Forms_IItemsLayout
	.globl	Xamarin_Forms_Platform_Android_ItemsViewRenderer_3_TItemsView_REF_TAdapter_REF_TItemsViewSource_REF_set_ItemsLayout_Xamarin_Forms_IItemsLayout
	.p2align	2
	.type	Xamarin_Forms_Platform_Android_ItemsViewRenderer_3_TItemsView_REF_TAdapter_REF_TItemsViewSource_REF_set_ItemsLayout_Xamarin_Forms_IItemsLayout,%function
	.code	32
Xamarin_Forms_Platform_Android_ItemsViewRenderer_3_TItemsView_REF_TAdapter_REF_TItemsViewSource_REF_set_ItemsLayout_Xamarin_Forms_IItemsLayout:
.Lfunc_begin95:
	.fnstart
	.save	{r11, lr}
	push	{r11, lr}
.Ltmp903:
.Ltmp904:
.Ltmp905:
	.pad	#8
	sub	sp, sp, #8
.Ltmp906:
	str	r0, [sp]
	str	r0, [sp, #4]
	ldr	r0, [sp, #4]
	cmp	r0, #0
	beq	.LBB95_2
	ldr	r2, .LCPI95_1
	dmb	ish
	str	r1, [r0, #80]!
	mov	r1, #1
.LPC95_1:
	add	r2, pc, r2
	ldr	r2, [r2, #8]
	strb	r1, [r2, r0, lsr #9]
	add	sp, sp, #8
	pop	{r11, pc}
.Ltmp907:
.LBB95_2:
	ldr	r0, .LCPI95_0
.LPC95_0:
	add	r1, pc, r0
	mov	r0, #225
	bl	p_3_plt__jit_icall_llvm_throw_corlib_exception_abs_trampoline_llvm
	.p2align	2
.LCPI95_0:
	.long	.Ltmp907-(.LPC95_0+8)
.LCPI95_1:
	.long	mono_aot_Xamarin_Forms_Platform_Android_llvm_got-(.LPC95_1+8)
.Lfunc_end95:
	.size	Xamarin_Forms_Platform_Android_ItemsViewRenderer_3_TItemsView_REF_TAdapter_REF_TItemsViewSource_REF_set_ItemsLayout_Xamarin_Forms_IItemsLayout, .Lfunc_end95-Xamarin_Forms_Platform_Android_ItemsViewRenderer_3_TItemsView_REF_TAdapter_REF_TItemsViewSource_REF_set_ItemsLayout_Xamarin_Forms_IItemsLayout
.Lexception89:
	.fnend

	.hidden	Xamarin_Forms_Platform_Android_ItemsViewRenderer_3_TItemsView_REF_TAdapter_REF_TItemsViewSource_REF__ctor_Android_Content_Context
	.globl	Xamarin_Forms_Platform_Android_ItemsViewRenderer_3_TItemsView_REF_TAdapter_REF_TItemsViewSource_REF__ctor_Android_Content_Context
	.p2align	2
	.type	Xamarin_Forms_Platform_Android_ItemsViewRenderer_3_TItemsView_REF_TAdapter_REF_TItemsViewSource_REF__ctor_Android_Content_Context,%function
	.code	32
Xamarin_Forms_Platform_Android_ItemsViewRenderer_3_TItemsView_REF_TAdapter_REF_TItemsViewSource_REF__ctor_Android_Content_Context:
.Lfunc_begin96:
	.fnstart
	.save	{r4, r5, r6, r7, r9, r10, r11, lr}
	push	{r4, r5, r6, r7, r9, r10, r11, lr}
.Ltmp908:
.Ltmp909:
.Ltmp910:
.Ltmp911:
.Ltmp912:
.Ltmp913:
.Ltmp914:
.Ltmp915:
.Ltmp916:
	.pad	#8
	sub	sp, sp, #8
.Ltmp917:
	mov	r5, r0
	ldr	r0, .LCPI96_8
	ldr	r9, .LCPI96_9
	mov	r4, r1
.LPC96_8:
	add	r0, pc, r0
.LPC96_9:
	add	r9, pc, r9
	ldrb	r6, [r0, #900]
	ldr	r0, [r9, #28]
	str	r5, [sp]
	str	r5, [sp, #4]
	ldr	r0, [r0]
	cmp	r0, #0
	blne	mono_aot_Xamarin_Forms_Platform_Android_icall_cold_wrapper_265
	cmp	r6, #0
	beq	.LBB96_12
.LBB96_1:
	ldr	r0, [r9, #696]
	ldr	r5, [sp, #4]
	ldrb	r1, [r0, #25]
	cmp	r1, #0
	beq	.LBB96_13
.LBB96_2:
	ldr	r1, [r9, #700]
	ldr	r0, [r9, #704]
	ldr	r7, [r1]
	bl	p_13_plt__jit_icall_ves_icall_object_new_specific_llvm
	mov	r1, r4
	mov	r2, r7
	mov	r6, r0
	bl	p_188_plt_Android_Views_ContextThemeWrapper__ctor_Android_Content_Context_int_llvm
	ldr	r0, [r9, #708]
	ldrb	r1, [r0, #25]
	cmp	r1, #0
	beq	.LBB96_14
.LBB96_3:
	ldr	r0, [r9, #712]
	mov	r1, r6
	mov	r2, #0
	ldr	r3, [r0]
	mov	r0, r5
	bl	p_189_plt_AndroidX_RecyclerView_Widget_RecyclerView__ctor_Android_Content_Context_Android_Util_IAttributeSet_int_llvm
	ldr	r0, [r9, #716]
	mov	r1, #36
	ldr	r7, [sp, #4]
	ldr	r5, [sp, #4]
	bl	p_11_plt_wrapper_alloc_object_AllocSmall_intptr_intptr_llvm
	mov	r1, r5
	mov	r4, r0
	bl	p_190_plt_Xamarin_Forms_Platform_Android_FastRenderers_AutomationPropertiesProvider__ctor_Xamarin_Forms_Platform_Android_IVisualElementRenderer_llvm
	cmp	r7, #0
	beq	.LBB96_15
	ldr	r10, [r9, #8]
	dmb	ish
	str	r4, [r7, #64]!
	mov	r6, #1
	ldr	r0, [r9, #720]
	mov	r1, #16
	strb	r6, [r10, r7, lsr #9]
	ldr	r7, [sp, #4]
	ldr	r5, [sp, #4]
	bl	p_11_plt_wrapper_alloc_object_AllocSmall_intptr_intptr_llvm
	mov	r1, r5
	mov	r4, r0
	bl	p_191_plt_Xamarin_Forms_Platform_Android_FastRenderers_EffectControlProvider__ctor_Android_Views_View_llvm
	cmp	r7, #0
	beq	.LBB96_16
	dmb	ish
	str	r4, [r7, #68]!
	lsr	r0, r7, #9
	strb	r6, [r0, r10]
	ldr	r4, [sp, #4]
	ldr	r7, [sp, #4]
	cmp	r7, #0
	beq	.LBB96_17
	ldr	r5, [r9, #248]
	mov	r1, #64
	mov	r0, r5
	bl	p_11_plt_wrapper_alloc_object_AllocSmall_intptr_intptr_llvm
	mov	r6, r0
	dmb	ish
	str	r7, [r0, #16]!
	mov	r11, #1
	lsr	r0, r0, #9
	strb	r11, [r0, r10]
	ldr	r0, [sp, #4]
	ldr	r0, [r0]
	bl	p_192_plt__rgctx_fetch_22_llvm
	str	r0, [r6, #32]
	ldr	r0, [sp, #4]
	ldr	r0, [r0]
	bl	p_193_plt__rgctx_fetch_23_llvm
	ldr	r1, [r0, #4]
	str	r1, [r6, #20]
	ldr	r1, [r0, #20]
	ldr	r9, [r9, #724]
	str	r1, [r6, #12]
	mov	r1, #0
	ldr	r0, [r0, #16]
	strb	r1, [r6, #56]
	str	r0, [r6, #8]
	mov	r0, r9
	bl	p_13_plt__jit_icall_ves_icall_object_new_specific_llvm
	mov	r1, r6
	mov	r7, r0
	bl	p_194_plt_Xamarin_Forms_Platform_Android_DataChangeObserver__ctor_System_Action_llvm
	cmp	r4, #0
	beq	.LBB96_18
	dmb	ish
	str	r7, [r4, #100]!
	lsr	r0, r4, #9
	strb	r11, [r0, r10]
	ldr	r6, [sp, #4]
	ldr	r4, [sp, #4]
	cmp	r4, #0
	beq	.LBB96_19
	mov	r0, r5
	mov	r1, #64
	bl	p_11_plt_wrapper_alloc_object_AllocSmall_intptr_intptr_llvm
	mov	r5, r0
	dmb	ish
	str	r4, [r0, #16]!
	mov	r7, #1
	lsr	r0, r0, #9
	strb	r7, [r0, r10]
	ldr	r0, [sp, #4]
	ldr	r0, [r0]
	bl	p_195_plt__rgctx_fetch_24_llvm
	str	r0, [r5, #32]
	ldr	r0, [sp, #4]
	ldr	r0, [r0]
	bl	p_196_plt__rgctx_fetch_25_llvm
	ldr	r1, [r0, #4]
	str	r1, [r5, #20]
	ldr	r1, [r0, #20]
	str	r1, [r5, #12]
	mov	r1, #0
	ldr	r0, [r0, #16]
	strb	r1, [r5, #56]
	str	r0, [r5, #8]
	mov	r0, r9
	bl	p_13_plt__jit_icall_ves_icall_object_new_specific_llvm
	mov	r1, r5
	mov	r4, r0
	bl	p_194_plt_Xamarin_Forms_Platform_Android_DataChangeObserver__ctor_System_Action_llvm
	cmp	r6, #0
	beq	.LBB96_20
	dmb	ish
	str	r4, [r6, #104]!
	lsr	r0, r6, #9
	strb	r7, [r0, r10]
	ldr	r0, [sp, #4]
	cmp	r0, #0
	beq	.LBB96_21
	ldr	r1, [r0]
	ldr	r2, [r1, #568]
	mov	r1, #0
	blx	r2
	ldr	r0, [sp, #4]
	cmp	r0, #0
	beq	.LBB96_22
	ldr	r1, [r0]
	ldr	r2, [r1, #840]
	mov	r1, #0
	blx	r2
	add	sp, sp, #8
	pop	{r4, r5, r6, r7, r9, r10, r11, pc}
.LBB96_12:
	mov	r0, #900
	mov	r1, r5
	bl	mono_aot_Xamarin_Forms_Platform_Android_init_method_gshared_this
	b	.LBB96_1
.LBB96_13:
	bl	p_24_plt__jit_icall_mono_generic_class_init_llvm
	b	.LBB96_2
.LBB96_14:
	bl	p_24_plt__jit_icall_mono_generic_class_init_llvm
	b	.LBB96_3
.Ltmp918:
.LBB96_15:
	ldr	r0, .LCPI96_7
.LPC96_7:
	add	r1, pc, r0
	mov	r0, #225
	bl	p_3_plt__jit_icall_llvm_throw_corlib_exception_abs_trampoline_llvm
.Ltmp919:
.LBB96_16:
	ldr	r0, .LCPI96_6
.LPC96_6:
	add	r1, pc, r0
	mov	r0, #225
	bl	p_3_plt__jit_icall_llvm_throw_corlib_exception_abs_trampoline_llvm
.Ltmp920:
.LBB96_17:
	ldr	r0, .LCPI96_5
.LPC96_5:
	add	r1, pc, r0
	mov	r0, #123
	bl	p_3_plt__jit_icall_llvm_throw_corlib_exception_abs_trampoline_llvm
.Ltmp921:
.LBB96_18:
	ldr	r0, .LCPI96_4
.LPC96_4:
	add	r1, pc, r0
	mov	r0, #225
	bl	p_3_plt__jit_icall_llvm_throw_corlib_exception_abs_trampoline_llvm
.Ltmp922:
.LBB96_19:
	ldr	r0, .LCPI96_3
.LPC96_3:
	add	r1, pc, r0
	mov	r0, #123
	bl	p_3_plt__jit_icall_llvm_throw_corlib_exception_abs_trampoline_llvm
.Ltmp923:
.LBB96_20:
	ldr	r0, .LCPI96_2
.LPC96_2:
	add	r1, pc, r0
	mov	r0, #225
	bl	p_3_plt__jit_icall_llvm_throw_corlib_exception_abs_trampoline_llvm
