	.text
	.syntax unified
	.eabi_attribute	67, "2.09"
	.eabi_attribute	6, 10
	.eabi_attribute	7, 65
	.eabi_attribute	8, 1
	.eabi_attribute	9, 2
	.fpu	vfpv3-d16
	.eabi_attribute	34, 1
	.eabi_attribute	15, 1
	.eabi_attribute	16, 1
	.eabi_attribute	17, 2
	.eabi_attribute	20, 1
	.eabi_attribute	21, 1
	.eabi_attribute	23, 3
	.eabi_attribute	24, 1
	.eabi_attribute	25, 1
	.eabi_attribute	38, 1
	.eabi_attribute	14, 0
	.file	"aot"
	.weak	gc.safepoint_poll
	.p2align	2
	.type	gc.safepoint_poll,%function
	.code	32
gc.safepoint_poll:
.Lfunc_begin0:
	.fnstart
	ldr	r0, .LCPI0_0
.LPC0_0:
	add	r0, pc, r0
	ldr	r0, [r0, #28]
	ldr	r0, [r0]
	cmp	r0, #0
	bxeq	lr
	.save	{r11, lr}
	push	{r11, lr}
.Ltmp0:
.Ltmp1:
.Ltmp2:
	bl	mono_aot_SQLite_net_icall_cold_wrapper_265
	pop	{r11, lr}
	bx	lr
	.p2align	2
.LCPI0_0:
	.long	mono_aot_SQLite_net_llvm_got-(.LPC0_0+8)
.Lfunc_end0:
	.size	gc.safepoint_poll, .Lfunc_end0-gc.safepoint_poll
	.fnend

	.p2align	2
	.type	mono_aot_SQLite_net_icall_cold_wrapper_265,%function
	.code	32
mono_aot_SQLite_net_icall_cold_wrapper_265:
.Lfunc_begin1:
	.fnstart
	.save	{r11, lr}
	push	{r11, lr}
.Ltmp3:
.Ltmp4:
.Ltmp5:
	ldr	r0, .LCPI1_0
.LPC1_0:
	add	r0, pc, r0
	ldr	r0, [r0, #80]
	blx	r0
	pop	{r11, pc}
	.p2align	2
.LCPI1_0:
	.long	mono_aot_SQLite_net_llvm_got-(.LPC1_0+8)
.Lfunc_end1:
	.size	mono_aot_SQLite_net_icall_cold_wrapper_265, .Lfunc_end1-mono_aot_SQLite_net_icall_cold_wrapper_265
	.fnend

	.p2align	2
	.type	mono_aot_SQLite_net_init_method_gshared_mrgctx,%function
	.code	32
mono_aot_SQLite_net_init_method_gshared_mrgctx:
.Lfunc_begin2:
	.fnstart
	.save	{r4, r5, r11, lr}
	push	{r4, r5, r11, lr}
.Ltmp6:
.Ltmp7:
.Ltmp8:
.Ltmp9:
.Ltmp10:
	ldr	r5, .LCPI2_0
	mov	r4, r0
	mov	r3, r1
.LPC2_0:
	add	r5, pc, r5
	ldrb	r0, [r5, r4]
	cmp	r0, #0
	popne	{r4, r5, r11, pc}
	ldr	r0, .LCPI2_1
	mov	r2, r4
.LPC2_1:
	add	r0, pc, r0
	ldr	r1, [r0, #16]
	ldr	r12, [r0, #64]
	ldr	r0, .LCPI2_2
.LPC2_2:
	ldr	r0, [pc, r0]
	blx	r12
	mov	r0, #1
	strb	r0, [r5, r4]
	pop	{r4, r5, r11, pc}
	.p2align	2
.LCPI2_0:
	.long	mono_inited-(.LPC2_0+8)
.LCPI2_1:
	.long	mono_aot_SQLite_net_llvm_got-(.LPC2_1+8)
.LCPI2_2:
.Ltmp11:
	.long	mono_aot_file_info(GOT_PREL)-((.LPC2_2+8)-.Ltmp11)
.Lfunc_end2:
	.size	mono_aot_SQLite_net_init_method_gshared_mrgctx, .Lfunc_end2-mono_aot_SQLite_net_init_method_gshared_mrgctx
	.fnend

	.p2align	2
	.type	mono_aot_SQLite_net_init_method_gshared_this,%function
	.code	32
mono_aot_SQLite_net_init_method_gshared_this:
.Lfunc_begin3:
	.fnstart
	.save	{r4, r5, r11, lr}
	push	{r4, r5, r11, lr}
.Ltmp12:
.Ltmp13:
.Ltmp14:
.Ltmp15:
.Ltmp16:
	ldr	r5, .LCPI3_0
	mov	r4, r0
	mov	r3, r1
.LPC3_0:
	add	r5, pc, r5
	ldrb	r0, [r5, r4]
	cmp	r0, #0
	popne	{r4, r5, r11, pc}
	ldr	r0, .LCPI3_1
	mov	r2, r4
.LPC3_1:
	add	r0, pc, r0
	ldr	r1, [r0, #16]
	ldr	r12, [r0, #60]
	ldr	r0, .LCPI3_2
.LPC3_2:
	ldr	r0, [pc, r0]
	blx	r12
	mov	r0, #1
	strb	r0, [r5, r4]
	pop	{r4, r5, r11, pc}
	.p2align	2
.LCPI3_0:
	.long	mono_inited-(.LPC3_0+8)
.LCPI3_1:
	.long	mono_aot_SQLite_net_llvm_got-(.LPC3_1+8)
.LCPI3_2:
.Ltmp17:
	.long	mono_aot_file_info(GOT_PREL)-((.LPC3_2+8)-.Ltmp17)
.Lfunc_end3:
	.size	mono_aot_SQLite_net_init_method_gshared_this, .Lfunc_end3-mono_aot_SQLite_net_init_method_gshared_this
	.fnend

	.hidden	SQLite_SQLiteConnection_GetMapping_T_REF_SQLite_CreateFlags
	.globl	SQLite_SQLiteConnection_GetMapping_T_REF_SQLite_CreateFlags
	.p2align	2
	.type	SQLite_SQLiteConnection_GetMapping_T_REF_SQLite_CreateFlags,%function
	.code	32
SQLite_SQLiteConnection_GetMapping_T_REF_SQLite_CreateFlags:
.Lfunc_begin4:
	.fnstart
	.save	{r4, r5, r6, lr}
	push	{r4, r5, r6, lr}
.Ltmp18:
.Ltmp19:
.Ltmp20:
.Ltmp21:
.Ltmp22:
	.pad	#8
	sub	sp, sp, #8
.Ltmp23:
	mov	r5, r0
	ldr	r0, .LCPI4_0
	mov	r4, r1
.LPC4_0:
	add	r0, pc, r0
	ldr	r0, [r0, #28]
	str	r8, [sp, #4]
	ldr	r6, [sp, #4]
	ldr	r0, [r0]
	cmp	r0, #0
	blne	mono_aot_SQLite_net_icall_cold_wrapper_265
	mov	r0, r6
	bl	p_1_plt__rgctx_fetch_0_llvm
	mov	r1, r0
	mov	r0, r5
	mov	r2, r4
	bl	p_2_plt_SQLite_SQLiteConnection_GetMapping_System_Type_SQLite_CreateFlags_llvm
	add	sp, sp, #8
	pop	{r4, r5, r6, pc}
	.p2align	2
.LCPI4_0:
	.long	mono_aot_SQLite_net_llvm_got-(.LPC4_0+8)
.Lfunc_end4:
	.size	SQLite_SQLiteConnection_GetMapping_T_REF_SQLite_CreateFlags, .Lfunc_end4-SQLite_SQLiteConnection_GetMapping_T_REF_SQLite_CreateFlags
.Lexception0:
	.fnend

	.hidden	SQLite_SQLiteConnection_DropTable_T_REF
	.globl	SQLite_SQLiteConnection_DropTable_T_REF
	.p2align	2
	.type	SQLite_SQLiteConnection_DropTable_T_REF,%function
	.code	32
SQLite_SQLiteConnection_DropTable_T_REF:
.Lfunc_begin5:
	.fnstart
	.save	{r4, r5, r11, lr}
	push	{r4, r5, r11, lr}
.Ltmp24:
.Ltmp25:
.Ltmp26:
.Ltmp27:
.Ltmp28:
	.pad	#8
	sub	sp, sp, #8
.Ltmp29:
	mov	r4, r0
	ldr	r0, .LCPI5_0
.LPC5_0:
	add	r0, pc, r0
	ldr	r0, [r0, #28]
	str	r8, [sp, #4]
	ldr	r5, [sp, #4]
	ldr	r0, [r0]
	cmp	r0, #0
	blne	mono_aot_SQLite_net_icall_cold_wrapper_265
	mov	r0, r5
	bl	p_3_plt__rgctx_fetch_1_llvm
	mov	r1, r0
	mov	r0, r4
	mov	r2, #0
	bl	p_2_plt_SQLite_SQLiteConnection_GetMapping_System_Type_SQLite_CreateFlags_llvm
	mov	r1, r0
	mov	r0, r4
	bl	p_4_plt_SQLite_SQLiteConnection_DropTable_SQLite_TableMapping_llvm
	add	sp, sp, #8
	pop	{r4, r5, r11, pc}
	.p2align	2
.LCPI5_0:
	.long	mono_aot_SQLite_net_llvm_got-(.LPC5_0+8)
.Lfunc_end5:
	.size	SQLite_SQLiteConnection_DropTable_T_REF, .Lfunc_end5-SQLite_SQLiteConnection_DropTable_T_REF
.Lexception1:
	.fnend

	.hidden	SQLite_SQLiteConnection_CreateTable_T_REF_SQLite_CreateFlags
	.globl	SQLite_SQLiteConnection_CreateTable_T_REF_SQLite_CreateFlags
	.p2align	2
	.type	SQLite_SQLiteConnection_CreateTable_T_REF_SQLite_CreateFlags,%function
	.code	32
SQLite_SQLiteConnection_CreateTable_T_REF_SQLite_CreateFlags:
.Lfunc_begin6:
	.fnstart
	.save	{r4, r5, r6, lr}
	push	{r4, r5, r6, lr}
.Ltmp30:
.Ltmp31:
.Ltmp32:
.Ltmp33:
.Ltmp34:
	.pad	#8
	sub	sp, sp, #8
.Ltmp35:
	mov	r5, r0
	ldr	r0, .LCPI6_0
	mov	r4, r1
.LPC6_0:
	add	r0, pc, r0
	ldr	r0, [r0, #28]
	str	r8, [sp, #4]
	ldr	r6, [sp, #4]
	ldr	r0, [r0]
	cmp	r0, #0
	blne	mono_aot_SQLite_net_icall_cold_wrapper_265
	mov	r0, r6
	bl	p_5_plt__rgctx_fetch_2_llvm
	mov	r1, r0
	mov	r0, r5
	mov	r2, r4
	bl	p_6_plt_SQLite_SQLiteConnection_CreateTable_System_Type_SQLite_CreateFlags_llvm
	add	sp, sp, #8
	pop	{r4, r5, r6, pc}
	.p2align	2
.LCPI6_0:
	.long	mono_aot_SQLite_net_llvm_got-(.LPC6_0+8)
.Lfunc_end6:
	.size	SQLite_SQLiteConnection_CreateTable_T_REF_SQLite_CreateFlags, .Lfunc_end6-SQLite_SQLiteConnection_CreateTable_T_REF_SQLite_CreateFlags
.Lexception2:
	.fnend

	.hidden	SQLite_SQLiteConnection_CreateTables_T_REF_T2_REF_SQLite_CreateFlags
	.globl	SQLite_SQLiteConnection_CreateTables_T_REF_T2_REF_SQLite_CreateFlags
	.p2align	2
	.type	SQLite_SQLiteConnection_CreateTables_T_REF_T2_REF_SQLite_CreateFlags,%function
	.code	32
SQLite_SQLiteConnection_CreateTables_T_REF_T2_REF_SQLite_CreateFlags:
.Lfunc_begin7:
	.fnstart
	.save	{r4, r5, r6, r7, r11, lr}
	push	{r4, r5, r6, r7, r11, lr}
.Ltmp36:
.Ltmp37:
.Ltmp38:
.Ltmp39:
.Ltmp40:
.Ltmp41:
.Ltmp42:
	.pad	#8
	sub	sp, sp, #8
.Ltmp43:
	ldr	r6, .LCPI7_0
	mov	r5, r0
	ldr	r0, .LCPI7_1
	mov	r4, r1
.LPC7_0:
	add	r6, pc, r6
.LPC7_1:
	add	r0, pc, r0
	ldr	r1, [r6, #28]
	ldrb	r7, [r0, #51]
	str	r8, [sp, #4]
	ldr	r0, [r1]
	cmp	r0, #0
	blne	mono_aot_SQLite_net_icall_cold_wrapper_265
	cmp	r7, #0
	beq	.LBB7_2
.LBB7_1:
	ldr	r0, [r6, #100]
	mov	r1, #2
	bl	p_7_plt_wrapper_alloc_object_AllocVector_intptr_intptr_llvm
	mov	r6, r0
	ldr	r0, [sp, #4]
	bl	p_8_plt__rgctx_fetch_3_llvm
	mov	r2, r0
	ldr	r0, [r6]
	mov	r1, #0
	ldr	r3, [r0, #136]
	mov	r0, r6
	blx	r3
	ldr	r0, [sp, #4]
	bl	p_9_plt__rgctx_fetch_4_llvm
	mov	r2, r0
	ldr	r0, [r6]
	mov	r1, #1
	ldr	r3, [r0, #136]
	mov	r0, r6
	blx	r3
	mov	r0, r5
	mov	r1, r4
	mov	r2, r6
	bl	p_10_plt_SQLite_SQLiteConnection_CreateTables_SQLite_CreateFlags_System_Type___llvm
	add	sp, sp, #8
	pop	{r4, r5, r6, r7, r11, pc}
.LBB7_2:
	mov	r0, #51
	mov	r1, r8
	bl	mono_aot_SQLite_net_init_method_gshared_mrgctx
	b	.LBB7_1
	.p2align	2
.LCPI7_0:
	.long	mono_aot_SQLite_net_llvm_got-(.LPC7_0+8)
.LCPI7_1:
	.long	mono_inited-(.LPC7_1+8)
.Lfunc_end7:
	.size	SQLite_SQLiteConnection_CreateTables_T_REF_T2_REF_SQLite_CreateFlags, .Lfunc_end7-SQLite_SQLiteConnection_CreateTables_T_REF_T2_REF_SQLite_CreateFlags
.Lexception3:
	.fnend

	.hidden	SQLite_SQLiteConnection_CreateTables_T_REF_T2_REF_T3_REF_SQLite_CreateFlags
	.globl	SQLite_SQLiteConnection_CreateTables_T_REF_T2_REF_T3_REF_SQLite_CreateFlags
	.p2align	2
	.type	SQLite_SQLiteConnection_CreateTables_T_REF_T2_REF_T3_REF_SQLite_CreateFlags,%function
	.code	32
SQLite_SQLiteConnection_CreateTables_T_REF_T2_REF_T3_REF_SQLite_CreateFlags:
.Lfunc_begin8:
	.fnstart
	.save	{r4, r5, r6, r7, r11, lr}
	push	{r4, r5, r6, r7, r11, lr}
.Ltmp44:
.Ltmp45:
.Ltmp46:
.Ltmp47:
.Ltmp48:
.Ltmp49:
.Ltmp50:
	.pad	#8
	sub	sp, sp, #8
.Ltmp51:
	ldr	r6, .LCPI8_0
	mov	r5, r0
	ldr	r0, .LCPI8_1
	mov	r4, r1
.LPC8_0:
	add	r6, pc, r6
.LPC8_1:
	add	r0, pc, r0
	ldr	r1, [r6, #28]
	ldrb	r7, [r0, #52]
	str	r8, [sp, #4]
	ldr	r0, [r1]
	cmp	r0, #0
	blne	mono_aot_SQLite_net_icall_cold_wrapper_265
	cmp	r7, #0
	beq	.LBB8_2
.LBB8_1:
	ldr	r0, [r6, #100]
	mov	r1, #3
	bl	p_7_plt_wrapper_alloc_object_AllocVector_intptr_intptr_llvm
	mov	r6, r0
	ldr	r0, [sp, #4]
	bl	p_11_plt__rgctx_fetch_5_llvm
	mov	r2, r0
	ldr	r0, [r6]
	mov	r1, #0
	ldr	r3, [r0, #136]
	mov	r0, r6
	blx	r3
	ldr	r0, [sp, #4]
	bl	p_12_plt__rgctx_fetch_6_llvm
	mov	r2, r0
	ldr	r0, [r6]
	mov	r1, #1
	ldr	r3, [r0, #136]
	mov	r0, r6
	blx	r3
	ldr	r0, [sp, #4]
	bl	p_13_plt__rgctx_fetch_7_llvm
	mov	r2, r0
	ldr	r0, [r6]
	mov	r1, #2
	ldr	r3, [r0, #136]
	mov	r0, r6
	blx	r3
	mov	r0, r5
	mov	r1, r4
	mov	r2, r6
	bl	p_10_plt_SQLite_SQLiteConnection_CreateTables_SQLite_CreateFlags_System_Type___llvm
	add	sp, sp, #8
	pop	{r4, r5, r6, r7, r11, pc}
.LBB8_2:
	mov	r0, #52
	mov	r1, r8
	bl	mono_aot_SQLite_net_init_method_gshared_mrgctx
	b	.LBB8_1
	.p2align	2
.LCPI8_0:
	.long	mono_aot_SQLite_net_llvm_got-(.LPC8_0+8)
.LCPI8_1:
	.long	mono_inited-(.LPC8_1+8)
.Lfunc_end8:
	.size	SQLite_SQLiteConnection_CreateTables_T_REF_T2_REF_T3_REF_SQLite_CreateFlags, .Lfunc_end8-SQLite_SQLiteConnection_CreateTables_T_REF_T2_REF_T3_REF_SQLite_CreateFlags
.Lexception4:
	.fnend

	.hidden	SQLite_SQLiteConnection_CreateTables_T_REF_T2_REF_T3_REF_T4_REF_SQLite_CreateFlags
	.globl	SQLite_SQLiteConnection_CreateTables_T_REF_T2_REF_T3_REF_T4_REF_SQLite_CreateFlags
	.p2align	2
	.type	SQLite_SQLiteConnection_CreateTables_T_REF_T2_REF_T3_REF_T4_REF_SQLite_CreateFlags,%function
	.code	32
SQLite_SQLiteConnection_CreateTables_T_REF_T2_REF_T3_REF_T4_REF_SQLite_CreateFlags:
.Lfunc_begin9:
	.fnstart
	.save	{r4, r5, r6, r7, r11, lr}
	push	{r4, r5, r6, r7, r11, lr}
.Ltmp52:
.Ltmp53:
.Ltmp54:
.Ltmp55:
.Ltmp56:
.Ltmp57:
.Ltmp58:
	.pad	#8
	sub	sp, sp, #8
.Ltmp59:
	ldr	r6, .LCPI9_0
	mov	r5, r0
	ldr	r0, .LCPI9_1
	mov	r4, r1
.LPC9_0:
	add	r6, pc, r6
.LPC9_1:
	add	r0, pc, r0
	ldr	r1, [r6, #28]
	ldrb	r7, [r0, #53]
	str	r8, [sp, #4]
	ldr	r0, [r1]
	cmp	r0, #0
	blne	mono_aot_SQLite_net_icall_cold_wrapper_265
	cmp	r7, #0
	beq	.LBB9_2
.LBB9_1:
	ldr	r0, [r6, #100]
	mov	r1, #4
	bl	p_7_plt_wrapper_alloc_object_AllocVector_intptr_intptr_llvm
	mov	r6, r0
	ldr	r0, [sp, #4]
	bl	p_14_plt__rgctx_fetch_8_llvm
	mov	r2, r0
	ldr	r0, [r6]
	mov	r1, #0
	ldr	r3, [r0, #136]
	mov	r0, r6
	blx	r3
	ldr	r0, [sp, #4]
	bl	p_15_plt__rgctx_fetch_9_llvm
	mov	r2, r0
	ldr	r0, [r6]
	mov	r1, #1
	ldr	r3, [r0, #136]
	mov	r0, r6
	blx	r3
	ldr	r0, [sp, #4]
	bl	p_16_plt__rgctx_fetch_10_llvm
	mov	r2, r0
	ldr	r0, [r6]
	mov	r1, #2
	ldr	r3, [r0, #136]
	mov	r0, r6
	blx	r3
	ldr	r0, [sp, #4]
	bl	p_17_plt__rgctx_fetch_11_llvm
	mov	r2, r0
	ldr	r0, [r6]
	mov	r1, #3
	ldr	r3, [r0, #136]
	mov	r0, r6
	blx	r3
	mov	r0, r5
	mov	r1, r4
	mov	r2, r6
	bl	p_10_plt_SQLite_SQLiteConnection_CreateTables_SQLite_CreateFlags_System_Type___llvm
	add	sp, sp, #8
	pop	{r4, r5, r6, r7, r11, pc}
.LBB9_2:
	mov	r0, #53
	mov	r1, r8
	bl	mono_aot_SQLite_net_init_method_gshared_mrgctx
	b	.LBB9_1
	.p2align	2
.LCPI9_0:
	.long	mono_aot_SQLite_net_llvm_got-(.LPC9_0+8)
.LCPI9_1:
	.long	mono_inited-(.LPC9_1+8)
.Lfunc_end9:
	.size	SQLite_SQLiteConnection_CreateTables_T_REF_T2_REF_T3_REF_T4_REF_SQLite_CreateFlags, .Lfunc_end9-SQLite_SQLiteConnection_CreateTables_T_REF_T2_REF_T3_REF_T4_REF_SQLite_CreateFlags
.Lexception5:
	.fnend

	.hidden	SQLite_SQLiteConnection_CreateTables_T_REF_T2_REF_T3_REF_T4_REF_T5_REF_SQLite_CreateFlags
	.globl	SQLite_SQLiteConnection_CreateTables_T_REF_T2_REF_T3_REF_T4_REF_T5_REF_SQLite_CreateFlags
	.p2align	2
	.type	SQLite_SQLiteConnection_CreateTables_T_REF_T2_REF_T3_REF_T4_REF_T5_REF_SQLite_CreateFlags,%function
	.code	32
SQLite_SQLiteConnection_CreateTables_T_REF_T2_REF_T3_REF_T4_REF_T5_REF_SQLite_CreateFlags:
.Lfunc_begin10:
	.fnstart
	.save	{r4, r5, r6, r7, r11, lr}
	push	{r4, r5, r6, r7, r11, lr}
.Ltmp60:
.Ltmp61:
.Ltmp62:
.Ltmp63:
.Ltmp64:
.Ltmp65:
.Ltmp66:
	.pad	#8
	sub	sp, sp, #8
.Ltmp67:
	ldr	r6, .LCPI10_0
	mov	r5, r0
	ldr	r0, .LCPI10_1
	mov	r4, r1
.LPC10_0:
	add	r6, pc, r6
.LPC10_1:
	add	r0, pc, r0
	ldr	r1, [r6, #28]
	ldrb	r7, [r0, #54]
	str	r8, [sp, #4]
	ldr	r0, [r1]
	cmp	r0, #0
	blne	mono_aot_SQLite_net_icall_cold_wrapper_265
	cmp	r7, #0
	beq	.LBB10_2
.LBB10_1:
	ldr	r0, [r6, #100]
	mov	r1, #5
	bl	p_7_plt_wrapper_alloc_object_AllocVector_intptr_intptr_llvm
	mov	r6, r0
	ldr	r0, [sp, #4]
	bl	p_18_plt__rgctx_fetch_12_llvm
	mov	r2, r0
	ldr	r0, [r6]
	mov	r1, #0
	ldr	r3, [r0, #136]
	mov	r0, r6
	blx	r3
	ldr	r0, [sp, #4]
	bl	p_19_plt__rgctx_fetch_13_llvm
	mov	r2, r0
	ldr	r0, [r6]
	mov	r1, #1
	ldr	r3, [r0, #136]
	mov	r0, r6
	blx	r3
	ldr	r0, [sp, #4]
	bl	p_20_plt__rgctx_fetch_14_llvm
	mov	r2, r0
	ldr	r0, [r6]
	mov	r1, #2
	ldr	r3, [r0, #136]
	mov	r0, r6
	blx	r3
	ldr	r0, [sp, #4]
	bl	p_21_plt__rgctx_fetch_15_llvm
	mov	r2, r0
	ldr	r0, [r6]
	mov	r1, #3
	ldr	r3, [r0, #136]
	mov	r0, r6
	blx	r3
	ldr	r0, [sp, #4]
	bl	p_22_plt__rgctx_fetch_16_llvm
	mov	r2, r0
	ldr	r0, [r6]
	mov	r1, #4
	ldr	r3, [r0, #136]
	mov	r0, r6
	blx	r3
	mov	r0, r5
	mov	r1, r4
	mov	r2, r6
	bl	p_10_plt_SQLite_SQLiteConnection_CreateTables_SQLite_CreateFlags_System_Type___llvm
	add	sp, sp, #8
	pop	{r4, r5, r6, r7, r11, pc}
.LBB10_2:
	mov	r0, #54
	mov	r1, r8
	bl	mono_aot_SQLite_net_init_method_gshared_mrgctx
	b	.LBB10_1
	.p2align	2
.LCPI10_0:
	.long	mono_aot_SQLite_net_llvm_got-(.LPC10_0+8)
.LCPI10_1:
	.long	mono_inited-(.LPC10_1+8)
.Lfunc_end10:
	.size	SQLite_SQLiteConnection_CreateTables_T_REF_T2_REF_T3_REF_T4_REF_T5_REF_SQLite_CreateFlags, .Lfunc_end10-SQLite_SQLiteConnection_CreateTables_T_REF_T2_REF_T3_REF_T4_REF_T5_REF_SQLite_CreateFlags
.Lexception6:
	.fnend

	.hidden	SQLite_SQLiteConnection_CreateIndex_T_REF_System_Linq_Expressions_Expression_1_System_Func_2_T_REF_object_bool
	.globl	SQLite_SQLiteConnection_CreateIndex_T_REF_System_Linq_Expressions_Expression_1_System_Func_2_T_REF_object_bool
	.p2align	2
	.type	SQLite_SQLiteConnection_CreateIndex_T_REF_System_Linq_Expressions_Expression_1_System_Func_2_T_REF_object_bool,%function
	.code	32
SQLite_SQLiteConnection_CreateIndex_T_REF_System_Linq_Expressions_Expression_1_System_Func_2_T_REF_object_bool:
.Lfunc_begin11:
	.fnstart
	.save	{r4, r5, r6, r7, r8, r9, r11, lr}
	push	{r4, r5, r6, r7, r8, r9, r11, lr}
.Ltmp68:
.Ltmp69:
.Ltmp70:
.Ltmp71:
.Ltmp72:
.Ltmp73:
.Ltmp74:
.Ltmp75:
.Ltmp76:
	.pad	#8
	sub	sp, sp, #8
.Ltmp77:
	ldr	r7, .LCPI11_8
	mov	r5, r0
	ldr	r0, .LCPI11_9
	mov	r6, r1
.LPC11_8:
	add	r7, pc, r7
	mov	r9, r2
.LPC11_9:
	add	r0, pc, r0
	ldr	r1, [r7, #28]
	ldrb	r4, [r0, #60]
	str	r8, [sp, #4]
	ldr	r0, [r1]
	cmp	r0, #0
	blne	mono_aot_SQLite_net_icall_cold_wrapper_265
	cmp	r4, #0
	beq	.LBB11_16
	cmp	r6, #0
	beq	.LBB11_17
.LBB11_2:
	ldr	r0, [r6, #8]
	cmp	r0, #0
	beq	.LBB11_19
	ldr	r1, [r0]
	ldr	r1, [r1, #76]
	blx	r1
	mov	r1, r0
	ldr	r0, [r6, #8]
	cmp	r1, #10
	bne	.LBB11_7
	cmp	r0, #0
	beq	.LBB11_24
	ldr	r1, [r0]
	ldr	r2, [r7, #112]
	ldr	r1, [r1]
	ldr	r1, [r1, #8]
	ldr	r1, [r1, #8]
	cmp	r1, r2
	bne	.LBB11_25
	ldr	r0, [r0, #12]
.LBB11_7:
	cmp	r0, #0
	beq	.LBB11_18
	ldr	r1, [r0]
	ldr	r2, [r7, #108]
	ldr	r1, [r1]
	ldr	r1, [r1, #8]
	ldr	r1, [r1, #8]
	cmp	r1, r2
	bne	.LBB11_18
	bl	p_24_plt_System_Linq_Expressions_MemberExpression_get_Member_llvm
	mov	r6, r0
	cmp	r6, #0
	beq	.LBB11_11
	ldr	r0, [r6]
	ldr	r1, [r7, #104]
	ldr	r0, [r0]
	ldr	r0, [r0, #8]
	ldr	r0, [r0, #8]
	cmp	r0, r1
	movne	r6, #0
.LBB11_11:
	mov	r0, r6
	mov	r1, #0
	bl	p_25_plt_System_Reflection_PropertyInfo_op_Equality_System_Reflection_PropertyInfo_System_Reflection_PropertyInfo_llvm
	tst	r0, #255
	bne	.LBB11_20
	cmp	r6, #0
	beq	.LBB11_21
	ldr	r0, [r6]
	ldr	r1, [r0, #108]
	mov	r0, r6
	blx	r1
	mov	r6, r0
	ldr	r0, [sp, #4]
	bl	p_26_plt__rgctx_fetch_17_llvm
	str	r0, [sp]
	mov	r0, r5
	ldr	r8, [sp]
	mov	r1, #0
	bl	p_27_plt_SQLite_SQLiteConnection_GetMapping_T_REF_SQLite_CreateFlags_llvm
	mov	r7, r0
	cmp	r7, #0
	beq	.LBB11_22
	mov	r0, r7
	mov	r1, r6
	bl	p_28_plt_SQLite_TableMapping_FindColumnWithPropertyName_string_llvm
	cmp	r0, #0
	beq	.LBB11_23
	ldr	r2, [r0, #12]
	mov	r0, r5
	ldr	r1, [r7, #12]
	mov	r3, r9
	bl	p_29_plt_SQLite_SQLiteConnection_CreateIndex_string_string_bool_llvm
	add	sp, sp, #8
	pop	{r4, r5, r6, r7, r8, r9, r11, pc}
.LBB11_16:
	mov	r0, #60
	mov	r1, r8
	bl	mono_aot_SQLite_net_init_method_gshared_mrgctx
	cmp	r6, #0
	bne	.LBB11_2
.Ltmp78:
.LBB11_17:
	ldr	r0, .LCPI11_7
.LPC11_7:
	add	r1, pc, r0
	mov	r0, #225
	bl	p_23_plt__jit_icall_llvm_throw_corlib_exception_abs_trampoline_llvm
.Ltmp79:
.LBB11_18:
	ldr	r0, .LCPI11_4
.LPC11_4:
	add	r1, pc, r0
	mov	r0, #225
	bl	p_23_plt__jit_icall_llvm_throw_corlib_exception_abs_trampoline_llvm
.Ltmp80:
.LBB11_19:
	ldr	r0, .LCPI11_6
.LPC11_6:
	add	r1, pc, r0
	mov	r0, #225
	bl	p_23_plt__jit_icall_llvm_throw_corlib_exception_abs_trampoline_llvm
.LBB11_20:
	ldr	r0, .LCPI11_10
	movw	r1, #1227
.LPC11_10:
	ldr	r0, [pc, r0]
	bl	p_30_plt__jit_icall_mono_helper_ldstr_llvm
	mov	r1, r0
	movw	r0, #123
	movt	r0, #512
	bl	p_31_plt__jit_icall_mono_create_corlib_exception_1_llvm
	bl	p_32_plt__jit_icall_mono_arch_throw_exception_llvm
.Ltmp81:
.LBB11_21:
	ldr	r0, .LCPI11_3
.LPC11_3:
	add	r1, pc, r0
	mov	r0, #225
	bl	p_23_plt__jit_icall_llvm_throw_corlib_exception_abs_trampoline_llvm
.Ltmp82:
.LBB11_22:
	ldr	r0, .LCPI11_2
.LPC11_2:
	add	r1, pc, r0
	mov	r0, #225
	bl	p_23_plt__jit_icall_llvm_throw_corlib_exception_abs_trampoline_llvm
.Ltmp83:
.LBB11_23:
	ldr	r0, .LCPI11_1
.LPC11_1:
	add	r1, pc, r0
	mov	r0, #225
	bl	p_23_plt__jit_icall_llvm_throw_corlib_exception_abs_trampoline_llvm
.Ltmp84:
.LBB11_24:
	ldr	r0, .LCPI11_5
.LPC11_5:
	add	r1, pc, r0
	mov	r0, #225
	bl	p_23_plt__jit_icall_llvm_throw_corlib_exception_abs_trampoline_llvm
.Ltmp85:
.LBB11_25:
	ldr	r0, .LCPI11_0
.LPC11_0:
	add	r1, pc, r0
	mov	r0, #203
	bl	p_23_plt__jit_icall_llvm_throw_corlib_exception_abs_trampoline_llvm
	.p2align	2
.LCPI11_0:
	.long	.Ltmp85-(.LPC11_0+8)
.LCPI11_1:
	.long	.Ltmp83-(.LPC11_1+8)
.LCPI11_2:
	.long	.Ltmp82-(.LPC11_2+8)
.LCPI11_3:
	.long	.Ltmp81-(.LPC11_3+8)
.LCPI11_4:
	.long	.Ltmp79-(.LPC11_4+8)
.LCPI11_5:
	.long	.Ltmp84-(.LPC11_5+8)
.LCPI11_6:
	.long	.Ltmp80-(.LPC11_6+8)
.LCPI11_7:
	.long	.Ltmp78-(.LPC11_7+8)
.LCPI11_8:
	.long	mono_aot_SQLite_net_llvm_got-(.LPC11_8+8)
.LCPI11_9:
	.long	mono_inited-(.LPC11_9+8)
.LCPI11_10:
	.long	mono_aot_SQLite_net_llvm_got-(.LPC11_10+8)
.Lfunc_end11:
	.size	SQLite_SQLiteConnection_CreateIndex_T_REF_System_Linq_Expressions_Expression_1_System_Func_2_T_REF_object_bool, .Lfunc_end11-SQLite_SQLiteConnection_CreateIndex_T_REF_System_Linq_Expressions_Expression_1_System_Func_2_T_REF_object_bool
.Lexception7:
	.fnend

	.hidden	SQLite_SQLiteConnection_ExecuteScalar_T_REF_string_object__
	.globl	SQLite_SQLiteConnection_ExecuteScalar_T_REF_string_object__
	.p2align	3
	.type	SQLite_SQLiteConnection_ExecuteScalar_T_REF_string_object__,%function
	.code	32
SQLite_SQLiteConnection_ExecuteScalar_T_REF_string_object__:
.Lfunc_begin12:
	.fnstart
	.save	{r4, r5, r6, r7, r8, r9, r10, r11, lr}
	push	{r4, r5, r6, r7, r8, r9, r10, r11, lr}
.Ltmp86:
.Ltmp87:
.Ltmp88:
.Ltmp89:
.Ltmp90:
.Ltmp91:
.Ltmp92:
.Ltmp93:
.Ltmp94:
.Ltmp95:
	.pad	#4
	sub	sp, sp, #4
.Ltmp96:
	.vsave	{d8}
	vpush	{d8}
.Ltmp97:
.Ltmp98:
	.pad	#16
	sub	sp, sp, #16
.Ltmp99:
	ldr	r9, .LCPI12_9
	mov	r4, r0
	ldr	r0, .LCPI12_10
	mov	r6, r1
.LPC12_8:
	add	r9, pc, r9
	mov	r5, r2
.LPC12_9:
	add	r0, pc, r0
	ldr	r1, [r9, #28]
	ldrb	r7, [r0, #67]
	str	r8, [sp, #12]
	ldr	r0, [r1]
	cmp	r0, #0
	blne	mono_aot_SQLite_net_icall_cold_wrapper_265
	cmp	r7, #0
	beq	.LBB12_16
.LBB12_1:
	mov	r0, r4
	mov	r1, r6
	mov	r2, r5
	bl	p_33_plt_SQLite_SQLiteConnection_CreateCommand_string_object___llvm
	mov	r5, r0
	mov	r0, r4
	bl	p_34_plt_SQLite_SQLiteConnection_get_TimeExecution_llvm
	tst	r0, #255
	beq	.LBB12_7
	cmp	r4, #0
	beq	.LBB12_18
	ldr	r0, [r4, #8]
	cmp	r0, #0
	bne	.LBB12_5
	ldr	r0, [r9, #128]
	mov	r1, #32
	bl	p_40_plt_wrapper_alloc_object_AllocSmall_intptr_intptr_llvm
	ldr	r1, [r9, #8]
	mov	r2, r4
	dmb	ish
	str	r0, [r2, #8]!
	mov	r0, #1
	strb	r0, [r1, r2, lsr #9]
	ldr	r0, [r2]
	cmp	r0, #0
	beq	.LBB12_24
.LBB12_5:
	mov	r1, #0
	str	r1, [r0, #8]
	str	r1, [r0, #12]
	strb	r1, [r0, #24]
	ldr	r0, [r4, #8]
	cmp	r0, #0
	beq	.LBB12_19
	bl	p_43_plt_System_Diagnostics_Stopwatch_Start_llvm
.LBB12_7:
	ldr	r0, [sp, #12]
	bl	p_35_plt__rgctx_fetch_18_llvm
	cmp	r5, #0
	beq	.LBB12_17
	str	r0, [sp, #8]
	mov	r0, r5
	ldr	r8, [sp, #8]
	bl	p_36_plt_SQLite_SQLiteCommand_ExecuteScalar_T_REF_llvm
	mov	r10, r0
	mov	r0, r4
	bl	p_34_plt_SQLite_SQLiteConnection_get_TimeExecution_llvm
	tst	r0, #255
	beq	.LBB12_15
	cmp	r4, #0
	beq	.LBB12_20
	ldr	r0, [r4, #8]
	cmp	r0, #0
	beq	.LBB12_21
	bl	p_37_plt_System_Diagnostics_Stopwatch_Stop_llvm
	ldr	r0, [r4, #8]
	cmp	r0, #0
	beq	.LBB12_22
	add	r5, r4, #56
	ldm	r5, {r6, r7}
	bl	p_38_plt_System_Diagnostics_Stopwatch_get_ElapsedMilliseconds_llvm
	adds	r0, r0, r6
	adc	r1, r1, r7
	stm	r5, {r0, r1}
	mov	r0, r4
	bl	p_39_plt_SQLite_SQLiteConnection_get_Tracer_llvm
	mov	r6, r0
	cmp	r6, #0
	beq	.LBB12_15
	ldr	r0, [r4, #8]
	cmp	r0, #0
	beq	.LBB12_23
	ldr	r1, [r9, #116]
	str	r1, [sp, #4]
	bl	p_38_plt_System_Diagnostics_Stopwatch_get_ElapsedMilliseconds_llvm
	mov	r4, r0
	ldr	r0, [r9, #120]
	mov	r11, r1
	mov	r1, #16
	bl	p_40_plt_wrapper_alloc_object_AllocSmall_intptr_intptr_llvm
	mov	r7, r0
	str	r4, [r7, #8]
	str	r11, [r7, #12]
	ldm	r5, {r0, r1}
	bl	p_41_plt__jit_icall___emul_lconv_to_r8_llvm
	vmov	d1, r0, r1
	ldr	r0, [r9, #124]
	vldr	d0, .LCPI12_3
	mov	r1, #16
	vdiv.f64	d8, d1, d0
	bl	p_40_plt_wrapper_alloc_object_AllocSmall_intptr_intptr_llvm
	mov	r2, r0
	ldr	r0, [sp, #4]
	mov	r1, r7
	vstr	d8, [r2, #8]
	bl	p_42_plt_string_Format_string_object_object_llvm
	ldr	r2, [r6, #12]
	mov	r1, r0
	mov	r0, r6
	blx	r2
.LBB12_15:
	mov	r0, r10
	add	sp, sp, #16
	vpop	{d8}
	add	sp, sp, #4
	pop	{r4, r5, r6, r7, r8, r9, r10, r11, pc}
.LBB12_16:
	mov	r0, #67
	mov	r1, r8
	bl	mono_aot_SQLite_net_init_method_gshared_mrgctx
	b	.LBB12_1
.Ltmp100:
.LBB12_17:
	ldr	r0, .LCPI12_8
.LPC12_7:
	add	r1, pc, r0
	mov	r0, #225
	bl	p_23_plt__jit_icall_llvm_throw_corlib_exception_abs_trampoline_llvm
.Ltmp101:
.LBB12_18:
	ldr	r0, .LCPI12_2
.LPC12_2:
	add	r1, pc, r0
	mov	r0, #225
	bl	p_23_plt__jit_icall_llvm_throw_corlib_exception_abs_trampoline_llvm
.Ltmp102:
.LBB12_19:
	ldr	r0, .LCPI12_0
.LPC12_0:
	add	r1, pc, r0
	mov	r0, #225
	bl	p_23_plt__jit_icall_llvm_throw_corlib_exception_abs_trampoline_llvm
.Ltmp103:
.LBB12_20:
	ldr	r0, .LCPI12_7
.LPC12_6:
	add	r1, pc, r0
	mov	r0, #225
	bl	p_23_plt__jit_icall_llvm_throw_corlib_exception_abs_trampoline_llvm
.Ltmp104:
.LBB12_21:
	ldr	r0, .LCPI12_6
.LPC12_5:
	add	r1, pc, r0
	mov	r0, #225
	bl	p_23_plt__jit_icall_llvm_throw_corlib_exception_abs_trampoline_llvm
.Ltmp105:
.LBB12_22:
	ldr	r0, .LCPI12_5
.LPC12_4:
	add	r1, pc, r0
	mov	r0, #225
	bl	p_23_plt__jit_icall_llvm_throw_corlib_exception_abs_trampoline_llvm
.Ltmp106:
.LBB12_23:
	ldr	r0, .LCPI12_4
.LPC12_3:
	add	r1, pc, r0
	mov	r0, #225
	bl	p_23_plt__jit_icall_llvm_throw_corlib_exception_abs_trampoline_llvm
.Ltmp107:
.LBB12_24:
	ldr	r0, .LCPI12_1
.LPC12_1:
	add	r1, pc, r0
	mov	r0, #225
	bl	p_23_plt__jit_icall_llvm_throw_corlib_exception_abs_trampoline_llvm
	.p2align	3
.LCPI12_3:
	.long	0
	.long	1083129856
.LCPI12_0:
	.long	.Ltmp102-(.LPC12_0+8)
.LCPI12_1:
	.long	.Ltmp107-(.LPC12_1+8)
.LCPI12_2:
	.long	.Ltmp101-(.LPC12_2+8)
.LCPI12_4:
	.long	.Ltmp106-(.LPC12_3+8)
.LCPI12_5:
	.long	.Ltmp105-(.LPC12_4+8)
.LCPI12_6:
	.long	.Ltmp104-(.LPC12_5+8)
.LCPI12_7:
	.long	.Ltmp103-(.LPC12_6+8)
.LCPI12_8:
	.long	.Ltmp100-(.LPC12_7+8)
.LCPI12_9:
	.long	mono_aot_SQLite_net_llvm_got-(.LPC12_8+8)
.LCPI12_10:
	.long	mono_inited-(.LPC12_9+8)
.Lfunc_end12:
	.size	SQLite_SQLiteConnection_ExecuteScalar_T_REF_string_object__, .Lfunc_end12-SQLite_SQLiteConnection_ExecuteScalar_T_REF_string_object__
.Lexception8:
	.fnend

	.hidden	SQLite_SQLiteConnection_Query_T_REF_string_object__
	.globl	SQLite_SQLiteConnection_Query_T_REF_string_object__
	.p2align	2
	.type	SQLite_SQLiteConnection_Query_T_REF_string_object__,%function
	.code	32
SQLite_SQLiteConnection_Query_T_REF_string_object__:
.Lfunc_begin13:
	.fnstart
	.save	{r4, r5, r6, r8, r11, lr}
	push	{r4, r5, r6, r8, r11, lr}
.Ltmp108:
.Ltmp109:
.Ltmp110:
.Ltmp111:
.Ltmp112:
.Ltmp113:
.Ltmp114:
	.pad	#8
	sub	sp, sp, #8
.Ltmp115:
	mov	r6, r0
	ldr	r0, .LCPI13_1
	mov	r4, r2
	mov	r5, r1
.LPC13_1:
	add	r0, pc, r0
	ldr	r0, [r0, #28]
	str	r8, [sp, #4]
	ldr	r0, [r0]
	cmp	r0, #0
	blne	mono_aot_SQLite_net_icall_cold_wrapper_265
	mov	r0, r6
	mov	r1, r5
	mov	r2, r4
	bl	p_33_plt_SQLite_SQLiteConnection_CreateCommand_string_object___llvm
	mov	r4, r0
	ldr	r0, [sp, #4]
	bl	p_44_plt__rgctx_fetch_19_llvm
	cmp	r4, #0
	beq	.LBB13_2
	str	r0, [sp]
	mov	r0, r4
	ldr	r8, [sp]
	bl	p_45_plt_SQLite_SQLiteCommand_ExecuteQuery_T_REF_llvm
	add	sp, sp, #8
	pop	{r4, r5, r6, r8, r11, pc}
.Ltmp116:
.LBB13_2:
	ldr	r0, .LCPI13_0
.LPC13_0:
	add	r1, pc, r0
	mov	r0, #225
	bl	p_23_plt__jit_icall_llvm_throw_corlib_exception_abs_trampoline_llvm
	.p2align	2
.LCPI13_0:
	.long	.Ltmp116-(.LPC13_0+8)
.LCPI13_1:
	.long	mono_aot_SQLite_net_llvm_got-(.LPC13_1+8)
.Lfunc_end13:
	.size	SQLite_SQLiteConnection_Query_T_REF_string_object__, .Lfunc_end13-SQLite_SQLiteConnection_Query_T_REF_string_object__
.Lexception9:
	.fnend

	.hidden	SQLite_SQLiteConnection_QueryScalars_T_REF_string_object__
	.globl	SQLite_SQLiteConnection_QueryScalars_T_REF_string_object__
	.p2align	2
	.type	SQLite_SQLiteConnection_QueryScalars_T_REF_string_object__,%function
	.code	32
SQLite_SQLiteConnection_QueryScalars_T_REF_string_object__:
.Lfunc_begin14:
	.fnstart
	.save	{r4, r5, r6, r8, r11, lr}
	push	{r4, r5, r6, r8, r11, lr}
.Ltmp117:
.Ltmp118:
.Ltmp119:
.Ltmp120:
.Ltmp121:
.Ltmp122:
.Ltmp123:
	.pad	#8
	sub	sp, sp, #8
.Ltmp124:
	mov	r6, r0
	ldr	r0, .LCPI14_1
	mov	r4, r2
	mov	r5, r1
.LPC14_1:
	add	r0, pc, r0
	ldr	r0, [r0, #28]
	str	r8, [sp, #4]
	ldr	r0, [r0]
	cmp	r0, #0
	blne	mono_aot_SQLite_net_icall_cold_wrapper_265
	mov	r0, r6
	mov	r1, r5
	mov	r2, r4
	bl	p_33_plt_SQLite_SQLiteConnection_CreateCommand_string_object___llvm
	mov	r4, r0
	ldr	r0, [sp, #4]
	bl	p_46_plt__rgctx_fetch_20_llvm
	cmp	r4, #0
	beq	.LBB14_2
	str	r0, [sp]
	mov	r0, r4
	ldr	r8, [sp]
	bl	p_47_plt_SQLite_SQLiteCommand_ExecuteQueryScalars_T_REF_llvm
	mov	r4, r0
	ldr	r0, [sp, #4]
	bl	p_48_plt__rgctx_fetch_21_llvm
	str	r0, [sp]
	mov	r0, r4
	ldr	r8, [sp]
	bl	p_49_plt_System_Linq_Enumerable_ToList_T_REF_System_Collections_Generic_IEnumerable_1_T_REF_llvm
	add	sp, sp, #8
	pop	{r4, r5, r6, r8, r11, pc}
.Ltmp125:
.LBB14_2:
	ldr	r0, .LCPI14_0
.LPC14_0:
	add	r1, pc, r0
	mov	r0, #225
	bl	p_23_plt__jit_icall_llvm_throw_corlib_exception_abs_trampoline_llvm
	.p2align	2
.LCPI14_0:
	.long	.Ltmp125-(.LPC14_0+8)
.LCPI14_1:
	.long	mono_aot_SQLite_net_llvm_got-(.LPC14_1+8)
.Lfunc_end14:
	.size	SQLite_SQLiteConnection_QueryScalars_T_REF_string_object__, .Lfunc_end14-SQLite_SQLiteConnection_QueryScalars_T_REF_string_object__
.Lexception10:
	.fnend

	.hidden	SQLite_SQLiteConnection_DeferredQuery_T_REF_string_object__
	.globl	SQLite_SQLiteConnection_DeferredQuery_T_REF_string_object__
	.p2align	2
	.type	SQLite_SQLiteConnection_DeferredQuery_T_REF_string_object__,%function
	.code	32
SQLite_SQLiteConnection_DeferredQuery_T_REF_string_object__:
.Lfunc_begin15:
	.fnstart
	.save	{r4, r5, r6, r8, r11, lr}
	push	{r4, r5, r6, r8, r11, lr}
.Ltmp126:
.Ltmp127:
.Ltmp128:
.Ltmp129:
.Ltmp130:
.Ltmp131:
.Ltmp132:
	.pad	#8
	sub	sp, sp, #8
.Ltmp133:
	mov	r6, r0
	ldr	r0, .LCPI15_1
	mov	r4, r2
	mov	r5, r1
.LPC15_1:
	add	r0, pc, r0
	ldr	r0, [r0, #28]
	str	r8, [sp, #4]
	ldr	r0, [r0]
	cmp	r0, #0
	blne	mono_aot_SQLite_net_icall_cold_wrapper_265
	mov	r0, r6
	mov	r1, r5
	mov	r2, r4
	bl	p_33_plt_SQLite_SQLiteConnection_CreateCommand_string_object___llvm
	mov	r4, r0
	ldr	r0, [sp, #4]
	bl	p_50_plt__rgctx_fetch_22_llvm
	cmp	r4, #0
	beq	.LBB15_2
	str	r0, [sp]
	mov	r0, r4
	ldr	r8, [sp]
	bl	p_51_plt_SQLite_SQLiteCommand_ExecuteDeferredQuery_T_REF_llvm
	add	sp, sp, #8
	pop	{r4, r5, r6, r8, r11, pc}
.Ltmp134:
.LBB15_2:
	ldr	r0, .LCPI15_0
.LPC15_0:
	add	r1, pc, r0
	mov	r0, #225
	bl	p_23_plt__jit_icall_llvm_throw_corlib_exception_abs_trampoline_llvm
	.p2align	2
.LCPI15_0:
	.long	.Ltmp134-(.LPC15_0+8)
.LCPI15_1:
	.long	mono_aot_SQLite_net_llvm_got-(.LPC15_1+8)
.Lfunc_end15:
	.size	SQLite_SQLiteConnection_DeferredQuery_T_REF_string_object__, .Lfunc_end15-SQLite_SQLiteConnection_DeferredQuery_T_REF_string_object__
.Lexception11:
	.fnend

	.hidden	SQLite_SQLiteConnection_Table_T_REF
	.globl	SQLite_SQLiteConnection_Table_T_REF
	.p2align	2
	.type	SQLite_SQLiteConnection_Table_T_REF,%function
	.code	32
SQLite_SQLiteConnection_Table_T_REF:
.Lfunc_begin16:
	.fnstart
	.save	{r4, r5, r11, lr}
	push	{r4, r5, r11, lr}
.Ltmp135:
.Ltmp136:
.Ltmp137:
.Ltmp138:
.Ltmp139:
	.pad	#8
	sub	sp, sp, #8
.Ltmp140:
	mov	r4, r0
	ldr	r0, .LCPI16_0
.LPC16_0:
	add	r0, pc, r0
	ldr	r0, [r0, #28]
	str	r8, [sp, #4]
	ldr	r5, [sp, #4]
	ldr	r0, [r0]
	cmp	r0, #0
	blne	mono_aot_SQLite_net_icall_cold_wrapper_265
	mov	r0, r5
	bl	p_52_plt__rgctx_fetch_23_llvm
	mov	r1, #68
	bl	p_40_plt_wrapper_alloc_object_AllocSmall_intptr_intptr_llvm
	mov	r1, r4
	mov	r5, r0
	bl	p_53_plt_SQLite_TableQuery_1_T_REF__ctor_SQLite_SQLiteConnection_llvm
	mov	r0, r5
	add	sp, sp, #8
	pop	{r4, r5, r11, pc}
	.p2align	2
.LCPI16_0:
	.long	mono_aot_SQLite_net_llvm_got-(.LPC16_0+8)
.Lfunc_end16:
	.size	SQLite_SQLiteConnection_Table_T_REF, .Lfunc_end16-SQLite_SQLiteConnection_Table_T_REF
.Lexception12:
	.fnend

	.hidden	SQLite_SQLiteConnection_Get_T_REF_object
	.globl	SQLite_SQLiteConnection_Get_T_REF_object
	.p2align	2
	.type	SQLite_SQLiteConnection_Get_T_REF_object,%function
	.code	32
SQLite_SQLiteConnection_Get_T_REF_object:
.Lfunc_begin17:
	.fnstart
	.save	{r4, r5, r6, r7, r8, lr}
	push	{r4, r5, r6, r7, r8, lr}
.Ltmp141:
.Ltmp142:
.Ltmp143:
.Ltmp144:
.Ltmp145:
.Ltmp146:
.Ltmp147:
	.pad	#8
	sub	sp, sp, #8
.Ltmp148:
	ldr	r7, .LCPI17_1
	mov	r4, r0
	ldr	r0, .LCPI17_2
	mov	r5, r1
.LPC17_1:
	add	r7, pc, r7
.LPC17_2:
	add	r0, pc, r0
	ldr	r1, [r7, #28]
	ldrb	r6, [r0, #74]
	str	r8, [sp, #4]
	ldr	r0, [r1]
	cmp	r0, #0
	blne	mono_aot_SQLite_net_icall_cold_wrapper_265
	cmp	r6, #0
	beq	.LBB17_3
.LBB17_1:
	ldr	r0, [sp, #4]
	bl	p_54_plt__rgctx_fetch_24_llvm
	mov	r1, r0
	mov	r0, r4
	mov	r2, #0
	bl	p_2_plt_SQLite_SQLiteConnection_GetMapping_System_Type_SQLite_CreateFlags_llvm
	cmp	r0, #0
	beq	.LBB17_4
	ldr	r6, [r0, #24]
	mov	r1, #1
	ldr	r0, [r7, #132]
	bl	p_7_plt_wrapper_alloc_object_AllocVector_intptr_intptr_llvm
	mov	r7, r0
	mov	r1, #0
	ldr	r0, [r7]
	mov	r2, r5
	ldr	r3, [r0, #136]
	mov	r0, r7
	blx	r3
	ldr	r0, [sp, #4]
	bl	p_55_plt__rgctx_fetch_25_llvm
	str	r0, [sp]
	mov	r0, r4
	ldr	r8, [sp]
	mov	r1, r6
	mov	r2, r7
	bl	p_56_plt_SQLite_SQLiteConnection_Query_T_REF_string_object___llvm
	mov	r4, r0
	ldr	r0, [sp, #4]
	bl	p_57_plt__rgctx_fetch_26_llvm
	str	r0, [sp]
	mov	r0, r4
	ldr	r8, [sp]
	bl	p_58_plt_System_Linq_Enumerable_First_T_REF_System_Collections_Generic_IEnumerable_1_T_REF_llvm
	add	sp, sp, #8
	pop	{r4, r5, r6, r7, r8, pc}
.LBB17_3:
	mov	r0, #74
	mov	r1, r8
	bl	mono_aot_SQLite_net_init_method_gshared_mrgctx
	b	.LBB17_1
.Ltmp149:
.LBB17_4:
	ldr	r0, .LCPI17_0
.LPC17_0:
	add	r1, pc, r0
	mov	r0, #225
	bl	p_23_plt__jit_icall_llvm_throw_corlib_exception_abs_trampoline_llvm
	.p2align	2
.LCPI17_0:
	.long	.Ltmp149-(.LPC17_0+8)
.LCPI17_1:
	.long	mono_aot_SQLite_net_llvm_got-(.LPC17_1+8)
.LCPI17_2:
	.long	mono_inited-(.LPC17_2+8)
.Lfunc_end17:
	.size	SQLite_SQLiteConnection_Get_T_REF_object, .Lfunc_end17-SQLite_SQLiteConnection_Get_T_REF_object
.Lexception13:
	.fnend

	.hidden	SQLite_SQLiteConnection_Get_T_REF_System_Linq_Expressions_Expression_1_System_Func_2_T_REF_bool
	.globl	SQLite_SQLiteConnection_Get_T_REF_System_Linq_Expressions_Expression_1_System_Func_2_T_REF_bool
	.p2align	2
	.type	SQLite_SQLiteConnection_Get_T_REF_System_Linq_Expressions_Expression_1_System_Func_2_T_REF_bool,%function
	.code	32
SQLite_SQLiteConnection_Get_T_REF_System_Linq_Expressions_Expression_1_System_Func_2_T_REF_bool:
.Lfunc_begin18:
	.fnstart
	.save	{r4, r5, r6, r8, r11, lr}
	push	{r4, r5, r6, r8, r11, lr}
.Ltmp150:
.Ltmp151:
.Ltmp152:
.Ltmp153:
.Ltmp154:
.Ltmp155:
.Ltmp156:
	.pad	#8
	sub	sp, sp, #8
.Ltmp157:
	mov	r5, r0
	ldr	r0, .LCPI18_2
	mov	r4, r1
.LPC18_2:
	add	r0, pc, r0
	ldr	r0, [r0, #28]
	str	r8, [sp, #4]
	ldr	r6, [sp, #4]
	ldr	r0, [r0]
	cmp	r0, #0
	blne	mono_aot_SQLite_net_icall_cold_wrapper_265
	mov	r0, r6
	bl	p_59_plt__rgctx_fetch_27_llvm
	str	r0, [sp]
	mov	r0, r5
	ldr	r8, [sp]
	bl	p_60_plt_SQLite_SQLiteConnection_Table_T_REF_llvm
	cmp	r0, #0
	beq	.LBB18_3
	mov	r1, r4
	bl	p_61_plt_SQLite_TableQuery_1_T_REF_Where_System_Linq_Expressions_Expression_1_System_Func_2_T_REF_bool_llvm
	cmp	r0, #0
	beq	.LBB18_4
	bl	p_62_plt_SQLite_TableQuery_1_T_REF_First_llvm
	add	sp, sp, #8
	pop	{r4, r5, r6, r8, r11, pc}
.Ltmp158:
.LBB18_3:
	ldr	r0, .LCPI18_1
.LPC18_1:
	add	r1, pc, r0
	mov	r0, #225
	bl	p_23_plt__jit_icall_llvm_throw_corlib_exception_abs_trampoline_llvm
.Ltmp159:
.LBB18_4:
	ldr	r0, .LCPI18_0
.LPC18_0:
	add	r1, pc, r0
	mov	r0, #225
	bl	p_23_plt__jit_icall_llvm_throw_corlib_exception_abs_trampoline_llvm
	.p2align	2
.LCPI18_0:
	.long	.Ltmp159-(.LPC18_0+8)
.LCPI18_1:
	.long	.Ltmp158-(.LPC18_1+8)
.LCPI18_2:
	.long	mono_aot_SQLite_net_llvm_got-(.LPC18_2+8)
.Lfunc_end18:
	.size	SQLite_SQLiteConnection_Get_T_REF_System_Linq_Expressions_Expression_1_System_Func_2_T_REF_bool, .Lfunc_end18-SQLite_SQLiteConnection_Get_T_REF_System_Linq_Expressions_Expression_1_System_Func_2_T_REF_bool
.Lexception14:
	.fnend

	.hidden	SQLite_SQLiteConnection_Find_T_REF_object
	.globl	SQLite_SQLiteConnection_Find_T_REF_object
	.p2align	2
	.type	SQLite_SQLiteConnection_Find_T_REF_object,%function
	.code	32
SQLite_SQLiteConnection_Find_T_REF_object:
.Lfunc_begin19:
	.fnstart
	.save	{r4, r5, r6, r7, r8, lr}
	push	{r4, r5, r6, r7, r8, lr}
.Ltmp160:
.Ltmp161:
.Ltmp162:
.Ltmp163:
.Ltmp164:
.Ltmp165:
.Ltmp166:
	.pad	#8
	sub	sp, sp, #8
.Ltmp167:
	ldr	r7, .LCPI19_1
	mov	r4, r0
	ldr	r0, .LCPI19_2
	mov	r5, r1
.LPC19_1:
	add	r7, pc, r7
.LPC19_2:
	add	r0, pc, r0
	ldr	r1, [r7, #28]
	ldrb	r6, [r0, #77]
	str	r8, [sp, #4]
	ldr	r0, [r1]
	cmp	r0, #0
	blne	mono_aot_SQLite_net_icall_cold_wrapper_265
	cmp	r6, #0
	beq	.LBB19_3
.LBB19_1:
	ldr	r0, [sp, #4]
	bl	p_63_plt__rgctx_fetch_28_llvm
	mov	r1, r0
	mov	r0, r4
	mov	r2, #0
	bl	p_2_plt_SQLite_SQLiteConnection_GetMapping_System_Type_SQLite_CreateFlags_llvm
	cmp	r0, #0
	beq	.LBB19_4
	ldr	r6, [r0, #24]
	mov	r1, #1
	ldr	r0, [r7, #132]
	bl	p_7_plt_wrapper_alloc_object_AllocVector_intptr_intptr_llvm
	mov	r7, r0
	mov	r1, #0
	ldr	r0, [r7]
	mov	r2, r5
	ldr	r3, [r0, #136]
	mov	r0, r7
	blx	r3
	ldr	r0, [sp, #4]
	bl	p_64_plt__rgctx_fetch_29_llvm
	str	r0, [sp]
	mov	r0, r4
	ldr	r8, [sp]
	mov	r1, r6
	mov	r2, r7
	bl	p_65_plt_SQLite_SQLiteConnection_Query_T_REF_string_object___0_llvm
	mov	r4, r0
	ldr	r0, [sp, #4]
	bl	p_66_plt__rgctx_fetch_30_llvm
	str	r0, [sp]
	mov	r0, r4
	ldr	r8, [sp]
	bl	p_67_plt_System_Linq_Enumerable_FirstOrDefault_T_REF_System_Collections_Generic_IEnumerable_1_T_REF_llvm
	add	sp, sp, #8
	pop	{r4, r5, r6, r7, r8, pc}
.LBB19_3:
	mov	r0, #77
	mov	r1, r8
	bl	mono_aot_SQLite_net_init_method_gshared_mrgctx
	b	.LBB19_1
.Ltmp168:
.LBB19_4:
	ldr	r0, .LCPI19_0
.LPC19_0:
	add	r1, pc, r0
	mov	r0, #225
	bl	p_23_plt__jit_icall_llvm_throw_corlib_exception_abs_trampoline_llvm
	.p2align	2
.LCPI19_0:
	.long	.Ltmp168-(.LPC19_0+8)
.LCPI19_1:
	.long	mono_aot_SQLite_net_llvm_got-(.LPC19_1+8)
.LCPI19_2:
	.long	mono_inited-(.LPC19_2+8)
.Lfunc_end19:
	.size	SQLite_SQLiteConnection_Find_T_REF_object, .Lfunc_end19-SQLite_SQLiteConnection_Find_T_REF_object
.Lexception15:
	.fnend

	.hidden	SQLite_SQLiteConnection_Find_T_REF_System_Linq_Expressions_Expression_1_System_Func_2_T_REF_bool
	.globl	SQLite_SQLiteConnection_Find_T_REF_System_Linq_Expressions_Expression_1_System_Func_2_T_REF_bool
	.p2align	2
	.type	SQLite_SQLiteConnection_Find_T_REF_System_Linq_Expressions_Expression_1_System_Func_2_T_REF_bool,%function
	.code	32
SQLite_SQLiteConnection_Find_T_REF_System_Linq_Expressions_Expression_1_System_Func_2_T_REF_bool:
.Lfunc_begin20:
	.fnstart
	.save	{r4, r5, r6, r8, r11, lr}
	push	{r4, r5, r6, r8, r11, lr}
.Ltmp169:
.Ltmp170:
.Ltmp171:
.Ltmp172:
.Ltmp173:
.Ltmp174:
.Ltmp175:
	.pad	#8
	sub	sp, sp, #8
.Ltmp176:
	mov	r5, r0
	ldr	r0, .LCPI20_2
	mov	r4, r1
.LPC20_2:
	add	r0, pc, r0
	ldr	r0, [r0, #28]
	str	r8, [sp, #4]
	ldr	r6, [sp, #4]
	ldr	r0, [r0]
	cmp	r0, #0
	blne	mono_aot_SQLite_net_icall_cold_wrapper_265
	mov	r0, r6
	bl	p_68_plt__rgctx_fetch_31_llvm
	str	r0, [sp]
	mov	r0, r5
	ldr	r8, [sp]
	bl	p_69_plt_SQLite_SQLiteConnection_Table_T_REF_0_llvm
	cmp	r0, #0
	beq	.LBB20_3
	mov	r1, r4
	bl	p_70_plt_SQLite_TableQuery_1_T_REF_Where_System_Linq_Expressions_Expression_1_System_Func_2_T_REF_bool_0_llvm
	cmp	r0, #0
	beq	.LBB20_4
	bl	p_71_plt_SQLite_TableQuery_1_T_REF_FirstOrDefault_llvm
	add	sp, sp, #8
	pop	{r4, r5, r6, r8, r11, pc}
.Ltmp177:
.LBB20_3:
	ldr	r0, .LCPI20_1
.LPC20_1:
	add	r1, pc, r0
	mov	r0, #225
	bl	p_23_plt__jit_icall_llvm_throw_corlib_exception_abs_trampoline_llvm
.Ltmp178:
.LBB20_4:
	ldr	r0, .LCPI20_0
.LPC20_0:
	add	r1, pc, r0
	mov	r0, #225
	bl	p_23_plt__jit_icall_llvm_throw_corlib_exception_abs_trampoline_llvm
	.p2align	2
.LCPI20_0:
	.long	.Ltmp178-(.LPC20_0+8)
.LCPI20_1:
	.long	.Ltmp177-(.LPC20_1+8)
.LCPI20_2:
	.long	mono_aot_SQLite_net_llvm_got-(.LPC20_2+8)
.Lfunc_end20:
	.size	SQLite_SQLiteConnection_Find_T_REF_System_Linq_Expressions_Expression_1_System_Func_2_T_REF_bool, .Lfunc_end20-SQLite_SQLiteConnection_Find_T_REF_System_Linq_Expressions_Expression_1_System_Func_2_T_REF_bool
.Lexception16:
	.fnend

	.hidden	SQLite_SQLiteConnection_FindWithQuery_T_REF_string_object__
	.globl	SQLite_SQLiteConnection_FindWithQuery_T_REF_string_object__
	.p2align	2
	.type	SQLite_SQLiteConnection_FindWithQuery_T_REF_string_object__,%function
	.code	32
SQLite_SQLiteConnection_FindWithQuery_T_REF_string_object__:
.Lfunc_begin21:
	.fnstart
	.save	{r4, r5, r6, r7, r8, lr}
	push	{r4, r5, r6, r7, r8, lr}
.Ltmp179:
.Ltmp180:
.Ltmp181:
.Ltmp182:
.Ltmp183:
.Ltmp184:
.Ltmp185:
	.pad	#8
	sub	sp, sp, #8
.Ltmp186:
	mov	r6, r0
	ldr	r0, .LCPI21_0
	mov	r4, r2
	mov	r5, r1
.LPC21_0:
	add	r0, pc, r0
	ldr	r0, [r0, #28]
	str	r8, [sp, #4]
	ldr	r7, [sp, #4]
	ldr	r0, [r0]
	cmp	r0, #0
	blne	mono_aot_SQLite_net_icall_cold_wrapper_265
	mov	r0, r7
	bl	p_72_plt__rgctx_fetch_32_llvm
	str	r0, [sp]
	mov	r0, r6
	ldr	r8, [sp]
	mov	r1, r5
	mov	r2, r4
	bl	p_73_plt_SQLite_SQLiteConnection_Query_T_REF_string_object___1_llvm
	mov	r4, r0
	ldr	r0, [sp, #4]
	bl	p_74_plt__rgctx_fetch_33_llvm
	str	r0, [sp]
	mov	r0, r4
	ldr	r8, [sp]
	bl	p_75_plt_System_Linq_Enumerable_FirstOrDefault_T_REF_System_Collections_Generic_IEnumerable_1_T_REF_0_llvm
	add	sp, sp, #8
	pop	{r4, r5, r6, r7, r8, pc}
	.p2align	2
.LCPI21_0:
	.long	mono_aot_SQLite_net_llvm_got-(.LPC21_0+8)
.Lfunc_end21:
	.size	SQLite_SQLiteConnection_FindWithQuery_T_REF_string_object__, .Lfunc_end21-SQLite_SQLiteConnection_FindWithQuery_T_REF_string_object__
.Lexception17:
	.fnend

	.hidden	SQLite_SQLiteConnection_Delete_T_REF_object
	.globl	SQLite_SQLiteConnection_Delete_T_REF_object
	.p2align	2
	.type	SQLite_SQLiteConnection_Delete_T_REF_object,%function
	.code	32
SQLite_SQLiteConnection_Delete_T_REF_object:
.Lfunc_begin22:
	.fnstart
	.save	{r4, r5, r6, lr}
	push	{r4, r5, r6, lr}
.Ltmp187:
.Ltmp188:
.Ltmp189:
.Ltmp190:
.Ltmp191:
	.pad	#8
	sub	sp, sp, #8
.Ltmp192:
	mov	r5, r0
	ldr	r0, .LCPI22_0
	mov	r4, r1
.LPC22_0:
	add	r0, pc, r0
	ldr	r0, [r0, #28]
	str	r8, [sp, #4]
	ldr	r6, [sp, #4]
	ldr	r0, [r0]
	cmp	r0, #0
	blne	mono_aot_SQLite_net_icall_cold_wrapper_265
	mov	r0, r6
	bl	p_76_plt__rgctx_fetch_34_llvm
	mov	r1, r0
	mov	r0, r5
	mov	r2, #0
	bl	p_2_plt_SQLite_SQLiteConnection_GetMapping_System_Type_SQLite_CreateFlags_llvm
	mov	r2, r0
	mov	r0, r5
	mov	r1, r4
	bl	p_77_plt_SQLite_SQLiteConnection_Delete_object_SQLite_TableMapping_llvm
	add	sp, sp, #8
	pop	{r4, r5, r6, pc}
	.p2align	2
.LCPI22_0:
	.long	mono_aot_SQLite_net_llvm_got-(.LPC22_0+8)
.Lfunc_end22:
	.size	SQLite_SQLiteConnection_Delete_T_REF_object, .Lfunc_end22-SQLite_SQLiteConnection_Delete_T_REF_object
.Lexception18:
	.fnend

	.hidden	SQLite_SQLiteConnection_DeleteAll_T_REF
	.globl	SQLite_SQLiteConnection_DeleteAll_T_REF
	.p2align	2
	.type	SQLite_SQLiteConnection_DeleteAll_T_REF,%function
	.code	32
SQLite_SQLiteConnection_DeleteAll_T_REF:
.Lfunc_begin23:
	.fnstart
	.save	{r4, r5, r11, lr}
	push	{r4, r5, r11, lr}
.Ltmp193:
.Ltmp194:
.Ltmp195:
.Ltmp196:
.Ltmp197:
	.pad	#8
	sub	sp, sp, #8
.Ltmp198:
	mov	r4, r0
	ldr	r0, .LCPI23_0
.LPC23_0:
	add	r0, pc, r0
	ldr	r0, [r0, #28]
	str	r8, [sp, #4]
	ldr	r5, [sp, #4]
	ldr	r0, [r0]
	cmp	r0, #0
	blne	mono_aot_SQLite_net_icall_cold_wrapper_265
	mov	r0, r5
	bl	p_78_plt__rgctx_fetch_35_llvm
	mov	r1, r0
	mov	r0, r4
	mov	r2, #0
	bl	p_2_plt_SQLite_SQLiteConnection_GetMapping_System_Type_SQLite_CreateFlags_llvm
	mov	r1, r0
	mov	r0, r4
	bl	p_79_plt_SQLite_SQLiteConnection_DeleteAll_SQLite_TableMapping_llvm
	add	sp, sp, #8
	pop	{r4, r5, r11, pc}
	.p2align	2
.LCPI23_0:
	.long	mono_aot_SQLite_net_llvm_got-(.LPC23_0+8)
.Lfunc_end23:
	.size	SQLite_SQLiteConnection_DeleteAll_T_REF, .Lfunc_end23-SQLite_SQLiteConnection_DeleteAll_T_REF
.Lexception19:
	.fnend

	.hidden	SQLite_EnumCache_GetInfo_T_REF
	.globl	SQLite_EnumCache_GetInfo_T_REF
	.p2align	2
	.type	SQLite_EnumCache_GetInfo_T_REF,%function
	.code	32
SQLite_EnumCache_GetInfo_T_REF:
.Lfunc_begin24:
	.fnstart
	.save	{r4, lr}
	push	{r4, lr}
.Ltmp199:
.Ltmp200:
.Ltmp201:
	.pad	#8
	sub	sp, sp, #8
.Ltmp202:
	ldr	r0, .LCPI24_0
	ldr	r1, .LCPI24_1
.LPC24_0:
	add	r0, pc, r0
.LPC24_1:
	add	r1, pc, r1
	ldr	r0, [r0, #28]
	ldrb	r4, [r1, #269]
	str	r8, [sp, #4]
	ldr	r0, [r0]
	cmp	r0, #0
	blne	mono_aot_SQLite_net_icall_cold_wrapper_265
	cmp	r4, #0
	beq	.LBB24_2
.LBB24_1:
	ldr	r0, [sp, #4]
	bl	p_80_plt__rgctx_fetch_36_llvm
	bl	p_81_plt_SQLite_EnumCache_GetInfo_System_Type_llvm
	add	sp, sp, #8
	pop	{r4, pc}
.LBB24_2:
	movw	r0, #269
	mov	r1, r8
	bl	mono_aot_SQLite_net_init_method_gshared_mrgctx
	b	.LBB24_1
	.p2align	2
.LCPI24_0:
	.long	mono_aot_SQLite_net_llvm_got-(.LPC24_0+8)
.LCPI24_1:
	.long	mono_inited-(.LPC24_1+8)
.Lfunc_end24:
	.size	SQLite_EnumCache_GetInfo_T_REF, .Lfunc_end24-SQLite_EnumCache_GetInfo_T_REF
.Lexception20:
	.fnend

	.hidden	SQLite_SQLiteCommand_ExecuteDeferredQuery_T_REF
	.globl	SQLite_SQLiteCommand_ExecuteDeferredQuery_T_REF
	.p2align	2
	.type	SQLite_SQLiteCommand_ExecuteDeferredQuery_T_REF,%function
	.code	32
SQLite_SQLiteCommand_ExecuteDeferredQuery_T_REF:
.Lfunc_begin25:
	.fnstart
	.save	{r4, r5, r8, lr}
	push	{r4, r5, r8, lr}
.Ltmp203:
.Ltmp204:
.Ltmp205:
.Ltmp206:
.Ltmp207:
	.pad	#8
	sub	sp, sp, #8
.Ltmp208:
	mov	r4, r0
	ldr	r0, .LCPI25_2
.LPC25_2:
	add	r0, pc, r0
	ldr	r0, [r0, #28]
	str	r8, [sp, #4]
	ldr	r0, [r0]
	cmp	r0, #0
	blne	mono_aot_SQLite_net_icall_cold_wrapper_265
	cmp	r4, #0
	beq	.LBB25_3
	ldr	r5, [r4, #8]
	ldr	r0, [sp, #4]
	bl	p_82_plt__rgctx_fetch_37_llvm
	mov	r1, r0
	cmp	r5, #0
	beq	.LBB25_4
	mov	r0, r5
	mov	r2, #0
	bl	p_2_plt_SQLite_SQLiteConnection_GetMapping_System_Type_SQLite_CreateFlags_llvm
	mov	r5, r0
	ldr	r0, [sp, #4]
	bl	p_83_plt__rgctx_fetch_38_llvm
	str	r0, [sp]
	mov	r0, r4
	ldr	r8, [sp]
	mov	r1, r5
	bl	p_84_plt_SQLite_SQLiteCommand_ExecuteDeferredQuery_T_REF_SQLite_TableMapping_llvm
	add	sp, sp, #8
	pop	{r4, r5, r8, pc}
.Ltmp209:
.LBB25_3:
	ldr	r0, .LCPI25_1
.LPC25_1:
	add	r1, pc, r0
	mov	r0, #225
	bl	p_23_plt__jit_icall_llvm_throw_corlib_exception_abs_trampoline_llvm
.Ltmp210:
.LBB25_4:
	ldr	r0, .LCPI25_0
.LPC25_0:
	add	r1, pc, r0
	mov	r0, #225
	bl	p_23_plt__jit_icall_llvm_throw_corlib_exception_abs_trampoline_llvm
	.p2align	2
.LCPI25_0:
	.long	.Ltmp210-(.LPC25_0+8)
.LCPI25_1:
	.long	.Ltmp209-(.LPC25_1+8)
.LCPI25_2:
	.long	mono_aot_SQLite_net_llvm_got-(.LPC25_2+8)
.Lfunc_end25:
	.size	SQLite_SQLiteCommand_ExecuteDeferredQuery_T_REF, .Lfunc_end25-SQLite_SQLiteCommand_ExecuteDeferredQuery_T_REF
.Lexception21:
	.fnend

	.hidden	SQLite_SQLiteCommand_ExecuteQuery_T_REF
	.globl	SQLite_SQLiteCommand_ExecuteQuery_T_REF
	.p2align	2
	.type	SQLite_SQLiteCommand_ExecuteQuery_T_REF,%function
	.code	32
SQLite_SQLiteCommand_ExecuteQuery_T_REF:
.Lfunc_begin26:
	.fnstart
	.save	{r4, r5, r8, lr}
	push	{r4, r5, r8, lr}
.Ltmp211:
.Ltmp212:
.Ltmp213:
.Ltmp214:
.Ltmp215:
	.pad	#8
	sub	sp, sp, #8
.Ltmp216:
	mov	r4, r0
	ldr	r0, .LCPI26_2
.LPC26_2:
	add	r0, pc, r0
	ldr	r0, [r0, #28]
	str	r8, [sp, #4]
	ldr	r0, [r0]
	cmp	r0, #0
	blne	mono_aot_SQLite_net_icall_cold_wrapper_265
	cmp	r4, #0
	beq	.LBB26_3
	ldr	r5, [r4, #8]
	ldr	r0, [sp, #4]
	bl	p_85_plt__rgctx_fetch_39_llvm
	mov	r1, r0
	cmp	r5, #0
	beq	.LBB26_4
	mov	r0, r5
	mov	r2, #0
	bl	p_2_plt_SQLite_SQLiteConnection_GetMapping_System_Type_SQLite_CreateFlags_llvm
	mov	r5, r0
	ldr	r0, [sp, #4]
	bl	p_86_plt__rgctx_fetch_40_llvm
	str	r0, [sp]
	mov	r0, r4
	ldr	r8, [sp]
	mov	r1, r5
	bl	p_87_plt_SQLite_SQLiteCommand_ExecuteDeferredQuery_T_REF_SQLite_TableMapping_0_llvm
	mov	r4, r0
	ldr	r0, [sp, #4]
	bl	p_88_plt__rgctx_fetch_41_llvm
	str	r0, [sp]
	mov	r0, r4
	ldr	r8, [sp]
	bl	p_89_plt_System_Linq_Enumerable_ToList_T_REF_System_Collections_Generic_IEnumerable_1_T_REF_0_llvm
	add	sp, sp, #8
	pop	{r4, r5, r8, pc}
.Ltmp217:
.LBB26_3:
	ldr	r0, .LCPI26_1
.LPC26_1:
	add	r1, pc, r0
	mov	r0, #225
	bl	p_23_plt__jit_icall_llvm_throw_corlib_exception_abs_trampoline_llvm
.Ltmp218:
.LBB26_4:
	ldr	r0, .LCPI26_0
.LPC26_0:
	add	r1, pc, r0
	mov	r0, #225
	bl	p_23_plt__jit_icall_llvm_throw_corlib_exception_abs_trampoline_llvm
	.p2align	2
.LCPI26_0:
	.long	.Ltmp218-(.LPC26_0+8)
.LCPI26_1:
	.long	.Ltmp217-(.LPC26_1+8)
.LCPI26_2:
	.long	mono_aot_SQLite_net_llvm_got-(.LPC26_2+8)
.Lfunc_end26:
	.size	SQLite_SQLiteCommand_ExecuteQuery_T_REF, .Lfunc_end26-SQLite_SQLiteCommand_ExecuteQuery_T_REF
.Lexception22:
	.fnend

	.hidden	SQLite_SQLiteCommand_ExecuteQuery_T_REF_SQLite_TableMapping
	.globl	SQLite_SQLiteCommand_ExecuteQuery_T_REF_SQLite_TableMapping
	.p2align	2
	.type	SQLite_SQLiteCommand_ExecuteQuery_T_REF_SQLite_TableMapping,%function
	.code	32
SQLite_SQLiteCommand_ExecuteQuery_T_REF_SQLite_TableMapping:
.Lfunc_begin27:
	.fnstart
	.save	{r4, r5, r6, r8, r11, lr}
	push	{r4, r5, r6, r8, r11, lr}
.Ltmp219:
.Ltmp220:
.Ltmp221:
.Ltmp222:
.Ltmp223:
.Ltmp224:
.Ltmp225:
	.pad	#8
	sub	sp, sp, #8
.Ltmp226:
	mov	r5, r0
	ldr	r0, .LCPI27_0
	mov	r4, r1
.LPC27_0:
	add	r0, pc, r0
	ldr	r0, [r0, #28]
	str	r8, [sp, #4]
	ldr	r6, [sp, #4]
	ldr	r0, [r0]
	cmp	r0, #0
	blne	mono_aot_SQLite_net_icall_cold_wrapper_265
	mov	r0, r6
	bl	p_90_plt__rgctx_fetch_42_llvm
	str	r0, [sp]
	mov	r0, r5
	ldr	r8, [sp]
	mov	r1, r4
	bl	p_91_plt_SQLite_SQLiteCommand_ExecuteDeferredQuery_T_REF_SQLite_TableMapping_1_llvm
	mov	r4, r0
	ldr	r0, [sp, #4]
	bl	p_92_plt__rgctx_fetch_43_llvm
	str	r0, [sp]
	mov	r0, r4
	ldr	r8, [sp]
	bl	p_93_plt_System_Linq_Enumerable_ToList_T_REF_System_Collections_Generic_IEnumerable_1_T_REF_1_llvm
	add	sp, sp, #8
	pop	{r4, r5, r6, r8, r11, pc}
	.p2align	2
.LCPI27_0:
	.long	mono_aot_SQLite_net_llvm_got-(.LPC27_0+8)
.Lfunc_end27:
	.size	SQLite_SQLiteCommand_ExecuteQuery_T_REF_SQLite_TableMapping, .Lfunc_end27-SQLite_SQLiteCommand_ExecuteQuery_T_REF_SQLite_TableMapping
.Lexception23:
	.fnend

	.hidden	SQLite_SQLiteCommand_ExecuteDeferredQuery_T_REF_SQLite_TableMapping
	.globl	SQLite_SQLiteCommand_ExecuteDeferredQuery_T_REF_SQLite_TableMapping
	.p2align	2
	.type	SQLite_SQLiteCommand_ExecuteDeferredQuery_T_REF_SQLite_TableMapping,%function
	.code	32
SQLite_SQLiteCommand_ExecuteDeferredQuery_T_REF_SQLite_TableMapping:
.Lfunc_begin28:
	.fnstart
	.save	{r4, r5, r6, r7, r11, lr}
	push	{r4, r5, r6, r7, r11, lr}
.Ltmp227:
.Ltmp228:
.Ltmp229:
.Ltmp230:
.Ltmp231:
.Ltmp232:
.Ltmp233:
	.pad	#8
	sub	sp, sp, #8
.Ltmp234:
	ldr	r7, .LCPI28_0
	mov	r5, r0
	mov	r4, r1
.LPC28_0:
	add	r7, pc, r7
	ldr	r0, [r7, #28]
	str	r8, [sp, #4]
	ldr	r6, [sp, #4]
	ldr	r0, [r0]
	cmp	r0, #0
	blne	mono_aot_SQLite_net_icall_cold_wrapper_265
	mov	r0, r6
	bl	p_94_plt__rgctx_fetch_44_llvm
	mov	r1, #40
	bl	p_40_plt_wrapper_alloc_object_AllocSmall_intptr_intptr_llvm
	mvn	r1, #1
	mov	r6, r0
	bl	p_95_plt_SQLite_SQLiteCommand__ExecuteDeferredQueryd__12_1_T_REF__ctor_int_llvm
	ldr	r0, [r7, #8]
	mov	r1, r6
	dmb	ish
	str	r5, [r1, #12]!
	mov	r2, #1
	strb	r2, [r0, r1, lsr #9]
	mov	r1, r6
	dmb	ish
	str	r4, [r1, #20]!
	strb	r2, [r0, r1, lsr #9]
	mov	r0, r6
	add	sp, sp, #8
	pop	{r4, r5, r6, r7, r11, pc}
	.p2align	2
.LCPI28_0:
	.long	mono_aot_SQLite_net_llvm_got-(.LPC28_0+8)
.Lfunc_end28:
	.size	SQLite_SQLiteCommand_ExecuteDeferredQuery_T_REF_SQLite_TableMapping, .Lfunc_end28-SQLite_SQLiteCommand_ExecuteDeferredQuery_T_REF_SQLite_TableMapping
.Lexception24:
	.fnend

	.hidden	SQLite_SQLiteCommand_ExecuteScalar_T_REF
	.globl	SQLite_SQLiteCommand_ExecuteScalar_T_REF
	.p2align	2
	.type	SQLite_SQLiteCommand_ExecuteScalar_T_REF,%function
	.code	32
SQLite_SQLiteCommand_ExecuteScalar_T_REF:
.Lfunc_begin29:
	.fnstart
	.save	{r4, r5, r6, lr}
	push	{r4, r5, r6, lr}
.Ltmp266:
.Ltmp267:
.Ltmp268:
.Ltmp269:
.Ltmp270:
	.pad	#32
	sub	sp, sp, #32
.Ltmp271:
	ldr	r5, .LCPI29_6
	ldr	r1, .LCPI29_7
.LPC29_6:
	add	r5, pc, r5
.LPC29_7:
	add	r1, pc, r1
	ldr	r2, [r5, #28]
	str	r8, [sp, #28]
	str	r0, [sp, #12]
	ldr	r0, [r2]
	ldrb	r4, [r1, #305]
	cmp	r0, #0
	blne	mono_aot_SQLite_net_icall_cold_wrapper_265
	cmp	r4, #0
	beq	.LBB29_27
.LBB29_1:
	ldr	r0, [sp, #12]
	mov	r1, #0
	str	r1, [sp, #20]
	cmp	r0, #0
	str	r1, [sp, #16]
	beq	.LBB29_28
	ldr	r0, [r0, #8]
	cmp	r0, #0
	beq	.LBB29_29
	bl	p_96_plt_SQLite_SQLiteConnection_get_Trace_llvm
	tst	r0, #255
	beq	.LBB29_11
	ldr	r0, [sp, #12]
	cmp	r0, #0
	beq	.LBB29_33
	ldr	r0, [r0, #8]
	cmp	r0, #0
	beq	.LBB29_34
	bl	p_39_plt_SQLite_SQLiteConnection_get_Tracer_llvm
	mov	r4, r0
	cmp	r4, #0
	beq	.LBB29_11
	ldr	r0, [sp, #12]
	ldr	r5, [r5, #136]
	cmp	r0, #0
	beq	.LBB29_9
	ldr	r1, [r0]
	ldr	r1, [r1, #40]
	blx	r1
	mov	r1, r0
	b	.LBB29_10
.LBB29_9:
	mov	r1, #0
.LBB29_10:
	mov	r0, r5
	bl	p_108_plt_string_Concat_string_string_llvm
	ldr	r2, [r4, #12]
	mov	r1, r0
	mov	r0, r4
	blx	r2
.LBB29_11:
	ldr	r0, [sp, #12]
	mov	r1, #0
	str	r1, [sp, #16]
	bl	p_97_plt_SQLite_SQLiteCommand_Prepare_llvm
	str	r0, [sp, #20]
	ldr	r0, [sp, #20]
.Ltmp235:
	bl	p_98_plt_SQLite_SQLite3_Step_SQLitePCL_sqlite3_stmt_llvm
	mov	r4, r0
.Ltmp236:
	cmp	r4, #100
	bne	.LBB29_21
	ldr	r0, [sp, #20]
.Ltmp239:
	mov	r1, #0
	bl	p_103_plt_SQLite_SQLite3_ColumnType_SQLitePCL_sqlite3_stmt_int_llvm
	mov	r4, r0
.Ltmp240:
	ldr	r5, [sp, #12]
	ldr	r6, [sp, #20]
	ldr	r0, [sp, #28]
.Ltmp241:
	bl	p_104_plt__rgctx_fetch_45_llvm
.Ltmp242:
.Ltmp243:
	str	r0, [sp]
	mov	r0, r5
	mov	r1, r6
	mov	r2, #0
	mov	r3, r4
	bl	p_105_plt_SQLite_SQLiteCommand_ReadCol_SQLitePCL_sqlite3_stmt_int_SQLite_SQLite3_ColType_System_Type_llvm
	mov	r4, r0
.Ltmp244:
	cmp	r4, #0
	beq	.LBB29_24
	ldr	r0, [sp, #28]
.Ltmp245:
	bl	p_106_plt__rgctx_fetch_46_llvm
	mov	r2, r0
.Ltmp246:
	ldr	r1, [r2, #4]
.Ltmp247:
	mov	r0, r4
	bl	p_107_plt_wrapper_castclass_object___castclass_with_cache_object_intptr_intptr_llvm
.Ltmp248:
	mov	r1, #0
	ldr	r2, [sp, #12]
	str	r1, [sp, #24]
	ldr	r1, [sp, #20]
	str	r0, [sp, #16]
	mov	r0, r2
	bl	p_109_plt_SQLite_SQLiteCommand_Finalize_SQLitePCL_sqlite3_stmt_llvm
	ldr	r0, [sp, #24]
	cmp	r0, #0
	beq	.LBB29_26
.Ltmp249:
	bl	p_102_plt__jit_icall_ves_icall_thread_finish_async_abort_llvm
.Ltmp250:
	b	.LBB29_26
.LBB29_21:
	cmp	r4, #101
	bne	.LBB29_30
	ldr	r0, [sp, #12]
	mov	r2, #0
	ldr	r1, [sp, #20]
	str	r2, [sp, #24]
	bl	p_109_plt_SQLite_SQLiteCommand_Finalize_SQLitePCL_sqlite3_stmt_llvm
	ldr	r0, [sp, #24]
	cmp	r0, #0
	beq	.LBB29_26
.Ltmp237:
	bl	p_102_plt__jit_icall_ves_icall_thread_finish_async_abort_llvm
.Ltmp238:
	b	.LBB29_26
.LBB29_24:
	ldr	r0, [sp, #12]
	mov	r2, #0
	ldr	r1, [sp, #20]
	str	r2, [sp, #24]
	bl	p_109_plt_SQLite_SQLiteCommand_Finalize_SQLitePCL_sqlite3_stmt_llvm
	ldr	r0, [sp, #24]
	cmp	r0, #0
	beq	.LBB29_26
.Ltmp251:
	bl	p_102_plt__jit_icall_ves_icall_thread_finish_async_abort_llvm
.Ltmp252:
.LBB29_26:
	ldr	r0, [sp, #16]
	str	r0, [sp, #8]
	ldr	r0, [sp, #8]
	add	sp, sp, #32
	pop	{r4, r5, r6, pc}
.LBB29_27:
	movw	r0, #305
	mov	r1, r8
	bl	mono_aot_SQLite_net_init_method_gshared_mrgctx
	b	.LBB29_1
.Ltmp272:
.LBB29_28:
	ldr	r0, .LCPI29_5
.LPC29_5:
	add	r1, pc, r0
	mov	r0, #225
	bl	p_23_plt__jit_icall_llvm_throw_corlib_exception_abs_trampoline_llvm
.Ltmp273:
.LBB29_29:
	ldr	r0, .LCPI29_4
.LPC29_4:
	add	r1, pc, r0
	mov	r0, #225
	bl	p_23_plt__jit_icall_llvm_throw_corlib_exception_abs_trampoline_llvm
.LBB29_30:
	ldr	r0, [sp, #12]
	cmp	r0, #0
	bne	.LBB29_35
.Ltmp274:
	ldr	r0, .LCPI29_3
.Ltmp263:
.LPC29_3:
	add	r1, pc, r0
	mov	r0, #225
	bl	p_23_plt__jit_icall_llvm_throw_corlib_exception_abs_trampoline_llvm
.Ltmp264:
.Ltmp275:
.LBB29_33:
	ldr	r0, .LCPI29_1
.LPC29_1:
	add	r1, pc, r0
	mov	r0, #225
	bl	p_23_plt__jit_icall_llvm_throw_corlib_exception_abs_trampoline_llvm
.Ltmp276:
.LBB29_34:
	ldr	r0, .LCPI29_0
.LPC29_0:
	add	r1, pc, r0
	mov	r0, #225
	bl	p_23_plt__jit_icall_llvm_throw_corlib_exception_abs_trampoline_llvm
.LBB29_35:
	ldr	r0, [r0, #8]
	cmp	r0, #0
	bne	.LBB29_38
.Ltmp277:
	ldr	r0, .LCPI29_2
.Ltmp261:
.LPC29_2:
	add	r1, pc, r0
	mov	r0, #225
	bl	p_23_plt__jit_icall_llvm_throw_corlib_exception_abs_trampoline_llvm
.Ltmp262:
.LBB29_38:
.Ltmp253:
	bl	p_99_plt_SQLite_SQLiteConnection_get_Handle_llvm
.Ltmp254:
.Ltmp255:
	bl	p_100_plt_SQLite_SQLite3_GetErrmsg_SQLitePCL_sqlite3_llvm
	mov	r1, r0
.Ltmp256:
.Ltmp257:
	mov	r0, r4
	bl	p_101_plt_SQLite_SQLiteException_New_SQLite_SQLite3_Result_string_llvm
.Ltmp258:
.Ltmp259:
	bl	p_32_plt__jit_icall_mono_arch_throw_exception_llvm
.Ltmp260:
.LBB29_43:
.Ltmp265:
	ldr	r0, [sp, #12]
	ldr	r1, [sp, #20]
	bl	p_109_plt_SQLite_SQLiteCommand_Finalize_SQLitePCL_sqlite3_stmt_llvm
	bl	p_110_plt__jit_icall_llvm_resume_unwind_trampoline_llvm
	.p2align	2
.LCPI29_0:
	.long	.Ltmp276-(.LPC29_0+8)
.LCPI29_1:
	.long	.Ltmp275-(.LPC29_1+8)
.LCPI29_2:
	.long	.Ltmp277-(.LPC29_2+8)
.LCPI29_3:
	.long	.Ltmp274-(.LPC29_3+8)
.LCPI29_4:
	.long	.Ltmp273-(.LPC29_4+8)
.LCPI29_5:
	.long	.Ltmp272-(.LPC29_5+8)
.LCPI29_6:
	.long	mono_aot_SQLite_net_llvm_got-(.LPC29_6+8)
.LCPI29_7:
	.long	mono_inited-(.LPC29_7+8)
.Lfunc_end29:
	.size	SQLite_SQLiteCommand_ExecuteScalar_T_REF, .Lfunc_end29-SQLite_SQLiteCommand_ExecuteScalar_T_REF
.Lexception25:
	.fnend

	.hidden	SQLite_SQLiteCommand_ExecuteQueryScalars_T_REF
	.globl	SQLite_SQLiteCommand_ExecuteQueryScalars_T_REF
	.p2align	2
	.type	SQLite_SQLiteCommand_ExecuteQueryScalars_T_REF,%function
	.code	32
SQLite_SQLiteCommand_ExecuteQueryScalars_T_REF:
.Lfunc_begin30:
	.fnstart
	.save	{r4, r5, r6, lr}
	push	{r4, r5, r6, lr}
.Ltmp278:
.Ltmp279:
.Ltmp280:
.Ltmp281:
.Ltmp282:
	.pad	#8
	sub	sp, sp, #8
.Ltmp283:
	ldr	r6, .LCPI30_0
	mov	r4, r0
.LPC30_0:
	add	r6, pc, r6
	ldr	r0, [r6, #28]
	str	r8, [sp, #4]
	ldr	r5, [sp, #4]
	ldr	r0, [r0]
	cmp	r0, #0
	blne	mono_aot_SQLite_net_icall_cold_wrapper_265
	mov	r0, r5
	bl	p_111_plt__rgctx_fetch_47_llvm
	mov	r1, #28
	bl	p_40_plt_wrapper_alloc_object_AllocSmall_intptr_intptr_llvm
	mvn	r1, #1
	mov	r5, r0
	bl	p_112_plt_SQLite_SQLiteCommand__ExecuteQueryScalarsd__14_1_T_REF__ctor_int_llvm
	ldr	r0, [r6, #8]
	mov	r1, r5
	dmb	ish
	str	r4, [r1, #12]!
	mov	r2, #1
	strb	r2, [r0, r1, lsr #9]
	mov	r0, r5
	add	sp, sp, #8
	pop	{r4, r5, r6, pc}
	.p2align	2
.LCPI30_0:
	.long	mono_aot_SQLite_net_llvm_got-(.LPC30_0+8)
.Lfunc_end30:
	.size	SQLite_SQLiteCommand_ExecuteQueryScalars_T_REF, .Lfunc_end30-SQLite_SQLiteCommand_ExecuteQueryScalars_T_REF
.Lexception26:
	.fnend

	.hidden	SQLite_SQLiteCommand__ExecuteDeferredQueryd__12_1_T_REF__ctor_int
	.globl	SQLite_SQLiteCommand__ExecuteDeferredQueryd__12_1_T_REF__ctor_int
	.p2align	2
	.type	SQLite_SQLiteCommand__ExecuteDeferredQueryd__12_1_T_REF__ctor_int,%function
	.code	32
SQLite_SQLiteCommand__ExecuteDeferredQueryd__12_1_T_REF__ctor_int:
.Lfunc_begin31:
	.fnstart
	.save	{r4, r5, r11, lr}
	push	{r4, r5, r11, lr}
.Ltmp284:
.Ltmp285:
.Ltmp286:
.Ltmp287:
.Ltmp288:
	.pad	#8
	sub	sp, sp, #8
.Ltmp289:
	mov	r4, r1
	ldr	r1, .LCPI31_2
.LPC31_2:
	add	r1, pc, r1
	ldr	r1, [r1, #28]
	str	r0, [sp]
	str	r0, [sp, #4]
	ldr	r5, [sp, #4]
	ldr	r0, [r1]
	cmp	r0, #0
	blne	mono_aot_SQLite_net_icall_cold_wrapper_265
	cmp	r5, #0
	beq	.LBB31_3
	str	r4, [r5, #32]
	ldr	r4, [sp, #4]
	bl	p_113_plt_System_Environment_get_CurrentManagedThreadId_llvm
	cmp	r4, #0
	strne	r0, [r4, #36]
	addne	sp, sp, #8
	popne	{r4, r5, r11, pc}
.Ltmp290:
.LBB31_2:
	ldr	r0, .LCPI31_0
.LPC31_0:
	add	r1, pc, r0
	mov	r0, #225
	bl	p_23_plt__jit_icall_llvm_throw_corlib_exception_abs_trampoline_llvm
.Ltmp291:
.LBB31_3:
	ldr	r0, .LCPI31_1
.LPC31_1:
	add	r1, pc, r0
	mov	r0, #225
	bl	p_23_plt__jit_icall_llvm_throw_corlib_exception_abs_trampoline_llvm
	.p2align	2
.LCPI31_0:
	.long	.Ltmp290-(.LPC31_0+8)
.LCPI31_1:
	.long	.Ltmp291-(.LPC31_1+8)
.LCPI31_2:
	.long	mono_aot_SQLite_net_llvm_got-(.LPC31_2+8)
.Lfunc_end31:
	.size	SQLite_SQLiteCommand__ExecuteDeferredQueryd__12_1_T_REF__ctor_int, .Lfunc_end31-SQLite_SQLiteCommand__ExecuteDeferredQueryd__12_1_T_REF__ctor_int
.Lexception27:
	.fnend

	.hidden	SQLite_SQLiteCommand__ExecuteDeferredQueryd__12_1_T_REF_System_IDisposable_Dispose
	.globl	SQLite_SQLiteCommand__ExecuteDeferredQueryd__12_1_T_REF_System_IDisposable_Dispose
	.p2align	2
	.type	SQLite_SQLiteCommand__ExecuteDeferredQueryd__12_1_T_REF_System_IDisposable_Dispose,%function
	.code	32
SQLite_SQLiteCommand__ExecuteDeferredQueryd__12_1_T_REF_System_IDisposable_Dispose:
.Lfunc_begin32:
	.fnstart
	.save	{r4, lr}
	push	{r4, lr}
.Ltmp295:
.Ltmp296:
.Ltmp297:
	.pad	#16
	sub	sp, sp, #16
.Ltmp298:
	ldr	r1, .LCPI32_1
.LPC32_1:
	add	r1, pc, r1
	ldr	r1, [r1, #28]
	str	r0, [sp, #4]
	str	r0, [sp, #8]
	ldr	r4, [sp, #8]
	ldr	r0, [r1]
	cmp	r0, #0
	blne	mono_aot_SQLite_net_icall_cold_wrapper_265
	cmp	r4, #0
	beq	.LBB32_5
	ldr	r0, [r4, #32]
	cmp	r0, #1
	cmnne	r0, #3
	bne	.LBB32_4
	ldr	r0, [sp, #8]
	mov	r1, #0
	str	r1, [sp, #12]
	bl	p_114_plt_SQLite_SQLiteCommand__ExecuteDeferredQueryd__12_1_T_REF__m__Finally1_llvm
	ldr	r0, [sp, #12]
	cmp	r0, #0
	beq	.LBB32_4
.Ltmp292:
	bl	p_102_plt__jit_icall_ves_icall_thread_finish_async_abort_llvm
.Ltmp293:
.LBB32_4:
	add	sp, sp, #16
	pop	{r4, pc}
.Ltmp299:
.LBB32_5:
	ldr	r0, .LCPI32_0
.LPC32_0:
	add	r1, pc, r0
	mov	r0, #225
	bl	p_23_plt__jit_icall_llvm_throw_corlib_exception_abs_trampoline_llvm
.LBB32_6:
.Ltmp294:
	ldr	r0, [sp, #8]
	bl	p_114_plt_SQLite_SQLiteCommand__ExecuteDeferredQueryd__12_1_T_REF__m__Finally1_llvm
	bl	p_110_plt__jit_icall_llvm_resume_unwind_trampoline_llvm
	.p2align	2
.LCPI32_0:
	.long	.Ltmp299-(.LPC32_0+8)
.LCPI32_1:
	.long	mono_aot_SQLite_net_llvm_got-(.LPC32_1+8)
.Lfunc_end32:
	.size	SQLite_SQLiteCommand__ExecuteDeferredQueryd__12_1_T_REF_System_IDisposable_Dispose, .Lfunc_end32-SQLite_SQLiteCommand__ExecuteDeferredQueryd__12_1_T_REF_System_IDisposable_Dispose
.Lexception28:
	.fnend

	.hidden	SQLite_SQLiteCommand__ExecuteDeferredQueryd__12_1_T_REF_MoveNext
	.globl	SQLite_SQLiteCommand__ExecuteDeferredQueryd__12_1_T_REF_MoveNext
	.p2align	2
	.type	SQLite_SQLiteCommand__ExecuteDeferredQueryd__12_1_T_REF_MoveNext,%function
	.code	32
SQLite_SQLiteCommand__ExecuteDeferredQueryd__12_1_T_REF_MoveNext:
.Lfunc_begin33:
	.fnstart
	.save	{r4, r5, r6, r7, r9, r10, r11, lr}
	push	{r4, r5, r6, r7, r9, r10, r11, lr}
.Ltmp423:
.Ltmp424:
.Ltmp425:
.Ltmp426:
.Ltmp427:
.Ltmp428:
.Ltmp429:
.Ltmp430:
.Ltmp431:
	.pad	#16
	sub	sp, sp, #16
.Ltmp432:
	mov	r4, r0
	ldr	r0, .LCPI33_40
	ldr	r9, .LCPI33_41
.LPC33_40:
	add	r0, pc, r0
.LPC33_41:
	add	r9, pc, r9
	ldrb	r5, [r0, #325]
	ldr	r0, [r9, #28]
	str	r4, [sp, #8]
	str	r4, [sp, #12]
	ldr	r0, [r0]
	cmp	r0, #0
	blne	mono_aot_SQLite_net_icall_cold_wrapper_265
	cmp	r5, #0
	beq	.LBB33_80
.LBB33_1:
	ldr	r0, [sp, #12]
	cmp	r0, #0
	beq	.LBB33_121
	ldr	r0, [r0, #32]
	ldr	r1, [sp, #12]
	cmp	r1, #0
	beq	.LBB33_123
	ldr	r4, [r1, #12]
	cmp	r0, #0
	beq	.LBB33_7
	mov	r5, #0
	cmp	r0, #1
	bne	.LBB33_79
	ldr	r0, [sp, #12]
	cmp	r0, #0
	beq	.LBB33_127
	mvn	r1, #2
	str	r1, [r0, #32]
	b	.LBB33_40
.LBB33_7:
	ldr	r0, [sp, #12]
	cmp	r0, #0
	beq	.LBB33_129
	mvn	r1, #0
	cmp	r4, #0
	str	r1, [r0, #32]
	beq	.LBB33_131
	ldr	r0, [r4, #8]
	cmp	r0, #0
	beq	.LBB33_133
.Ltmp302:
	bl	p_96_plt_SQLite_SQLiteConnection_get_Trace_llvm
.Ltmp303:
	tst	r0, #255
	beq	.LBB33_18
	ldr	r0, [r4, #8]
	cmp	r0, #0
	beq	.LBB33_149
.Ltmp304:
	bl	p_39_plt_SQLite_SQLiteConnection_get_Tracer_llvm
	mov	r5, r0
.Ltmp305:
	cmp	r5, #0
	beq	.LBB33_18
	ldr	r0, [r4]
	ldr	r1, [r0, #40]
.Ltmp306:
	mov	r0, r4
	blx	r1
	mov	r1, r0
.Ltmp307:
	ldr	r0, [r9, #136]
.Ltmp308:
	bl	p_108_plt_string_Concat_string_string_llvm
	mov	r1, r0
.Ltmp309:
	ldr	r2, [r5, #12]
.Ltmp310:
	mov	r0, r5
	blx	r2
.Ltmp311:
.LBB33_18:
	ldr	r6, [sp, #12]
.Ltmp314:
	mov	r0, r4
	bl	p_97_plt_SQLite_SQLiteCommand_Prepare_llvm
.Ltmp315:
	cmp	r6, #0
	beq	.LBB33_135
	ldr	r5, [r9, #8]
	dmb	ish
	str	r0, [r6, #24]!
	mov	r0, #1
	strb	r0, [r5, r6, lsr #9]
	ldr	r0, [sp, #12]
	cmp	r0, #0
	beq	.LBB33_137
	mvn	r1, #2
	str	r1, [r0, #32]
	ldr	r6, [sp, #12]
	ldr	r0, [sp, #12]
	cmp	r0, #0
	beq	.LBB33_139
	ldr	r0, [r0, #24]
.Ltmp316:
	bl	p_115_plt_SQLite_SQLite3_ColumnCount_SQLitePCL_sqlite3_stmt_llvm
	mov	r1, r0
.Ltmp317:
	ldr	r0, [r9, #140]
.Ltmp318:
	bl	p_7_plt_wrapper_alloc_object_AllocVector_intptr_intptr_llvm
.Ltmp319:
	cmp	r6, #0
	beq	.LBB33_141
	dmb	ish
	str	r0, [r6, #28]!
	mov	r1, #1
	lsr	r0, r6, #9
	strb	r1, [r0, r5]
	ldr	r6, [sp, #12]
	cmp	r6, #0
	beq	.LBB33_38
	mov	r5, #0
.LBB33_27:
	ldr	r0, [r6, #28]
	cmp	r0, #0
	beq	.LBB33_81
	ldr	r0, [r0, #12]
	cmp	r5, r0
	bge	.LBB33_40
	ldr	r0, [sp, #12]
	cmp	r0, #0
	beq	.LBB33_83
	ldr	r0, [r0, #24]
.Ltmp383:
	mov	r1, r5
	bl	p_116_plt_SQLite_SQLite3_ColumnName16_SQLitePCL_sqlite3_stmt_int_llvm
	mov	r1, r0
.Ltmp384:
	ldr	r0, [sp, #12]
	cmp	r0, #0
	beq	.LBB33_85
	ldr	r6, [r0, #28]
	ldr	r0, [sp, #12]
	cmp	r0, #0
	beq	.LBB33_87
	ldr	r0, [r0, #16]
	cmp	r0, #0
	beq	.LBB33_89
.Ltmp385:
	bl	p_117_plt_SQLite_TableMapping_FindColumn_string_llvm
	mov	r2, r0
.Ltmp386:
	cmp	r6, #0
	beq	.LBB33_91
	ldr	r0, [r6]
	ldr	r3, [r0, #136]
.Ltmp387:
	mov	r0, r6
	mov	r1, r5
	blx	r3
.Ltmp388:
	ldr	r0, [r9, #28]
	ldr	r6, [sp, #12]
	ldr	r0, [r0]
	cmp	r0, #0
	blne	mono_aot_SQLite_net_icall_cold_wrapper_265
	add	r5, r5, #1
	cmp	r6, #0
	bne	.LBB33_27
.Ltmp433:
.LBB33_38:
	ldr	r0, .LCPI33_30
.Ltmp402:
.LPC33_30:
	add	r1, pc, r0
	mov	r0, #225
	bl	p_23_plt__jit_icall_llvm_throw_corlib_exception_abs_trampoline_llvm
.Ltmp403:
.LBB33_40:
	ldr	r0, [sp, #12]
	cmp	r0, #0
	beq	.LBB33_125
	ldr	r0, [r0, #24]
.Ltmp320:
	bl	p_98_plt_SQLite_SQLite3_Step_SQLitePCL_sqlite3_stmt_llvm
.Ltmp321:
	ldr	r1, [sp, #12]
	cmp	r0, #100
	bne	.LBB33_70
	cmp	r1, #0
	beq	.LBB33_143
	ldr	r0, [r1, #16]
	cmp	r0, #0
	beq	.LBB33_145
	ldr	r0, [r0, #8]
.Ltmp326:
	bl	p_118_plt_System_Activator_CreateInstance_System_Type_llvm
	mov	r10, r0
.Ltmp327:
	ldr	r5, [sp, #12]
	cmp	r5, #0
	beq	.LBB33_68
	mov	r6, #0
	mov	r7, #16
.LBB33_48:
	ldr	r0, [r5, #28]
	cmp	r0, #0
	beq	.LBB33_93
	ldr	r0, [r0, #12]
	cmp	r6, r0
	bge	.LBB33_72
	ldr	r0, [sp, #12]
	cmp	r0, #0
	beq	.LBB33_95
	ldr	r0, [r0, #28]
	cmp	r0, #0
	beq	.LBB33_97
	ldr	r1, [r0, #12]
	cmp	r1, r6
	bls	.LBB33_99
	ldr	r0, [r7, r0]
	cmp	r0, #0
	beq	.LBB33_67
	ldr	r0, [sp, #12]
	cmp	r0, #0
	beq	.LBB33_101
	ldr	r0, [r0, #24]
.Ltmp342:
	mov	r1, r6
	bl	p_103_plt_SQLite_SQLite3_ColumnType_SQLitePCL_sqlite3_stmt_int_llvm
	mov	r3, r0
.Ltmp343:
	ldr	r0, [sp, #12]
	cmp	r0, #0
	beq	.LBB33_103
	ldr	r1, [r0, #24]
	ldr	r0, [sp, #12]
	cmp	r0, #0
	beq	.LBB33_105
	ldr	r0, [r0, #28]
	cmp	r0, #0
	beq	.LBB33_107
	ldr	r2, [r0, #12]
	cmp	r2, r6
	bls	.LBB33_117
	ldr	r0, [r7, r0]
	cmp	r0, #0
	beq	.LBB33_109
	ldr	r0, [r0, #16]
.Ltmp346:
	str	r0, [sp]
	mov	r0, r4
	mov	r2, r6
	bl	p_105_plt_SQLite_SQLiteCommand_ReadCol_SQLitePCL_sqlite3_stmt_int_SQLite_SQLite3_ColType_System_Type_llvm
	mov	r2, r0
.Ltmp347:
	ldr	r0, [sp, #12]
	cmp	r0, #0
	beq	.LBB33_111
	ldr	r0, [r0, #28]
	cmp	r0, #0
	beq	.LBB33_113
	ldr	r1, [r0, #12]
	cmp	r1, r6
	bls	.LBB33_119
	ldr	r0, [r7, r0]
	cmp	r0, #0
	beq	.LBB33_115
.Ltmp350:
	mov	r1, r10
	bl	p_119_plt_SQLite_TableMapping_Column_SetValue_object_object_llvm
.Ltmp351:
.LBB33_67:
	ldr	r0, [r9, #28]
	ldr	r5, [sp, #12]
	ldr	r0, [r0]
	cmp	r0, #0
	blne	mono_aot_SQLite_net_icall_cold_wrapper_265
	add	r6, r6, #1
	add	r7, r7, #4
	cmp	r5, #0
	bne	.LBB33_48
.Ltmp434:
.LBB33_68:
	ldr	r0, .LCPI33_20
.Ltmp375:
.LPC33_20:
	add	r1, pc, r0
	mov	r0, #225
	bl	p_23_plt__jit_icall_llvm_throw_corlib_exception_abs_trampoline_llvm
.Ltmp376:
.LBB33_70:
	cmp	r1, #0
	beq	.LBB33_147
	mov	r5, #0
	str	r5, [r1, #28]
	ldr	r0, [sp, #12]
.Ltmp322:
	bl	p_114_plt_SQLite_SQLiteCommand__ExecuteDeferredQueryd__12_1_T_REF__m__Finally1_llvm
.Ltmp323:
	b	.LBB33_79
.LBB33_72:
	cmp	r4, #0
	beq	.LBB33_151
	ldr	r0, [r4]
	ldr	r2, [r0, #56]
.Ltmp328:
	mov	r0, r4
	mov	r1, r10
	blx	r2
.Ltmp329:
	ldr	r4, [sp, #12]
	ldr	r0, [sp, #12]
	ldr	r0, [r0]
.Ltmp330:
	bl	p_120_plt__rgctx_fetch_48_llvm
	mov	r2, r0
.Ltmp331:
	ldr	r1, [r2, #4]
.Ltmp332:
	mov	r0, r10
	bl	p_107_plt_wrapper_castclass_object___castclass_with_cache_object_intptr_intptr_llvm
.Ltmp333:
	cmp	r4, #0
	beq	.LBB33_153
	ldr	r1, [r9, #8]
	dmb	ish
	str	r0, [r4, #8]!
	mov	r5, #1
	strb	r5, [r1, r4, lsr #9]
	ldr	r0, [sp, #12]
	cmp	r0, #0
	beq	.LBB33_155
	str	r5, [r0, #32]
.LBB33_79:
	mov	r0, r5
	add	sp, sp, #16
	pop	{r4, r5, r6, r7, r9, r10, r11, pc}
.LBB33_80:
	movw	r0, #325
	mov	r1, r4
	bl	mono_aot_SQLite_net_init_method_gshared_this
	b	.LBB33_1
.Ltmp435:
.LBB33_81:
	ldr	r0, .LCPI33_29
.Ltmp400:
.LPC33_29:
	add	r1, pc, r0
	mov	r0, #225
	bl	p_23_plt__jit_icall_llvm_throw_corlib_exception_abs_trampoline_llvm
.Ltmp401:
.Ltmp436:
.LBB33_83:
	ldr	r0, .LCPI33_28
.Ltmp398:
.LPC33_28:
	add	r1, pc, r0
	mov	r0, #225
	bl	p_23_plt__jit_icall_llvm_throw_corlib_exception_abs_trampoline_llvm
.Ltmp399:
.Ltmp437:
.LBB33_85:
	ldr	r0, .LCPI33_27
.Ltmp396:
.LPC33_27:
	add	r1, pc, r0
	mov	r0, #225
	bl	p_23_plt__jit_icall_llvm_throw_corlib_exception_abs_trampoline_llvm
.Ltmp397:
.Ltmp438:
.LBB33_87:
	ldr	r0, .LCPI33_26
.Ltmp394:
.LPC33_26:
	add	r1, pc, r0
	mov	r0, #225
	bl	p_23_plt__jit_icall_llvm_throw_corlib_exception_abs_trampoline_llvm
.Ltmp395:
.Ltmp439:
.LBB33_89:
	ldr	r0, .LCPI33_25
.Ltmp392:
.LPC33_25:
	add	r1, pc, r0
	mov	r0, #225
	bl	p_23_plt__jit_icall_llvm_throw_corlib_exception_abs_trampoline_llvm
.Ltmp393:
.Ltmp440:
.LBB33_91:
	ldr	r0, .LCPI33_24
.Ltmp390:
.LPC33_24:
	add	r1, pc, r0
	mov	r0, #225
	bl	p_23_plt__jit_icall_llvm_throw_corlib_exception_abs_trampoline_llvm
.Ltmp391:
.Ltmp441:
.LBB33_93:
	ldr	r0, .LCPI33_19
.Ltmp373:
.LPC33_19:
	add	r1, pc, r0
	mov	r0, #225
	bl	p_23_plt__jit_icall_llvm_throw_corlib_exception_abs_trampoline_llvm
.Ltmp374:
.Ltmp442:
.LBB33_95:
	ldr	r0, .LCPI33_18
.Ltmp371:
.LPC33_18:
	add	r1, pc, r0
	mov	r0, #225
	bl	p_23_plt__jit_icall_llvm_throw_corlib_exception_abs_trampoline_llvm
.Ltmp372:
.Ltmp443:
.LBB33_97:
	ldr	r0, .LCPI33_17
.Ltmp369:
.LPC33_17:
	add	r1, pc, r0
	mov	r0, #225
	bl	p_23_plt__jit_icall_llvm_throw_corlib_exception_abs_trampoline_llvm
.Ltmp370:
.Ltmp444:
.LBB33_99:
	ldr	r0, .LCPI33_6
.Ltmp340:
.LPC33_6:
	add	r1, pc, r0
	mov	r0, #198
	bl	p_23_plt__jit_icall_llvm_throw_corlib_exception_abs_trampoline_llvm
.Ltmp341:
.Ltmp445:
.LBB33_101:
	ldr	r0, .LCPI33_16
.Ltmp367:
.LPC33_16:
	add	r1, pc, r0
	mov	r0, #225
	bl	p_23_plt__jit_icall_llvm_throw_corlib_exception_abs_trampoline_llvm
.Ltmp368:
.Ltmp446:
.LBB33_103:
	ldr	r0, .LCPI33_15
.Ltmp365:
.LPC33_15:
	add	r1, pc, r0
	mov	r0, #225
	bl	p_23_plt__jit_icall_llvm_throw_corlib_exception_abs_trampoline_llvm
.Ltmp366:
.Ltmp447:
.LBB33_105:
	ldr	r0, .LCPI33_14
.Ltmp363:
.LPC33_14:
	add	r1, pc, r0
	mov	r0, #225
	bl	p_23_plt__jit_icall_llvm_throw_corlib_exception_abs_trampoline_llvm
.Ltmp364:
.Ltmp448:
.LBB33_107:
	ldr	r0, .LCPI33_13
.Ltmp361:
.LPC33_13:
	add	r1, pc, r0
	mov	r0, #225
	bl	p_23_plt__jit_icall_llvm_throw_corlib_exception_abs_trampoline_llvm
.Ltmp362:
.Ltmp449:
.LBB33_109:
	ldr	r0, .LCPI33_12
.Ltmp359:
.LPC33_12:
	add	r1, pc, r0
	mov	r0, #225
	bl	p_23_plt__jit_icall_llvm_throw_corlib_exception_abs_trampoline_llvm
.Ltmp360:
.Ltmp450:
.LBB33_111:
	ldr	r0, .LCPI33_11
.Ltmp357:
.LPC33_11:
	add	r1, pc, r0
	mov	r0, #225
	bl	p_23_plt__jit_icall_llvm_throw_corlib_exception_abs_trampoline_llvm
.Ltmp358:
.Ltmp451:
.LBB33_113:
	ldr	r0, .LCPI33_10
.Ltmp355:
.LPC33_10:
	add	r1, pc, r0
	mov	r0, #225
	bl	p_23_plt__jit_icall_llvm_throw_corlib_exception_abs_trampoline_llvm
.Ltmp356:
.Ltmp452:
.LBB33_115:
	ldr	r0, .LCPI33_9
.Ltmp353:
.LPC33_9:
	add	r1, pc, r0
	mov	r0, #225
	bl	p_23_plt__jit_icall_llvm_throw_corlib_exception_abs_trampoline_llvm
.Ltmp354:
.Ltmp453:
.LBB33_117:
	ldr	r0, .LCPI33_7
.Ltmp344:
.LPC33_7:
	add	r1, pc, r0
	mov	r0, #198
	bl	p_23_plt__jit_icall_llvm_throw_corlib_exception_abs_trampoline_llvm
.Ltmp345:
.Ltmp454:
.LBB33_119:
	ldr	r0, .LCPI33_8
.Ltmp348:
.LPC33_8:
	add	r1, pc, r0
	mov	r0, #198
	bl	p_23_plt__jit_icall_llvm_throw_corlib_exception_abs_trampoline_llvm
.Ltmp349:
.Ltmp455:
.LBB33_121:
	ldr	r0, .LCPI33_39
.Ltmp420:
.LPC33_39:
	add	r1, pc, r0
	mov	r0, #225
	bl	p_23_plt__jit_icall_llvm_throw_corlib_exception_abs_trampoline_llvm
.Ltmp421:
.Ltmp456:
.LBB33_123:
	ldr	r0, .LCPI33_38
.Ltmp418:
.LPC33_38:
	add	r1, pc, r0
	mov	r0, #225
	bl	p_23_plt__jit_icall_llvm_throw_corlib_exception_abs_trampoline_llvm
.Ltmp419:
.Ltmp457:
.LBB33_125:
	ldr	r0, .LCPI33_23
.Ltmp381:
.LPC33_23:
	add	r1, pc, r0
	mov	r0, #225
	bl	p_23_plt__jit_icall_llvm_throw_corlib_exception_abs_trampoline_llvm
.Ltmp382:
.Ltmp458:
.LBB33_127:
	ldr	r0, .LCPI33_0
.Ltmp300:
.LPC33_0:
	add	r1, pc, r0
	mov	r0, #225
	bl	p_23_plt__jit_icall_llvm_throw_corlib_exception_abs_trampoline_llvm
.Ltmp301:
.Ltmp459:
.LBB33_129:
	ldr	r0, .LCPI33_37
.Ltmp416:
.LPC33_37:
	add	r1, pc, r0
	mov	r0, #225
	bl	p_23_plt__jit_icall_llvm_throw_corlib_exception_abs_trampoline_llvm
.Ltmp417:
.Ltmp460:
.LBB33_131:
	ldr	r0, .LCPI33_36
.Ltmp414:
.LPC33_36:
	add	r1, pc, r0
	mov	r0, #225
	bl	p_23_plt__jit_icall_llvm_throw_corlib_exception_abs_trampoline_llvm
.Ltmp415:
.Ltmp461:
.LBB33_133:
	ldr	r0, .LCPI33_35
.Ltmp412:
.LPC33_35:
	add	r1, pc, r0
	mov	r0, #225
	bl	p_23_plt__jit_icall_llvm_throw_corlib_exception_abs_trampoline_llvm
.Ltmp413:
.Ltmp462:
.LBB33_135:
	ldr	r0, .LCPI33_34
.Ltmp410:
.LPC33_34:
	add	r1, pc, r0
	mov	r0, #225
	bl	p_23_plt__jit_icall_llvm_throw_corlib_exception_abs_trampoline_llvm
.Ltmp411:
.Ltmp463:
.LBB33_137:
	ldr	r0, .LCPI33_33
.Ltmp408:
.LPC33_33:
	add	r1, pc, r0
	mov	r0, #225
	bl	p_23_plt__jit_icall_llvm_throw_corlib_exception_abs_trampoline_llvm
.Ltmp409:
.Ltmp464:
.LBB33_139:
	ldr	r0, .LCPI33_32
.Ltmp406:
.LPC33_32:
	add	r1, pc, r0
	mov	r0, #225
	bl	p_23_plt__jit_icall_llvm_throw_corlib_exception_abs_trampoline_llvm
.Ltmp407:
.Ltmp465:
.LBB33_141:
	ldr	r0, .LCPI33_31
.Ltmp404:
.LPC33_31:
	add	r1, pc, r0
	mov	r0, #225
	bl	p_23_plt__jit_icall_llvm_throw_corlib_exception_abs_trampoline_llvm
.Ltmp405:
.Ltmp466:
.LBB33_143:
	ldr	r0, .LCPI33_22
.Ltmp379:
.LPC33_22:
	add	r1, pc, r0
	mov	r0, #225
	bl	p_23_plt__jit_icall_llvm_throw_corlib_exception_abs_trampoline_llvm
.Ltmp380:
.Ltmp467:
.LBB33_145:
	ldr	r0, .LCPI33_21
.Ltmp377:
.LPC33_21:
	add	r1, pc, r0
	mov	r0, #225
	bl	p_23_plt__jit_icall_llvm_throw_corlib_exception_abs_trampoline_llvm
.Ltmp378:
.Ltmp468:
.LBB33_147:
	ldr	r0, .LCPI33_2
.Ltmp324:
.LPC33_2:
	add	r1, pc, r0
	mov	r0, #225
	bl	p_23_plt__jit_icall_llvm_throw_corlib_exception_abs_trampoline_llvm
.Ltmp325:
.Ltmp469:
.LBB33_149:
	ldr	r0, .LCPI33_1
.Ltmp312:
.LPC33_1:
	add	r1, pc, r0
	mov	r0, #225
	bl	p_23_plt__jit_icall_llvm_throw_corlib_exception_abs_trampoline_llvm
.Ltmp313:
.Ltmp470:
.LBB33_151:
	ldr	r0, .LCPI33_5
.Ltmp338:
.LPC33_5:
	add	r1, pc, r0
	mov	r0, #225
	bl	p_23_plt__jit_icall_llvm_throw_corlib_exception_abs_trampoline_llvm
.Ltmp339:
.Ltmp471:
.LBB33_153:
	ldr	r0, .LCPI33_4
.Ltmp336:
.LPC33_4:
	add	r1, pc, r0
	mov	r0, #225
	bl	p_23_plt__jit_icall_llvm_throw_corlib_exception_abs_trampoline_llvm
.Ltmp337:
.Ltmp472:
.LBB33_155:
	ldr	r0, .LCPI33_3
.Ltmp334:
.LPC33_3:
	add	r1, pc, r0
	mov	r0, #225
	bl	p_23_plt__jit_icall_llvm_throw_corlib_exception_abs_trampoline_llvm
.Ltmp335:
.LBB33_157:
.Ltmp422:
	b	.LBB33_160
.LBB33_158:
.Ltmp352:
	b	.LBB33_160
.LBB33_159:
.Ltmp389:
.LBB33_160:
	ldr	r0, [sp, #12]
	bl	p_121_plt_SQLite_SQLiteCommand__ExecuteDeferredQueryd__12_1_T_REF_System_IDisposable_Dispose_llvm
	bl	p_110_plt__jit_icall_llvm_resume_unwind_trampoline_llvm
	.p2align	2
.LCPI33_0:
	.long	.Ltmp458-(.LPC33_0+8)
.LCPI33_1:
	.long	.Ltmp469-(.LPC33_1+8)
.LCPI33_2:
	.long	.Ltmp468-(.LPC33_2+8)
.LCPI33_3:
	.long	.Ltmp472-(.LPC33_3+8)
.LCPI33_4:
	.long	.Ltmp471-(.LPC33_4+8)
.LCPI33_5:
	.long	.Ltmp470-(.LPC33_5+8)
.LCPI33_6:
	.long	.Ltmp444-(.LPC33_6+8)
.LCPI33_7:
	.long	.Ltmp453-(.LPC33_7+8)
.LCPI33_8:
	.long	.Ltmp454-(.LPC33_8+8)
.LCPI33_9:
	.long	.Ltmp452-(.LPC33_9+8)
.LCPI33_10:
	.long	.Ltmp451-(.LPC33_10+8)
.LCPI33_11:
	.long	.Ltmp450-(.LPC33_11+8)
.LCPI33_12:
	.long	.Ltmp449-(.LPC33_12+8)
.LCPI33_13:
	.long	.Ltmp448-(.LPC33_13+8)
.LCPI33_14:
	.long	.Ltmp447-(.LPC33_14+8)
.LCPI33_15:
	.long	.Ltmp446-(.LPC33_15+8)
.LCPI33_16:
	.long	.Ltmp445-(.LPC33_16+8)
.LCPI33_17:
	.long	.Ltmp443-(.LPC33_17+8)
.LCPI33_18:
	.long	.Ltmp442-(.LPC33_18+8)
.LCPI33_19:
	.long	.Ltmp441-(.LPC33_19+8)
.LCPI33_20:
	.long	.Ltmp434-(.LPC33_20+8)
.LCPI33_21:
	.long	.Ltmp467-(.LPC33_21+8)
.LCPI33_22:
	.long	.Ltmp466-(.LPC33_22+8)
.LCPI33_23:
	.long	.Ltmp457-(.LPC33_23+8)
.LCPI33_24:
	.long	.Ltmp440-(.LPC33_24+8)
.LCPI33_25:
	.long	.Ltmp439-(.LPC33_25+8)
.LCPI33_26:
	.long	.Ltmp438-(.LPC33_26+8)
.LCPI33_27:
	.long	.Ltmp437-(.LPC33_27+8)
.LCPI33_28:
	.long	.Ltmp436-(.LPC33_28+8)
.LCPI33_29:
	.long	.Ltmp435-(.LPC33_29+8)
.LCPI33_30:
	.long	.Ltmp433-(.LPC33_30+8)
.LCPI33_31:
	.long	.Ltmp465-(.LPC33_31+8)
.LCPI33_32:
	.long	.Ltmp464-(.LPC33_32+8)
.LCPI33_33:
	.long	.Ltmp463-(.LPC33_33+8)
.LCPI33_34:
	.long	.Ltmp462-(.LPC33_34+8)
.LCPI33_35:
	.long	.Ltmp461-(.LPC33_35+8)
.LCPI33_36:
	.long	.Ltmp460-(.LPC33_36+8)
.LCPI33_37:
	.long	.Ltmp459-(.LPC33_37+8)
.LCPI33_38:
	.long	.Ltmp456-(.LPC33_38+8)
.LCPI33_39:
	.long	.Ltmp455-(.LPC33_39+8)
.LCPI33_40:
	.long	mono_inited-(.LPC33_40+8)
.LCPI33_41:
	.long	mono_aot_SQLite_net_llvm_got-(.LPC33_41+8)
.Lfunc_end33:
	.size	SQLite_SQLiteCommand__ExecuteDeferredQueryd__12_1_T_REF_MoveNext, .Lfunc_end33-SQLite_SQLiteCommand__ExecuteDeferredQueryd__12_1_T_REF_MoveNext
.Lexception29:
	.fnend

	.hidden	SQLite_SQLiteCommand__ExecuteDeferredQueryd__12_1_T_REF__m__Finally1
	.globl	SQLite_SQLiteCommand__ExecuteDeferredQueryd__12_1_T_REF__m__Finally1
	.p2align	2
	.type	SQLite_SQLiteCommand__ExecuteDeferredQueryd__12_1_T_REF__m__Finally1,%function
	.code	32
SQLite_SQLiteCommand__ExecuteDeferredQueryd__12_1_T_REF__m__Finally1:
.Lfunc_begin34:
	.fnstart
	.save	{r4, lr}
	push	{r4, lr}
.Ltmp473:
.Ltmp474:
.Ltmp475:
	.pad	#8
	sub	sp, sp, #8
.Ltmp476:
	ldr	r1, .LCPI34_2
.LPC34_2:
	add	r1, pc, r1
	ldr	r1, [r1, #28]
	str	r0, [sp]
	str	r0, [sp, #4]
	ldr	r4, [sp, #4]
	ldr	r0, [r1]
	cmp	r0, #0
	blne	mono_aot_SQLite_net_icall_cold_wrapper_265
	cmp	r4, #0
	beq	.LBB34_3
	mvn	r0, #0
	str	r0, [r4, #32]
	ldr	r0, [sp, #4]
	cmp	r0, #0
	beq	.LBB34_4
	ldr	r0, [r0, #24]
	bl	p_122_plt_SQLite_SQLite3_Finalize_SQLitePCL_sqlite3_stmt_llvm
	add	sp, sp, #8
	pop	{r4, pc}
.Ltmp477:
.LBB34_3:
	ldr	r0, .LCPI34_1
.LPC34_1:
	add	r1, pc, r0
	mov	r0, #225
	bl	p_23_plt__jit_icall_llvm_throw_corlib_exception_abs_trampoline_llvm
.Ltmp478:
.LBB34_4:
	ldr	r0, .LCPI34_0
.LPC34_0:
	add	r1, pc, r0
	mov	r0, #225
	bl	p_23_plt__jit_icall_llvm_throw_corlib_exception_abs_trampoline_llvm
	.p2align	2
.LCPI34_0:
	.long	.Ltmp478-(.LPC34_0+8)
.LCPI34_1:
	.long	.Ltmp477-(.LPC34_1+8)
.LCPI34_2:
	.long	mono_aot_SQLite_net_llvm_got-(.LPC34_2+8)
.Lfunc_end34:
	.size	SQLite_SQLiteCommand__ExecuteDeferredQueryd__12_1_T_REF__m__Finally1, .Lfunc_end34-SQLite_SQLiteCommand__ExecuteDeferredQueryd__12_1_T_REF__m__Finally1
.Lexception30:
	.fnend

	.hidden	SQLite_SQLiteCommand__ExecuteDeferredQueryd__12_1_T_REF_System_Collections_Generic_IEnumerator_T_get_Current
	.globl	SQLite_SQLiteCommand__ExecuteDeferredQueryd__12_1_T_REF_System_Collections_Generic_IEnumerator_T_get_Current
	.p2align	2
	.type	SQLite_SQLiteCommand__ExecuteDeferredQueryd__12_1_T_REF_System_Collections_Generic_IEnumerator_T_get_Current,%function
	.code	32
SQLite_SQLiteCommand__ExecuteDeferredQueryd__12_1_T_REF_System_Collections_Generic_IEnumerator_T_get_Current:
.Lfunc_begin35:
	.fnstart
	.save	{r11, lr}
	push	{r11, lr}
.Ltmp479:
.Ltmp480:
.Ltmp481:
	.pad	#8
	sub	sp, sp, #8
.Ltmp482:
	str	r0, [sp]
	str	r0, [sp, #4]
	ldr	r0, [sp, #4]
	cmp	r0, #0
	ldrne	r0, [r0, #8]
	addne	sp, sp, #8
	popne	{r11, pc}
.Ltmp483:
.LBB35_1:
	ldr	r0, .LCPI35_0
.LPC35_0:
	add	r1, pc, r0
	mov	r0, #225
	bl	p_23_plt__jit_icall_llvm_throw_corlib_exception_abs_trampoline_llvm
	.p2align	2
.LCPI35_0:
	.long	.Ltmp483-(.LPC35_0+8)
.Lfunc_end35:
	.size	SQLite_SQLiteCommand__ExecuteDeferredQueryd__12_1_T_REF_System_Collections_Generic_IEnumerator_T_get_Current, .Lfunc_end35-SQLite_SQLiteCommand__ExecuteDeferredQueryd__12_1_T_REF_System_Collections_Generic_IEnumerator_T_get_Current
.Lexception31:
	.fnend

	.hidden	SQLite_SQLiteCommand__ExecuteDeferredQueryd__12_1_T_REF_System_Collections_IEnumerator_Reset
	.globl	SQLite_SQLiteCommand__ExecuteDeferredQueryd__12_1_T_REF_System_Collections_IEnumerator_Reset
	.p2align	2
	.type	SQLite_SQLiteCommand__ExecuteDeferredQueryd__12_1_T_REF_System_Collections_IEnumerator_Reset,%function
	.code	32
SQLite_SQLiteCommand__ExecuteDeferredQueryd__12_1_T_REF_System_Collections_IEnumerator_Reset:
.Lfunc_begin36:
	.fnstart
	.save	{r11, lr}
	push	{r11, lr}
.Ltmp484:
.Ltmp485:
.Ltmp486:
	.pad	#8
	sub	sp, sp, #8
.Ltmp487:
	ldr	r1, .LCPI36_0
.LPC36_0:
	add	r1, pc, r1
	ldr	r1, [r1, #28]
	str	r0, [sp, #4]
	ldr	r0, [r1]
	cmp	r0, #0
	blne	mono_aot_SQLite_net_icall_cold_wrapper_265
	movw	r0, #224
	movt	r0, #512
	bl	p_123_plt__jit_icall_mono_create_corlib_exception_0_llvm
	bl	p_32_plt__jit_icall_mono_arch_throw_exception_llvm
	.p2align	2
.LCPI36_0:
	.long	mono_aot_SQLite_net_llvm_got-(.LPC36_0+8)
.Lfunc_end36:
	.size	SQLite_SQLiteCommand__ExecuteDeferredQueryd__12_1_T_REF_System_Collections_IEnumerator_Reset, .Lfunc_end36-SQLite_SQLiteCommand__ExecuteDeferredQueryd__12_1_T_REF_System_Collections_IEnumerator_Reset
.Lexception32:
	.fnend

	.hidden	SQLite_SQLiteCommand__ExecuteDeferredQueryd__12_1_T_REF_System_Collections_IEnumerator_get_Current
	.globl	SQLite_SQLiteCommand__ExecuteDeferredQueryd__12_1_T_REF_System_Collections_IEnumerator_get_Current
	.p2align	2
	.type	SQLite_SQLiteCommand__ExecuteDeferredQueryd__12_1_T_REF_System_Collections_IEnumerator_get_Current,%function
	.code	32
SQLite_SQLiteCommand__ExecuteDeferredQueryd__12_1_T_REF_System_Collections_IEnumerator_get_Current:
.Lfunc_begin37:
	.fnstart
	.save	{r11, lr}
	push	{r11, lr}
.Ltmp488:
.Ltmp489:
.Ltmp490:
	.pad	#8
	sub	sp, sp, #8
.Ltmp491:
	str	r0, [sp]
	str	r0, [sp, #4]
	ldr	r0, [sp, #4]
	cmp	r0, #0
	ldrne	r0, [r0, #8]
	addne	sp, sp, #8
	popne	{r11, pc}
.Ltmp492:
.LBB37_1:
	ldr	r0, .LCPI37_0
.LPC37_0:
	add	r1, pc, r0
	mov	r0, #225
	bl	p_23_plt__jit_icall_llvm_throw_corlib_exception_abs_trampoline_llvm
	.p2align	2
.LCPI37_0:
	.long	.Ltmp492-(.LPC37_0+8)
.Lfunc_end37:
	.size	SQLite_SQLiteCommand__ExecuteDeferredQueryd__12_1_T_REF_System_Collections_IEnumerator_get_Current, .Lfunc_end37-SQLite_SQLiteCommand__ExecuteDeferredQueryd__12_1_T_REF_System_Collections_IEnumerator_get_Current
.Lexception33:
	.fnend

	.hidden	SQLite_SQLiteCommand__ExecuteDeferredQueryd__12_1_T_REF_System_Collections_Generic_IEnumerable_T_GetEnumerator
	.globl	SQLite_SQLiteCommand__ExecuteDeferredQueryd__12_1_T_REF_System_Collections_Generic_IEnumerable_T_GetEnumerator
	.p2align	2
	.type	SQLite_SQLiteCommand__ExecuteDeferredQueryd__12_1_T_REF_System_Collections_Generic_IEnumerable_T_GetEnumerator,%function
	.code	32
SQLite_SQLiteCommand__ExecuteDeferredQueryd__12_1_T_REF_System_Collections_Generic_IEnumerable_T_GetEnumerator:
.Lfunc_begin38:
	.fnstart
	.save	{r4, r5, r11, lr}
	push	{r4, r5, r11, lr}
.Ltmp493:
.Ltmp494:
.Ltmp495:
.Ltmp496:
.Ltmp497:
	.pad	#8
	sub	sp, sp, #8
.Ltmp498:
	ldr	r5, .LCPI38_6
.LPC38_6:
	add	r5, pc, r5
	ldr	r1, [r5, #28]
	str	r0, [sp]
	str	r0, [sp, #4]
	ldr	r4, [sp, #4]
	ldr	r0, [r1]
	cmp	r0, #0
	blne	mono_aot_SQLite_net_icall_cold_wrapper_265
	cmp	r4, #0
	beq	.LBB38_11
	ldr	r0, [r4, #32]
	cmn	r0, #2
	bne	.LBB38_6
	ldr	r0, [sp, #4]
	cmp	r0, #0
	beq	.LBB38_15
	ldr	r4, [r0, #36]
	bl	p_113_plt_System_Environment_get_CurrentManagedThreadId_llvm
	cmp	r4, r0
	bne	.LBB38_6
	ldr	r0, [sp, #4]
	cmp	r0, #0
	beq	.LBB38_16
	mov	r1, #0
	str	r1, [r0, #32]
	ldr	r4, [sp, #4]
	b	.LBB38_8
.LBB38_6:
	ldr	r0, [sp, #4]
	ldr	r0, [r0]
	bl	p_124_plt__rgctx_fetch_49_llvm
	mov	r1, #40
	bl	p_40_plt_wrapper_alloc_object_AllocSmall_intptr_intptr_llvm
	mov	r1, #0
	mov	r4, r0
	bl	p_125_plt_SQLite_SQLiteCommand__ExecuteDeferredQueryd__12_1_T_REF__ctor_int_0_llvm
	ldr	r0, [sp, #4]
	cmp	r0, #0
	beq	.LBB38_14
	ldr	r0, [r0, #12]
	mov	r2, r4
	ldr	r1, [r5, #8]
	dmb	ish
	str	r0, [r2, #12]!
	mov	r0, #1
	strb	r0, [r1, r2, lsr #9]
.LBB38_8:
	ldr	r0, [sp, #4]
	cmp	r0, #0
	beq	.LBB38_12
	cmp	r4, #0
	beq	.LBB38_13
	ldr	r0, [r0, #20]
	mov	r2, r4
	ldr	r1, [r5, #8]
	dmb	ish
	str	r0, [r2, #16]!
	mov	r0, #1
	strb	r0, [r1, r2, lsr #9]
	mov	r0, r4
	add	sp, sp, #8
	pop	{r4, r5, r11, pc}
.Ltmp499:
.LBB38_11:
	ldr	r0, .LCPI38_5
.LPC38_5:
	add	r1, pc, r0
	mov	r0, #225
	bl	p_23_plt__jit_icall_llvm_throw_corlib_exception_abs_trampoline_llvm
.Ltmp500:
.LBB38_12:
	ldr	r0, .LCPI38_2
.LPC38_2:
	add	r1, pc, r0
	mov	r0, #225
	bl	p_23_plt__jit_icall_llvm_throw_corlib_exception_abs_trampoline_llvm
.Ltmp501:
.LBB38_13:
	ldr	r0, .LCPI38_1
.LPC38_1:
	add	r1, pc, r0
	mov	r0, #225
	bl	p_23_plt__jit_icall_llvm_throw_corlib_exception_abs_trampoline_llvm
.Ltmp502:
.LBB38_14:
	ldr	r0, .LCPI38_0
.LPC38_0:
	add	r1, pc, r0
	mov	r0, #225
	bl	p_23_plt__jit_icall_llvm_throw_corlib_exception_abs_trampoline_llvm
.Ltmp503:
.LBB38_15:
	ldr	r0, .LCPI38_4
.LPC38_4:
	add	r1, pc, r0
	mov	r0, #225
	bl	p_23_plt__jit_icall_llvm_throw_corlib_exception_abs_trampoline_llvm
.Ltmp504:
.LBB38_16:
	ldr	r0, .LCPI38_3
.LPC38_3:
	add	r1, pc, r0
	mov	r0, #225
	bl	p_23_plt__jit_icall_llvm_throw_corlib_exception_abs_trampoline_llvm
	.p2align	2
.LCPI38_0:
	.long	.Ltmp502-(.LPC38_0+8)
.LCPI38_1:
	.long	.Ltmp501-(.LPC38_1+8)
.LCPI38_2:
	.long	.Ltmp500-(.LPC38_2+8)
.LCPI38_3:
	.long	.Ltmp504-(.LPC38_3+8)
.LCPI38_4:
	.long	.Ltmp503-(.LPC38_4+8)
.LCPI38_5:
	.long	.Ltmp499-(.LPC38_5+8)
.LCPI38_6:
	.long	mono_aot_SQLite_net_llvm_got-(.LPC38_6+8)
.Lfunc_end38:
	.size	SQLite_SQLiteCommand__ExecuteDeferredQueryd__12_1_T_REF_System_Collections_Generic_IEnumerable_T_GetEnumerator, .Lfunc_end38-SQLite_SQLiteCommand__ExecuteDeferredQueryd__12_1_T_REF_System_Collections_Generic_IEnumerable_T_GetEnumerator
.Lexception34:
	.fnend

	.hidden	SQLite_SQLiteCommand__ExecuteDeferredQueryd__12_1_T_REF_System_Collections_IEnumerable_GetEnumerator
	.globl	SQLite_SQLiteCommand__ExecuteDeferredQueryd__12_1_T_REF_System_Collections_IEnumerable_GetEnumerator
	.p2align	2
	.type	SQLite_SQLiteCommand__ExecuteDeferredQueryd__12_1_T_REF_System_Collections_IEnumerable_GetEnumerator,%function
	.code	32
SQLite_SQLiteCommand__ExecuteDeferredQueryd__12_1_T_REF_System_Collections_IEnumerable_GetEnumerator:
.Lfunc_begin39:
	.fnstart
	.save	{r4, lr}
	push	{r4, lr}
.Ltmp505:
.Ltmp506:
.Ltmp507:
	.pad	#8
	sub	sp, sp, #8
.Ltmp508:
	ldr	r1, .LCPI39_0
.LPC39_0:
	add	r1, pc, r1
	ldr	r1, [r1, #28]
	str	r0, [sp]
	str	r0, [sp, #4]
	ldr	r4, [sp, #4]
	ldr	r0, [r1]
	cmp	r0, #0
	blne	mono_aot_SQLite_net_icall_cold_wrapper_265
	mov	r0, r4
	bl	p_126_plt_SQLite_SQLiteCommand__ExecuteDeferredQueryd__12_1_T_REF_System_Collections_Generic_IEnumerable_T_GetEnumerator_llvm
	add	sp, sp, #8
	pop	{r4, pc}
	.p2align	2
.LCPI39_0:
	.long	mono_aot_SQLite_net_llvm_got-(.LPC39_0+8)
.Lfunc_end39:
	.size	SQLite_SQLiteCommand__ExecuteDeferredQueryd__12_1_T_REF_System_Collections_IEnumerable_GetEnumerator, .Lfunc_end39-SQLite_SQLiteCommand__ExecuteDeferredQueryd__12_1_T_REF_System_Collections_IEnumerable_GetEnumerator
.Lexception35:
	.fnend

	.hidden	SQLite_SQLiteCommand__ExecuteQueryScalarsd__14_1_T_REF__ctor_int
	.globl	SQLite_SQLiteCommand__ExecuteQueryScalarsd__14_1_T_REF__ctor_int
	.p2align	2
	.type	SQLite_SQLiteCommand__ExecuteQueryScalarsd__14_1_T_REF__ctor_int,%function
	.code	32
SQLite_SQLiteCommand__ExecuteQueryScalarsd__14_1_T_REF__ctor_int:
.Lfunc_begin40:
	.fnstart
	.save	{r4, r5, r11, lr}
	push	{r4, r5, r11, lr}
.Ltmp509:
.Ltmp510:
.Ltmp511:
.Ltmp512:
.Ltmp513:
	.pad	#8
	sub	sp, sp, #8
.Ltmp514:
	mov	r4, r1
	ldr	r1, .LCPI40_2
.LPC40_2:
	add	r1, pc, r1
	ldr	r1, [r1, #28]
	str	r0, [sp]
	str	r0, [sp, #4]
	ldr	r5, [sp, #4]
	ldr	r0, [r1]
	cmp	r0, #0
	blne	mono_aot_SQLite_net_icall_cold_wrapper_265
	cmp	r5, #0
	beq	.LBB40_3
	str	r4, [r5, #20]
	ldr	r4, [sp, #4]
	bl	p_113_plt_System_Environment_get_CurrentManagedThreadId_llvm
	cmp	r4, #0
	strne	r0, [r4, #24]
	addne	sp, sp, #8
	popne	{r4, r5, r11, pc}
.Ltmp515:
.LBB40_2:
	ldr	r0, .LCPI40_0
.LPC40_0:
	add	r1, pc, r0
	mov	r0, #225
	bl	p_23_plt__jit_icall_llvm_throw_corlib_exception_abs_trampoline_llvm
.Ltmp516:
.LBB40_3:
	ldr	r0, .LCPI40_1
.LPC40_1:
	add	r1, pc, r0
	mov	r0, #225
	bl	p_23_plt__jit_icall_llvm_throw_corlib_exception_abs_trampoline_llvm
	.p2align	2
.LCPI40_0:
	.long	.Ltmp515-(.LPC40_0+8)
.LCPI40_1:
	.long	.Ltmp516-(.LPC40_1+8)
.LCPI40_2:
	.long	mono_aot_SQLite_net_llvm_got-(.LPC40_2+8)
.Lfunc_end40:
	.size	SQLite_SQLiteCommand__ExecuteQueryScalarsd__14_1_T_REF__ctor_int, .Lfunc_end40-SQLite_SQLiteCommand__ExecuteQueryScalarsd__14_1_T_REF__ctor_int
.Lexception36:
	.fnend

	.hidden	SQLite_SQLiteCommand__ExecuteQueryScalarsd__14_1_T_REF_System_IDisposable_Dispose
	.globl	SQLite_SQLiteCommand__ExecuteQueryScalarsd__14_1_T_REF_System_IDisposable_Dispose
	.p2align	2
	.type	SQLite_SQLiteCommand__ExecuteQueryScalarsd__14_1_T_REF_System_IDisposable_Dispose,%function
	.code	32
SQLite_SQLiteCommand__ExecuteQueryScalarsd__14_1_T_REF_System_IDisposable_Dispose:
.Lfunc_begin41:
	.fnstart
	.save	{r4, lr}
	push	{r4, lr}
.Ltmp520:
.Ltmp521:
.Ltmp522:
	.pad	#16
	sub	sp, sp, #16
.Ltmp523:
	ldr	r1, .LCPI41_1
.LPC41_1:
	add	r1, pc, r1
	ldr	r1, [r1, #28]
	str	r0, [sp, #4]
	str	r0, [sp, #8]
	ldr	r4, [sp, #8]
	ldr	r0, [r1]
	cmp	r0, #0
	blne	mono_aot_SQLite_net_icall_cold_wrapper_265
	cmp	r4, #0
	beq	.LBB41_6
	ldr	r0, [r4, #20]
	add	r0, r0, #3
	cmp	r0, #5
	bhi	.LBB41_5
	mov	r1, #1
	mov	r2, #49
	tst	r2, r1, lsl r0
	beq	.LBB41_5
	ldr	r0, [sp, #8]
	mov	r1, #0
	str	r1, [sp, #12]
	bl	p_127_plt_SQLite_SQLiteCommand__ExecuteQueryScalarsd__14_1_T_REF__m__Finally1_llvm
	ldr	r0, [sp, #12]
	cmp	r0, #0
	beq	.LBB41_5
.Ltmp517:
	bl	p_102_plt__jit_icall_ves_icall_thread_finish_async_abort_llvm
.Ltmp518:
.LBB41_5:
	add	sp, sp, #16
	pop	{r4, pc}
.Ltmp524:
.LBB41_6:
	ldr	r0, .LCPI41_0
.LPC41_0:
	add	r1, pc, r0
	mov	r0, #225
	bl	p_23_plt__jit_icall_llvm_throw_corlib_exception_abs_trampoline_llvm
.LBB41_7:
.Ltmp519:
	ldr	r0, [sp, #8]
	bl	p_127_plt_SQLite_SQLiteCommand__ExecuteQueryScalarsd__14_1_T_REF__m__Finally1_llvm
	bl	p_110_plt__jit_icall_llvm_resume_unwind_trampoline_llvm
	.p2align	2
.LCPI41_0:
	.long	.Ltmp524-(.LPC41_0+8)
.LCPI41_1:
	.long	mono_aot_SQLite_net_llvm_got-(.LPC41_1+8)
.Lfunc_end41:
	.size	SQLite_SQLiteCommand__ExecuteQueryScalarsd__14_1_T_REF_System_IDisposable_Dispose, .Lfunc_end41-SQLite_SQLiteCommand__ExecuteQueryScalarsd__14_1_T_REF_System_IDisposable_Dispose
.Lexception37:
	.fnend

	.hidden	SQLite_SQLiteCommand__ExecuteQueryScalarsd__14_1_T_REF_MoveNext
	.globl	SQLite_SQLiteCommand__ExecuteQueryScalarsd__14_1_T_REF_MoveNext
	.p2align	2
	.type	SQLite_SQLiteCommand__ExecuteQueryScalarsd__14_1_T_REF_MoveNext,%function
	.code	32
SQLite_SQLiteCommand__ExecuteQueryScalarsd__14_1_T_REF_MoveNext:
.Lfunc_begin42:
	.fnstart
	.save	{r4, r5, r6, r7, r11, lr}
	push	{r4, r5, r6, r7, r11, lr}
.Ltmp596:
.Ltmp597:
.Ltmp598:
.Ltmp599:
.Ltmp600:
.Ltmp601:
.Ltmp602:
	.pad	#16
	sub	sp, sp, #16
.Ltmp603:
	mov	r4, r0
	ldr	r0, .LCPI42_18
	ldr	r7, .LCPI42_19
.LPC42_18:
	add	r0, pc, r0
.LPC42_19:
	add	r7, pc, r7
	ldrb	r5, [r0, #334]
	ldr	r0, [r7, #28]
	str	r4, [sp, #8]
	str	r4, [sp, #12]
	ldr	r0, [r0]
	cmp	r0, #0
	blne	mono_aot_SQLite_net_icall_cold_wrapper_265
	cmp	r5, #0
	beq	.LBB42_47
.LBB42_1:
	ldr	r0, [sp, #12]
	cmp	r0, #0
	beq	.LBB42_48
	ldr	r0, [r0, #20]
	ldr	r1, [sp, #12]
	cmp	r1, #0
	beq	.LBB42_50
	mov	r5, #0
	cmp	r0, #2
	bhi	.LBB42_46
	ldr	r4, [r1, #12]
	cmp	r0, #1
	beq	.LBB42_9
	cmp	r0, #2
	bne	.LBB42_11
	ldr	r0, [sp, #12]
	cmp	r0, #0
	bne	.LBB42_10
.Ltmp604:
	ldr	r0, .LCPI42_0
.Ltmp525:
.LPC42_0:
	add	r1, pc, r0
	mov	r0, #225
	bl	p_23_plt__jit_icall_llvm_throw_corlib_exception_abs_trampoline_llvm
.Ltmp526:
.LBB42_9:
	ldr	r0, [sp, #12]
	cmp	r0, #0
	beq	.LBB42_58
.LBB42_10:
	mvn	r1, #2
	str	r1, [r0, #20]
	b	.LBB42_28
.LBB42_11:
	ldr	r0, [sp, #12]
	cmp	r0, #0
	beq	.LBB42_60
	mvn	r1, #0
	cmp	r4, #0
	str	r1, [r0, #20]
	beq	.LBB42_62
	ldr	r0, [r4, #8]
	cmp	r0, #0
	beq	.LBB42_64
.Ltmp529:
	bl	p_96_plt_SQLite_SQLiteConnection_get_Trace_llvm
.Ltmp530:
	tst	r0, #255
	beq	.LBB42_22
	ldr	r0, [r4, #8]
	cmp	r0, #0
	beq	.LBB42_80
.Ltmp531:
	bl	p_39_plt_SQLite_SQLiteConnection_get_Tracer_llvm
	mov	r6, r0
.Ltmp532:
	cmp	r6, #0
	beq	.LBB42_22
	ldr	r0, [r4]
	ldr	r1, [r0, #40]
.Ltmp533:
	mov	r0, r4
	blx	r1
	mov	r1, r0
.Ltmp534:
	ldr	r0, [r7, #136]
.Ltmp535:
	bl	p_108_plt_string_Concat_string_string_llvm
	mov	r1, r0
.Ltmp536:
	ldr	r2, [r6, #12]
.Ltmp537:
	mov	r0, r6
	blx	r2
.Ltmp538:
.LBB42_22:
	ldr	r6, [sp, #12]
.Ltmp541:
	mov	r0, r4
	bl	p_97_plt_SQLite_SQLiteCommand_Prepare_llvm
.Ltmp542:
	cmp	r6, #0
	beq	.LBB42_66
	ldr	r1, [r7, #8]
	dmb	ish
	str	r0, [r6, #16]!
	mov	r0, #1
	strb	r0, [r1, r6, lsr #9]
	ldr	r0, [sp, #12]
	cmp	r0, #0
	beq	.LBB42_68
	mvn	r1, #2
	str	r1, [r0, #20]
	ldr	r0, [sp, #12]
	cmp	r0, #0
	beq	.LBB42_70
	ldr	r0, [r0, #16]
.Ltmp543:
	bl	p_115_plt_SQLite_SQLite3_ColumnCount_SQLitePCL_sqlite3_stmt_llvm
.Ltmp544:
	cmp	r0, #0
	ble	.LBB42_72
.LBB42_28:
	ldr	r0, [sp, #12]
	cmp	r0, #0
	beq	.LBB42_52
	ldr	r0, [r0, #16]
.Ltmp551:
	bl	p_98_plt_SQLite_SQLite3_Step_SQLitePCL_sqlite3_stmt_llvm
	mov	r1, r0
.Ltmp552:
	ldr	r0, [sp, #12]
	cmp	r1, #100
	bne	.LBB42_42
	cmp	r0, #0
	beq	.LBB42_54
	ldr	r0, [r0, #16]
.Ltmp555:
	mov	r1, #0
	bl	p_103_plt_SQLite_SQLite3_ColumnType_SQLitePCL_sqlite3_stmt_int_llvm
	mov	r5, r0
.Ltmp556:
	ldr	r0, [sp, #12]
	cmp	r0, #0
	beq	.LBB42_56
	ldr	r6, [r0, #16]
	ldr	r0, [sp, #12]
	ldr	r0, [r0]
.Ltmp557:
	bl	p_128_plt__rgctx_fetch_50_llvm
.Ltmp558:
.Ltmp559:
	str	r0, [sp]
	mov	r0, r4
	mov	r1, r6
	mov	r2, #0
	mov	r3, r5
	bl	p_105_plt_SQLite_SQLiteCommand_ReadCol_SQLitePCL_sqlite3_stmt_int_SQLite_SQLite3_ColType_System_Type_llvm
	mov	r4, r0
.Ltmp560:
	ldr	r6, [sp, #12]
	cmp	r4, #0
	beq	.LBB42_43
	ldr	r0, [sp, #12]
	ldr	r0, [r0]
.Ltmp561:
	bl	p_129_plt__rgctx_fetch_51_llvm
	mov	r2, r0
.Ltmp562:
	ldr	r1, [r2, #4]
.Ltmp563:
	mov	r0, r4
	bl	p_107_plt_wrapper_castclass_object___castclass_with_cache_object_intptr_intptr_llvm
.Ltmp564:
	cmp	r6, #0
	beq	.LBB42_76
	ldr	r1, [r7, #8]
	dmb	ish
	str	r0, [r6, #8]!
	mov	r5, #1
	strb	r5, [r1, r6, lsr #9]
	ldr	r0, [sp, #12]
	cmp	r0, #0
	beq	.LBB42_78
	mov	r1, #2
	str	r1, [r0, #20]
	b	.LBB42_46
.LBB42_42:
.Ltmp553:
	bl	p_127_plt_SQLite_SQLiteCommand__ExecuteQueryScalarsd__14_1_T_REF__m__Finally1_llvm
.Ltmp554:
	b	.LBB42_46
.LBB42_43:
	cmp	r6, #0
	beq	.LBB42_82
	mov	r0, #0
	str	r0, [r6, #8]
	ldr	r0, [sp, #12]
	cmp	r0, #0
	beq	.LBB42_84
	mov	r5, #1
	str	r5, [r0, #20]
.LBB42_46:
	mov	r0, r5
	add	sp, sp, #16
	pop	{r4, r5, r6, r7, r11, pc}
.LBB42_47:
	movw	r0, #334
	mov	r1, r4
	bl	mono_aot_SQLite_net_init_method_gshared_this
	b	.LBB42_1
.Ltmp605:
.LBB42_48:
	ldr	r0, .LCPI42_17
.Ltmp593:
.LPC42_17:
	add	r1, pc, r0
	mov	r0, #225
	bl	p_23_plt__jit_icall_llvm_throw_corlib_exception_abs_trampoline_llvm
.Ltmp594:
.Ltmp606:
.LBB42_50:
	ldr	r0, .LCPI42_16
.Ltmp591:
.LPC42_16:
	add	r1, pc, r0
	mov	r0, #225
	bl	p_23_plt__jit_icall_llvm_throw_corlib_exception_abs_trampoline_llvm
.Ltmp592:
.Ltmp607:
.LBB42_52:
	ldr	r0, .LCPI42_9
.Ltmp577:
.LPC42_9:
	add	r1, pc, r0
	mov	r0, #225
	bl	p_23_plt__jit_icall_llvm_throw_corlib_exception_abs_trampoline_llvm
.Ltmp578:
.Ltmp608:
.LBB42_54:
	ldr	r0, .LCPI42_8
.Ltmp575:
.LPC42_8:
	add	r1, pc, r0
	mov	r0, #225
	bl	p_23_plt__jit_icall_llvm_throw_corlib_exception_abs_trampoline_llvm
.Ltmp576:
.Ltmp609:
.LBB42_56:
	ldr	r0, .LCPI42_7
.Ltmp573:
.LPC42_7:
	add	r1, pc, r0
	mov	r0, #225
	bl	p_23_plt__jit_icall_llvm_throw_corlib_exception_abs_trampoline_llvm
.Ltmp574:
.Ltmp610:
.LBB42_58:
	ldr	r0, .LCPI42_1
.Ltmp527:
.LPC42_1:
	add	r1, pc, r0
	mov	r0, #225
	bl	p_23_plt__jit_icall_llvm_throw_corlib_exception_abs_trampoline_llvm
.Ltmp528:
.Ltmp611:
.LBB42_60:
	ldr	r0, .LCPI42_15
.Ltmp589:
.LPC42_15:
	add	r1, pc, r0
	mov	r0, #225
	bl	p_23_plt__jit_icall_llvm_throw_corlib_exception_abs_trampoline_llvm
.Ltmp590:
.Ltmp612:
.LBB42_62:
	ldr	r0, .LCPI42_14
.Ltmp587:
.LPC42_14:
	add	r1, pc, r0
	mov	r0, #225
	bl	p_23_plt__jit_icall_llvm_throw_corlib_exception_abs_trampoline_llvm
.Ltmp588:
.Ltmp613:
.LBB42_64:
	ldr	r0, .LCPI42_13
.Ltmp585:
.LPC42_13:
	add	r1, pc, r0
	mov	r0, #225
	bl	p_23_plt__jit_icall_llvm_throw_corlib_exception_abs_trampoline_llvm
.Ltmp586:
.Ltmp614:
.LBB42_66:
	ldr	r0, .LCPI42_12
.Ltmp583:
.LPC42_12:
	add	r1, pc, r0
	mov	r0, #225
	bl	p_23_plt__jit_icall_llvm_throw_corlib_exception_abs_trampoline_llvm
.Ltmp584:
.Ltmp615:
.LBB42_68:
	ldr	r0, .LCPI42_11
.Ltmp581:
.LPC42_11:
	add	r1, pc, r0
	mov	r0, #225
	bl	p_23_plt__jit_icall_llvm_throw_corlib_exception_abs_trampoline_llvm
.Ltmp582:
.Ltmp616:
.LBB42_70:
	ldr	r0, .LCPI42_10
.Ltmp579:
.LPC42_10:
	add	r1, pc, r0
	mov	r0, #225
	bl	p_23_plt__jit_icall_llvm_throw_corlib_exception_abs_trampoline_llvm
.Ltmp580:
.LBB42_72:
	ldr	r0, .LCPI42_20
.LPC42_20:
	ldr	r0, [pc, r0]
.Ltmp545:
	movw	r1, #3281
	bl	p_30_plt__jit_icall_mono_helper_ldstr_llvm
	mov	r1, r0
.Ltmp546:
.Ltmp547:
	movw	r0, #204
	movt	r0, #512
	bl	p_31_plt__jit_icall_mono_create_corlib_exception_1_llvm
.Ltmp548:
.Ltmp549:
	bl	p_32_plt__jit_icall_mono_arch_throw_exception_llvm
.Ltmp550:
.Ltmp617:
.LBB42_76:
	ldr	r0, .LCPI42_4
.Ltmp567:
.LPC42_4:
	add	r1, pc, r0
	mov	r0, #225
	bl	p_23_plt__jit_icall_llvm_throw_corlib_exception_abs_trampoline_llvm
.Ltmp568:
.Ltmp618:
.LBB42_78:
	ldr	r0, .LCPI42_3
.Ltmp565:
.LPC42_3:
	add	r1, pc, r0
	mov	r0, #225
	bl	p_23_plt__jit_icall_llvm_throw_corlib_exception_abs_trampoline_llvm
.Ltmp566:
.Ltmp619:
.LBB42_80:
	ldr	r0, .LCPI42_2
.Ltmp539:
.LPC42_2:
	add	r1, pc, r0
	mov	r0, #225
	bl	p_23_plt__jit_icall_llvm_throw_corlib_exception_abs_trampoline_llvm
.Ltmp540:
.Ltmp620:
.LBB42_82:
	ldr	r0, .LCPI42_6
.Ltmp571:
.LPC42_6:
	add	r1, pc, r0
	mov	r0, #225
	bl	p_23_plt__jit_icall_llvm_throw_corlib_exception_abs_trampoline_llvm
.Ltmp572:
.Ltmp621:
.LBB42_84:
	ldr	r0, .LCPI42_5
.Ltmp569:
.LPC42_5:
	add	r1, pc, r0
	mov	r0, #225
	bl	p_23_plt__jit_icall_llvm_throw_corlib_exception_abs_trampoline_llvm
.Ltmp570:
.LBB42_86:
.Ltmp595:
	ldr	r0, [sp, #12]
	bl	p_130_plt_SQLite_SQLiteCommand__ExecuteQueryScalarsd__14_1_T_REF_System_IDisposable_Dispose_llvm
	bl	p_110_plt__jit_icall_llvm_resume_unwind_trampoline_llvm
	.p2align	2
.LCPI42_0:
	.long	.Ltmp604-(.LPC42_0+8)
.LCPI42_1:
	.long	.Ltmp610-(.LPC42_1+8)
.LCPI42_2:
	.long	.Ltmp619-(.LPC42_2+8)
.LCPI42_3:
	.long	.Ltmp618-(.LPC42_3+8)
.LCPI42_4:
	.long	.Ltmp617-(.LPC42_4+8)
.LCPI42_5:
	.long	.Ltmp621-(.LPC42_5+8)
.LCPI42_6:
	.long	.Ltmp620-(.LPC42_6+8)
.LCPI42_7:
	.long	.Ltmp609-(.LPC42_7+8)
.LCPI42_8:
	.long	.Ltmp608-(.LPC42_8+8)
.LCPI42_9:
	.long	.Ltmp607-(.LPC42_9+8)
.LCPI42_10:
	.long	.Ltmp616-(.LPC42_10+8)
.LCPI42_11:
	.long	.Ltmp615-(.LPC42_11+8)
.LCPI42_12:
	.long	.Ltmp614-(.LPC42_12+8)
.LCPI42_13:
	.long	.Ltmp613-(.LPC42_13+8)
.LCPI42_14:
	.long	.Ltmp612-(.LPC42_14+8)
.LCPI42_15:
	.long	.Ltmp611-(.LPC42_15+8)
.LCPI42_16:
	.long	.Ltmp606-(.LPC42_16+8)
.LCPI42_17:
	.long	.Ltmp605-(.LPC42_17+8)
.LCPI42_18:
	.long	mono_inited-(.LPC42_18+8)
.LCPI42_19:
	.long	mono_aot_SQLite_net_llvm_got-(.LPC42_19+8)
.LCPI42_20:
	.long	mono_aot_SQLite_net_llvm_got-(.LPC42_20+8)
.Lfunc_end42:
	.size	SQLite_SQLiteCommand__ExecuteQueryScalarsd__14_1_T_REF_MoveNext, .Lfunc_end42-SQLite_SQLiteCommand__ExecuteQueryScalarsd__14_1_T_REF_MoveNext
.Lexception38:
	.fnend

	.hidden	SQLite_SQLiteCommand__ExecuteQueryScalarsd__14_1_T_REF__m__Finally1
	.globl	SQLite_SQLiteCommand__ExecuteQueryScalarsd__14_1_T_REF__m__Finally1
	.p2align	2
	.type	SQLite_SQLiteCommand__ExecuteQueryScalarsd__14_1_T_REF__m__Finally1,%function
	.code	32
SQLite_SQLiteCommand__ExecuteQueryScalarsd__14_1_T_REF__m__Finally1:
.Lfunc_begin43:
	.fnstart
	.save	{r4, lr}
	push	{r4, lr}
.Ltmp622:
.Ltmp623:
.Ltmp624:
	.pad	#8
	sub	sp, sp, #8
.Ltmp625:
	ldr	r1, .LCPI43_3
.LPC43_3:
	add	r1, pc, r1
	ldr	r1, [r1, #28]
	str	r0, [sp]
	str	r0, [sp, #4]
	ldr	r4, [sp, #4]
	ldr	r0, [r1]
	cmp	r0, #0
	blne	mono_aot_SQLite_net_icall_cold_wrapper_265
	cmp	r4, #0
	beq	.LBB43_4
	mvn	r0, #0
	str	r0, [r4, #20]
	ldr	r0, [sp, #4]
	cmp	r0, #0
	beq	.LBB43_5
	ldr	r0, [r0, #12]
	ldr	r1, [sp, #4]
	cmp	r1, #0
	beq	.LBB43_6
	ldr	r1, [r1, #16]
	bl	p_109_plt_SQLite_SQLiteCommand_Finalize_SQLitePCL_sqlite3_stmt_llvm
	add	sp, sp, #8
	pop	{r4, pc}
.Ltmp626:
.LBB43_4:
	ldr	r0, .LCPI43_2
.LPC43_2:
	add	r1, pc, r0
	mov	r0, #225
	bl	p_23_plt__jit_icall_llvm_throw_corlib_exception_abs_trampoline_llvm
.Ltmp627:
.LBB43_5:
	ldr	r0, .LCPI43_1
.LPC43_1:
	add	r1, pc, r0
	mov	r0, #225
	bl	p_23_plt__jit_icall_llvm_throw_corlib_exception_abs_trampoline_llvm
.Ltmp628:
.LBB43_6:
	ldr	r0, .LCPI43_0
.LPC43_0:
	add	r1, pc, r0
	mov	r0, #225
	bl	p_23_plt__jit_icall_llvm_throw_corlib_exception_abs_trampoline_llvm
	.p2align	2
.LCPI43_0:
	.long	.Ltmp628-(.LPC43_0+8)
.LCPI43_1:
	.long	.Ltmp627-(.LPC43_1+8)
.LCPI43_2:
	.long	.Ltmp626-(.LPC43_2+8)
.LCPI43_3:
	.long	mono_aot_SQLite_net_llvm_got-(.LPC43_3+8)
.Lfunc_end43:
	.size	SQLite_SQLiteCommand__ExecuteQueryScalarsd__14_1_T_REF__m__Finally1, .Lfunc_end43-SQLite_SQLiteCommand__ExecuteQueryScalarsd__14_1_T_REF__m__Finally1
.Lexception39:
	.fnend

	.hidden	SQLite_SQLiteCommand__ExecuteQueryScalarsd__14_1_T_REF_System_Collections_Generic_IEnumerator_T_get_Current
	.globl	SQLite_SQLiteCommand__ExecuteQueryScalarsd__14_1_T_REF_System_Collections_Generic_IEnumerator_T_get_Current
	.p2align	2
	.type	SQLite_SQLiteCommand__ExecuteQueryScalarsd__14_1_T_REF_System_Collections_Generic_IEnumerator_T_get_Current,%function
	.code	32
SQLite_SQLiteCommand__ExecuteQueryScalarsd__14_1_T_REF_System_Collections_Generic_IEnumerator_T_get_Current:
.Lfunc_begin44:
	.fnstart
	.save	{r11, lr}
	push	{r11, lr}
.Ltmp629:
.Ltmp630:
.Ltmp631:
	.pad	#8
	sub	sp, sp, #8
.Ltmp632:
	str	r0, [sp]
	str	r0, [sp, #4]
	ldr	r0, [sp, #4]
	cmp	r0, #0
	ldrne	r0, [r0, #8]
	addne	sp, sp, #8
	popne	{r11, pc}
.Ltmp633:
.LBB44_1:
	ldr	r0, .LCPI44_0
.LPC44_0:
	add	r1, pc, r0
	mov	r0, #225
	bl	p_23_plt__jit_icall_llvm_throw_corlib_exception_abs_trampoline_llvm
	.p2align	2
.LCPI44_0:
	.long	.Ltmp633-(.LPC44_0+8)
.Lfunc_end44:
	.size	SQLite_SQLiteCommand__ExecuteQueryScalarsd__14_1_T_REF_System_Collections_Generic_IEnumerator_T_get_Current, .Lfunc_end44-SQLite_SQLiteCommand__ExecuteQueryScalarsd__14_1_T_REF_System_Collections_Generic_IEnumerator_T_get_Current
.Lexception40:
	.fnend

	.hidden	SQLite_SQLiteCommand__ExecuteQueryScalarsd__14_1_T_REF_System_Collections_IEnumerator_Reset
	.globl	SQLite_SQLiteCommand__ExecuteQueryScalarsd__14_1_T_REF_System_Collections_IEnumerator_Reset
	.p2align	2
	.type	SQLite_SQLiteCommand__ExecuteQueryScalarsd__14_1_T_REF_System_Collections_IEnumerator_Reset,%function
	.code	32
SQLite_SQLiteCommand__ExecuteQueryScalarsd__14_1_T_REF_System_Collections_IEnumerator_Reset:
.Lfunc_begin45:
	.fnstart
	.save	{r11, lr}
	push	{r11, lr}
.Ltmp634:
.Ltmp635:
.Ltmp636:
	.pad	#8
	sub	sp, sp, #8
.Ltmp637:
	ldr	r1, .LCPI45_0
.LPC45_0:
	add	r1, pc, r1
	ldr	r1, [r1, #28]
	str	r0, [sp, #4]
	ldr	r0, [r1]
	cmp	r0, #0
	blne	mono_aot_SQLite_net_icall_cold_wrapper_265
	movw	r0, #224
	movt	r0, #512
	bl	p_123_plt__jit_icall_mono_create_corlib_exception_0_llvm
	bl	p_32_plt__jit_icall_mono_arch_throw_exception_llvm
	.p2align	2
.LCPI45_0:
	.long	mono_aot_SQLite_net_llvm_got-(.LPC45_0+8)
.Lfunc_end45:
	.size	SQLite_SQLiteCommand__ExecuteQueryScalarsd__14_1_T_REF_System_Collections_IEnumerator_Reset, .Lfunc_end45-SQLite_SQLiteCommand__ExecuteQueryScalarsd__14_1_T_REF_System_Collections_IEnumerator_Reset
.Lexception41:
	.fnend

	.hidden	SQLite_SQLiteCommand__ExecuteQueryScalarsd__14_1_T_REF_System_Collections_IEnumerator_get_Current
	.globl	SQLite_SQLiteCommand__ExecuteQueryScalarsd__14_1_T_REF_System_Collections_IEnumerator_get_Current
	.p2align	2
	.type	SQLite_SQLiteCommand__ExecuteQueryScalarsd__14_1_T_REF_System_Collections_IEnumerator_get_Current,%function
	.code	32
SQLite_SQLiteCommand__ExecuteQueryScalarsd__14_1_T_REF_System_Collections_IEnumerator_get_Current:
.Lfunc_begin46:
	.fnstart
	.save	{r11, lr}
	push	{r11, lr}
.Ltmp638:
.Ltmp639:
.Ltmp640:
	.pad	#8
	sub	sp, sp, #8
.Ltmp641:
	str	r0, [sp]
	str	r0, [sp, #4]
	ldr	r0, [sp, #4]
	cmp	r0, #0
	ldrne	r0, [r0, #8]
	addne	sp, sp, #8
	popne	{r11, pc}
.Ltmp642:
.LBB46_1:
	ldr	r0, .LCPI46_0
.LPC46_0:
	add	r1, pc, r0
	mov	r0, #225
	bl	p_23_plt__jit_icall_llvm_throw_corlib_exception_abs_trampoline_llvm
	.p2align	2
.LCPI46_0:
	.long	.Ltmp642-(.LPC46_0+8)
.Lfunc_end46:
	.size	SQLite_SQLiteCommand__ExecuteQueryScalarsd__14_1_T_REF_System_Collections_IEnumerator_get_Current, .Lfunc_end46-SQLite_SQLiteCommand__ExecuteQueryScalarsd__14_1_T_REF_System_Collections_IEnumerator_get_Current
.Lexception42:
	.fnend

	.hidden	SQLite_SQLiteCommand__ExecuteQueryScalarsd__14_1_T_REF_System_Collections_Generic_IEnumerable_T_GetEnumerator
	.globl	SQLite_SQLiteCommand__ExecuteQueryScalarsd__14_1_T_REF_System_Collections_Generic_IEnumerable_T_GetEnumerator
	.p2align	2
	.type	SQLite_SQLiteCommand__ExecuteQueryScalarsd__14_1_T_REF_System_Collections_Generic_IEnumerable_T_GetEnumerator,%function
	.code	32
SQLite_SQLiteCommand__ExecuteQueryScalarsd__14_1_T_REF_System_Collections_Generic_IEnumerable_T_GetEnumerator:
.Lfunc_begin47:
	.fnstart
	.save	{r4, r5, r11, lr}
	push	{r4, r5, r11, lr}
.Ltmp643:
.Ltmp644:
.Ltmp645:
.Ltmp646:
.Ltmp647:
	.pad	#8
	sub	sp, sp, #8
.Ltmp648:
	ldr	r5, .LCPI47_4
.LPC47_4:
	add	r5, pc, r5
	ldr	r1, [r5, #28]
	str	r0, [sp]
	str	r0, [sp, #4]
	ldr	r4, [sp, #4]
	ldr	r0, [r1]
	cmp	r0, #0
	blne	mono_aot_SQLite_net_icall_cold_wrapper_265
	cmp	r4, #0
	beq	.LBB47_9
	ldr	r0, [r4, #20]
	cmn	r0, #2
	bne	.LBB47_6
	ldr	r0, [sp, #4]
	cmp	r0, #0
	beq	.LBB47_11
	ldr	r4, [r0, #24]
	bl	p_113_plt_System_Environment_get_CurrentManagedThreadId_llvm
	cmp	r4, r0
	bne	.LBB47_6
	ldr	r0, [sp, #4]
	cmp	r0, #0
	beq	.LBB47_12
	mov	r1, #0
	str	r1, [r0, #20]
	ldr	r4, [sp, #4]
	b	.LBB47_8
.LBB47_6:
	ldr	r0, [sp, #4]
	ldr	r0, [r0]
	bl	p_131_plt__rgctx_fetch_52_llvm
	mov	r1, #28
	bl	p_40_plt_wrapper_alloc_object_AllocSmall_intptr_intptr_llvm
	mov	r1, #0
	mov	r4, r0
	bl	p_132_plt_SQLite_SQLiteCommand__ExecuteQueryScalarsd__14_1_T_REF__ctor_int_0_llvm
	ldr	r0, [sp, #4]
	cmp	r0, #0
	beq	.LBB47_10
	ldr	r0, [r0, #12]
	mov	r2, r4
	ldr	r1, [r5, #8]
	dmb	ish
	str	r0, [r2, #12]!
	mov	r0, #1
	strb	r0, [r1, r2, lsr #9]
.LBB47_8:
	mov	r0, r4
	add	sp, sp, #8
	pop	{r4, r5, r11, pc}
.Ltmp649:
.LBB47_9:
	ldr	r0, .LCPI47_3
.LPC47_3:
	add	r1, pc, r0
	mov	r0, #225
	bl	p_23_plt__jit_icall_llvm_throw_corlib_exception_abs_trampoline_llvm
.Ltmp650:
.LBB47_10:
	ldr	r0, .LCPI47_0
.LPC47_0:
	add	r1, pc, r0
	mov	r0, #225
	bl	p_23_plt__jit_icall_llvm_throw_corlib_exception_abs_trampoline_llvm
.Ltmp651:
.LBB47_11:
	ldr	r0, .LCPI47_2
.LPC47_2:
	add	r1, pc, r0
	mov	r0, #225
	bl	p_23_plt__jit_icall_llvm_throw_corlib_exception_abs_trampoline_llvm
.Ltmp652:
.LBB47_12:
	ldr	r0, .LCPI47_1
.LPC47_1:
	add	r1, pc, r0
	mov	r0, #225
	bl	p_23_plt__jit_icall_llvm_throw_corlib_exception_abs_trampoline_llvm
	.p2align	2
.LCPI47_0:
	.long	.Ltmp650-(.LPC47_0+8)
.LCPI47_1:
	.long	.Ltmp652-(.LPC47_1+8)
.LCPI47_2:
	.long	.Ltmp651-(.LPC47_2+8)
.LCPI47_3:
	.long	.Ltmp649-(.LPC47_3+8)
.LCPI47_4:
	.long	mono_aot_SQLite_net_llvm_got-(.LPC47_4+8)
.Lfunc_end47:
	.size	SQLite_SQLiteCommand__ExecuteQueryScalarsd__14_1_T_REF_System_Collections_Generic_IEnumerable_T_GetEnumerator, .Lfunc_end47-SQLite_SQLiteCommand__ExecuteQueryScalarsd__14_1_T_REF_System_Collections_Generic_IEnumerable_T_GetEnumerator
.Lexception43:
	.fnend

	.hidden	SQLite_SQLiteCommand__ExecuteQueryScalarsd__14_1_T_REF_System_Collections_IEnumerable_GetEnumerator
	.globl	SQLite_SQLiteCommand__ExecuteQueryScalarsd__14_1_T_REF_System_Collections_IEnumerable_GetEnumerator
	.p2align	2
	.type	SQLite_SQLiteCommand__ExecuteQueryScalarsd__14_1_T_REF_System_Collections_IEnumerable_GetEnumerator,%function
	.code	32
SQLite_SQLiteCommand__ExecuteQueryScalarsd__14_1_T_REF_System_Collections_IEnumerable_GetEnumerator:
.Lfunc_begin48:
	.fnstart
	.save	{r4, lr}
	push	{r4, lr}
.Ltmp653:
.Ltmp654:
.Ltmp655:
	.pad	#8
	sub	sp, sp, #8
.Ltmp656:
	ldr	r1, .LCPI48_0
.LPC48_0:
	add	r1, pc, r1
	ldr	r1, [r1, #28]
	str	r0, [sp]
	str	r0, [sp, #4]
	ldr	r4, [sp, #4]
	ldr	r0, [r1]
	cmp	r0, #0
	blne	mono_aot_SQLite_net_icall_cold_wrapper_265
	mov	r0, r4
	bl	p_133_plt_SQLite_SQLiteCommand__ExecuteQueryScalarsd__14_1_T_REF_System_Collections_Generic_IEnumerable_T_GetEnumerator_llvm
	add	sp, sp, #8
	pop	{r4, pc}
	.p2align	2
.LCPI48_0:
	.long	mono_aot_SQLite_net_llvm_got-(.LPC48_0+8)
.Lfunc_end48:
	.size	SQLite_SQLiteCommand__ExecuteQueryScalarsd__14_1_T_REF_System_Collections_IEnumerable_GetEnumerator, .Lfunc_end48-SQLite_SQLiteCommand__ExecuteQueryScalarsd__14_1_T_REF_System_Collections_IEnumerable_GetEnumerator
.Lexception44:
	.fnend

	.hidden	SQLite_TableQuery_1_T_REF_get_Connection
	.globl	SQLite_TableQuery_1_T_REF_get_Connection
	.p2align	2
	.type	SQLite_TableQuery_1_T_REF_get_Connection,%function
	.code	32
SQLite_TableQuery_1_T_REF_get_Connection:
.Lfunc_begin49:
	.fnstart
	.save	{r11, lr}
	push	{r11, lr}
.Ltmp657:
.Ltmp658:
.Ltmp659:
	.pad	#8
	sub	sp, sp, #8
.Ltmp660:
	str	r0, [sp]
	str	r0, [sp, #4]
	ldr	r0, [sp, #4]
	cmp	r0, #0
	ldrne	r0, [r0, #8]
	addne	sp, sp, #8
	popne	{r11, pc}
.Ltmp661:
.LBB49_1:
	ldr	r0, .LCPI49_0
.LPC49_0:
	add	r1, pc, r0
	mov	r0, #225
	bl	p_23_plt__jit_icall_llvm_throw_corlib_exception_abs_trampoline_llvm
	.p2align	2
.LCPI49_0:
	.long	.Ltmp661-(.LPC49_0+8)
.Lfunc_end49:
	.size	SQLite_TableQuery_1_T_REF_get_Connection, .Lfunc_end49-SQLite_TableQuery_1_T_REF_get_Connection
.Lexception45:
	.fnend

	.hidden	SQLite_TableQuery_1_T_REF_set_Connection_SQLite_SQLiteConnection
	.globl	SQLite_TableQuery_1_T_REF_set_Connection_SQLite_SQLiteConnection
	.p2align	2
	.type	SQLite_TableQuery_1_T_REF_set_Connection_SQLite_SQLiteConnection,%function
	.code	32
SQLite_TableQuery_1_T_REF_set_Connection_SQLite_SQLiteConnection:
.Lfunc_begin50:
	.fnstart
	.save	{r11, lr}
	push	{r11, lr}
.Ltmp662:
.Ltmp663:
.Ltmp664:
	.pad	#8
	sub	sp, sp, #8
.Ltmp665:
	str	r0, [sp]
	str	r0, [sp, #4]
	ldr	r0, [sp, #4]
	cmp	r0, #0
	beq	.LBB50_2
	ldr	r2, .LCPI50_1
	dmb	ish
	str	r1, [r0, #8]!
	mov	r1, #1
.LPC50_1:
	add	r2, pc, r2
	ldr	r2, [r2, #8]
	strb	r1, [r2, r0, lsr #9]
	add	sp, sp, #8
	pop	{r11, pc}
.Ltmp666:
.LBB50_2:
	ldr	r0, .LCPI50_0
.LPC50_0:
	add	r1, pc, r0
	mov	r0, #225
	bl	p_23_plt__jit_icall_llvm_throw_corlib_exception_abs_trampoline_llvm
	.p2align	2
.LCPI50_0:
	.long	.Ltmp666-(.LPC50_0+8)
.LCPI50_1:
	.long	mono_aot_SQLite_net_llvm_got-(.LPC50_1+8)
.Lfunc_end50:
	.size	SQLite_TableQuery_1_T_REF_set_Connection_SQLite_SQLiteConnection, .Lfunc_end50-SQLite_TableQuery_1_T_REF_set_Connection_SQLite_SQLiteConnection
.Lexception46:
	.fnend

	.hidden	SQLite_TableQuery_1_T_REF_get_Table
	.globl	SQLite_TableQuery_1_T_REF_get_Table
	.p2align	2
	.type	SQLite_TableQuery_1_T_REF_get_Table,%function
	.code	32
SQLite_TableQuery_1_T_REF_get_Table:
.Lfunc_begin51:
	.fnstart
	.save	{r11, lr}
	push	{r11, lr}
.Ltmp667:
.Ltmp668:
.Ltmp669:
	.pad	#8
	sub	sp, sp, #8
.Ltmp670:
	str	r0, [sp]
	str	r0, [sp, #4]
	ldr	r0, [sp, #4]
	cmp	r0, #0
	ldrne	r0, [r0, #12]
	addne	sp, sp, #8
	popne	{r11, pc}
.Ltmp671:
.LBB51_1:
	ldr	r0, .LCPI51_0
.LPC51_0:
	add	r1, pc, r0
	mov	r0, #225
	bl	p_23_plt__jit_icall_llvm_throw_corlib_exception_abs_trampoline_llvm
	.p2align	2
.LCPI51_0:
	.long	.Ltmp671-(.LPC51_0+8)
.Lfunc_end51:
	.size	SQLite_TableQuery_1_T_REF_get_Table, .Lfunc_end51-SQLite_TableQuery_1_T_REF_get_Table
.Lexception47:
	.fnend

	.hidden	SQLite_TableQuery_1_T_REF_set_Table_SQLite_TableMapping
	.globl	SQLite_TableQuery_1_T_REF_set_Table_SQLite_TableMapping
	.p2align	2
	.type	SQLite_TableQuery_1_T_REF_set_Table_SQLite_TableMapping,%function
	.code	32
SQLite_TableQuery_1_T_REF_set_Table_SQLite_TableMapping:
.Lfunc_begin52:
	.fnstart
	.save	{r11, lr}
	push	{r11, lr}
.Ltmp672:
.Ltmp673:
.Ltmp674:
	.pad	#8
	sub	sp, sp, #8
.Ltmp675:
	str	r0, [sp]
	str	r0, [sp, #4]
	ldr	r0, [sp, #4]
	cmp	r0, #0
	beq	.LBB52_2
	ldr	r2, .LCPI52_1
	dmb	ish
	str	r1, [r0, #12]!
	mov	r1, #1
.LPC52_1:
	add	r2, pc, r2
	ldr	r2, [r2, #8]
	strb	r1, [r2, r0, lsr #9]
	add	sp, sp, #8
	pop	{r11, pc}
.Ltmp676:
.LBB52_2:
	ldr	r0, .LCPI52_0
.LPC52_0:
	add	r1, pc, r0
	mov	r0, #225
	bl	p_23_plt__jit_icall_llvm_throw_corlib_exception_abs_trampoline_llvm
	.p2align	2
.LCPI52_0:
	.long	.Ltmp676-(.LPC52_0+8)
.LCPI52_1:
	.long	mono_aot_SQLite_net_llvm_got-(.LPC52_1+8)
.Lfunc_end52:
	.size	SQLite_TableQuery_1_T_REF_set_Table_SQLite_TableMapping, .Lfunc_end52-SQLite_TableQuery_1_T_REF_set_Table_SQLite_TableMapping
.Lexception48:
	.fnend

	.hidden	SQLite_TableQuery_1_T_REF__ctor_SQLite_SQLiteConnection_SQLite_TableMapping
	.globl	SQLite_TableQuery_1_T_REF__ctor_SQLite_SQLiteConnection_SQLite_TableMapping
	.p2align	2
	.type	SQLite_TableQuery_1_T_REF__ctor_SQLite_SQLiteConnection_SQLite_TableMapping,%function
	.code	32
SQLite_TableQuery_1_T_REF__ctor_SQLite_SQLiteConnection_SQLite_TableMapping:
.Lfunc_begin53:
	.fnstart
	.save	{r11, lr}
	push	{r11, lr}
.Ltmp677:
.Ltmp678:
.Ltmp679:
	.pad	#8
	sub	sp, sp, #8
.Ltmp680:
	str	r0, [sp]
	str	r0, [sp, #4]
	ldr	r3, [sp, #4]
	cmp	r3, #0
	beq	.LBB53_3
	ldr	r0, .LCPI53_2
	dmb	ish
	str	r1, [r3, #8]!
	mov	r1, #1
.LPC53_2:
	add	r0, pc, r0
	ldr	r0, [r0, #8]
	strb	r1, [r0, r3, lsr #9]
	ldr	r3, [sp, #4]
	cmp	r3, #0
	beq	.LBB53_4
	dmb	ish
	str	r2, [r3, #12]!
	lsr	r2, r3, #9
	strb	r1, [r2, r0]
	add	sp, sp, #8
	pop	{r11, pc}
.Ltmp681:
.LBB53_3:
	ldr	r0, .LCPI53_1
.LPC53_1:
	add	r1, pc, r0
	mov	r0, #225
	bl	p_23_plt__jit_icall_llvm_throw_corlib_exception_abs_trampoline_llvm
.Ltmp682:
.LBB53_4:
	ldr	r0, .LCPI53_0
.LPC53_0:
	add	r1, pc, r0
	mov	r0, #225
	bl	p_23_plt__jit_icall_llvm_throw_corlib_exception_abs_trampoline_llvm
	.p2align	2
.LCPI53_0:
	.long	.Ltmp682-(.LPC53_0+8)
.LCPI53_1:
	.long	.Ltmp681-(.LPC53_1+8)
.LCPI53_2:
	.long	mono_aot_SQLite_net_llvm_got-(.LPC53_2+8)
.Lfunc_end53:
	.size	SQLite_TableQuery_1_T_REF__ctor_SQLite_SQLiteConnection_SQLite_TableMapping, .Lfunc_end53-SQLite_TableQuery_1_T_REF__ctor_SQLite_SQLiteConnection_SQLite_TableMapping
.Lexception49:
	.fnend

	.hidden	SQLite_TableQuery_1_T_REF__ctor_SQLite_SQLiteConnection
	.globl	SQLite_TableQuery_1_T_REF__ctor_SQLite_SQLiteConnection
	.p2align	2
	.type	SQLite_TableQuery_1_T_REF__ctor_SQLite_SQLiteConnection,%function
	.code	32
SQLite_TableQuery_1_T_REF__ctor_SQLite_SQLiteConnection:
.Lfunc_begin54:
	.fnstart
	.save	{r4, r5, r6, lr}
	push	{r4, r5, r6, lr}
.Ltmp683:
.Ltmp684:
.Ltmp685:
.Ltmp686:
.Ltmp687:
	.pad	#8
	sub	sp, sp, #8
.Ltmp688:
	ldr	r5, .LCPI54_4
	mov	r4, r1
.LPC54_4:
	add	r5, pc, r5
	ldr	r1, [r5, #28]
	str	r0, [sp]
	str	r0, [sp, #4]
	ldr	r6, [sp, #4]
	ldr	r0, [r1]
	cmp	r0, #0
	blne	mono_aot_SQLite_net_icall_cold_wrapper_265
	cmp	r6, #0
	beq	.LBB54_5
	ldr	r5, [r5, #8]
	dmb	ish
	str	r4, [r6, #8]!
	mov	r0, #1
	strb	r0, [r5, r6, lsr #9]
	ldr	r6, [sp, #4]
	ldr	r0, [sp, #4]
	cmp	r0, #0
	beq	.LBB54_6
	ldr	r4, [r0, #8]
	ldr	r0, [sp, #4]
	ldr	r0, [r0]
	bl	p_134_plt__rgctx_fetch_53_llvm
	mov	r1, r0
	cmp	r4, #0
	beq	.LBB54_7
	mov	r0, r4
	mov	r2, #0
	bl	p_2_plt_SQLite_SQLiteConnection_GetMapping_System_Type_SQLite_CreateFlags_llvm
	cmp	r6, #0
	beq	.LBB54_8
	dmb	ish
	str	r0, [r6, #12]!
	mov	r1, #1
	lsr	r0, r6, #9
	strb	r1, [r0, r5]
	add	sp, sp, #8
	pop	{r4, r5, r6, pc}
.Ltmp689:
.LBB54_5:
	ldr	r0, .LCPI54_3
.LPC54_3:
	add	r1, pc, r0
	mov	r0, #225
	bl	p_23_plt__jit_icall_llvm_throw_corlib_exception_abs_trampoline_llvm
.Ltmp690:
.LBB54_6:
	ldr	r0, .LCPI54_2
.LPC54_2:
	add	r1, pc, r0
	mov	r0, #225
	bl	p_23_plt__jit_icall_llvm_throw_corlib_exception_abs_trampoline_llvm
.Ltmp691:
.LBB54_7:
	ldr	r0, .LCPI54_1
.LPC54_1:
	add	r1, pc, r0
	mov	r0, #225
	bl	p_23_plt__jit_icall_llvm_throw_corlib_exception_abs_trampoline_llvm
.Ltmp692:
.LBB54_8:
	ldr	r0, .LCPI54_0
.LPC54_0:
	add	r1, pc, r0
	mov	r0, #225
	bl	p_23_plt__jit_icall_llvm_throw_corlib_exception_abs_trampoline_llvm
	.p2align	2
.LCPI54_0:
	.long	.Ltmp692-(.LPC54_0+8)
.LCPI54_1:
	.long	.Ltmp691-(.LPC54_1+8)
.LCPI54_2:
	.long	.Ltmp690-(.LPC54_2+8)
.LCPI54_3:
	.long	.Ltmp689-(.LPC54_3+8)
.LCPI54_4:
	.long	mono_aot_SQLite_net_llvm_got-(.LPC54_4+8)
.Lfunc_end54:
	.size	SQLite_TableQuery_1_T_REF__ctor_SQLite_SQLiteConnection, .Lfunc_end54-SQLite_TableQuery_1_T_REF__ctor_SQLite_SQLiteConnection
.Lexception50:
	.fnend

	.hidden	SQLite_TableQuery_1_T_REF_Clone_U_REF
	.globl	SQLite_TableQuery_1_T_REF_Clone_U_REF
	.p2align	2
	.type	SQLite_TableQuery_1_T_REF_Clone_U_REF,%function
	.code	32
SQLite_TableQuery_1_T_REF_Clone_U_REF:
.Lfunc_begin55:
	.fnstart
	.save	{r4, r5, r6, r7, r9, r10, r11, lr}
	push	{r4, r5, r6, r7, r9, r10, r11, lr}
.Ltmp693:
.Ltmp694:
.Ltmp695:
.Ltmp696:
.Ltmp697:
.Ltmp698:
.Ltmp699:
.Ltmp700:
.Ltmp701:
	.pad	#8
	sub	sp, sp, #8
.Ltmp702:
	ldr	r11, .LCPI55_1
	mov	r4, r0
	ldr	r0, .LCPI55_2
.LPC55_1:
	add	r11, pc, r11
.LPC55_2:
	add	r0, pc, r0
	ldr	r1, [r11, #28]
	ldrb	r5, [r0, #362]
	str	r8, [sp, #4]
	ldr	r0, [r1]
	cmp	r0, #0
	blne	mono_aot_SQLite_net_icall_cold_wrapper_265
	cmp	r5, #0
	beq	.LBB55_6
	cmp	r4, #0
	beq	.LBB55_7
.LBB55_2:
	ldr	r6, [r4, #8]
	ldr	r7, [r4, #12]
	ldr	r0, [sp, #4]
	bl	p_135_plt__rgctx_fetch_54_llvm
	mov	r1, #68
	bl	p_40_plt_wrapper_alloc_object_AllocSmall_intptr_intptr_llvm
	mov	r1, r6
	mov	r2, r7
	mov	r5, r0
	bl	p_136_plt_SQLite_TableQuery_1_U_REF__ctor_SQLite_SQLiteConnection_SQLite_TableMapping_llvm
	ldr	r0, [r4, #16]
	dmb	ish
	ldr	r6, [r11, #8]
	mov	r10, #1
	str	r0, [r5, #16]
	add	r0, r5, #16
	strb	r10, [r6, r0, lsr #9]
	ldrb	r0, [r4, #64]
	strb	r0, [r5, #64]
	ldr	r9, [r4, #20]
	cmp	r9, #0
	beq	.LBB55_5
	ldr	r7, [r11, #144]
	ldrb	r0, [r7, #25]
	cmp	r0, #0
	beq	.LBB55_8
.LBB55_4:
	mov	r0, r7
	mov	r1, #24
	bl	p_40_plt_wrapper_alloc_object_AllocSmall_intptr_intptr_llvm
	mov	r1, r9
	mov	r7, r0
	bl	p_137_plt_System_Collections_Generic_List_1_SQLite_BaseTableQuery_Ordering__ctor_System_Collections_Generic_IEnumerable_1_SQLite_BaseTableQuery_Ordering_llvm
	mov	r0, r5
	dmb	ish
	str	r7, [r0, #20]!
	mov	r1, #1
	strb	r1, [r6, r0, lsr #9]
.LBB55_5:
	ldr	r0, [r4, #48]
	ldr	r1, [r4, #52]
	str	r1, [r5, #52]
	str	r0, [r5, #48]
	ldr	r1, [r4, #60]
	ldr	r0, [r4, #56]
	strd	r0, r1, [r5, #56]
	ldr	r0, [r4, #24]
	dmb	ish
	str	r0, [r5, #24]
	add	r0, r5, #24
	strb	r10, [r6, r0, lsr #9]
	ldr	r0, [r4, #28]
	dmb	ish
	str	r0, [r5, #28]
	add	r0, r5, #28
	strb	r10, [r6, r0, lsr #9]
	ldr	r0, [r4, #32]
	dmb	ish
	str	r0, [r5, #32]
	add	r0, r5, #32
	strb	r10, [r6, r0, lsr #9]
	ldr	r0, [r4, #36]
	dmb	ish
	str	r0, [r5, #36]
	add	r0, r5, #36
	strb	r10, [r6, r0, lsr #9]
	ldr	r0, [r4, #40]
	dmb	ish
	str	r0, [r5, #40]
	add	r0, r5, #40
	strb	r10, [r6, r0, lsr #9]
	ldr	r0, [r4, #44]
	dmb	ish
	str	r0, [r5, #44]
	add	r0, r5, #44
	strb	r10, [r6, r0, lsr #9]
	mov	r0, r5
	add	sp, sp, #8
	pop	{r4, r5, r6, r7, r9, r10, r11, pc}
.LBB55_6:
	movw	r0, #362
	mov	r1, r8
	bl	mono_aot_SQLite_net_init_method_gshared_mrgctx
	cmp	r4, #0
	bne	.LBB55_2
.Ltmp703:
.LBB55_7:
	ldr	r0, .LCPI55_0
.LPC55_0:
	add	r1, pc, r0
	mov	r0, #225
	bl	p_23_plt__jit_icall_llvm_throw_corlib_exception_abs_trampoline_llvm
.LBB55_8:
	mov	r0, r7
	bl	p_138_plt__jit_icall_mono_generic_class_init_llvm
	b	.LBB55_4
	.p2align	2
.LCPI55_0:
	.long	.Ltmp703-(.LPC55_0+8)
.LCPI55_1:
	.long	mono_aot_SQLite_net_llvm_got-(.LPC55_1+8)
.LCPI55_2:
	.long	mono_inited-(.LPC55_2+8)
.Lfunc_end55:
	.size	SQLite_TableQuery_1_T_REF_Clone_U_REF, .Lfunc_end55-SQLite_TableQuery_1_T_REF_Clone_U_REF
.Lexception51:
	.fnend

	.hidden	SQLite_TableQuery_1_T_REF_Where_System_Linq_Expressions_Expression_1_System_Func_2_T_REF_bool
	.globl	SQLite_TableQuery_1_T_REF_Where_System_Linq_Expressions_Expression_1_System_Func_2_T_REF_bool
	.p2align	2
	.type	SQLite_TableQuery_1_T_REF_Where_System_Linq_Expressions_Expression_1_System_Func_2_T_REF_bool,%function
	.code	32
SQLite_TableQuery_1_T_REF_Where_System_Linq_Expressions_Expression_1_System_Func_2_T_REF_bool:
.Lfunc_begin56:
	.fnstart
	.save	{r4, r5, r8, lr}
	push	{r4, r5, r8, lr}
.Ltmp704:
.Ltmp705:
.Ltmp706:
.Ltmp707:
.Ltmp708:
	.pad	#16
	sub	sp, sp, #16
.Ltmp709:
	mov	r4, r1
	ldr	r1, .LCPI56_2
.LPC56_2:
	add	r1, pc, r1
	ldr	r1, [r1, #28]
	str	r0, [sp, #8]
	str	r0, [sp, #12]
	ldr	r0, [r1]
	cmp	r0, #0
	blne	mono_aot_SQLite_net_icall_cold_wrapper_265
	cmp	r4, #0
	beq	.LBB56_4
	ldr	r0, [r4]
	ldr	r1, [r0, #76]
	mov	r0, r4
	blx	r1
	cmp	r0, #18
	bne	.LBB56_5
	ldr	r4, [r4, #8]
	ldr	r5, [sp, #12]
	ldr	r0, [sp, #12]
	ldr	r0, [r0]
	bl	p_139_plt__rgctx_fetch_55_llvm
	str	r0, [sp, #4]
	mov	r0, r5
	ldr	r8, [sp, #4]
	bl	p_140_plt_SQLite_TableQuery_1_T_REF_Clone_T_REF_llvm
	mov	r5, r0
	cmp	r5, #0
	beq	.LBB56_6
	mov	r0, r5
	mov	r1, r4
	bl	p_141_plt_SQLite_TableQuery_1_T_REF_AddWhere_System_Linq_Expressions_Expression_llvm
	mov	r0, r5
	add	sp, sp, #16
	pop	{r4, r5, r8, pc}
.Ltmp710:
.LBB56_4:
	ldr	r0, .LCPI56_1
.LPC56_1:
	add	r1, pc, r0
	mov	r0, #225
	bl	p_23_plt__jit_icall_llvm_throw_corlib_exception_abs_trampoline_llvm
.LBB56_5:
	ldr	r0, .LCPI56_3
	movw	r1, #3433
.LPC56_3:
	ldr	r0, [pc, r0]
	bl	p_30_plt__jit_icall_mono_helper_ldstr_llvm
	mov	r1, r0
	movw	r0, #224
	movt	r0, #512
	bl	p_31_plt__jit_icall_mono_create_corlib_exception_1_llvm
	bl	p_32_plt__jit_icall_mono_arch_throw_exception_llvm
.Ltmp711:
.LBB56_6:
	ldr	r0, .LCPI56_0
.LPC56_0:
	add	r1, pc, r0
	mov	r0, #225
	bl	p_23_plt__jit_icall_llvm_throw_corlib_exception_abs_trampoline_llvm
	.p2align	2
.LCPI56_0:
	.long	.Ltmp711-(.LPC56_0+8)
.LCPI56_1:
	.long	.Ltmp710-(.LPC56_1+8)
.LCPI56_2:
	.long	mono_aot_SQLite_net_llvm_got-(.LPC56_2+8)
.LCPI56_3:
	.long	mono_aot_SQLite_net_llvm_got-(.LPC56_3+8)
.Lfunc_end56:
	.size	SQLite_TableQuery_1_T_REF_Where_System_Linq_Expressions_Expression_1_System_Func_2_T_REF_bool, .Lfunc_end56-SQLite_TableQuery_1_T_REF_Where_System_Linq_Expressions_Expression_1_System_Func_2_T_REF_bool
.Lexception52:
	.fnend

	.hidden	SQLite_TableQuery_1_T_REF_Delete
	.globl	SQLite_TableQuery_1_T_REF_Delete
	.p2align	2
	.type	SQLite_TableQuery_1_T_REF_Delete,%function
	.code	32
SQLite_TableQuery_1_T_REF_Delete:
.Lfunc_begin57:
	.fnstart
	.save	{r4, lr}
	push	{r4, lr}
.Ltmp712:
.Ltmp713:
.Ltmp714:
	.pad	#8
	sub	sp, sp, #8
.Ltmp715:
	ldr	r1, .LCPI57_0
.LPC57_0:
	add	r1, pc, r1
	ldr	r1, [r1, #28]
	str	r0, [sp]
	str	r0, [sp, #4]
	ldr	r4, [sp, #4]
	ldr	r0, [r1]
	cmp	r0, #0
	blne	mono_aot_SQLite_net_icall_cold_wrapper_265
	mov	r0, r4
	mov	r1, #0
	bl	p_142_plt_SQLite_TableQuery_1_T_REF_Delete_System_Linq_Expressions_Expression_1_System_Func_2_T_REF_bool_llvm
	add	sp, sp, #8
	pop	{r4, pc}
	.p2align	2
.LCPI57_0:
	.long	mono_aot_SQLite_net_llvm_got-(.LPC57_0+8)
.Lfunc_end57:
	.size	SQLite_TableQuery_1_T_REF_Delete, .Lfunc_end57-SQLite_TableQuery_1_T_REF_Delete
.Lexception53:
	.fnend

	.hidden	SQLite_TableQuery_1_T_REF_Delete_System_Linq_Expressions_Expression_1_System_Func_2_T_REF_bool
	.globl	SQLite_TableQuery_1_T_REF_Delete_System_Linq_Expressions_Expression_1_System_Func_2_T_REF_bool
	.p2align	2
	.type	SQLite_TableQuery_1_T_REF_Delete_System_Linq_Expressions_Expression_1_System_Func_2_T_REF_bool,%function
	.code	32
SQLite_TableQuery_1_T_REF_Delete_System_Linq_Expressions_Expression_1_System_Func_2_T_REF_bool:
.Lfunc_begin58:
	.fnstart
	.save	{r4, r5, r6, r7, r9, lr}
	push	{r4, r5, r6, r7, r9, lr}
.Ltmp716:
.Ltmp717:
.Ltmp718:
.Ltmp719:
.Ltmp720:
.Ltmp721:
.Ltmp722:
	.pad	#8
	sub	sp, sp, #8
.Ltmp723:
	mov	r5, r0
	ldr	r0, .LCPI58_12
	ldr	r9, .LCPI58_13
	mov	r4, r1
.LPC58_12:
	add	r0, pc, r0
.LPC58_13:
	add	r9, pc, r9
	ldrb	r6, [r0, #365]
	ldr	r0, [r9, #28]
	str	r5, [sp]
	str	r5, [sp, #4]
	ldr	r0, [r0]
	cmp	r0, #0
	blne	mono_aot_SQLite_net_icall_cold_wrapper_265
	cmp	r6, #0
	beq	.LBB58_24
.LBB58_1:
	ldr	r0, [sp, #4]
	cmp	r0, #0
	beq	.LBB58_28
	adds	r0, r0, #48
	beq	.LBB58_29
	ldrb	r0, [r0]
	cmp	r0, #0
	bne	.LBB58_27
	ldr	r0, [sp, #4]
	cmp	r0, #0
	beq	.LBB58_30
	adds	r0, r0, #56
	beq	.LBB58_31
	ldrb	r0, [r0]
	cmp	r0, #0
	bne	.LBB58_27
	ldr	r0, [sp, #4]
	cmp	r0, #0
	beq	.LBB58_32
	cmp	r4, #0
	ldreq	r0, [r0, #16]
	cmpeq	r0, #0
	beq	.LBB58_33
	ldr	r0, [sp, #4]
	cmp	r0, #0
	beq	.LBB58_35
	ldr	r5, [r0, #16]
	cmp	r4, #0
	beq	.LBB58_15
	ldr	r0, [r4]
	ldr	r1, [r0, #76]
	mov	r0, r4
	blx	r1
	cmp	r0, #18
	bne	.LBB58_15
	ldr	r1, [r4, #8]
	cmp	r5, #0
	beq	.LBB58_14
	mov	r0, r5
	bl	p_147_plt_System_Linq_Expressions_Expression_AndAlso_System_Linq_Expressions_Expression_System_Linq_Expressions_Expression_llvm
	mov	r5, r0
	b	.LBB58_15
.LBB58_14:
	mov	r5, r1
.LBB58_15:
	ldr	r4, [r9, #148]
	ldrb	r0, [r4, #25]
	cmp	r0, #0
	beq	.LBB58_25
.LBB58_16:
	mov	r0, r4
	mov	r1, #24
	bl	p_40_plt_wrapper_alloc_object_AllocSmall_intptr_intptr_llvm
	mov	r6, r0
	ldr	r0, [r9, #152]
	ldr	r1, [r9, #8]
	mov	r2, r6
	ldr	r0, [r0]
	dmb	ish
	str	r0, [r2, #8]!
	mov	r0, #1
	strb	r0, [r1, r2, lsr #9]
	ldr	r0, [sp, #4]
	cmp	r0, #0
	beq	.LBB58_36
	ldr	r1, [r0, #12]
	cmp	r1, #0
	beq	.LBB58_37
	ldr	r0, [r9, #156]
	ldr	r2, [r9, #160]
	ldr	r1, [r1, #12]
	bl	p_143_plt_string_Concat_string_string_string_llvm
	mov	r7, r0
	ldr	r0, [sp, #4]
	mov	r1, r5
	mov	r2, r6
	bl	p_144_plt_SQLite_TableQuery_1_T_REF_CompileExpr_System_Linq_Expressions_Expression_System_Collections_Generic_List_1_object_llvm
	cmp	r0, #0
	beq	.LBB58_38
	ldr	r2, [r0, #8]
	mov	r0, r7
	ldr	r1, [r9, #164]
	bl	p_143_plt_string_Concat_string_string_string_llvm
	mov	r5, r0
	ldr	r0, [sp, #4]
	cmp	r0, #0
	beq	.LBB58_39
	ldr	r7, [r0, #8]
	ldrb	r0, [r4, #25]
	cmp	r0, #0
	beq	.LBB58_26
.LBB58_21:
	mov	r0, r6
	bl	p_145_plt_System_Collections_Generic_List_1_object_ToArray_llvm
	mov	r2, r0
	cmp	r7, #0
	beq	.LBB58_40
	mov	r0, r7
	mov	r1, r5
	bl	p_33_plt_SQLite_SQLiteConnection_CreateCommand_string_object___llvm
	cmp	r0, #0
	beq	.LBB58_41
	bl	p_146_plt_SQLite_SQLiteCommand_ExecuteNonQuery_llvm
	add	sp, sp, #8
	pop	{r4, r5, r6, r7, r9, pc}
.LBB58_24:
	movw	r0, #365
	mov	r1, r5
	bl	mono_aot_SQLite_net_init_method_gshared_this
	b	.LBB58_1
.LBB58_25:
	mov	r0, r4
	bl	p_138_plt__jit_icall_mono_generic_class_init_llvm
	b	.LBB58_16
.LBB58_26:
	mov	r0, r4
	bl	p_138_plt__jit_icall_mono_generic_class_init_llvm
	b	.LBB58_21
.LBB58_27:
	ldr	r0, .LCPI58_14
	movw	r1, #3473
.LPC58_14:
	ldr	r0, [pc, r0]
	b	.LBB58_34
.Ltmp724:
.LBB58_28:
	ldr	r0, .LCPI58_11
.LPC58_11:
	add	r1, pc, r0
	mov	r0, #225
	bl	p_23_plt__jit_icall_llvm_throw_corlib_exception_abs_trampoline_llvm
.Ltmp725:
.LBB58_29:
	ldr	r0, .LCPI58_10
.LPC58_10:
	add	r1, pc, r0
	mov	r0, #225
	bl	p_23_plt__jit_icall_llvm_throw_corlib_exception_abs_trampoline_llvm
.Ltmp726:
.LBB58_30:
	ldr	r0, .LCPI58_9
.LPC58_9:
	add	r1, pc, r0
	mov	r0, #225
	bl	p_23_plt__jit_icall_llvm_throw_corlib_exception_abs_trampoline_llvm
.Ltmp727:
.LBB58_31:
	ldr	r0, .LCPI58_8
.LPC58_8:
	add	r1, pc, r0
	mov	r0, #225
	bl	p_23_plt__jit_icall_llvm_throw_corlib_exception_abs_trampoline_llvm
.Ltmp728:
.LBB58_32:
	ldr	r0, .LCPI58_7
.LPC58_7:
	add	r1, pc, r0
	mov	r0, #225
	bl	p_23_plt__jit_icall_llvm_throw_corlib_exception_abs_trampoline_llvm
.LBB58_33:
	ldr	r0, .LCPI58_15
	movw	r1, #3547
.LPC58_15:
	ldr	r0, [pc, r0]
.LBB58_34:
	bl	p_30_plt__jit_icall_mono_helper_ldstr_llvm
	mov	r1, r0
	movw	r0, #204
	movt	r0, #512
	bl	p_31_plt__jit_icall_mono_create_corlib_exception_1_llvm
	bl	p_32_plt__jit_icall_mono_arch_throw_exception_llvm
.Ltmp729:
.LBB58_35:
	ldr	r0, .LCPI58_6
.LPC58_6:
	add	r1, pc, r0
	mov	r0, #225
	bl	p_23_plt__jit_icall_llvm_throw_corlib_exception_abs_trampoline_llvm
.Ltmp730:
.LBB58_36:
	ldr	r0, .LCPI58_5
.LPC58_5:
	add	r1, pc, r0
	mov	r0, #225
	bl	p_23_plt__jit_icall_llvm_throw_corlib_exception_abs_trampoline_llvm
.Ltmp731:
.LBB58_37:
	ldr	r0, .LCPI58_4
.LPC58_4:
	add	r1, pc, r0
	mov	r0, #225
	bl	p_23_plt__jit_icall_llvm_throw_corlib_exception_abs_trampoline_llvm
.Ltmp732:
.LBB58_38:
	ldr	r0, .LCPI58_3
.LPC58_3:
	add	r1, pc, r0
	mov	r0, #225
	bl	p_23_plt__jit_icall_llvm_throw_corlib_exception_abs_trampoline_llvm
.Ltmp733:
.LBB58_39:
	ldr	r0, .LCPI58_2
.LPC58_2:
	add	r1, pc, r0
	mov	r0, #225
	bl	p_23_plt__jit_icall_llvm_throw_corlib_exception_abs_trampoline_llvm
.Ltmp734:
.LBB58_40:
	ldr	r0, .LCPI58_1
.LPC58_1:
	add	r1, pc, r0
	mov	r0, #225
	bl	p_23_plt__jit_icall_llvm_throw_corlib_exception_abs_trampoline_llvm
.Ltmp735:
.LBB58_41:
	ldr	r0, .LCPI58_0
.LPC58_0:
	add	r1, pc, r0
	mov	r0, #225
	bl	p_23_plt__jit_icall_llvm_throw_corlib_exception_abs_trampoline_llvm
	.p2align	2
.LCPI58_0:
	.long	.Ltmp735-(.LPC58_0+8)
.LCPI58_1:
	.long	.Ltmp734-(.LPC58_1+8)
.LCPI58_2:
	.long	.Ltmp733-(.LPC58_2+8)
.LCPI58_3:
	.long	.Ltmp732-(.LPC58_3+8)
.LCPI58_4:
	.long	.Ltmp731-(.LPC58_4+8)
.LCPI58_5:
	.long	.Ltmp730-(.LPC58_5+8)
.LCPI58_6:
	.long	.Ltmp729-(.LPC58_6+8)
.LCPI58_7:
	.long	.Ltmp728-(.LPC58_7+8)
.LCPI58_8:
	.long	.Ltmp727-(.LPC58_8+8)
.LCPI58_9:
	.long	.Ltmp726-(.LPC58_9+8)
.LCPI58_10:
	.long	.Ltmp725-(.LPC58_10+8)
.LCPI58_11:
	.long	.Ltmp724-(.LPC58_11+8)
.LCPI58_12:
	.long	mono_inited-(.LPC58_12+8)
.LCPI58_13:
	.long	mono_aot_SQLite_net_llvm_got-(.LPC58_13+8)
.LCPI58_14:
	.long	mono_aot_SQLite_net_llvm_got-(.LPC58_14+8)
.LCPI58_15:
	.long	mono_aot_SQLite_net_llvm_got-(.LPC58_15+8)
.Lfunc_end58:
	.size	SQLite_TableQuery_1_T_REF_Delete_System_Linq_Expressions_Expression_1_System_Func_2_T_REF_bool, .Lfunc_end58-SQLite_TableQuery_1_T_REF_Delete_System_Linq_Expressions_Expression_1_System_Func_2_T_REF_bool
.Lexception54:
	.fnend

	.hidden	SQLite_TableQuery_1_T_REF_Take_int
	.globl	SQLite_TableQuery_1_T_REF_Take_int
	.p2align	2
	.type	SQLite_TableQuery_1_T_REF_Take_int,%function
	.code	32
SQLite_TableQuery_1_T_REF_Take_int:
.Lfunc_begin59:
	.fnstart
	.save	{r4, r5, r6, r8, r11, lr}
	push	{r4, r5, r6, r8, r11, lr}
.Ltmp736:
.Ltmp737:
.Ltmp738:
.Ltmp739:
.Ltmp740:
.Ltmp741:
.Ltmp742:
	.pad	#24
	sub	sp, sp, #24
.Ltmp743:
	mov	r4, r1
	ldr	r1, .LCPI59_1
	str	r0, [sp, #16]
.LPC59_1:
	add	r1, pc, r1
	str	r0, [sp, #20]
	ldr	r5, [sp, #20]
	ldr	r0, [sp, #20]
	ldr	r1, [r1, #28]
	ldr	r6, [r0]
	ldr	r0, [r1]
	cmp	r0, #0
	blne	mono_aot_SQLite_net_icall_cold_wrapper_265
	mov	r0, r6
	bl	p_139_plt__rgctx_fetch_55_llvm
	str	r0, [sp, #4]
	mov	r0, r5
	ldr	r8, [sp, #4]
	bl	p_140_plt_SQLite_TableQuery_1_T_REF_Clone_T_REF_llvm
	mov	r1, #0
	cmp	r0, #0
	strb	r1, [sp, #10]
	strh	r1, [sp, #8]
	movne	r1, #1
	strbne	r1, [r0, #48]
	ldrbne	r1, [sp, #10]
	ldrhne	r2, [sp, #8]
	strbne	r1, [r0, #51]
	strhne	r2, [r0, #49]
	strne	r4, [r0, #52]
	addne	sp, sp, #24
	popne	{r4, r5, r6, r8, r11, pc}
.Ltmp744:
.LBB59_1:
	ldr	r0, .LCPI59_0
.LPC59_0:
	add	r1, pc, r0
	mov	r0, #225
	bl	p_23_plt__jit_icall_llvm_throw_corlib_exception_abs_trampoline_llvm
	.p2align	2
.LCPI59_0:
	.long	.Ltmp744-(.LPC59_0+8)
.LCPI59_1:
	.long	mono_aot_SQLite_net_llvm_got-(.LPC59_1+8)
.Lfunc_end59:
	.size	SQLite_TableQuery_1_T_REF_Take_int, .Lfunc_end59-SQLite_TableQuery_1_T_REF_Take_int
.Lexception55:
	.fnend

	.hidden	SQLite_TableQuery_1_T_REF_Skip_int
	.globl	SQLite_TableQuery_1_T_REF_Skip_int
	.p2align	2
	.type	SQLite_TableQuery_1_T_REF_Skip_int,%function
	.code	32
SQLite_TableQuery_1_T_REF_Skip_int:
.Lfunc_begin60:
	.fnstart
	.save	{r4, r5, r6, r8, r11, lr}
	push	{r4, r5, r6, r8, r11, lr}
.Ltmp745:
.Ltmp746:
.Ltmp747:
.Ltmp748:
.Ltmp749:
.Ltmp750:
.Ltmp751:
	.pad	#24
	sub	sp, sp, #24
.Ltmp752:
	mov	r4, r1
	ldr	r1, .LCPI60_1
	str	r0, [sp, #16]
.LPC60_1:
	add	r1, pc, r1
	str	r0, [sp, #20]
	ldr	r5, [sp, #20]
	ldr	r0, [sp, #20]
	ldr	r1, [r1, #28]
	ldr	r6, [r0]
	ldr	r0, [r1]
	cmp	r0, #0
	blne	mono_aot_SQLite_net_icall_cold_wrapper_265
	mov	r0, r6
	bl	p_139_plt__rgctx_fetch_55_llvm
	str	r0, [sp, #4]
	mov	r0, r5
	ldr	r8, [sp, #4]
	bl	p_140_plt_SQLite_TableQuery_1_T_REF_Clone_T_REF_llvm
	mov	r1, #0
	cmp	r0, #0
	strb	r1, [sp, #10]
	strh	r1, [sp, #8]
	movne	r1, #1
	strbne	r1, [r0, #56]
	ldrbne	r1, [sp, #10]
	ldrhne	r2, [sp, #8]
	strbne	r1, [r0, #59]
	strhne	r2, [r0, #57]
	strne	r4, [r0, #60]
	addne	sp, sp, #24
	popne	{r4, r5, r6, r8, r11, pc}
.Ltmp753:
.LBB60_1:
	ldr	r0, .LCPI60_0
.LPC60_0:
	add	r1, pc, r0
	mov	r0, #225
	bl	p_23_plt__jit_icall_llvm_throw_corlib_exception_abs_trampoline_llvm
	.p2align	2
.LCPI60_0:
	.long	.Ltmp753-(.LPC60_0+8)
.LCPI60_1:
	.long	mono_aot_SQLite_net_llvm_got-(.LPC60_1+8)
.Lfunc_end60:
	.size	SQLite_TableQuery_1_T_REF_Skip_int, .Lfunc_end60-SQLite_TableQuery_1_T_REF_Skip_int
.Lexception56:
	.fnend

	.hidden	SQLite_TableQuery_1_T_REF_ElementAt_int
	.globl	SQLite_TableQuery_1_T_REF_ElementAt_int
	.p2align	2
	.type	SQLite_TableQuery_1_T_REF_ElementAt_int,%function
	.code	32
SQLite_TableQuery_1_T_REF_ElementAt_int:
.Lfunc_begin61:
	.fnstart
	.save	{r4, r5, r11, lr}
	push	{r4, r5, r11, lr}
.Ltmp754:
.Ltmp755:
.Ltmp756:
.Ltmp757:
.Ltmp758:
	.pad	#8
	sub	sp, sp, #8
.Ltmp759:
	mov	r4, r1
	ldr	r1, .LCPI61_2
.LPC61_2:
	add	r1, pc, r1
	ldr	r1, [r1, #28]
	str	r0, [sp]
	str	r0, [sp, #4]
	ldr	r5, [sp, #4]
	ldr	r0, [r1]
	cmp	r0, #0
	blne	mono_aot_SQLite_net_icall_cold_wrapper_265
	mov	r0, r5
	mov	r1, r4
	bl	p_148_plt_SQLite_TableQuery_1_T_REF_Skip_int_llvm
	cmp	r0, #0
	beq	.LBB61_3
	mov	r1, #1
	bl	p_149_plt_SQLite_TableQuery_1_T_REF_Take_int_llvm
	cmp	r0, #0
	beq	.LBB61_4
	bl	p_150_plt_SQLite_TableQuery_1_T_REF_First_0_llvm
	add	sp, sp, #8
	pop	{r4, r5, r11, pc}
.Ltmp760:
.LBB61_3:
	ldr	r0, .LCPI61_1
.LPC61_1:
	add	r1, pc, r0
	mov	r0, #225
	bl	p_23_plt__jit_icall_llvm_throw_corlib_exception_abs_trampoline_llvm
.Ltmp761:
.LBB61_4:
	ldr	r0, .LCPI61_0
.LPC61_0:
	add	r1, pc, r0
	mov	r0, #225
	bl	p_23_plt__jit_icall_llvm_throw_corlib_exception_abs_trampoline_llvm
	.p2align	2
.LCPI61_0:
	.long	.Ltmp761-(.LPC61_0+8)
.LCPI61_1:
	.long	.Ltmp760-(.LPC61_1+8)
.LCPI61_2:
	.long	mono_aot_SQLite_net_llvm_got-(.LPC61_2+8)
.Lfunc_end61:
	.size	SQLite_TableQuery_1_T_REF_ElementAt_int, .Lfunc_end61-SQLite_TableQuery_1_T_REF_ElementAt_int
.Lexception57:
	.fnend

	.hidden	SQLite_TableQuery_1_T_REF_Deferred
	.globl	SQLite_TableQuery_1_T_REF_Deferred
	.p2align	2
	.type	SQLite_TableQuery_1_T_REF_Deferred,%function
	.code	32
SQLite_TableQuery_1_T_REF_Deferred:
.Lfunc_begin62:
	.fnstart
	.save	{r4, r5, r8, lr}
	push	{r4, r5, r8, lr}
.Ltmp762:
.Ltmp763:
.Ltmp764:
.Ltmp765:
.Ltmp766:
	.pad	#16
	sub	sp, sp, #16
.Ltmp767:
	ldr	r1, .LCPI62_1
	str	r0, [sp, #8]
.LPC62_1:
	add	r1, pc, r1
	str	r0, [sp, #12]
	ldr	r4, [sp, #12]
	ldr	r0, [sp, #12]
	ldr	r1, [r1, #28]
	ldr	r5, [r0]
	ldr	r0, [r1]
	cmp	r0, #0
	blne	mono_aot_SQLite_net_icall_cold_wrapper_265
	mov	r0, r5
	bl	p_139_plt__rgctx_fetch_55_llvm
	str	r0, [sp, #4]
	mov	r0, r4
	ldr	r8, [sp, #4]
	bl	p_140_plt_SQLite_TableQuery_1_T_REF_Clone_T_REF_llvm
	cmp	r0, #0
	movne	r1, #1
	strbne	r1, [r0, #64]
	addne	sp, sp, #16
	popne	{r4, r5, r8, pc}
.Ltmp768:
.LBB62_1:
	ldr	r0, .LCPI62_0
.LPC62_0:
	add	r1, pc, r0
	mov	r0, #225
	bl	p_23_plt__jit_icall_llvm_throw_corlib_exception_abs_trampoline_llvm
	.p2align	2
.LCPI62_0:
	.long	.Ltmp768-(.LPC62_0+8)
.LCPI62_1:
	.long	mono_aot_SQLite_net_llvm_got-(.LPC62_1+8)
.Lfunc_end62:
	.size	SQLite_TableQuery_1_T_REF_Deferred, .Lfunc_end62-SQLite_TableQuery_1_T_REF_Deferred
.Lexception58:
	.fnend

	.hidden	SQLite_TableQuery_1_T_REF_OrderBy_U_REF_System_Linq_Expressions_Expression_1_System_Func_2_T_REF_U_REF
	.globl	SQLite_TableQuery_1_T_REF_OrderBy_U_REF_System_Linq_Expressions_Expression_1_System_Func_2_T_REF_U_REF
	.p2align	2
	.type	SQLite_TableQuery_1_T_REF_OrderBy_U_REF_System_Linq_Expressions_Expression_1_System_Func_2_T_REF_U_REF,%function
	.code	32
SQLite_TableQuery_1_T_REF_OrderBy_U_REF_System_Linq_Expressions_Expression_1_System_Func_2_T_REF_U_REF:
.Lfunc_begin63:
	.fnstart
	.save	{r4, r5, r6, r8, r11, lr}
	push	{r4, r5, r6, r8, r11, lr}
.Ltmp769:
.Ltmp770:
.Ltmp771:
.Ltmp772:
.Ltmp773:
.Ltmp774:
.Ltmp775:
	.pad	#8
	sub	sp, sp, #8
.Ltmp776:
	mov	r5, r0
	ldr	r0, .LCPI63_0
	mov	r4, r1
.LPC63_0:
	add	r0, pc, r0
	ldr	r0, [r0, #28]
	str	r8, [sp, #4]
	ldr	r6, [sp, #4]
	ldr	r0, [r0]
	cmp	r0, #0
	blne	mono_aot_SQLite_net_icall_cold_wrapper_265
	mov	r0, r6
	bl	p_151_plt__rgctx_fetch_56_llvm
	str	r0, [sp]
	mov	r0, r5
	ldr	r8, [sp]
	mov	r1, r4
	mov	r2, #1
	bl	p_152_plt_SQLite_TableQuery_1_T_REF_AddOrderBy_U_REF_System_Linq_Expressions_Expression_1_System_Func_2_T_REF_U_REF_bool_llvm
	add	sp, sp, #8
	pop	{r4, r5, r6, r8, r11, pc}
	.p2align	2
.LCPI63_0:
	.long	mono_aot_SQLite_net_llvm_got-(.LPC63_0+8)
.Lfunc_end63:
	.size	SQLite_TableQuery_1_T_REF_OrderBy_U_REF_System_Linq_Expressions_Expression_1_System_Func_2_T_REF_U_REF, .Lfunc_end63-SQLite_TableQuery_1_T_REF_OrderBy_U_REF_System_Linq_Expressions_Expression_1_System_Func_2_T_REF_U_REF
.Lexception59:
	.fnend

	.hidden	SQLite_TableQuery_1_T_REF_OrderByDescending_U_REF_System_Linq_Expressions_Expression_1_System_Func_2_T_REF_U_REF
	.globl	SQLite_TableQuery_1_T_REF_OrderByDescending_U_REF_System_Linq_Expressions_Expression_1_System_Func_2_T_REF_U_REF
	.p2align	2
	.type	SQLite_TableQuery_1_T_REF_OrderByDescending_U_REF_System_Linq_Expressions_Expression_1_System_Func_2_T_REF_U_REF,%function
	.code	32
SQLite_TableQuery_1_T_REF_OrderByDescending_U_REF_System_Linq_Expressions_Expression_1_System_Func_2_T_REF_U_REF:
.Lfunc_begin64:
	.fnstart
	.save	{r4, r5, r6, r8, r11, lr}
	push	{r4, r5, r6, r8, r11, lr}
.Ltmp777:
.Ltmp778:
.Ltmp779:
.Ltmp780:
.Ltmp781:
.Ltmp782:
.Ltmp783:
	.pad	#8
	sub	sp, sp, #8
.Ltmp784:
	mov	r5, r0
	ldr	r0, .LCPI64_0
	mov	r4, r1
.LPC64_0:
	add	r0, pc, r0
	ldr	r0, [r0, #28]
	str	r8, [sp, #4]
	ldr	r6, [sp, #4]
	ldr	r0, [r0]
	cmp	r0, #0
	blne	mono_aot_SQLite_net_icall_cold_wrapper_265
	mov	r0, r6
	bl	p_153_plt__rgctx_fetch_57_llvm
	str	r0, [sp]
	mov	r0, r5
	ldr	r8, [sp]
	mov	r1, r4
	mov	r2, #0
	bl	p_154_plt_SQLite_TableQuery_1_T_REF_AddOrderBy_U_REF_System_Linq_Expressions_Expression_1_System_Func_2_T_REF_U_REF_bool_0_llvm
	add	sp, sp, #8
	pop	{r4, r5, r6, r8, r11, pc}
	.p2align	2
.LCPI64_0:
	.long	mono_aot_SQLite_net_llvm_got-(.LPC64_0+8)
.Lfunc_end64:
	.size	SQLite_TableQuery_1_T_REF_OrderByDescending_U_REF_System_Linq_Expressions_Expression_1_System_Func_2_T_REF_U_REF, .Lfunc_end64-SQLite_TableQuery_1_T_REF_OrderByDescending_U_REF_System_Linq_Expressions_Expression_1_System_Func_2_T_REF_U_REF
.Lexception60:
	.fnend

	.hidden	SQLite_TableQuery_1_T_REF_ThenBy_U_REF_System_Linq_Expressions_Expression_1_System_Func_2_T_REF_U_REF
	.globl	SQLite_TableQuery_1_T_REF_ThenBy_U_REF_System_Linq_Expressions_Expression_1_System_Func_2_T_REF_U_REF
	.p2align	2
	.type	SQLite_TableQuery_1_T_REF_ThenBy_U_REF_System_Linq_Expressions_Expression_1_System_Func_2_T_REF_U_REF,%function
	.code	32
SQLite_TableQuery_1_T_REF_ThenBy_U_REF_System_Linq_Expressions_Expression_1_System_Func_2_T_REF_U_REF:
.Lfunc_begin65:
	.fnstart
	.save	{r4, r5, r6, r8, r11, lr}
	push	{r4, r5, r6, r8, r11, lr}
.Ltmp785:
.Ltmp786:
.Ltmp787:
.Ltmp788:
.Ltmp789:
.Ltmp790:
.Ltmp791:
	.pad	#8
	sub	sp, sp, #8
.Ltmp792:
	mov	r5, r0
	ldr	r0, .LCPI65_0
	mov	r4, r1
.LPC65_0:
	add	r0, pc, r0
	ldr	r0, [r0, #28]
	str	r8, [sp, #4]
	ldr	r6, [sp, #4]
	ldr	r0, [r0]
	cmp	r0, #0
	blne	mono_aot_SQLite_net_icall_cold_wrapper_265
	mov	r0, r6
	bl	p_155_plt__rgctx_fetch_58_llvm
	str	r0, [sp]
	mov	r0, r5
	ldr	r8, [sp]
	mov	r1, r4
	mov	r2, #1
	bl	p_156_plt_SQLite_TableQuery_1_T_REF_AddOrderBy_U_REF_System_Linq_Expressions_Expression_1_System_Func_2_T_REF_U_REF_bool_1_llvm
	add	sp, sp, #8
	pop	{r4, r5, r6, r8, r11, pc}
	.p2align	2
.LCPI65_0:
	.long	mono_aot_SQLite_net_llvm_got-(.LPC65_0+8)
.Lfunc_end65:
	.size	SQLite_TableQuery_1_T_REF_ThenBy_U_REF_System_Linq_Expressions_Expression_1_System_Func_2_T_REF_U_REF, .Lfunc_end65-SQLite_TableQuery_1_T_REF_ThenBy_U_REF_System_Linq_Expressions_Expression_1_System_Func_2_T_REF_U_REF
.Lexception61:
	.fnend

	.hidden	SQLite_TableQuery_1_T_REF_ThenByDescending_U_REF_System_Linq_Expressions_Expression_1_System_Func_2_T_REF_U_REF
	.globl	SQLite_TableQuery_1_T_REF_ThenByDescending_U_REF_System_Linq_Expressions_Expression_1_System_Func_2_T_REF_U_REF
	.p2align	2
	.type	SQLite_TableQuery_1_T_REF_ThenByDescending_U_REF_System_Linq_Expressions_Expression_1_System_Func_2_T_REF_U_REF,%function
	.code	32
SQLite_TableQuery_1_T_REF_ThenByDescending_U_REF_System_Linq_Expressions_Expression_1_System_Func_2_T_REF_U_REF:
.Lfunc_begin66:
	.fnstart
	.save	{r4, r5, r6, r8, r11, lr}
	push	{r4, r5, r6, r8, r11, lr}
.Ltmp793:
.Ltmp794:
.Ltmp795:
.Ltmp796:
.Ltmp797:
.Ltmp798:
.Ltmp799:
	.pad	#8
	sub	sp, sp, #8
.Ltmp800:
	mov	r5, r0
	ldr	r0, .LCPI66_0
	mov	r4, r1
.LPC66_0:
	add	r0, pc, r0
	ldr	r0, [r0, #28]
	str	r8, [sp, #4]
	ldr	r6, [sp, #4]
	ldr	r0, [r0]
	cmp	r0, #0
	blne	mono_aot_SQLite_net_icall_cold_wrapper_265
	mov	r0, r6
	bl	p_157_plt__rgctx_fetch_59_llvm
	str	r0, [sp]
	mov	r0, r5
	ldr	r8, [sp]
	mov	r1, r4
	mov	r2, #0
	bl	p_158_plt_SQLite_TableQuery_1_T_REF_AddOrderBy_U_REF_System_Linq_Expressions_Expression_1_System_Func_2_T_REF_U_REF_bool_2_llvm
	add	sp, sp, #8
	pop	{r4, r5, r6, r8, r11, pc}
	.p2align	2
.LCPI66_0:
	.long	mono_aot_SQLite_net_llvm_got-(.LPC66_0+8)
.Lfunc_end66:
	.size	SQLite_TableQuery_1_T_REF_ThenByDescending_U_REF_System_Linq_Expressions_Expression_1_System_Func_2_T_REF_U_REF, .Lfunc_end66-SQLite_TableQuery_1_T_REF_ThenByDescending_U_REF_System_Linq_Expressions_Expression_1_System_Func_2_T_REF_U_REF
.Lexception62:
	.fnend

	.hidden	SQLite_TableQuery_1_T_REF_AddOrderBy_U_REF_System_Linq_Expressions_Expression_1_System_Func_2_T_REF_U_REF_bool
	.globl	SQLite_TableQuery_1_T_REF_AddOrderBy_U_REF_System_Linq_Expressions_Expression_1_System_Func_2_T_REF_U_REF_bool
	.p2align	2
	.type	SQLite_TableQuery_1_T_REF_AddOrderBy_U_REF_System_Linq_Expressions_Expression_1_System_Func_2_T_REF_U_REF_bool,%function
	.code	32
SQLite_TableQuery_1_T_REF_AddOrderBy_U_REF_System_Linq_Expressions_Expression_1_System_Func_2_T_REF_U_REF_bool:
.Lfunc_begin67:
	.fnstart
	.save	{r4, r5, r6, r7, r8, r9, r10, r11, lr}
	push	{r4, r5, r6, r7, r8, r9, r10, r11, lr}
.Ltmp801:
.Ltmp802:
.Ltmp803:
.Ltmp804:
.Ltmp805:
.Ltmp806:
.Ltmp807:
.Ltmp808:
.Ltmp809:
.Ltmp810:
	.pad	#12
	sub	sp, sp, #12
.Ltmp811:
	ldr	r5, .LCPI67_8
	mov	r10, r0
	ldr	r0, .LCPI67_9
	mov	r6, r1
.LPC67_8:
	add	r5, pc, r5
	mov	r9, r2
.LPC67_9:
	add	r0, pc, r0
	ldr	r1, [r5, #28]
	ldrb	r4, [r0, #374]
	str	r8, [sp, #8]
	ldr	r0, [r1]
	cmp	r0, #0
	blne	mono_aot_SQLite_net_icall_cold_wrapper_265
	cmp	r4, #0
	beq	.LBB67_23
	cmp	r6, #0
	beq	.LBB67_24
.LBB67_2:
	ldr	r0, [r6]
	ldr	r1, [r0, #76]
	mov	r0, r6
	blx	r1
	cmp	r0, #18
	bne	.LBB67_29
	ldr	r7, [r6, #8]
	cmp	r7, #0
	beq	.LBB67_28
	ldr	r0, [r7]
	ldr	r2, [r5, #112]
	ldr	r1, [r0]
	ldr	r1, [r1, #8]
	ldr	r1, [r1, #8]
	cmp	r1, r2
	bne	.LBB67_6
	ldr	r1, [r0, #76]
	mov	r0, r7
	blx	r1
	cmp	r0, #10
	ldrne	r7, [r6, #8]
	ldreq	r7, [r7, #12]
	cmp	r7, #0
	beq	.LBB67_28
.LBB67_6:
	ldr	r0, [r7]
	ldr	r1, [r5, #108]
	ldr	r0, [r0]
	ldr	r0, [r0, #8]
	ldr	r0, [r0, #8]
	cmp	r0, r1
	bne	.LBB67_28
	ldr	r0, [r7, #8]
	cmp	r0, #0
	beq	.LBB67_31
	ldr	r1, [r0]
	ldr	r1, [r1, #76]
	blx	r1
	cmp	r0, #38
	bne	.LBB67_28
	ldr	r0, [r10]
	bl	p_139_plt__rgctx_fetch_55_llvm
	str	r0, [sp, #4]
	mov	r0, r10
	ldr	r8, [sp, #4]
	bl	p_140_plt_SQLite_TableQuery_1_T_REF_Clone_T_REF_llvm
	mov	r11, r0
	cmp	r11, #0
	beq	.LBB67_32
	ldr	r4, [r11, #20]
	cmp	r4, #0
	bne	.LBB67_13
	ldr	r4, [r5, #144]
	ldrb	r0, [r4, #25]
	cmp	r0, #0
	beq	.LBB67_27
.LBB67_12:
	mov	r0, r4
	mov	r1, #24
	bl	p_40_plt_wrapper_alloc_object_AllocSmall_intptr_intptr_llvm
	ldr	r1, [r5, #176]
	mov	r3, r0
	ldr	r2, [r5, #8]
	ldr	r1, [r1]
	dmb	ish
	str	r1, [r3, #8]!
	mov	r1, #1
	strb	r1, [r2, r3, lsr #9]
	mov	r3, r11
	dmb	ish
	str	r0, [r3, #20]!
	strb	r1, [r2, r3, lsr #9]
	ldr	r4, [r3]
.LBB67_13:
	ldr	r0, [r5, #172]
	mov	r1, #16
	bl	p_40_plt_wrapper_alloc_object_AllocSmall_intptr_intptr_llvm
	mov	r5, r0
	mov	r0, r7
	ldr	r6, [r10, #12]
	bl	p_24_plt_System_Linq_Expressions_MemberExpression_get_Member_llvm
	cmp	r0, #0
	beq	.LBB67_33
	ldr	r1, [r0]
	ldr	r1, [r1, #108]
	blx	r1
	mov	r1, r0
	cmp	r6, #0
	beq	.LBB67_34
	mov	r0, r6
	bl	p_28_plt_SQLite_TableMapping_FindColumnWithPropertyName_string_llvm
	cmp	r0, #0
	beq	.LBB67_35
	ldr	r1, [r0, #12]
	dmb	ish
	ldr	r0, .LCPI67_11
	mov	r3, r5
	str	r1, [r3, #8]!
	mov	r1, #1
.LPC67_11:
	add	r0, pc, r0
	ldr	r2, [r0, #8]
	ldr	r0, [r0, #144]
	strb	r1, [r2, r3, lsr #9]
	strb	r9, [r3, #4]
	ldrb	r1, [r0, #25]
	cmp	r1, #0
	beq	.LBB67_25
	cmp	r4, #0
	beq	.LBB67_26
.LBB67_18:
	ldr	r0, [r4, #8]
	ldr	r1, [r4, #16]
	ldr	r2, [r4, #20]
	cmp	r0, #0
	add	r2, r2, #1
	str	r2, [r4, #20]
	beq	.LBB67_36
	ldr	r2, [r0, #12]
	cmp	r1, r2
	bhs	.LBB67_21
	add	r2, r1, #1
	str	r2, [r4, #16]
	ldr	r2, [r0]
	ldr	r3, [r2, #136]
	mov	r2, r5
	blx	r3
	b	.LBB67_22
.LBB67_21:
	mov	r0, r4
	mov	r1, r5
	bl	p_159_plt_System_Collections_Generic_List_1_SQLite_BaseTableQuery_Ordering_AddWithResize_SQLite_BaseTableQuery_Ordering_llvm
.LBB67_22:
	mov	r0, r11
	add	sp, sp, #12
	pop	{r4, r5, r6, r7, r8, r9, r10, r11, pc}
.LBB67_23:
	movw	r0, #374
	mov	r1, r8
	bl	mono_aot_SQLite_net_init_method_gshared_mrgctx
	cmp	r6, #0
	bne	.LBB67_2
.Ltmp812:
.LBB67_24:
	ldr	r0, .LCPI67_7
.LPC67_7:
	add	r1, pc, r0
	mov	r0, #225
	bl	p_23_plt__jit_icall_llvm_throw_corlib_exception_abs_trampoline_llvm
.LBB67_25:
	bl	p_138_plt__jit_icall_mono_generic_class_init_llvm
	cmp	r4, #0
	bne	.LBB67_18
.Ltmp813:
.LBB67_26:
	ldr	r0, .LCPI67_1
.LPC67_1:
	add	r1, pc, r0
	mov	r0, #225
	bl	p_23_plt__jit_icall_llvm_throw_corlib_exception_abs_trampoline_llvm
.LBB67_27:
	mov	r0, r4
	bl	p_138_plt__jit_icall_mono_generic_class_init_llvm
	b	.LBB67_12
.LBB67_28:
	ldr	r0, [r6]
	ldr	r4, [r5, #168]
	ldr	r1, [r0, #40]
	mov	r0, r6
	blx	r1
	mov	r1, r0
	mov	r0, r4
	bl	p_108_plt_string_Concat_string_string_llvm
	b	.LBB67_30
.LBB67_29:
	ldr	r0, .LCPI67_10
	movw	r1, #3433
.LPC67_10:
	ldr	r0, [pc, r0]
	bl	p_30_plt__jit_icall_mono_helper_ldstr_llvm
.LBB67_30:
	mov	r1, r0
	movw	r0, #224
	movt	r0, #512
	bl	p_31_plt__jit_icall_mono_create_corlib_exception_1_llvm
	bl	p_32_plt__jit_icall_mono_arch_throw_exception_llvm
.Ltmp814:
.LBB67_31:
	ldr	r0, .LCPI67_6
.LPC67_6:
	add	r1, pc, r0
	mov	r0, #225
	bl	p_23_plt__jit_icall_llvm_throw_corlib_exception_abs_trampoline_llvm
.Ltmp815:
.LBB67_32:
	ldr	r0, .LCPI67_5
.LPC67_5:
	add	r1, pc, r0
	mov	r0, #225
	bl	p_23_plt__jit_icall_llvm_throw_corlib_exception_abs_trampoline_llvm
.Ltmp816:
.LBB67_33:
	ldr	r0, .LCPI67_4
.LPC67_4:
	add	r1, pc, r0
	mov	r0, #225
	bl	p_23_plt__jit_icall_llvm_throw_corlib_exception_abs_trampoline_llvm
.Ltmp817:
.LBB67_34:
	ldr	r0, .LCPI67_3
.LPC67_3:
	add	r1, pc, r0
	mov	r0, #225
	bl	p_23_plt__jit_icall_llvm_throw_corlib_exception_abs_trampoline_llvm
.Ltmp818:
.LBB67_35:
	ldr	r0, .LCPI67_2
.LPC67_2:
	add	r1, pc, r0
	mov	r0, #225
	bl	p_23_plt__jit_icall_llvm_throw_corlib_exception_abs_trampoline_llvm
.Ltmp819:
.LBB67_36:
	ldr	r0, .LCPI67_0
.LPC67_0:
	add	r1, pc, r0
	mov	r0, #225
	bl	p_23_plt__jit_icall_llvm_throw_corlib_exception_abs_trampoline_llvm
	.p2align	2
.LCPI67_0:
	.long	.Ltmp819-(.LPC67_0+8)
.LCPI67_1:
	.long	.Ltmp813-(.LPC67_1+8)
.LCPI67_2:
	.long	.Ltmp818-(.LPC67_2+8)
.LCPI67_3:
	.long	.Ltmp817-(.LPC67_3+8)
.LCPI67_4:
	.long	.Ltmp816-(.LPC67_4+8)
.LCPI67_5:
	.long	.Ltmp815-(.LPC67_5+8)
.LCPI67_6:
	.long	.Ltmp814-(.LPC67_6+8)
.LCPI67_7:
	.long	.Ltmp812-(.LPC67_7+8)
.LCPI67_8:
	.long	mono_aot_SQLite_net_llvm_got-(.LPC67_8+8)
.LCPI67_9:
	.long	mono_inited-(.LPC67_9+8)
.LCPI67_10:
	.long	mono_aot_SQLite_net_llvm_got-(.LPC67_10+8)
.LCPI67_11:
	.long	mono_aot_SQLite_net_llvm_got-(.LPC67_11+8)
.Lfunc_end67:
	.size	SQLite_TableQuery_1_T_REF_AddOrderBy_U_REF_System_Linq_Expressions_Expression_1_System_Func_2_T_REF_U_REF_bool, .Lfunc_end67-SQLite_TableQuery_1_T_REF_AddOrderBy_U_REF_System_Linq_Expressions_Expression_1_System_Func_2_T_REF_U_REF_bool
.Lexception63:
	.fnend

	.hidden	SQLite_TableQuery_1_T_REF_AddWhere_System_Linq_Expressions_Expression
	.globl	SQLite_TableQuery_1_T_REF_AddWhere_System_Linq_Expressions_Expression
	.p2align	2
	.type	SQLite_TableQuery_1_T_REF_AddWhere_System_Linq_Expressions_Expression,%function
	.code	32
SQLite_TableQuery_1_T_REF_AddWhere_System_Linq_Expressions_Expression:
.Lfunc_begin68:
	.fnstart
	.save	{r4, r5, r6, lr}
	push	{r4, r5, r6, lr}
.Ltmp820:
.Ltmp821:
.Ltmp822:
.Ltmp823:
.Ltmp824:
	.pad	#8
	sub	sp, sp, #8
.Ltmp825:
	ldr	r5, .LCPI68_4
	mov	r4, r1
.LPC68_4:
	add	r5, pc, r5
	ldr	r1, [r5, #28]
	str	r0, [sp]
	str	r0, [sp, #4]
	ldr	r6, [sp, #4]
	ldr	r0, [r1]
	cmp	r0, #0
	blne	mono_aot_SQLite_net_icall_cold_wrapper_265
	cmp	r6, #0
	beq	.LBB68_7
	ldr	r0, [r6, #16]
	ldr	r6, [sp, #4]
	cmp	r0, #0
	beq	.LBB68_5
	ldr	r0, [sp, #4]
	cmp	r0, #0
	beq	.LBB68_8
	ldr	r0, [r0, #16]
	mov	r1, r4
	bl	p_147_plt_System_Linq_Expressions_Expression_AndAlso_System_Linq_Expressions_Expression_System_Linq_Expressions_Expression_llvm
	mov	r4, r0
	cmp	r6, #0
	bne	.LBB68_6
.Ltmp826:
	ldr	r0, .LCPI68_0
.LPC68_0:
	add	r1, pc, r0
	mov	r0, #225
	bl	p_23_plt__jit_icall_llvm_throw_corlib_exception_abs_trampoline_llvm
.LBB68_5:
	cmp	r6, #0
	beq	.LBB68_9
.LBB68_6:
	ldr	r0, [r5, #8]
	dmb	ish
	str	r4, [r6, #16]!
	mov	r1, #1
	strb	r1, [r0, r6, lsr #9]
	add	sp, sp, #8
	pop	{r4, r5, r6, pc}
.Ltmp827:
.LBB68_7:
	ldr	r0, .LCPI68_3
.LPC68_3:
	add	r1, pc, r0
	mov	r0, #225
	bl	p_23_plt__jit_icall_llvm_throw_corlib_exception_abs_trampoline_llvm
.Ltmp828:
.LBB68_8:
	ldr	r0, .LCPI68_1
.LPC68_1:
	add	r1, pc, r0
	mov	r0, #225
	bl	p_23_plt__jit_icall_llvm_throw_corlib_exception_abs_trampoline_llvm
.Ltmp829:
.LBB68_9:
	ldr	r0, .LCPI68_2
.LPC68_2:
	add	r1, pc, r0
	mov	r0, #225
	bl	p_23_plt__jit_icall_llvm_throw_corlib_exception_abs_trampoline_llvm
	.p2align	2
.LCPI68_0:
	.long	.Ltmp826-(.LPC68_0+8)
.LCPI68_1:
	.long	.Ltmp828-(.LPC68_1+8)
.LCPI68_2:
	.long	.Ltmp829-(.LPC68_2+8)
.LCPI68_3:
	.long	.Ltmp827-(.LPC68_3+8)
.LCPI68_4:
	.long	mono_aot_SQLite_net_llvm_got-(.LPC68_4+8)
.Lfunc_end68:
	.size	SQLite_TableQuery_1_T_REF_AddWhere_System_Linq_Expressions_Expression, .Lfunc_end68-SQLite_TableQuery_1_T_REF_AddWhere_System_Linq_Expressions_Expression
.Lexception64:
	.fnend

	.hidden	SQLite_TableQuery_1_T_REF_GenerateCommand_string
	.globl	SQLite_TableQuery_1_T_REF_GenerateCommand_string
	.p2align	2
	.type	SQLite_TableQuery_1_T_REF_GenerateCommand_string,%function
	.code	32
SQLite_TableQuery_1_T_REF_GenerateCommand_string:
.Lfunc_begin69:
	.fnstart
	.save	{r4, r5, r6, r7, r8, r9, r10, r11, lr}
	push	{r4, r5, r6, r7, r8, r9, r10, r11, lr}
.Ltmp830:
.Ltmp831:
.Ltmp832:
.Ltmp833:
.Ltmp834:
.Ltmp835:
.Ltmp836:
.Ltmp837:
.Ltmp838:
.Ltmp839:
	.pad	#20
	sub	sp, sp, #20
.Ltmp840:
	mov	r5, r0
	ldr	r0, .LCPI69_22
	ldr	r11, .LCPI69_23
	mov	r4, r1
.LPC69_22:
	add	r0, pc, r0
.LPC69_23:
	add	r11, pc, r11
	ldrb	r6, [r0, #376]
	ldr	r0, [r11, #28]
	str	r5, [sp, #8]
	str	r5, [sp, #12]
	ldr	r0, [r0]
	cmp	r0, #0
	blne	mono_aot_SQLite_net_icall_cold_wrapper_265
	cmp	r6, #0
	beq	.LBB69_45
.LBB69_1:
	ldr	r0, [sp, #12]
	mov	r1, #0
	str	r1, [sp, #16]
	cmp	r0, #0
	beq	.LBB69_53
	ldr	r0, [r0, #24]
	cmp	r0, #0
	beq	.LBB69_5
	ldr	r0, [sp, #12]
	cmp	r0, #0
	beq	.LBB69_64
	ldr	r0, [r0, #32]
	cmp	r0, #0
	bne	.LBB69_65
.LBB69_5:
	ldr	r0, [r11, #180]
	mov	r1, #5
	bl	p_7_plt_wrapper_alloc_object_AllocVector_intptr_intptr_llvm
	mov	r5, r0
	ldr	r2, [r11, #184]
	ldr	r0, [r5]
	mov	r1, #0
	ldr	r3, [r0, #136]
	mov	r0, r5
	blx	r3
	ldr	r0, [r5]
	mov	r1, #1
	mov	r2, r4
	ldr	r3, [r0, #136]
	mov	r0, r5
	blx	r3
	ldr	r0, [r5]
	mov	r1, #2
	ldr	r2, [r11, #188]
	ldr	r3, [r0, #136]
	mov	r0, r5
	blx	r3
	ldr	r0, [sp, #12]
	cmp	r0, #0
	beq	.LBB69_54
	ldr	r0, [r0, #12]
	cmp	r0, #0
	beq	.LBB69_55
	ldr	r1, [r5]
	ldr	r2, [r0, #12]
	mov	r0, r5
	ldr	r3, [r1, #136]
	mov	r1, #3
	blx	r3
	ldr	r0, [r5]
	mov	r1, #4
	ldr	r2, [r11, #160]
	ldr	r3, [r0, #136]
	mov	r0, r5
	blx	r3
	mov	r0, r5
	bl	p_160_plt_string_Concat_string___llvm
	ldr	r10, [r11, #148]
	mov	r5, r0
	ldrb	r0, [r10, #25]
	cmp	r0, #0
	beq	.LBB69_46
.LBB69_8:
	mov	r0, r10
	mov	r1, #24
	bl	p_40_plt_wrapper_alloc_object_AllocSmall_intptr_intptr_llvm
	mov	r9, r0
	ldr	r0, [r11, #152]
	ldr	r6, [r11, #8]
	mov	r1, r9
	ldr	r0, [r0]
	dmb	ish
	str	r0, [r1, #8]!
	mov	r0, #1
	strb	r0, [r6, r1, lsr #9]
	ldr	r0, [sp, #12]
	cmp	r0, #0
	beq	.LBB69_56
	ldr	r0, [r0, #16]
	cmp	r0, #0
	beq	.LBB69_13
	ldr	r0, [sp, #12]
	ldr	r1, [sp, #12]
	cmp	r1, #0
	beq	.LBB69_66
	ldr	r1, [r1, #16]
	mov	r2, r9
	bl	p_144_plt_SQLite_TableQuery_1_T_REF_CompileExpr_System_Linq_Expressions_Expression_System_Collections_Generic_List_1_object_llvm
	cmp	r0, #0
	beq	.LBB69_67
	ldr	r2, [r0, #8]
	mov	r0, r5
	ldr	r1, [r11, #164]
	bl	p_143_plt_string_Concat_string_string_string_llvm
	mov	r5, r0
.LBB69_13:
	ldr	r0, [sp, #12]
	cmp	r0, #0
	beq	.LBB69_57
	ldr	r0, [r0, #20]
	cmp	r0, #0
	beq	.LBB69_27
	ldr	r1, [sp, #12]
	cmp	r1, #0
	beq	.LBB69_68
	ldr	r0, [r11, #144]
	ldr	r7, [r1, #20]
	ldrb	r1, [r0, #25]
	cmp	r1, #0
	beq	.LBB69_48
	cmp	r7, #0
	beq	.LBB69_49
.LBB69_18:
	ldr	r0, [r7, #16]
	cmp	r0, #1
	blt	.LBB69_27
	ldr	r0, [sp, #12]
	cmp	r0, #0
	beq	.LBB69_73
	ldr	r4, [r0, #20]
	ldr	r0, [sp, #12]
	ldr	r0, [r0]
	bl	p_163_plt__rgctx_fetch_60_llvm
	ldrb	r1, [r0, #25]
	cmp	r1, #0
	beq	.LBB69_50
.LBB69_21:
	ldr	r0, [sp, #12]
	ldr	r0, [r0]
	bl	p_164_plt__rgctx_fetch_61_llvm
	ldr	r7, [r0, #4]
	cmp	r7, #0
	bne	.LBB69_26
	str	r9, [sp]
	ldr	r0, [sp, #12]
	ldr	r0, [r0]
	bl	p_163_plt__rgctx_fetch_60_llvm
	ldrb	r1, [r0, #25]
	cmp	r1, #0
	beq	.LBB69_51
.LBB69_23:
	ldr	r0, [sp, #12]
	ldr	r0, [r0]
	bl	p_164_plt__rgctx_fetch_61_llvm
	ldr	r9, [r0]
	cmp	r9, #0
	beq	.LBB69_74
	ldr	r0, [r11, #220]
	mov	r1, #64
	bl	p_40_plt_wrapper_alloc_object_AllocSmall_intptr_intptr_llvm
	mov	r7, r0
	dmb	ish
	str	r9, [r0, #16]!
	mov	r1, #1
	lsr	r0, r0, #9
	strb	r1, [r0, r6]
	ldr	r0, [sp, #12]
	ldr	r0, [r0]
	bl	p_168_plt__rgctx_fetch_62_llvm
	str	r0, [r7, #32]
	ldr	r0, [sp, #12]
	ldr	r0, [r0]
	bl	p_169_plt__rgctx_fetch_63_llvm
	ldr	r1, [r0, #4]
	str	r1, [r7, #20]
	ldr	r1, [r0, #20]
	str	r1, [r7, #12]
	mov	r1, #0
	ldr	r0, [r0, #16]
	strb	r1, [r7, #56]
	str	r0, [r7, #8]
	ldr	r0, [sp, #12]
	ldr	r0, [r0]
	bl	p_163_plt__rgctx_fetch_60_llvm
	ldrb	r1, [r0, #25]
	cmp	r1, #0
	beq	.LBB69_52
.LBB69_25:
	ldr	r0, [sp, #12]
	ldr	r0, [r0]
	bl	p_164_plt__rgctx_fetch_61_llvm
	dmb	ish
	str	r7, [r0, #4]
	ldr	r9, [sp]
.LBB69_26:
	ldr	r0, [r11, #208]
	mov	r1, r7
	str	r0, [sp, #4]
	mov	r0, r4
	ldr	r8, [sp, #4]
	ldr	r6, [r11, #204]
	bl	p_165_plt_System_Linq_Enumerable_Select_SQLite_BaseTableQuery_Ordering_string_System_Collections_Generic_IEnumerable_1_SQLite_BaseTableQuery_Ordering_System_Func_2_SQLite_BaseTableQuery_Ordering_string_llvm
	ldr	r1, [r11, #212]
	str	r1, [sp, #4]
	ldr	r8, [sp, #4]
	bl	p_166_plt_System_Linq_Enumerable_ToArray_string_System_Collections_Generic_IEnumerable_1_string_llvm
	mov	r1, r0
	mov	r0, r6
	bl	p_167_plt_string_Join_string_string___llvm
	ldr	r1, [r11, #216]
	mov	r2, r0
	mov	r0, r5
	bl	p_143_plt_string_Concat_string_string_string_llvm
	mov	r5, r0
.LBB69_27:
	ldr	r0, [sp, #12]
	cmp	r0, #0
	beq	.LBB69_58
	adds	r0, r0, #48
	beq	.LBB69_59
	ldrb	r0, [r0]
	cmp	r0, #0
	beq	.LBB69_32
	ldr	r0, [sp, #12]
	cmp	r0, #0
	beq	.LBB69_69
	add	r0, r0, #48
	ldr	r7, [r11, #200]
	bl	p_161_plt_System_Nullable_1_int_get_Value_llvm
	str	r0, [sp, #16]
	add	r0, sp, #16
	bl	p_162_plt_int_ToString_llvm
	mov	r2, r0
	mov	r0, r5
	mov	r1, r7
	bl	p_143_plt_string_Concat_string_string_string_llvm
	mov	r5, r0
.LBB69_32:
	ldr	r0, [sp, #12]
	cmp	r0, #0
	beq	.LBB69_60
	adds	r0, r0, #56
	beq	.LBB69_61
	ldrb	r0, [r0]
	cmp	r0, #0
	beq	.LBB69_41
	ldr	r0, [sp, #12]
	cmp	r0, #0
	beq	.LBB69_70
	adds	r0, r0, #48
	beq	.LBB69_71
	ldrb	r0, [r0]
	cmp	r0, #0
	bne	.LBB69_39
	ldr	r1, [r11, #196]
	mov	r0, r5
	bl	p_108_plt_string_Concat_string_string_llvm
	mov	r5, r0
.LBB69_39:
	ldr	r0, [sp, #12]
	cmp	r0, #0
	beq	.LBB69_72
	add	r0, r0, #56
	ldr	r7, [r11, #192]
	bl	p_161_plt_System_Nullable_1_int_get_Value_llvm
	str	r0, [sp, #16]
	add	r0, sp, #16
	bl	p_162_plt_int_ToString_llvm
	mov	r2, r0
	mov	r0, r5
	mov	r1, r7
	bl	p_143_plt_string_Concat_string_string_string_llvm
	mov	r5, r0
.LBB69_41:
	ldr	r0, [sp, #12]
	cmp	r0, #0
	beq	.LBB69_62
	ldr	r7, [r0, #8]
	ldrb	r0, [r10, #25]
	cmp	r0, #0
	beq	.LBB69_47
.LBB69_43:
	mov	r0, r9
	bl	p_145_plt_System_Collections_Generic_List_1_object_ToArray_llvm
	mov	r2, r0
	cmp	r7, #0
	beq	.LBB69_63
	mov	r0, r7
	mov	r1, r5
	bl	p_33_plt_SQLite_SQLiteConnection_CreateCommand_string_object___llvm
	add	sp, sp, #20
	pop	{r4, r5, r6, r7, r8, r9, r10, r11, pc}
.LBB69_45:
	mov	r0, #376
	mov	r1, r5
	bl	mono_aot_SQLite_net_init_method_gshared_this
	b	.LBB69_1
.LBB69_46:
	mov	r0, r10
	bl	p_138_plt__jit_icall_mono_generic_class_init_llvm
	b	.LBB69_8
.LBB69_47:
	mov	r0, r10
	bl	p_138_plt__jit_icall_mono_generic_class_init_llvm
	b	.LBB69_43
.LBB69_48:
	bl	p_138_plt__jit_icall_mono_generic_class_init_llvm
	cmp	r7, #0
	bne	.LBB69_18
.Ltmp841:
.LBB69_49:
	ldr	r0, .LCPI69_5
.LPC69_5:
	add	r1, pc, r0
	mov	r0, #225
	bl	p_23_plt__jit_icall_llvm_throw_corlib_exception_abs_trampoline_llvm
.LBB69_50:
	bl	p_138_plt__jit_icall_mono_generic_class_init_llvm
	b	.LBB69_21
.LBB69_51:
	bl	p_138_plt__jit_icall_mono_generic_class_init_llvm
	b	.LBB69_23
.LBB69_52:
	bl	p_138_plt__jit_icall_mono_generic_class_init_llvm
	b	.LBB69_25
.Ltmp842:
.LBB69_53:
	ldr	r0, .LCPI69_21
.LPC69_21:
	add	r1, pc, r0
	mov	r0, #225
	bl	p_23_plt__jit_icall_llvm_throw_corlib_exception_abs_trampoline_llvm
.Ltmp843:
.LBB69_54:
	ldr	r0, .LCPI69_20
.LPC69_20:
	add	r1, pc, r0
	mov	r0, #225
	bl	p_23_plt__jit_icall_llvm_throw_corlib_exception_abs_trampoline_llvm
.Ltmp844:
.LBB69_55:
	ldr	r0, .LCPI69_19
.LPC69_19:
	add	r1, pc, r0
	mov	r0, #225
	bl	p_23_plt__jit_icall_llvm_throw_corlib_exception_abs_trampoline_llvm
.Ltmp845:
.LBB69_56:
	ldr	r0, .LCPI69_18
.LPC69_18:
	add	r1, pc, r0
	mov	r0, #225
	bl	p_23_plt__jit_icall_llvm_throw_corlib_exception_abs_trampoline_llvm
.Ltmp846:
.LBB69_57:
	ldr	r0, .LCPI69_17
.LPC69_17:
	add	r1, pc, r0
	mov	r0, #225
	bl	p_23_plt__jit_icall_llvm_throw_corlib_exception_abs_trampoline_llvm
.Ltmp847:
.LBB69_58:
	ldr	r0, .LCPI69_16
.LPC69_16:
	add	r1, pc, r0
	mov	r0, #225
	bl	p_23_plt__jit_icall_llvm_throw_corlib_exception_abs_trampoline_llvm
.Ltmp848:
.LBB69_59:
	ldr	r0, .LCPI69_15
.LPC69_15:
	add	r1, pc, r0
	mov	r0, #225
	bl	p_23_plt__jit_icall_llvm_throw_corlib_exception_abs_trampoline_llvm
.Ltmp849:
.LBB69_60:
	ldr	r0, .LCPI69_14
.LPC69_14:
	add	r1, pc, r0
	mov	r0, #225
	bl	p_23_plt__jit_icall_llvm_throw_corlib_exception_abs_trampoline_llvm
.Ltmp850:
.LBB69_61:
	ldr	r0, .LCPI69_13
.LPC69_13:
	add	r1, pc, r0
	mov	r0, #225
	bl	p_23_plt__jit_icall_llvm_throw_corlib_exception_abs_trampoline_llvm
.Ltmp851:
.LBB69_62:
	ldr	r0, .LCPI69_12
.LPC69_12:
	add	r1, pc, r0
	mov	r0, #225
	bl	p_23_plt__jit_icall_llvm_throw_corlib_exception_abs_trampoline_llvm
.Ltmp852:
.LBB69_63:
	ldr	r0, .LCPI69_11
.LPC69_11:
	add	r1, pc, r0
	mov	r0, #225
	bl	p_23_plt__jit_icall_llvm_throw_corlib_exception_abs_trampoline_llvm
.Ltmp853:
.LBB69_64:
	ldr	r0, .LCPI69_0
.LPC69_0:
	add	r1, pc, r0
	mov	r0, #225
	bl	p_23_plt__jit_icall_llvm_throw_corlib_exception_abs_trampoline_llvm
.LBB69_65:
	ldr	r0, .LCPI69_24
	movw	r1, #3693
.LPC69_24:
	ldr	r0, [pc, r0]
	bl	p_30_plt__jit_icall_mono_helper_ldstr_llvm
	mov	r1, r0
	movw	r0, #224
	movt	r0, #512
	bl	p_31_plt__jit_icall_mono_create_corlib_exception_1_llvm
	bl	p_32_plt__jit_icall_mono_arch_throw_exception_llvm
.Ltmp854:
.LBB69_66:
	ldr	r0, .LCPI69_2
.LPC69_2:
	add	r1, pc, r0
	mov	r0, #225
	bl	p_23_plt__jit_icall_llvm_throw_corlib_exception_abs_trampoline_llvm
.Ltmp855:
.LBB69_67:
	ldr	r0, .LCPI69_1
.LPC69_1:
	add	r1, pc, r0
	mov	r0, #225
	bl	p_23_plt__jit_icall_llvm_throw_corlib_exception_abs_trampoline_llvm
.Ltmp856:
.LBB69_68:
	ldr	r0, .LCPI69_6
.LPC69_6:
	add	r1, pc, r0
	mov	r0, #225
	bl	p_23_plt__jit_icall_llvm_throw_corlib_exception_abs_trampoline_llvm
.Ltmp857:
.LBB69_69:
	ldr	r0, .LCPI69_7
.LPC69_7:
	add	r1, pc, r0
	mov	r0, #225
	bl	p_23_plt__jit_icall_llvm_throw_corlib_exception_abs_trampoline_llvm
.Ltmp858:
.LBB69_70:
	ldr	r0, .LCPI69_10
.LPC69_10:
	add	r1, pc, r0
	mov	r0, #225
	bl	p_23_plt__jit_icall_llvm_throw_corlib_exception_abs_trampoline_llvm
.Ltmp859:
.LBB69_71:
	ldr	r0, .LCPI69_9
.LPC69_9:
	add	r1, pc, r0
	mov	r0, #225
	bl	p_23_plt__jit_icall_llvm_throw_corlib_exception_abs_trampoline_llvm
.Ltmp860:
.LBB69_72:
	ldr	r0, .LCPI69_8
.LPC69_8:
	add	r1, pc, r0
	mov	r0, #225
	bl	p_23_plt__jit_icall_llvm_throw_corlib_exception_abs_trampoline_llvm
.Ltmp861:
.LBB69_73:
	ldr	r0, .LCPI69_4
.LPC69_4:
	add	r1, pc, r0
	mov	r0, #225
	bl	p_23_plt__jit_icall_llvm_throw_corlib_exception_abs_trampoline_llvm
.Ltmp862:
.LBB69_74:
	ldr	r0, .LCPI69_3
.LPC69_3:
	add	r1, pc, r0
	mov	r0, #123
	bl	p_23_plt__jit_icall_llvm_throw_corlib_exception_abs_trampoline_llvm
	.p2align	2
.LCPI69_0:
	.long	.Ltmp853-(.LPC69_0+8)
.LCPI69_1:
	.long	.Ltmp855-(.LPC69_1+8)
.LCPI69_2:
	.long	.Ltmp854-(.LPC69_2+8)
.LCPI69_3:
	.long	.Ltmp862-(.LPC69_3+8)
.LCPI69_4:
	.long	.Ltmp861-(.LPC69_4+8)
.LCPI69_5:
	.long	.Ltmp841-(.LPC69_5+8)
.LCPI69_6:
	.long	.Ltmp856-(.LPC69_6+8)
.LCPI69_7:
	.long	.Ltmp857-(.LPC69_7+8)
.LCPI69_8:
	.long	.Ltmp860-(.LPC69_8+8)
.LCPI69_9:
	.long	.Ltmp859-(.LPC69_9+8)
.LCPI69_10:
	.long	.Ltmp858-(.LPC69_10+8)
.LCPI69_11:
	.long	.Ltmp852-(.LPC69_11+8)
.LCPI69_12:
	.long	.Ltmp851-(.LPC69_12+8)
.LCPI69_13:
	.long	.Ltmp850-(.LPC69_13+8)
.LCPI69_14:
	.long	.Ltmp849-(.LPC69_14+8)
.LCPI69_15:
	.long	.Ltmp848-(.LPC69_15+8)
.LCPI69_16:
	.long	.Ltmp847-(.LPC69_16+8)
.LCPI69_17:
	.long	.Ltmp846-(.LPC69_17+8)
.LCPI69_18:
	.long	.Ltmp845-(.LPC69_18+8)
.LCPI69_19:
	.long	.Ltmp844-(.LPC69_19+8)
.LCPI69_20:
	.long	.Ltmp843-(.LPC69_20+8)
.LCPI69_21:
	.long	.Ltmp842-(.LPC69_21+8)
.LCPI69_22:
	.long	mono_inited-(.LPC69_22+8)
.LCPI69_23:
	.long	mono_aot_SQLite_net_llvm_got-(.LPC69_23+8)
.LCPI69_24:
	.long	mono_aot_SQLite_net_llvm_got-(.LPC69_24+8)
.Lfunc_end69:
	.size	SQLite_TableQuery_1_T_REF_GenerateCommand_string, .Lfunc_end69-SQLite_TableQuery_1_T_REF_GenerateCommand_string
.Lexception65:
	.fnend

	.hidden	SQLite_TableQuery_1_T_REF_CompileExpr_System_Linq_Expressions_Expression_System_Collections_Generic_List_1_object
	.globl	SQLite_TableQuery_1_T_REF_CompileExpr_System_Linq_Expressions_Expression_System_Collections_Generic_List_1_object
	.p2align	2
	.type	SQLite_TableQuery_1_T_REF_CompileExpr_System_Linq_Expressions_Expression_System_Collections_Generic_List_1_object,%function
	.code	32
SQLite_TableQuery_1_T_REF_CompileExpr_System_Linq_Expressions_Expression_System_Collections_Generic_List_1_object:
.Lfunc_begin70:
	.fnstart
	.save	{r4, r5, r6, r7, r8, r9, r10, r11, lr}
	push	{r4, r5, r6, r7, r8, r9, r10, r11, lr}
.Ltmp893:
.Ltmp894:
.Ltmp895:
.Ltmp896:
.Ltmp897:
.Ltmp898:
.Ltmp899:
.Ltmp900:
.Ltmp901:
.Ltmp902:
	.pad	#84
	sub	sp, sp, #84
.Ltmp903:
	mov	r4, r0
	ldr	r0, .LCPI70_107
	ldr	r11, .LCPI70_108
	mov	r10, r2
.LPC70_100:
	add	r0, pc, r0
	mov	r6, r1
.LPC70_101:
	add	r11, pc, r11
	ldrb	r5, [r0, #377]
	ldr	r0, [r11, #28]
	str	r4, [sp, #12]
	str	r4, [sp, #20]
	ldr	r0, [r0]
	cmp	r0, #0
	blne	mono_aot_SQLite_net_icall_cold_wrapper_265
	cmp	r5, #0
	beq	.LBB70_254
.LBB70_1:
	mov	r0, #0
	cmp	r6, #0
	str	r0, [sp, #28]
	str	r0, [sp, #24]
	str	r0, [sp, #32]
	str	r0, [sp, #36]
	str	r0, [sp, #40]
	beq	.LBB70_267
	ldr	r0, [r6]
	ldr	r2, [r11, #456]
	ldr	r1, [r0]
	ldr	r1, [r1, #8]
	ldr	r1, [r1, #8]
	cmp	r1, r2
	beq	.LBB70_12
	ldr	r1, [r0, #76]
	mov	r0, r6
	blx	r1
	ldr	r1, [r6]
	cmp	r0, #34
	bne	.LBB70_25
	ldr	r0, [r1]
	ldr	r1, [r11, #112]
	ldr	r0, [r0, #8]
	ldr	r0, [r0, #8]
	cmp	r0, r1
	bne	.LBB70_272
	ldr	r1, [r6, #12]
	mov	r2, r10
	ldr	r0, [sp, #20]
	bl	p_144_plt_SQLite_TableQuery_1_T_REF_CompileExpr_System_Linq_Expressions_Expression_System_Collections_Generic_List_1_object_llvm
	mov	r4, r0
	cmp	r4, #0
	beq	.LBB70_273
	ldr	r5, [r4, #12]
	cmp	r5, #0
	beq	.LBB70_11
	ldr	r0, [r5]
	ldr	r1, [r11, #436]
	ldr	r0, [r0]
	ldr	r0, [r0, #8]
	ldr	r0, [r0, #8]
	cmp	r0, r1
	bne	.LBB70_11
	ldr	r1, [r5]
	ldrb	r2, [r1, #24]
	cmp	r2, #0
	bne	.LBB70_287
	ldr	r1, [r1]
	ldr	r1, [r1]
	cmp	r1, r0
	bne	.LBB70_288
	ldrb	r1, [r5, #8]
	mov	r6, #0
	ldr	r0, [r11, #440]
	cmp	r1, #0
	mov	r1, #9
	movweq	r6, #1
	bl	p_40_plt_wrapper_alloc_object_AllocSmall_intptr_intptr_llvm
	mov	r5, r0
	strb	r6, [r5, #8]
.LBB70_11:
	ldr	r0, [sp, #20]
	ldr	r0, [r0]
	bl	p_171_plt__rgctx_fetch_64_llvm
	mov	r1, #16
	bl	p_40_plt_wrapper_alloc_object_AllocSmall_intptr_intptr_llvm
	mov	r6, r0
	bl	p_172_plt_SQLite_TableQuery_1_CompileResult_T_REF__ctor_llvm
	ldr	r2, [r11, #252]
	ldr	r0, [r11, #432]
	ldr	r1, [r4, #8]
	bl	p_143_plt_string_Concat_string_string_string_llvm
	ldr	r1, [r11, #8]
	dmb	ish
	str	r0, [r6, #8]
	add	r0, r6, #8
	mov	r2, #1
	strb	r2, [r1, r0, lsr #9]
	mov	r0, r6
	dmb	ish
	str	r5, [r0, #12]!
	strb	r2, [r1, r0, lsr #9]
	str	r6, [sp, #16]
	b	.LBB70_182
.LBB70_12:
	mov	r5, r6
	ldr	r0, [r5, #12]!
	cmp	r0, #0
	beq	.LBB70_270
	ldr	r1, [r0]
	ldr	r1, [r1, #76]
	blx	r1
	cmp	r0, #6
	bne	.LBB70_30
	ldr	r4, [r5]
	cmp	r4, #0
	beq	.LBB70_275
	ldr	r0, [r4]
	ldr	r1, [r11, #428]
	ldr	r0, [r0]
	ldr	r0, [r0, #8]
	ldr	r0, [r0, #8]
	cmp	r0, r1
	bne	.LBB70_276
	ldr	r0, [r4, #8]
	cmp	r0, #0
	beq	.LBB70_277
	ldr	r1, [r0]
	ldr	r1, [r1, #104]
	blx	r1
	cmp	r0, #0
	beq	.LBB70_278
	ldr	r1, [r0]
	ldr	r1, [r1, #424]
	blx	r1
	ldr	r1, [r11, #448]
	bl	p_178_plt_string_op_Equality_string_string_llvm
	tst	r0, #255
	beq	.LBB70_30
	ldr	r0, [r4, #8]
	cmp	r0, #0
	beq	.LBB70_282
	ldr	r1, [r0]
	ldr	r1, [r1, #108]
	blx	r1
	ldr	r1, [r11, #452]
	bl	p_178_plt_string_op_Equality_string_string_llvm
	tst	r0, #255
	beq	.LBB70_30
	ldr	r0, [r6]
	ldr	r1, [r0, #76]
	mov	r0, r6
	blx	r1
	mov	r6, r0
	mov	r0, r4
	bl	p_182_plt_System_Linq_Expressions_MethodCallExpression_get_Arguments_llvm
	cmp	r0, #0
	beq	.LBB70_289
	mov	r1, #0
	bl	p_186_plt_System_Collections_ObjectModel_ReadOnlyCollection_1_System_Linq_Expressions_Expression_get_Item_int_llvm
	mov	r7, r0
	mov	r0, r4
	bl	p_182_plt_System_Linq_Expressions_MethodCallExpression_get_Arguments_llvm
	cmp	r0, #0
	beq	.LBB70_290
	mov	r1, #1
	bl	p_186_plt_System_Collections_ObjectModel_ReadOnlyCollection_1_System_Linq_Expressions_Expression_get_Item_int_llvm
	mov	r2, r0
	mov	r0, r6
	mov	r1, r7
	bl	p_196_plt_System_Linq_Expressions_Expression_MakeBinary_System_Linq_Expressions_ExpressionType_System_Linq_Expressions_Expression_System_Linq_Expressions_Expression_llvm
	mov	r6, r0
	ldr	r0, [sp, #20]
	cmp	r6, #0
	beq	.LBB70_291
	add	r5, r6, #12
	b	.LBB70_31
.LBB70_25:
	ldr	r1, [r1, #76]
	mov	r0, r6
	blx	r1
	ldr	r1, [r6]
	cmp	r0, #6
	bne	.LBB70_38
	ldr	r0, [r1]
	ldr	r1, [r11, #428]
	ldr	r0, [r0, #8]
	ldr	r0, [r0, #8]
	cmp	r0, r1
	bne	.LBB70_279
	mov	r0, r6
	bl	p_182_plt_System_Linq_Expressions_MethodCallExpression_get_Arguments_llvm
	cmp	r0, #0
	beq	.LBB70_280
	bl	p_183_plt_System_Collections_ObjectModel_ReadOnlyCollection_1_System_Linq_Expressions_Expression_get_Count_llvm
	mov	r4, r0
	ldr	r0, [sp, #20]
	ldr	r0, [r0]
	bl	p_184_plt__rgctx_fetch_66_llvm
	mov	r1, r4
	bl	p_7_plt_wrapper_alloc_object_AllocVector_intptr_intptr_llvm
	mov	r4, r0
	mov	r0, r6
	bl	p_185_plt_System_Linq_Expressions_MethodCallExpression_get_Object_llvm
	cmp	r0, #0
	beq	.LBB70_55
	mov	r0, r6
	ldr	r5, [sp, #20]
	bl	p_185_plt_System_Linq_Expressions_MethodCallExpression_get_Object_llvm
	mov	r1, r0
	mov	r0, r5
	mov	r2, r10
	bl	p_144_plt_SQLite_TableQuery_1_T_REF_CompileExpr_System_Linq_Expressions_Expression_System_Collections_Generic_List_1_object_llvm
	b	.LBB70_56
.LBB70_30:
	ldr	r0, [sp, #20]
.LBB70_31:
	ldr	r1, [r5]
	mov	r2, r10
	bl	p_144_plt_SQLite_TableQuery_1_T_REF_CompileExpr_System_Linq_Expressions_Expression_System_Collections_Generic_List_1_object_llvm
	mov	r7, r0
	ldr	r0, [sp, #20]
	ldr	r1, [r6, #8]
	mov	r2, r10
	bl	p_144_plt_SQLite_TableQuery_1_T_REF_CompileExpr_System_Linq_Expressions_Expression_System_Collections_Generic_List_1_object_llvm
	mov	r4, r0
	cmp	r7, #0
	beq	.LBB70_271
	ldr	r5, [r11, #232]
	ldr	r0, [r7, #8]
	mov	r1, r5
	bl	p_178_plt_string_op_Equality_string_string_llvm
	tst	r0, #255
	beq	.LBB70_34
	ldr	r0, [r7, #12]
	cmp	r0, #0
	beq	.LBB70_45
.LBB70_34:
	cmp	r4, #0
	beq	.LBB70_274
	ldr	r0, [r4, #8]
	mov	r1, r5
	bl	p_178_plt_string_op_Equality_string_string_llvm
	tst	r0, #255
	beq	.LBB70_37
	ldr	r0, [r4, #12]
	cmp	r0, #0
	beq	.LBB70_51
.LBB70_37:
	ldr	r0, [r11, #180]
	mov	r1, #7
	bl	p_7_plt_wrapper_alloc_object_AllocVector_intptr_intptr_llvm
	mov	r5, r0
	ldr	r2, [r11, #240]
	ldr	r0, [r5]
	mov	r1, #0
	ldr	r3, [r0, #136]
	mov	r0, r5
	blx	r3
	ldr	r0, [r5]
	mov	r1, #1
	ldr	r2, [r7, #8]
	ldr	r3, [r0, #136]
	mov	r0, r5
	blx	r3
	ldr	r0, [r5]
	mov	r1, #2
	ldr	r7, [r11, #444]
	ldr	r3, [r0, #136]
	mov	r0, r5
	mov	r2, r7
	blx	r3
	ldr	r0, [sp, #20]
	mov	r1, r6
	bl	p_194_plt_SQLite_TableQuery_1_T_REF_GetSqlName_System_Linq_Expressions_Expression_llvm
	mov	r2, r0
	ldr	r0, [r5]
	mov	r1, #3
	ldr	r3, [r0, #136]
	mov	r0, r5
	blx	r3
	ldr	r0, [r5]
	mov	r1, #4
	mov	r2, r7
	ldr	r3, [r0, #136]
	mov	r0, r5
	blx	r3
	ldr	r0, [r5]
	mov	r1, #5
	ldr	r2, [r4, #8]
	ldr	r3, [r0, #136]
	mov	r0, r5
	blx	r3
	ldr	r0, [r5]
	mov	r1, #6
	ldr	r2, [r11, #252]
	ldr	r3, [r0, #136]
	mov	r0, r5
	blx	r3
	mov	r0, r5
	bl	p_160_plt_string_Concat_string___llvm
	b	.LBB70_53
.LBB70_38:
	ldr	r1, [r1, #76]
	mov	r0, r6
	blx	r1
	ldr	r1, [r6]
	cmp	r0, #9
	bne	.LBB70_46
	ldr	r0, [r1]
	ldr	r1, [r11, #300]
	ldr	r0, [r0, #8]
	ldr	r0, [r0, #8]
	cmp	r0, r1
	bne	.LBB70_284
	ldr	r0, [r11, #148]
	ldr	r4, [r6, #8]
	ldrb	r1, [r0, #25]
	cmp	r1, #0
	beq	.LBB70_258
	cmp	r10, #0
	beq	.LBB70_259
.LBB70_42:
	ldr	r0, [r10, #8]
	ldr	r1, [r10, #16]
	ldr	r2, [r10, #20]
	cmp	r0, #0
	add	r2, r2, #1
	str	r2, [r10, #20]
	beq	.LBB70_285
	ldr	r2, [r0, #12]
	cmp	r1, r2
	bhs	.LBB70_122
	add	r2, r1, #1
	str	r2, [r10, #16]
	ldr	r2, [r0]
	ldr	r3, [r2, #136]
	mov	r2, r4
	blx	r3
	b	.LBB70_123
.LBB70_45:
	ldr	r0, [sp, #20]
	mov	r1, r6
	mov	r2, r4
	b	.LBB70_52
.LBB70_46:
	ldr	r1, [r1, #76]
	mov	r0, r6
	blx	r1
	ldr	r1, [r6]
	cmp	r0, #10
	bne	.LBB70_103
	ldr	r0, [r1]
	ldr	r2, [r11, #112]
	ldr	r0, [r0, #8]
	ldr	r0, [r0, #8]
	cmp	r0, r2
	bne	.LBB70_294
	ldr	r1, [r1, #72]
	mov	r0, r6
	blx	r1
	mov	r9, r0
	ldr	r0, [sp, #20]
	ldr	r1, [r6, #12]
	mov	r2, r10
	bl	p_144_plt_SQLite_TableQuery_1_T_REF_CompileExpr_System_Linq_Expressions_Expression_System_Collections_Generic_List_1_object_llvm
	mov	r6, r0
	ldr	r0, [sp, #20]
	ldr	r0, [r0]
	bl	p_171_plt__rgctx_fetch_64_llvm
	mov	r1, #16
	bl	p_40_plt_wrapper_alloc_object_AllocSmall_intptr_intptr_llvm
	mov	r5, r0
	bl	p_172_plt_SQLite_TableQuery_1_CompileResult_T_REF__ctor_llvm
	cmp	r6, #0
	beq	.LBB70_295
	ldr	r0, [r6, #8]
	mov	r1, r5
	ldr	r7, [r11, #8]
	dmb	ish
	str	r0, [r1, #8]!
	mov	r4, #1
	strb	r4, [r7, r1, lsr #9]
	ldr	r6, [r6, #12]
	cmp	r6, #0
	beq	.LBB70_183
	ldr	r0, [sp, #20]
	ldr	r0, [r0]
	bl	p_180_plt__rgctx_fetch_65_llvm
	str	r0, [sp, #8]
	mov	r0, r6
	ldr	r8, [sp, #8]
	mov	r1, r9
	bl	p_181_plt_SQLite_TableQuery_1_T_REF_ConvertTo_object_System_Type_llvm
	b	.LBB70_184
.LBB70_51:
	ldr	r0, [sp, #20]
	mov	r1, r6
	mov	r2, r7
.LBB70_52:
	bl	p_195_plt_SQLite_TableQuery_1_T_REF_CompileNullBinaryExpression_System_Linq_Expressions_BinaryExpression_SQLite_TableQuery_1_CompileResult_T_REF_llvm
.LBB70_53:
	mov	r4, r0
	ldr	r0, [sp, #20]
	ldr	r0, [r0]
	bl	p_171_plt__rgctx_fetch_64_llvm
	mov	r1, #16
	bl	p_40_plt_wrapper_alloc_object_AllocSmall_intptr_intptr_llvm
	mov	r5, r0
	bl	p_172_plt_SQLite_TableQuery_1_CompileResult_T_REF__ctor_llvm
	ldr	r0, [r11, #8]
	mov	r1, r5
	dmb	ish
	str	r4, [r1, #8]!
	mov	r2, #1
	strb	r2, [r0, r1, lsr #9]
.LBB70_54:
	str	r5, [sp, #16]
	b	.LBB70_182
.LBB70_55:
	mov	r0, #0
.LBB70_56:
	ldr	r9, [r4, #12]
	str	r0, [sp, #4]
	cmp	r9, #1
	blt	.LBB70_60
	mov	r7, #0
.LBB70_58:
	mov	r0, r6
	ldr	r5, [sp, #20]
	bl	p_182_plt_System_Linq_Expressions_MethodCallExpression_get_Arguments_llvm
	cmp	r0, #0
	beq	.LBB70_266
	mov	r1, r7
	bl	p_186_plt_System_Collections_ObjectModel_ReadOnlyCollection_1_System_Linq_Expressions_Expression_get_Item_int_llvm
	mov	r1, r0
	mov	r0, r5
	mov	r2, r10
	bl	p_144_plt_SQLite_TableQuery_1_T_REF_CompileExpr_System_Linq_Expressions_Expression_System_Collections_Generic_List_1_object_llvm
	mov	r2, r0
	ldr	r0, [r4]
	mov	r1, r7
	ldr	r3, [r0, #136]
	mov	r0, r4
	blx	r3
	ldr	r0, [r11, #28]
	add	r7, r7, #1
	ldr	r0, [r0]
	cmp	r0, #0
	blne	mono_aot_SQLite_net_icall_cold_wrapper_265
	cmp	r7, r9
	blt	.LBB70_58
.LBB70_60:
	ldr	r0, [r6, #8]
	cmp	r0, #0
	beq	.LBB70_281
	ldr	r1, [r0]
	ldr	r1, [r1, #108]
	blx	r1
	ldr	r1, [r11, #304]
	bl	p_178_plt_string_op_Equality_string_string_llvm
	tst	r0, #255
	beq	.LBB70_66
	ldr	r0, [r4, #12]
	cmp	r0, #2
	bne	.LBB70_66
	ldr	r0, [r11, #180]
	mov	r1, #5
	bl	p_7_plt_wrapper_alloc_object_AllocVector_intptr_intptr_llvm
	mov	r5, r0
	ldr	r2, [r11, #240]
	ldr	r0, [r5]
	mov	r1, #0
	ldr	r3, [r0, #136]
	mov	r0, r5
	blx	r3
	ldr	r0, [r4, #16]
	cmp	r0, #0
	beq	.LBB70_293
	ldr	r1, [r5]
	ldr	r2, [r0, #8]
	mov	r0, r5
	ldr	r3, [r1, #136]
	mov	r1, #1
	blx	r3
	ldr	r0, [r5]
	mov	r1, #2
	ldr	r2, [r11, #424]
	ldr	r3, [r0, #136]
	mov	r0, r5
	blx	r3
	ldr	r0, [r4, #20]
	cmp	r0, #0
	bne	.LBB70_71
.Ltmp904:
	ldr	r0, .LCPI70_109
.LPC70_36:
	add	r1, pc, r0
	mov	r0, #225
	bl	p_23_plt__jit_icall_llvm_throw_corlib_exception_abs_trampoline_llvm
.LBB70_66:
	ldr	r0, [r6, #8]
	cmp	r0, #0
	beq	.LBB70_283
	ldr	r1, [r0]
	ldr	r1, [r1, #108]
	blx	r1
	ldr	r5, [r11, #308]
	mov	r1, r5
	bl	p_178_plt_string_op_Equality_string_string_llvm
	tst	r0, #255
	beq	.LBB70_77
	ldr	r0, [r4, #12]
	cmp	r0, #2
	bne	.LBB70_77
	ldr	r0, [r11, #180]
	mov	r1, #5
	bl	p_7_plt_wrapper_alloc_object_AllocVector_intptr_intptr_llvm
	mov	r5, r0
	ldr	r2, [r11, #240]
	ldr	r0, [r5]
	mov	r1, #0
	ldr	r3, [r0, #136]
	mov	r0, r5
	blx	r3
	ldr	r0, [r4, #20]
	cmp	r0, #0
	beq	.LBB70_302
	ldr	r1, [r5]
	ldr	r2, [r0, #8]
	mov	r0, r5
	ldr	r3, [r1, #136]
	mov	r1, #1
	blx	r3
	ldr	r0, [r5]
	mov	r1, #2
	ldr	r2, [r11, #408]
	ldr	r3, [r0, #136]
	mov	r0, r5
	blx	r3
	ldr	r0, [r4, #16]
	cmp	r0, #0
	beq	.LBB70_303
.LBB70_71:
	ldr	r1, [r5]
	ldr	r2, [r0, #8]
	ldr	r3, [r1, #136]
.LBB70_72:
	mov	r0, r5
	mov	r1, #3
	blx	r3
	ldr	r0, [r5]
	ldr	r2, [r11, #252]
.LBB70_73:
	ldr	r3, [r0, #136]
	mov	r0, r5
	mov	r1, #4
.LBB70_74:
	blx	r3
	mov	r0, r5
	bl	p_160_plt_string_Concat_string___llvm
.LBB70_75:
	mov	r5, r0
.LBB70_76:
	ldr	r0, [sp, #20]
	ldr	r0, [r0]
	bl	p_171_plt__rgctx_fetch_64_llvm
	mov	r1, #16
	bl	p_40_plt_wrapper_alloc_object_AllocSmall_intptr_intptr_llvm
	mov	r4, r0
	bl	p_172_plt_SQLite_TableQuery_1_CompileResult_T_REF__ctor_llvm
	ldr	r0, [r11, #8]
	mov	r1, r4
	dmb	ish
	str	r5, [r1, #8]!
	mov	r2, #1
	strb	r2, [r0, r1, lsr #9]
	b	.LBB70_181
.LBB70_77:
	ldr	r0, [r6, #8]
	cmp	r0, #0
	beq	.LBB70_286
	ldr	r1, [r0]
	ldr	r1, [r1, #108]
	blx	r1
	mov	r1, r5
	bl	p_178_plt_string_op_Equality_string_string_llvm
	tst	r0, #255
	beq	.LBB70_85
	ldr	r0, [r4, #12]
	cmp	r0, #1
	bne	.LBB70_85
	mov	r0, r6
	bl	p_185_plt_System_Linq_Expressions_MethodCallExpression_get_Object_llvm
	cmp	r0, #0
	beq	.LBB70_83
	mov	r0, r6
	bl	p_185_plt_System_Linq_Expressions_MethodCallExpression_get_Object_llvm
	cmp	r0, #0
	beq	.LBB70_312
	ldr	r1, [r0]
	ldr	r1, [r1, #72]
	blx	r1
	ldr	r1, [r11, #412]
	cmp	r0, r1
	beq	.LBB70_188
.LBB70_83:
	ldr	r0, [r11, #180]
	mov	r1, #5
	bl	p_7_plt_wrapper_alloc_object_AllocVector_intptr_intptr_llvm
	mov	r5, r0
	ldr	r2, [r11, #240]
	ldr	r0, [r5]
	mov	r1, #0
	ldr	r3, [r0, #136]
	mov	r0, r5
	blx	r3
	ldr	r0, [r4, #16]
	cmp	r0, #0
	beq	.LBB70_311
	ldr	r1, [r5]
	ldr	r2, [r0, #8]
	mov	r0, r5
	ldr	r3, [r1, #136]
	mov	r1, #1
	blx	r3
	ldr	r0, [r5]
	mov	r1, #2
	ldr	r2, [r11, #408]
	ldr	r3, [r0, #136]
	mov	r0, r5
	blx	r3
	ldr	r0, [r5]
	ldr	r1, [sp, #4]
	ldr	r3, [r0, #136]
	ldr	r2, [r1, #8]
	b	.LBB70_72
.LBB70_85:
	ldr	r0, [r6, #8]
	cmp	r0, #0
	beq	.LBB70_292
	ldr	r1, [r0]
	ldr	r5, [r11, #244]
	ldr	r1, [r1, #108]
	blx	r1
	ldr	r1, [r11, #312]
	bl	p_178_plt_string_op_Equality_string_string_llvm
	tst	r0, #255
	beq	.LBB70_124
	ldr	r0, [r4, #12]
	cmp	r0, #1
	blt	.LBB70_124
	cmp	r0, #2
	bne	.LBB70_97
	ldr	r0, [r4, #20]
	cmp	r0, #0
	beq	.LBB70_332
	ldr	r0, [r0, #12]
	cmp	r0, #0
	beq	.LBB70_333
	ldr	r1, [r0]
	ldrb	r2, [r1, #24]
	cmp	r2, #0
	bne	.LBB70_334
	ldr	r1, [r1]
	ldr	r2, [r11, #392]
	ldr	r1, [r1]
	cmp	r1, r2
	bne	.LBB70_335
	ldr	r0, [r0, #8]
	cmp	r0, #5
	bhi	.LBB70_76
	bhi	.LBB70_76
	adr	r1, .LJTI70_0
	ldr	r0, [r1, r0, lsl #2]
	add	pc, r1, r0
	.p2align	2
.LJTI70_0:
	.long	.LBB70_97-.LJTI70_0
	.long	.LBB70_200-.LJTI70_0
	.long	.LBB70_76-.LJTI70_0
	.long	.LBB70_76-.LJTI70_0
	.long	.LBB70_97-.LJTI70_0
	.long	.LBB70_200-.LJTI70_0
.LBB70_97:
	ldr	r0, [r11, #180]
	mov	r1, #7
	bl	p_7_plt_wrapper_alloc_object_AllocVector_intptr_intptr_llvm
	mov	r5, r0
	ldr	r2, [r11, #368]
	ldr	r0, [r5]
	mov	r1, #0
	ldr	r3, [r0, #136]
	mov	r0, r5
	blx	r3
	ldr	r0, [r5]
	ldr	r1, [sp, #4]
	ldr	r3, [r0, #136]
	mov	r0, r5
	ldr	r2, [r1, #8]
	mov	r1, #1
	blx	r3
	ldr	r0, [r5]
	mov	r1, #2
	ldr	r2, [r11, #396]
	ldr	r3, [r0, #136]
	mov	r0, r5
	blx	r3
	ldr	r0, [r4, #16]
	cmp	r0, #0
	beq	.LBB70_316
	ldr	r0, [r0, #12]
	cmp	r0, #0
	beq	.LBB70_317
	ldr	r1, [r0]
	ldr	r1, [r1, #40]
	blx	r1
	cmp	r0, #0
	beq	.LBB70_318
	ldr	r0, [r0, #8]
	str	r0, [sp, #24]
	add	r0, sp, #24
	bl	p_162_plt_int_ToString_llvm
	mov	r2, r0
	ldr	r0, [r5]
	mov	r1, #3
	ldr	r3, [r0, #136]
	mov	r0, r5
	blx	r3
	ldr	r0, [r5]
	mov	r1, #4
	ldr	r2, [r11, #384]
	ldr	r3, [r0, #136]
	mov	r0, r5
	blx	r3
	ldr	r0, [r4, #16]
	cmp	r0, #0
	beq	.LBB70_319
	ldr	r1, [r5]
	ldr	r2, [r0, #8]
	mov	r0, r5
	ldr	r3, [r1, #136]
	mov	r1, #5
	blx	r3
	ldr	r0, [r5]
	ldr	r2, [r11, #252]
.LBB70_102:
	ldr	r3, [r0, #136]
	mov	r0, r5
	mov	r1, #6
	b	.LBB70_74
.LBB70_103:
	ldr	r1, [r1, #76]
	mov	r0, r6
	blx	r1
	cmp	r0, #23
	bne	.LBB70_296
	ldr	r0, [r6]
	ldr	r1, [r11, #108]
	ldr	r0, [r0]
	ldr	r0, [r0, #8]
	ldr	r0, [r0, #8]
	cmp	r0, r1
	bne	.LBB70_299
	ldr	r7, [r6, #8]
	mov	r9, #0
	mov	r4, #0
	cmp	r7, #0
	beq	.LBB70_119
	ldr	r0, [r7]
	ldr	r4, [r11, #296]
	ldr	r1, [r0]
	ldr	r1, [r1, #8]
	ldr	r1, [r1, #8]
	cmp	r1, r4
	beq	.LBB70_209
	ldr	r2, [r11, #112]
	cmp	r1, r2
	bne	.LBB70_111
	ldr	r1, [r0, #76]
	mov	r0, r7
	blx	r1
	cmp	r0, #10
	bne	.LBB70_111
	ldr	r7, [r7, #12]
	cmp	r7, #0
	beq	.LBB70_208
	ldr	r0, [r7]
	ldr	r0, [r0]
	ldr	r0, [r0, #8]
	ldr	r0, [r0, #8]
	cmp	r0, r4
	movne	r7, #0
	cmp	r7, #0
	bne	.LBB70_210
.LBB70_111:
	ldr	r1, [r6, #8]
	mov	r4, #0
	cmp	r1, #0
	beq	.LBB70_119
	ldr	r0, [sp, #20]
	mov	r2, r10
	bl	p_144_plt_SQLite_TableQuery_1_T_REF_CompileExpr_System_Linq_Expressions_Expression_System_Collections_Generic_List_1_object_llvm
	mov	r4, r0
	cmp	r4, #0
	beq	.LBB70_328
	ldr	r0, [r4, #12]
	cmp	r0, #0
	beq	.LBB70_329
	ldr	r0, [r4, #8]
	ldr	r1, [r11, #232]
	bl	p_178_plt_string_op_Equality_string_string_llvm
	tst	r0, #255
	beq	.LBB70_118
	ldr	r5, [r11, #148]
	ldrb	r0, [r5, #25]
	cmp	r0, #0
	beq	.LBB70_261
	ldr	r0, [r10, #16]
	sub	r7, r0, #1
.LBB70_117:
	mov	r0, r10
	mov	r1, r7
	bl	p_179_plt_System_Collections_Generic_List_1_object_RemoveAt_int_llvm
.LBB70_118:
	ldr	r4, [r4, #12]
.LBB70_119:
	mov	r0, r6
	str	r9, [sp, #28]
	bl	p_24_plt_System_Linq_Expressions_MemberExpression_get_Member_llvm
	mov	r7, r0
	cmp	r7, #0
	beq	.LBB70_144
	ldr	r0, [r7]
	ldr	r1, [r11, #104]
	ldr	r0, [r0]
	ldr	r0, [r0, #8]
	ldr	r0, [r0, #8]
	cmp	r0, r1
	beq	.LBB70_144
	mov	r0, r6
	bl	p_24_plt_System_Linq_Expressions_MemberExpression_get_Member_llvm
	b	.LBB70_150
.LBB70_122:
	mov	r0, r10
	mov	r1, r4
	bl	p_170_plt_System_Collections_Generic_List_1_object_AddWithResize_object_llvm
.LBB70_123:
	ldr	r0, [sp, #20]
	ldr	r0, [r0]
	bl	p_171_plt__rgctx_fetch_64_llvm
	mov	r1, #16
	bl	p_40_plt_wrapper_alloc_object_AllocSmall_intptr_intptr_llvm
	mov	r4, r0
	bl	p_172_plt_SQLite_TableQuery_1_CompileResult_T_REF__ctor_llvm
	ldr	r0, [r11, #232]
	dmb	ish
	ldr	r1, [r11, #8]
	mov	r2, #1
	str	r0, [r4, #8]
	add	r0, r4, #8
	strb	r2, [r1, r0, lsr #9]
	ldr	r0, [r6, #8]
	b	.LBB70_180
.LBB70_124:
	ldr	r0, [r6, #8]
	cmp	r0, #0
	beq	.LBB70_304
	ldr	r1, [r0]
	ldr	r1, [r1, #108]
	blx	r1
	ldr	r1, [r11, #316]
	bl	p_178_plt_string_op_Equality_string_string_llvm
	tst	r0, #255
	beq	.LBB70_173
	ldr	r0, [r4, #12]
	cmp	r0, #1
	blt	.LBB70_173
	cmp	r0, #2
	bne	.LBB70_136
	ldr	r0, [r4, #20]
	cmp	r0, #0
	beq	.LBB70_349
	ldr	r0, [r0, #12]
	cmp	r0, #0
	beq	.LBB70_350
	ldr	r1, [r0]
	ldrb	r2, [r1, #24]
	cmp	r2, #0
	bne	.LBB70_351
	ldr	r1, [r1]
	ldr	r2, [r11, #392]
	ldr	r1, [r1]
	cmp	r1, r2
	bne	.LBB70_352
	ldr	r0, [r0, #8]
	cmp	r0, #5
	bhi	.LBB70_76
	bhi	.LBB70_76
	adr	r1, .LJTI70_1
	ldr	r0, [r1, r0, lsl #2]
	add	pc, r1, r0
	.p2align	2
.LJTI70_1:
	.long	.LBB70_136-.LJTI70_1
	.long	.LBB70_215-.LJTI70_1
	.long	.LBB70_76-.LJTI70_1
	.long	.LBB70_76-.LJTI70_1
	.long	.LBB70_136-.LJTI70_1
	.long	.LBB70_215-.LJTI70_1
.LBB70_136:
	ldr	r0, [r11, #180]
	mov	r1, #11
	bl	p_7_plt_wrapper_alloc_object_AllocVector_intptr_intptr_llvm
	mov	r5, r0
	ldr	r2, [r11, #368]
	ldr	r0, [r5]
	mov	r1, #0
	ldr	r3, [r0, #136]
	mov	r0, r5
	blx	r3
	ldr	r0, [r5]
	mov	r1, #1
	ldr	r6, [sp, #4]
	ldr	r3, [r0, #136]
	mov	r0, r5
	ldr	r2, [r6, #8]
	blx	r3
	ldr	r0, [r5]
	mov	r1, #2
	ldr	r2, [r11, #372]
	ldr	r3, [r0, #136]
	mov	r0, r5
	blx	r3
	ldr	r0, [r5]
	mov	r1, #3
	ldr	r2, [r6, #8]
	ldr	r3, [r0, #136]
	mov	r0, r5
	blx	r3
	ldr	r0, [r5]
	mov	r1, #4
	ldr	r2, [r11, #376]
	ldr	r3, [r0, #136]
	mov	r0, r5
	blx	r3
	ldr	r0, [r4, #16]
	cmp	r0, #0
	beq	.LBB70_342
	ldr	r0, [r0, #12]
	cmp	r0, #0
	beq	.LBB70_343
	ldr	r1, [r0]
	ldr	r1, [r1, #40]
	blx	r1
	cmp	r0, #0
	beq	.LBB70_344
	ldr	r0, [r0, #8]
	str	r0, [sp, #24]
	add	r0, sp, #24
	bl	p_162_plt_int_ToString_llvm
	mov	r2, r0
	ldr	r0, [r5]
	mov	r1, #5
	ldr	r3, [r0, #136]
	mov	r0, r5
	blx	r3
	ldr	r0, [r5]
	mov	r1, #6
	ldr	r2, [r11, #380]
	ldr	r3, [r0, #136]
	mov	r0, r5
	blx	r3
	ldr	r0, [r4, #16]
	cmp	r0, #0
	beq	.LBB70_345
	ldr	r0, [r0, #12]
	cmp	r0, #0
	beq	.LBB70_346
	ldr	r1, [r0]
	ldr	r1, [r1, #40]
	blx	r1
	cmp	r0, #0
	beq	.LBB70_347
	ldr	r0, [r0, #8]
	str	r0, [sp, #24]
	add	r0, sp, #24
	bl	p_162_plt_int_ToString_llvm
	mov	r2, r0
	ldr	r0, [r5]
	mov	r1, #7
	ldr	r3, [r0, #136]
	mov	r0, r5
	blx	r3
	ldr	r0, [r5]
	mov	r1, #8
	ldr	r2, [r11, #384]
	ldr	r3, [r0, #136]
	mov	r0, r5
	blx	r3
	ldr	r0, [r4, #16]
	cmp	r0, #0
	beq	.LBB70_348
	ldr	r1, [r5]
	ldr	r2, [r0, #8]
	mov	r0, r5
	ldr	r3, [r1, #136]
	mov	r1, #9
	blx	r3
	ldr	r0, [r5]
	mov	r1, #10
	ldr	r2, [r11, #252]
	ldr	r3, [r0, #136]
	mov	r0, r5
	b	.LBB70_74
.LBB70_144:
	mov	r0, r6
	bl	p_24_plt_System_Linq_Expressions_MemberExpression_get_Member_llvm
	cmp	r7, #0
	beq	.LBB70_150
	cmp	r0, #0
	beq	.LBB70_314
	ldr	r1, [r0]
	ldr	r3, [r11, #104]
	ldr	r2, [r1]
	ldr	r2, [r2, #8]
	ldr	r2, [r2, #8]
	cmp	r2, r3
	bne	.LBB70_315
	ldr	r3, [r1, #128]
	mov	r1, r4
	mov	r2, #0
	blx	r3
	b	.LBB70_155
	.p2align	2
.LCPI70_107:
	.long	mono_inited-(.LPC70_100+8)
	.p2align	2
.LCPI70_108:
	.long	mono_aot_SQLite_net_llvm_got-(.LPC70_101+8)
.LBB70_150:
	cmp	r0, #0
	beq	.LBB70_300
	ldr	r0, [r0]
	ldr	r1, [r11, #292]
	ldr	r0, [r0]
	ldr	r0, [r0, #8]
	ldr	r5, [r0, #8]
	cmp	r5, r1
	bne	.LBB70_300
	mov	r0, r6
	bl	p_24_plt_System_Linq_Expressions_MemberExpression_get_Member_llvm
	cmp	r0, #0
	beq	.LBB70_306
	ldr	r1, [r0]
	ldr	r2, [r1]
	ldr	r2, [r2, #8]
	ldr	r2, [r2, #8]
	cmp	r2, r5
	bne	.LBB70_307
	ldr	r2, [r1, #132]
	mov	r1, r4
	blx	r2
.LBB70_155:
	str	r0, [sp, #28]
	ldr	r0, [sp, #28]
	cmp	r0, #0
	ldrne	r0, [sp, #28]
	cmpne	r0, #0
	beq	.LBB70_169
	ldr	r1, [r0]
	ldr	r5, [r11, #268]
	ldr	r2, [r1, #20]
	cmp	r2, r5
	blo	.LBB70_158
	ldr	r2, [r1, #16]
	and	r3, r5, #7
	mov	r7, #1
	ldrb	r2, [r2, r5, asr #3]
	tst	r2, r7, lsl r3
	bne	.LBB70_161
.LBB70_158:
	ldr	r1, [r1]
	ldr	r2, [r11, #272]
	cmp	r1, r2
	bne	.LBB70_169
	ldr	r1, [r0, #16]
	cmp	r1, #0
	beq	.LBB70_169
	bl	p_175_plt_wrapper_proxy_isinst_object___proxy_isinst_wrapper_System_Collections_IEnumerable_object_llvm
	cmp	r0, #0
	beq	.LBB70_169
.LBB70_161:
	ldr	r0, [sp, #28]
	cmp	r0, #0
	beq	.LBB70_163
	ldr	r0, [r0]
	ldr	r1, [r11, #288]
	ldr	r0, [r0]
	ldr	r0, [r0, #8]
	ldr	r0, [r0, #4]
	cmp	r0, r1
	beq	.LBB70_169
.LBB70_163:
	ldr	r4, [sp, #28]
	cmp	r4, #0
	beq	.LBB70_168
	ldr	r0, [r4]
	ldr	r1, [r11, #276]
	ldr	r2, [r0, #20]
	cmp	r2, r1
	blo	.LBB70_166
	ldr	r2, [r0, #16]
	mov	r3, #1
	ldrb	r2, [r2, r1, asr #3]
	and	r1, r1, #7
	tst	r2, r3, lsl r1
	bne	.LBB70_168
.LBB70_166:
	ldrb	r1, [r0, #24]
	cmp	r1, #1
	bne	.LBB70_227
	ldr	r1, [r11, #280]
	mov	r0, r4
	ldr	r2, [r11, #284]
	bl	p_177_plt_wrapper_castclass_object___isinst_with_cache_object_intptr_intptr_llvm
	mov	r4, r0
.LBB70_168:
	cmp	r4, #0
	beq	.LBB70_228
.LBB70_169:
	ldr	r0, [r11, #148]
	ldr	r4, [sp, #28]
	ldrb	r1, [r0, #25]
	cmp	r1, #0
	beq	.LBB70_260
.LBB70_170:
	ldr	r0, [r10, #8]
	ldr	r1, [r10, #16]
	ldr	r2, [r10, #20]
	cmp	r0, #0
	add	r2, r2, #1
	str	r2, [r10, #20]
	beq	.LBB70_305
	ldr	r2, [r0, #12]
	cmp	r1, r2
	bhs	.LBB70_178
	add	r2, r1, #1
	str	r2, [r10, #16]
	ldr	r2, [r0]
	ldr	r3, [r2, #136]
	mov	r2, r4
	blx	r3
	b	.LBB70_179
.LBB70_173:
	ldr	r0, [r6, #8]
	cmp	r0, #0
	beq	.LBB70_310
	ldr	r1, [r0]
	ldr	r1, [r1, #108]
	blx	r1
	ldr	r1, [r11, #320]
	bl	p_178_plt_string_op_Equality_string_string_llvm
	tst	r0, #255
	beq	.LBB70_185
	ldr	r0, [r4, #12]
	cmp	r0, #1
	bne	.LBB70_185
	ldr	r0, [r11, #180]
	mov	r1, #5
	bl	p_7_plt_wrapper_alloc_object_AllocVector_intptr_intptr_llvm
	mov	r5, r0
	ldr	r2, [r11, #240]
	ldr	r0, [r5]
	mov	r1, #0
	ldr	r3, [r0, #136]
	mov	r0, r5
	blx	r3
	ldr	r0, [r5]
	ldr	r1, [sp, #4]
	ldr	r3, [r0, #136]
	mov	r0, r5
	ldr	r2, [r1, #8]
	mov	r1, #1
	blx	r3
	ldr	r0, [r5]
	mov	r1, #2
	ldr	r2, [r11, #364]
	ldr	r3, [r0, #136]
	mov	r0, r5
	blx	r3
	ldr	r0, [r4, #16]
	cmp	r0, #0
	beq	.LBB70_353
.LBB70_177:
	ldr	r1, [r5]
	ldr	r2, [r0, #8]
	mov	r0, r5
	ldr	r3, [r1, #136]
	mov	r1, #3
	blx	r3
	ldr	r0, [r5]
	ldr	r2, [r11, #352]
	b	.LBB70_73
.LBB70_178:
	mov	r0, r10
	mov	r1, r4
	bl	p_170_plt_System_Collections_Generic_List_1_object_AddWithResize_object_llvm
.LBB70_179:
	ldr	r0, [sp, #20]
	ldr	r0, [r0]
	bl	p_171_plt__rgctx_fetch_64_llvm
	mov	r1, #16
	bl	p_40_plt_wrapper_alloc_object_AllocSmall_intptr_intptr_llvm
	mov	r4, r0
	bl	p_172_plt_SQLite_TableQuery_1_CompileResult_T_REF__ctor_llvm
	ldr	r0, [r11, #232]
	dmb	ish
	ldr	r1, [r11, #8]
	mov	r2, #1
	str	r0, [r4, #8]
	add	r0, r4, #8
	strb	r2, [r1, r0, lsr #9]
	ldr	r0, [sp, #28]
.LBB70_180:
	dmb	ish
	str	r0, [r4, #12]
	add	r0, r4, #12
	strb	r2, [r1, r0, lsr #9]
.LBB70_181:
	str	r4, [sp, #16]
.LBB70_182:
	ldr	r0, [sp, #16]
	add	sp, sp, #84
	pop	{r4, r5, r6, r7, r8, r9, r10, r11, pc}
.LBB70_183:
	mov	r0, #0
.LBB70_184:
	mov	r1, r5
	dmb	ish
	str	r0, [r1, #12]!
	strb	r4, [r7, r1, lsr #9]
	b	.LBB70_54
.LBB70_185:
	ldr	r0, [r6, #8]
	cmp	r0, #0
	beq	.LBB70_313
	ldr	r1, [r0]
	ldr	r1, [r1, #108]
	blx	r1
	ldr	r1, [r11, #324]
	bl	p_178_plt_string_op_Equality_string_string_llvm
	tst	r0, #255
	beq	.LBB70_191
	ldr	r0, [sp, #4]
	ldr	r2, [r11, #352]
	ldr	r1, [r0, #8]
	ldr	r0, [r11, #360]
	bl	p_143_plt_string_Concat_string_string_string_llvm
	b	.LBB70_75
.LBB70_188:
	ldr	r0, [r11, #180]
	mov	r1, #5
	bl	p_7_plt_wrapper_alloc_object_AllocVector_intptr_intptr_llvm
	mov	r5, r0
	ldr	r2, [r11, #416]
	ldr	r0, [r5]
	mov	r1, #0
	ldr	r3, [r0, #136]
	mov	r0, r5
	blx	r3
	ldr	r1, [sp, #4]
	cmp	r1, #0
	beq	.LBB70_354
	ldr	r0, [r5]
	ldr	r2, [r1, #8]
	mov	r1, #1
	ldr	r3, [r0, #136]
	mov	r0, r5
	blx	r3
	ldr	r0, [r5]
	mov	r1, #2
	ldr	r2, [r11, #264]
	ldr	r3, [r0, #136]
	mov	r0, r5
	blx	r3
	ldr	r0, [r4, #16]
	cmp	r0, #0
	beq	.LBB70_355
	ldr	r1, [r5]
	ldr	r2, [r0, #8]
	mov	r0, r5
	ldr	r3, [r1, #136]
	mov	r1, #3
	blx	r3
	ldr	r0, [r5]
	ldr	r2, [r11, #420]
	b	.LBB70_73
.LBB70_191:
	ldr	r0, [r6, #8]
	cmp	r0, #0
	beq	.LBB70_356
	ldr	r1, [r0]
	ldr	r1, [r1, #108]
	blx	r1
	ldr	r1, [r11, #328]
	bl	p_178_plt_string_op_Equality_string_string_llvm
	tst	r0, #255
	beq	.LBB70_194
	ldr	r0, [sp, #4]
	ldr	r2, [r11, #352]
	ldr	r1, [r0, #8]
	ldr	r0, [r11, #356]
	bl	p_143_plt_string_Concat_string_string_string_llvm
	b	.LBB70_75
.LBB70_194:
	ldr	r0, [r6, #8]
	cmp	r0, #0
	beq	.LBB70_359
	ldr	r1, [r0]
	ldr	r1, [r1, #108]
	blx	r1
	ldr	r1, [r11, #332]
	bl	p_178_plt_string_op_Equality_string_string_llvm
	tst	r0, #255
	beq	.LBB70_202
	ldr	r0, [r4, #12]
	cmp	r0, #2
	bne	.LBB70_202
	ldr	r0, [r11, #180]
	mov	r1, #7
	bl	p_7_plt_wrapper_alloc_object_AllocVector_intptr_intptr_llvm
	mov	r5, r0
	ldr	r2, [r11, #348]
	ldr	r0, [r5]
	mov	r1, #0
	ldr	r3, [r0, #136]
	mov	r0, r5
	blx	r3
	ldr	r0, [r5]
	ldr	r1, [sp, #4]
	ldr	r3, [r0, #136]
	mov	r0, r5
	ldr	r2, [r1, #8]
	mov	r1, #1
	blx	r3
	ldr	r0, [r5]
	mov	r1, #2
	ldr	r6, [r11, #264]
	ldr	r3, [r0, #136]
	mov	r0, r5
	mov	r2, r6
	blx	r3
	ldr	r0, [r4, #16]
	cmp	r0, #0
	beq	.LBB70_367
	ldr	r1, [r5]
	ldr	r2, [r0, #8]
	mov	r0, r5
	ldr	r3, [r1, #136]
	mov	r1, #3
	blx	r3
	ldr	r0, [r5]
	mov	r1, #4
	mov	r2, r6
	ldr	r3, [r0, #136]
	mov	r0, r5
	blx	r3
	ldr	r0, [r4, #20]
	cmp	r0, #0
	beq	.LBB70_368
	ldr	r1, [r5]
	ldr	r2, [r0, #8]
	mov	r0, r5
	ldr	r3, [r1, #136]
	mov	r1, #5
	blx	r3
	ldr	r0, [r5]
	ldr	r2, [r11, #352]
	b	.LBB70_102
.LBB70_200:
	ldr	r0, [r11, #180]
	mov	r1, #5
	bl	p_7_plt_wrapper_alloc_object_AllocVector_intptr_intptr_llvm
	mov	r5, r0
	ldr	r2, [r11, #240]
	ldr	r0, [r5]
	mov	r1, #0
	ldr	r3, [r0, #136]
	mov	r0, r5
	blx	r3
	ldr	r0, [r5]
	ldr	r1, [sp, #4]
	ldr	r3, [r0, #136]
	mov	r0, r5
	ldr	r2, [r1, #8]
	mov	r1, #1
	blx	r3
	ldr	r0, [r5]
	mov	r1, #2
	ldr	r2, [r11, #400]
	ldr	r3, [r0, #136]
	mov	r0, r5
	blx	r3
	ldr	r0, [r4, #16]
	cmp	r0, #0
	beq	.LBB70_360
	ldr	r1, [r5]
	ldr	r2, [r0, #8]
	mov	r0, r5
	ldr	r3, [r1, #136]
	mov	r1, #3
	blx	r3
	ldr	r0, [r5]
	ldr	r2, [r11, #404]
	b	.LBB70_73
.LBB70_202:
	ldr	r0, [r6, #8]
	cmp	r0, #0
	beq	.LBB70_364
	ldr	r1, [r0]
	ldr	r1, [r1, #108]
	blx	r1
	ldr	r1, [r11, #336]
	bl	p_178_plt_string_op_Equality_string_string_llvm
	tst	r0, #255
	beq	.LBB70_218
	ldr	r0, [r4, #12]
	cmp	r0, #1
	bne	.LBB70_218
	ldr	r0, [r11, #180]
	mov	r1, #5
	bl	p_7_plt_wrapper_alloc_object_AllocVector_intptr_intptr_llvm
	mov	r5, r0
	ldr	r2, [r11, #240]
	ldr	r0, [r5]
	mov	r1, #0
	ldr	r3, [r0, #136]
	mov	r0, r5
	blx	r3
	ldr	r0, [r4, #16]
	cmp	r0, #0
	beq	.LBB70_369
	ldr	r1, [r5]
	ldr	r2, [r0, #8]
	mov	r0, r5
	ldr	r3, [r1, #136]
	mov	r1, #1
	blx	r3
	ldr	r0, [r5]
	mov	r1, #2
	ldr	r2, [r11, #340]
	ldr	r3, [r0, #136]
	mov	r0, r5
	blx	r3
	ldr	r0, [r4, #16]
	cmp	r0, #0
	beq	.LBB70_370
	ldr	r1, [r5]
	ldr	r2, [r0, #8]
	mov	r0, r5
	ldr	r3, [r1, #136]
	mov	r1, #3
	blx	r3
	ldr	r0, [r5]
	ldr	r2, [r11, #344]
	b	.LBB70_73
.LBB70_208:
	mov	r7, #0
.LBB70_209:
	cmp	r7, #0
	beq	.LBB70_111
.LBB70_210:
	ldr	r0, [sp, #20]
	cmp	r0, #0
	beq	.LBB70_338
	ldr	r4, [r0, #12]
	mov	r0, r6
	bl	p_24_plt_System_Linq_Expressions_MemberExpression_get_Member_llvm
	cmp	r0, #0
	beq	.LBB70_339
	ldr	r1, [r0]
	ldr	r1, [r1, #108]
	blx	r1
	mov	r1, r0
	cmp	r4, #0
	beq	.LBB70_340
	mov	r0, r4
	bl	p_28_plt_SQLite_TableMapping_FindColumnWithPropertyName_string_llvm
	cmp	r0, #0
	beq	.LBB70_341
	ldr	r4, [r0, #12]
	ldr	r0, [sp, #20]
	ldr	r0, [r0]
	bl	p_171_plt__rgctx_fetch_64_llvm
	mov	r1, #16
	bl	p_40_plt_wrapper_alloc_object_AllocSmall_intptr_intptr_llvm
	mov	r5, r0
	bl	p_172_plt_SQLite_TableQuery_1_CompileResult_T_REF__ctor_llvm
	ldr	r0, [r11, #160]
	mov	r1, r4
	mov	r2, r0
	bl	p_143_plt_string_Concat_string_string_string_llvm
	ldr	r1, [r11, #8]
	dmb	ish
	str	r0, [r5, #8]
	add	r0, r5, #8
	mov	r2, #1
	strb	r2, [r1, r0, lsr #9]
	b	.LBB70_54
.LBB70_215:
	ldr	r0, [r11, #180]
	mov	r1, #5
	bl	p_7_plt_wrapper_alloc_object_AllocVector_intptr_intptr_llvm
	mov	r5, r0
	ldr	r2, [r11, #240]
	ldr	r0, [r5]
	mov	r1, #0
	ldr	r3, [r0, #136]
	mov	r0, r5
	blx	r3
	ldr	r0, [r5]
	ldr	r1, [sp, #4]
	ldr	r3, [r0, #136]
	mov	r0, r5
	ldr	r2, [r1, #8]
	mov	r1, #1
	blx	r3
	ldr	r0, [r5]
	mov	r1, #2
	ldr	r2, [r11, #388]
	ldr	r3, [r0, #136]
	mov	r0, r5
	blx	r3
	ldr	r0, [r4, #16]
	cmp	r0, #0
	bne	.LBB70_177
.Ltmp905:
	ldr	r0, .LCPI70_55
.LPC70_55:
	add	r1, pc, r0
	mov	r0, #225
	bl	p_23_plt__jit_icall_llvm_throw_corlib_exception_abs_trampoline_llvm
	.p2align	2
.LCPI70_109:
	.long	.Ltmp904-(.LPC70_36+8)
.LBB70_218:
	ldr	r0, [r6, #8]
	cmp	r0, #0
	beq	.LBB70_365
	ldr	r1, [r0]
	ldr	r1, [r1, #108]
	blx	r1
	cmp	r0, #0
	beq	.LBB70_366
	bl	p_187_plt_string_ToLower_llvm
	mov	r9, r0
	ldr	r0, [sp, #20]
	ldr	r0, [r0]
	bl	p_163_plt__rgctx_fetch_60_llvm
	ldrb	r1, [r0, #25]
	cmp	r1, #0
	beq	.LBB70_263
.LBB70_221:
	ldr	r0, [sp, #20]
	ldr	r0, [r0]
	bl	p_164_plt__rgctx_fetch_61_llvm
	ldr	r6, [r0, #8]
	cmp	r6, #0
	bne	.LBB70_226
	ldr	r0, [sp, #20]
	ldr	r0, [r0]
	bl	p_163_plt__rgctx_fetch_60_llvm
	ldrb	r1, [r0, #25]
	cmp	r1, #0
	beq	.LBB70_264
.LBB70_223:
	ldr	r0, [sp, #20]
	ldr	r0, [r0]
	bl	p_164_plt__rgctx_fetch_61_llvm
	ldr	r5, [r0]
	cmp	r5, #0
	beq	.LBB70_371
	ldr	r0, [sp, #20]
	ldr	r0, [r0]
	bl	p_191_plt__rgctx_fetch_68_llvm
	mov	r1, #64
	bl	p_40_plt_wrapper_alloc_object_AllocSmall_intptr_intptr_llvm
	mov	r6, r0
	dmb	ish
	mov	r1, r6
	ldr	r0, [r11, #8]
	str	r5, [r1, #16]!
	mov	r2, #1
	lsr	r1, r1, #9
	strb	r2, [r1, r0]
	ldr	r0, [sp, #20]
	ldr	r0, [r0]
	bl	p_192_plt__rgctx_fetch_69_llvm
	str	r0, [r6, #32]
	ldr	r0, [sp, #20]
	ldr	r0, [r0]
	bl	p_193_plt__rgctx_fetch_70_llvm
	ldr	r1, [r0, #4]
	str	r1, [r6, #20]
	ldr	r1, [r0, #20]
	str	r1, [r6, #12]
	mov	r1, #0
	ldr	r0, [r0, #16]
	strb	r1, [r6, #56]
	str	r0, [r6, #8]
	ldr	r0, [sp, #20]
	ldr	r0, [r0]
	bl	p_163_plt__rgctx_fetch_60_llvm
	ldrb	r1, [r0, #25]
	cmp	r1, #0
	beq	.LBB70_265
.LBB70_225:
	ldr	r0, [sp, #20]
	ldr	r0, [r0]
	bl	p_164_plt__rgctx_fetch_61_llvm
	dmb	ish
	str	r6, [r0, #8]
.LBB70_226:
	ldr	r0, [sp, #20]
	ldr	r7, [r11, #240]
	ldr	r5, [r11, #264]
	ldr	r0, [r0]
	bl	p_188_plt__rgctx_fetch_67_llvm
	str	r0, [sp, #8]
	mov	r0, r4
	ldr	r8, [sp, #8]
	mov	r1, r6
	bl	p_189_plt_System_Linq_Enumerable_Select_SQLite_TableQuery_1_CompileResult_T_REF_string_System_Collections_Generic_IEnumerable_1_SQLite_TableQuery_1_CompileResult_T_REF_System_Func_2_SQLite_TableQuery_1_CompileResult_T_REF_string_llvm
	ldr	r1, [r11, #212]
	str	r1, [sp, #8]
	ldr	r8, [sp, #8]
	bl	p_166_plt_System_Linq_Enumerable_ToArray_string_System_Collections_Generic_IEnumerable_1_string_llvm
	mov	r1, r0
	mov	r0, r5
	bl	p_167_plt_string_Join_string_string___llvm
	ldr	r3, [r11, #252]
	mov	r2, r0
	mov	r0, r9
	mov	r1, r7
	bl	p_190_plt_string_Concat_string_string_string_string_llvm
	b	.LBB70_75
.LBB70_227:
	ldr	r0, [r0]
	ldr	r1, [r11, #272]
	cmp	r0, r1
	beq	.LBB70_256
.LBB70_228:
	ldr	r0, [r11, #236]
	mov	r1, #28
	bl	p_40_plt_wrapper_alloc_object_AllocSmall_intptr_intptr_llvm
	mov	r4, r0
	bl	p_173_plt_System_Text_StringBuilder__ctor_llvm
	str	r4, [sp, #32]
	ldr	r0, [sp, #32]
	cmp	r0, #0
	beq	.LBB70_357
	ldr	r1, [r11, #240]
	bl	p_174_plt_System_Text_StringBuilder_Append_string_llvm
	ldr	r4, [sp, #28]
	cmp	r4, #0
	beq	.LBB70_358
	ldr	r0, [r4]
	ldr	r1, [r0, #20]
	cmp	r1, r5
	blo	.LBB70_232
	ldr	r1, [r0, #16]
	and	r2, r5, #7
	mov	r3, #1
	ldrb	r1, [r1, r5, asr #3]
	tst	r1, r3, lsl r2
	bne	.LBB70_236
.LBB70_232:
	ldr	r0, [r0]
	ldr	r1, [r11, #272]
	cmp	r0, r1
	bne	.LBB70_361
	ldr	r0, [r4, #16]
	cmp	r0, #0
	beq	.LBB70_362
	mov	r0, r4
	bl	p_175_plt_wrapper_proxy_isinst_object___proxy_isinst_wrapper_System_Collections_IEnumerable_object_llvm
	cmp	r0, #0
	beq	.LBB70_363
	ldr	r0, [r4]
.LBB70_236:
	ldr	r1, [r0, #-60]
	ldr	r0, [r11, #248]
	str	r0, [sp, #8]
	mov	r0, r4
	ldr	r8, [sp, #8]
	blx	r1
	str	r0, [sp, #36]
	ldr	r6, [sp, #36]
	cmp	r6, #0
	beq	.LBB70_330
	ldr	r7, [r11, #244]
	ldr	r4, [r11, #148]
	ldr	r5, [r11, #256]
	ldr	r9, [r11, #260]
	ldr	r0, [r11, #232]
	str	r0, [sp, #4]
	ldr	r0, [r11, #264]
	str	r0, [sp]
.LBB70_238:
	ldr	r0, [r6]
	ldr	r1, [r0, #-60]
	str	r5, [sp, #8]
	ldr	r8, [sp, #8]
.Ltmp863:
	mov	r0, r6
	blx	r1
.Ltmp864:
	tst	r0, #255
	beq	.LBB70_255
	ldr	r0, [sp, #36]
	cmp	r0, #0
	beq	.LBB70_320
	ldr	r1, [r0]
	ldr	r1, [r1, #-16]
	str	r9, [sp, #8]
	ldr	r8, [sp, #8]
.Ltmp865:
	blx	r1
	mov	r6, r0
.Ltmp866:
	ldrb	r0, [r4, #25]
	cmp	r0, #0
	beq	.LBB70_253
.LBB70_243:
	cmp	r10, #0
	beq	.LBB70_322
	ldr	r0, [r10, #8]
	ldr	r1, [r10, #16]
	ldr	r2, [r10, #20]
	cmp	r0, #0
	add	r2, r2, #1
	str	r2, [r10, #20]
	beq	.LBB70_324
	ldr	r2, [r0, #12]
	cmp	r1, r2
	bhs	.LBB70_247
	add	r2, r1, #1
	str	r2, [r10, #16]
	ldr	r2, [r0]
	ldr	r3, [r2, #136]
.Ltmp871:
	mov	r2, r6
	blx	r3
.Ltmp872:
	b	.LBB70_248
.LBB70_247:
.Ltmp869:
	mov	r0, r10
	mov	r1, r6
	bl	p_170_plt_System_Collections_Generic_List_1_object_AddWithResize_object_llvm
.Ltmp870:
.LBB70_248:
	ldr	r0, [sp, #32]
	cmp	r0, #0
	beq	.LBB70_326
.Ltmp873:
	mov	r1, r7
	bl	p_174_plt_System_Text_StringBuilder_Append_string_llvm
.Ltmp874:
	ldr	r0, [sp, #32]
	cmp	r0, #0
	beq	.LBB70_336
.Ltmp875:
	ldr	r1, [sp, #4]
	bl	p_174_plt_System_Text_StringBuilder_Append_string_llvm
.Ltmp876:
	ldr	r0, [r11, #28]
	ldr	r6, [sp, #36]
	ldr	r0, [r0]
	cmp	r0, #0
	blne	mono_aot_SQLite_net_icall_cold_wrapper_265
	ldr	r7, [sp]
	cmp	r6, #0
	bne	.LBB70_238
	b	.LBB70_330
.LBB70_253:
.Ltmp867:
	mov	r0, r4
	bl	p_138_plt__jit_icall_mono_generic_class_init_llvm
.Ltmp868:
	b	.LBB70_243
.LBB70_254:
	movw	r0, #377
	mov	r1, r4
	bl	mono_aot_SQLite_net_init_method_gshared_this
	b	.LBB70_1
.LBB70_255:
	mov	r0, #0
	mov	r4, #1
	str	r0, [sp, #44]
	b	.LBB70_374
.LBB70_256:
	ldr	r0, [r4, #16]
	cmp	r0, #0
	beq	.LBB70_228
	mov	r0, r4
	bl	p_176_plt_wrapper_proxy_isinst_object___proxy_isinst_wrapper_System_Collections_Generic_IEnumerable_1_byte_object_llvm
	cmp	r0, #0
	bne	.LBB70_168
	b	.LBB70_228
.LBB70_258:
	bl	p_138_plt__jit_icall_mono_generic_class_init_llvm
	cmp	r10, #0
	bne	.LBB70_42
.Ltmp906:
.LBB70_259:
	ldr	r0, .LCPI70_34
.LPC70_34:
	add	r1, pc, r0
	mov	r0, #225
	bl	p_23_plt__jit_icall_llvm_throw_corlib_exception_abs_trampoline_llvm
.LBB70_260:
	bl	p_138_plt__jit_icall_mono_generic_class_init_llvm
	b	.LBB70_170
.LBB70_261:
	mov	r0, r5
	bl	p_138_plt__jit_icall_mono_generic_class_init_llvm
	ldr	r0, [r10, #16]
	ldrb	r1, [r5, #25]
	sub	r7, r0, #1
	cmp	r1, #0
	bne	.LBB70_117
	mov	r0, r5
	bl	p_138_plt__jit_icall_mono_generic_class_init_llvm
	b	.LBB70_117
.LBB70_263:
	bl	p_138_plt__jit_icall_mono_generic_class_init_llvm
	b	.LBB70_221
.LBB70_264:
	bl	p_138_plt__jit_icall_mono_generic_class_init_llvm
	b	.LBB70_223
.LBB70_265:
	bl	p_138_plt__jit_icall_mono_generic_class_init_llvm
	b	.LBB70_225
.Ltmp907:
.LBB70_266:
	ldr	r0, .LCPI70_83
.LPC70_83:
	add	r1, pc, r0
	mov	r0, #225
	bl	p_23_plt__jit_icall_llvm_throw_corlib_exception_abs_trampoline_llvm
.LBB70_267:
	ldr	r0, .LCPI70_102
	movw	r1, #3859
.LPC70_102:
	ldr	r0, [pc, r0]
.LBB70_268:
	bl	p_30_plt__jit_icall_mono_helper_ldstr_llvm
.LBB70_269:
	mov	r1, r0
	movw	r0, #224
	movt	r0, #512
	bl	p_31_plt__jit_icall_mono_create_corlib_exception_1_llvm
	bl	p_32_plt__jit_icall_mono_arch_throw_exception_llvm
.Ltmp908:
.LBB70_270:
	ldr	r0, .LCPI70_99
.LPC70_99:
	add	r1, pc, r0
	mov	r0, #225
	bl	p_23_plt__jit_icall_llvm_throw_corlib_exception_abs_trampoline_llvm
.Ltmp909:
.LBB70_271:
	ldr	r0, .LCPI70_95
.LPC70_95:
	add	r1, pc, r0
	mov	r0, #225
	bl	p_23_plt__jit_icall_llvm_throw_corlib_exception_abs_trampoline_llvm
.Ltmp910:
.LBB70_272:
	ldr	r0, .LCPI70_85
.LPC70_85:
	add	r1, pc, r0
	mov	r0, #203
	bl	p_23_plt__jit_icall_llvm_throw_corlib_exception_abs_trampoline_llvm
.Ltmp911:
.LBB70_273:
	ldr	r0, .LCPI70_88
.LPC70_88:
	add	r1, pc, r0
	mov	r0, #225
	bl	p_23_plt__jit_icall_llvm_throw_corlib_exception_abs_trampoline_llvm
.Ltmp912:
.LBB70_274:
	ldr	r0, .LCPI70_94
.LPC70_94:
	add	r1, pc, r0
	mov	r0, #225
	bl	p_23_plt__jit_icall_llvm_throw_corlib_exception_abs_trampoline_llvm
.Ltmp913:
.LBB70_275:
	ldr	r0, .LCPI70_98
.LPC70_98:
	add	r1, pc, r0
	mov	r0, #225
	bl	p_23_plt__jit_icall_llvm_throw_corlib_exception_abs_trampoline_llvm
.Ltmp914:
.LBB70_276:
	ldr	r0, .LCPI70_89
.LPC70_89:
	add	r1, pc, r0
	mov	r0, #203
	bl	p_23_plt__jit_icall_llvm_throw_corlib_exception_abs_trampoline_llvm
.Ltmp915:
.LBB70_277:
	ldr	r0, .LCPI70_97
.LPC70_97:
	add	r1, pc, r0
	mov	r0, #225
	bl	p_23_plt__jit_icall_llvm_throw_corlib_exception_abs_trampoline_llvm
.Ltmp916:
.LBB70_278:
	ldr	r0, .LCPI70_96
.LPC70_96:
	add	r1, pc, r0
	mov	r0, #225
	bl	p_23_plt__jit_icall_llvm_throw_corlib_exception_abs_trampoline_llvm
.Ltmp917:
.LBB70_279:
	ldr	r0, .LCPI70_35
.LPC70_35:
	add	r1, pc, r0
	mov	r0, #203
	bl	p_23_plt__jit_icall_llvm_throw_corlib_exception_abs_trampoline_llvm
.Ltmp918:
.LBB70_280:
	ldr	r0, .LCPI70_84
.LPC70_84:
	add	r1, pc, r0
	mov	r0, #225
	bl	p_23_plt__jit_icall_llvm_throw_corlib_exception_abs_trampoline_llvm
.Ltmp919:
.LBB70_281:
	ldr	r0, .LCPI70_82
.LPC70_82:
	add	r1, pc, r0
	mov	r0, #225
	bl	p_23_plt__jit_icall_llvm_throw_corlib_exception_abs_trampoline_llvm
.Ltmp920:
.LBB70_282:
	ldr	r0, .LCPI70_93
.LPC70_93:
	add	r1, pc, r0
	mov	r0, #225
	bl	p_23_plt__jit_icall_llvm_throw_corlib_exception_abs_trampoline_llvm
.Ltmp921:
.LBB70_283:
	ldr	r0, .LCPI70_81
.LPC70_81:
	add	r1, pc, r0
	mov	r0, #225
	bl	p_23_plt__jit_icall_llvm_throw_corlib_exception_abs_trampoline_llvm
.Ltmp922:
.LBB70_284:
	ldr	r0, .LCPI70_32
.LPC70_32:
	add	r1, pc, r0
	mov	r0, #203
	bl	p_23_plt__jit_icall_llvm_throw_corlib_exception_abs_trampoline_llvm
.Ltmp923:
.LBB70_285:
	ldr	r0, .LCPI70_33
.LPC70_33:
	add	r1, pc, r0
	mov	r0, #225
	bl	p_23_plt__jit_icall_llvm_throw_corlib_exception_abs_trampoline_llvm
.Ltmp924:
.LBB70_286:
	ldr	r0, .LCPI70_80
.LPC70_80:
	add	r1, pc, r0
	mov	r0, #225
	bl	p_23_plt__jit_icall_llvm_throw_corlib_exception_abs_trampoline_llvm
.Ltmp925:
.LBB70_287:
	ldr	r0, .LCPI70_86
.LPC70_86:
	add	r1, pc, r0
	mov	r0, #203
	bl	p_23_plt__jit_icall_llvm_throw_corlib_exception_abs_trampoline_llvm
.Ltmp926:
.LBB70_288:
	ldr	r0, .LCPI70_87
.LPC70_87:
	add	r1, pc, r0
	mov	r0, #203
	bl	p_23_plt__jit_icall_llvm_throw_corlib_exception_abs_trampoline_llvm
.Ltmp927:
.LBB70_289:
	ldr	r0, .LCPI70_92
.LPC70_92:
	add	r1, pc, r0
	mov	r0, #225
	bl	p_23_plt__jit_icall_llvm_throw_corlib_exception_abs_trampoline_llvm
.Ltmp928:
.LBB70_290:
	ldr	r0, .LCPI70_91
.LPC70_91:
	add	r1, pc, r0
	mov	r0, #225
	bl	p_23_plt__jit_icall_llvm_throw_corlib_exception_abs_trampoline_llvm
.Ltmp929:
.LBB70_291:
	ldr	r0, .LCPI70_90
.LPC70_90:
	add	r1, pc, r0
	mov	r0, #225
	bl	p_23_plt__jit_icall_llvm_throw_corlib_exception_abs_trampoline_llvm
.Ltmp930:
.LBB70_292:
	ldr	r0, .LCPI70_79
.LPC70_79:
	add	r1, pc, r0
	mov	r0, #225
	bl	p_23_plt__jit_icall_llvm_throw_corlib_exception_abs_trampoline_llvm
.Ltmp931:
.LBB70_293:
	ldr	r0, .LCPI70_37
.LPC70_37:
	add	r1, pc, r0
	mov	r0, #225
	bl	p_23_plt__jit_icall_llvm_throw_corlib_exception_abs_trampoline_llvm
.Ltmp932:
.LBB70_294:
	ldr	r0, .LCPI70_30
.LPC70_30:
	add	r1, pc, r0
	mov	r0, #203
	bl	p_23_plt__jit_icall_llvm_throw_corlib_exception_abs_trampoline_llvm
.Ltmp933:
.LBB70_295:
	ldr	r0, .LCPI70_31
.LPC70_31:
	add	r1, pc, r0
	mov	r0, #225
	bl	p_23_plt__jit_icall_llvm_throw_corlib_exception_abs_trampoline_llvm
.LBB70_296:
	ldr	r0, .LCPI70_103
	movw	r1, #4619
.LPC70_103:
	ldr	r0, [pc, r0]
	bl	p_30_plt__jit_icall_mono_helper_ldstr_llvm
	mov	r4, r0
	ldr	r0, [r6]
	ldr	r1, [r0, #76]
	mov	r0, r6
	blx	r1
	mov	r5, r0
	ldr	r0, [r11, #224]
	mov	r1, #12
	bl	p_40_plt_wrapper_alloc_object_AllocSmall_intptr_intptr_llvm
	ldr	r1, [r0]
	str	r5, [r0, #8]
.LBB70_297:
	ldr	r1, [r1, #40]
	blx	r1
	mov	r1, r0
.LBB70_298:
	mov	r0, r4
	bl	p_108_plt_string_Concat_string_string_llvm
	b	.LBB70_269
.Ltmp934:
.LBB70_299:
	ldr	r0, .LCPI70_0
.LPC70_0:
	add	r1, pc, r0
	mov	r0, #203
	bl	p_23_plt__jit_icall_llvm_throw_corlib_exception_abs_trampoline_llvm
.LBB70_300:
	mov	r0, r6
	bl	p_24_plt_System_Linq_Expressions_MemberExpression_get_Member_llvm
	cmp	r0, #0
	bne	.LBB70_308
.Ltmp935:
	ldr	r0, .LCPI70_29
.LPC70_29:
	add	r1, pc, r0
	mov	r0, #225
	bl	p_23_plt__jit_icall_llvm_throw_corlib_exception_abs_trampoline_llvm
.Ltmp936:
.LBB70_302:
	ldr	r0, .LCPI70_39
.LPC70_39:
	add	r1, pc, r0
	mov	r0, #225
	bl	p_23_plt__jit_icall_llvm_throw_corlib_exception_abs_trampoline_llvm
.Ltmp937:
.LBB70_303:
	ldr	r0, .LCPI70_38
.LPC70_38:
	add	r1, pc, r0
	mov	r0, #225
	bl	p_23_plt__jit_icall_llvm_throw_corlib_exception_abs_trampoline_llvm
.Ltmp938:
.LBB70_304:
	ldr	r0, .LCPI70_78
.LPC70_78:
	add	r1, pc, r0
	mov	r0, #225
	bl	p_23_plt__jit_icall_llvm_throw_corlib_exception_abs_trampoline_llvm
.Ltmp939:
.LBB70_305:
	ldr	r0, .LCPI70_27
.LPC70_27:
	add	r1, pc, r0
	mov	r0, #225
	bl	p_23_plt__jit_icall_llvm_throw_corlib_exception_abs_trampoline_llvm
.Ltmp940:
.LBB70_306:
	ldr	r0, .LCPI70_28
.LPC70_28:
	add	r1, pc, r0
	mov	r0, #225
	bl	p_23_plt__jit_icall_llvm_throw_corlib_exception_abs_trampoline_llvm
.Ltmp941:
.LBB70_307:
	ldr	r0, .LCPI70_8
.LPC70_8:
	add	r1, pc, r0
	mov	r0, #203
	bl	p_23_plt__jit_icall_llvm_throw_corlib_exception_abs_trampoline_llvm
.LBB70_308:
	ldr	r0, [r0]
	mov	r1, #0
	ldr	r4, [r11, #228]
	ldr	r0, [r0, #12]
	cmp	r0, #0
	beq	.LBB70_298
	ldr	r1, [r0]
	b	.LBB70_297
.Ltmp942:
.LBB70_310:
	ldr	r0, .LCPI70_77
.LPC70_77:
	add	r1, pc, r0
	mov	r0, #225
	bl	p_23_plt__jit_icall_llvm_throw_corlib_exception_abs_trampoline_llvm
.Ltmp943:
.LBB70_311:
	ldr	r0, .LCPI70_43
.LPC70_43:
	add	r1, pc, r0
	mov	r0, #225
	bl	p_23_plt__jit_icall_llvm_throw_corlib_exception_abs_trampoline_llvm
.Ltmp944:
.LBB70_312:
	ldr	r0, .LCPI70_42
.LPC70_42:
	add	r1, pc, r0
	mov	r0, #225
	bl	p_23_plt__jit_icall_llvm_throw_corlib_exception_abs_trampoline_llvm
.Ltmp945:
.LBB70_313:
	ldr	r0, .LCPI70_76
.LPC70_76:
	add	r1, pc, r0
	mov	r0, #225
	bl	p_23_plt__jit_icall_llvm_throw_corlib_exception_abs_trampoline_llvm
.Ltmp946:
.LBB70_314:
	ldr	r0, .LCPI70_7
.LPC70_7:
	add	r1, pc, r0
	mov	r0, #225
	bl	p_23_plt__jit_icall_llvm_throw_corlib_exception_abs_trampoline_llvm
.Ltmp947:
.LBB70_315:
	ldr	r0, .LCPI70_6
.LPC70_6:
	add	r1, pc, r0
	mov	r0, #203
	bl	p_23_plt__jit_icall_llvm_throw_corlib_exception_abs_trampoline_llvm
.Ltmp948:
.LBB70_316:
	ldr	r0, .LCPI70_50
.LPC70_50:
	add	r1, pc, r0
	mov	r0, #225
	bl	p_23_plt__jit_icall_llvm_throw_corlib_exception_abs_trampoline_llvm
.Ltmp949:
.LBB70_317:
	ldr	r0, .LCPI70_49
.LPC70_49:
	add	r1, pc, r0
	mov	r0, #225
	bl	p_23_plt__jit_icall_llvm_throw_corlib_exception_abs_trampoline_llvm
.Ltmp950:
.LBB70_318:
	ldr	r0, .LCPI70_48
.LPC70_48:
	add	r1, pc, r0
	mov	r0, #225
	bl	p_23_plt__jit_icall_llvm_throw_corlib_exception_abs_trampoline_llvm
.Ltmp951:
.LBB70_319:
	ldr	r0, .LCPI70_47
.LPC70_47:
	add	r1, pc, r0
	mov	r0, #225
	bl	p_23_plt__jit_icall_llvm_throw_corlib_exception_abs_trampoline_llvm
.Ltmp952:
.LBB70_320:
	ldr	r0, .LCPI70_14
.Ltmp886:
.LPC70_14:
	add	r1, pc, r0
	mov	r0, #225
	bl	p_23_plt__jit_icall_llvm_throw_corlib_exception_abs_trampoline_llvm
.Ltmp887:
.Ltmp953:
.LBB70_322:
	ldr	r0, .LCPI70_13
.Ltmp884:
.LPC70_13:
	add	r1, pc, r0
	mov	r0, #225
	bl	p_23_plt__jit_icall_llvm_throw_corlib_exception_abs_trampoline_llvm
.Ltmp885:
.Ltmp954:
.LBB70_324:
	ldr	r0, .LCPI70_12
.Ltmp882:
.LPC70_12:
	add	r1, pc, r0
	mov	r0, #225
	bl	p_23_plt__jit_icall_llvm_throw_corlib_exception_abs_trampoline_llvm
.Ltmp883:
.Ltmp955:
.LBB70_326:
	ldr	r0, .LCPI70_11
.Ltmp880:
.LPC70_11:
	add	r1, pc, r0
	mov	r0, #225
	bl	p_23_plt__jit_icall_llvm_throw_corlib_exception_abs_trampoline_llvm
.Ltmp881:
.Ltmp956:
.LBB70_328:
	ldr	r0, .LCPI70_5
.LPC70_5:
	add	r1, pc, r0
	mov	r0, #225
	bl	p_23_plt__jit_icall_llvm_throw_corlib_exception_abs_trampoline_llvm
.LBB70_329:
	ldr	r0, .LCPI70_104
	movw	r1, #4507
.LPC70_104:
	ldr	r0, [pc, r0]
	b	.LBB70_268
.Ltmp957:
.LBB70_330:
	ldr	r0, .LCPI70_15
.Ltmp888:
.LPC70_15:
	add	r1, pc, r0
	mov	r0, #225
	bl	p_23_plt__jit_icall_llvm_throw_corlib_exception_abs_trampoline_llvm
.Ltmp889:
.Ltmp958:
.LBB70_332:
	ldr	r0, .LCPI70_52
.LPC70_52:
	add	r1, pc, r0
	mov	r0, #225
	bl	p_23_plt__jit_icall_llvm_throw_corlib_exception_abs_trampoline_llvm
.Ltmp959:
.LBB70_333:
	ldr	r0, .LCPI70_51
.LPC70_51:
	add	r1, pc, r0
	mov	r0, #225
	bl	p_23_plt__jit_icall_llvm_throw_corlib_exception_abs_trampoline_llvm
.Ltmp960:
.LBB70_334:
	ldr	r0, .LCPI70_44
.LPC70_44:
	add	r1, pc, r0
	mov	r0, #203
	bl	p_23_plt__jit_icall_llvm_throw_corlib_exception_abs_trampoline_llvm
.Ltmp961:
.LBB70_335:
	ldr	r0, .LCPI70_45
.LPC70_45:
	add	r1, pc, r0
	mov	r0, #203
	bl	p_23_plt__jit_icall_llvm_throw_corlib_exception_abs_trampoline_llvm
.Ltmp962:
.LBB70_336:
	ldr	r0, .LCPI70_10
.Ltmp878:
.LPC70_10:
	add	r1, pc, r0
	mov	r0, #225
	bl	p_23_plt__jit_icall_llvm_throw_corlib_exception_abs_trampoline_llvm
.Ltmp879:
.Ltmp963:
.LBB70_338:
	ldr	r0, .LCPI70_4
.LPC70_4:
	add	r1, pc, r0
	mov	r0, #225
	bl	p_23_plt__jit_icall_llvm_throw_corlib_exception_abs_trampoline_llvm
.Ltmp964:
.LBB70_339:
	ldr	r0, .LCPI70_3
.LPC70_3:
	add	r1, pc, r0
	mov	r0, #225
	bl	p_23_plt__jit_icall_llvm_throw_corlib_exception_abs_trampoline_llvm
.Ltmp965:
.LBB70_340:
	ldr	r0, .LCPI70_2
.LPC70_2:
	add	r1, pc, r0
	mov	r0, #225
	bl	p_23_plt__jit_icall_llvm_throw_corlib_exception_abs_trampoline_llvm
.Ltmp966:
.LBB70_341:
	ldr	r0, .LCPI70_1
.LPC70_1:
	add	r1, pc, r0
	mov	r0, #225
	bl	p_23_plt__jit_icall_llvm_throw_corlib_exception_abs_trampoline_llvm
.Ltmp967:
.LBB70_342:
	ldr	r0, .LCPI70_62
.LPC70_62:
	add	r1, pc, r0
	mov	r0, #225
	bl	p_23_plt__jit_icall_llvm_throw_corlib_exception_abs_trampoline_llvm
.Ltmp968:
.LBB70_343:
	ldr	r0, .LCPI70_61
.LPC70_61:
	add	r1, pc, r0
	mov	r0, #225
	bl	p_23_plt__jit_icall_llvm_throw_corlib_exception_abs_trampoline_llvm
.Ltmp969:
.LBB70_344:
	ldr	r0, .LCPI70_60
.LPC70_60:
	add	r1, pc, r0
	mov	r0, #225
	bl	p_23_plt__jit_icall_llvm_throw_corlib_exception_abs_trampoline_llvm
.Ltmp970:
.LBB70_345:
	ldr	r0, .LCPI70_59
.LPC70_59:
	add	r1, pc, r0
	mov	r0, #225
	bl	p_23_plt__jit_icall_llvm_throw_corlib_exception_abs_trampoline_llvm
.Ltmp971:
.LBB70_346:
	ldr	r0, .LCPI70_58
.LPC70_58:
	add	r1, pc, r0
	mov	r0, #225
	bl	p_23_plt__jit_icall_llvm_throw_corlib_exception_abs_trampoline_llvm
.Ltmp972:
.LBB70_347:
	ldr	r0, .LCPI70_57
.LPC70_57:
	add	r1, pc, r0
	mov	r0, #225
	bl	p_23_plt__jit_icall_llvm_throw_corlib_exception_abs_trampoline_llvm
.Ltmp973:
.LBB70_348:
	ldr	r0, .LCPI70_56
.LPC70_56:
	add	r1, pc, r0
	mov	r0, #225
	bl	p_23_plt__jit_icall_llvm_throw_corlib_exception_abs_trampoline_llvm
.Ltmp974:
.LBB70_349:
	ldr	r0, .LCPI70_64
.LPC70_64:
	add	r1, pc, r0
	mov	r0, #225
	bl	p_23_plt__jit_icall_llvm_throw_corlib_exception_abs_trampoline_llvm
.Ltmp975:
.LBB70_350:
	ldr	r0, .LCPI70_63
.LPC70_63:
	add	r1, pc, r0
	mov	r0, #225
	bl	p_23_plt__jit_icall_llvm_throw_corlib_exception_abs_trampoline_llvm
.Ltmp976:
.LBB70_351:
	ldr	r0, .LCPI70_53
.LPC70_53:
	add	r1, pc, r0
	mov	r0, #203
	bl	p_23_plt__jit_icall_llvm_throw_corlib_exception_abs_trampoline_llvm
.Ltmp977:
.LBB70_352:
	ldr	r0, .LCPI70_54
.LPC70_54:
	add	r1, pc, r0
	mov	r0, #203
	bl	p_23_plt__jit_icall_llvm_throw_corlib_exception_abs_trampoline_llvm
.Ltmp978:
.LBB70_353:
	ldr	r0, .LCPI70_65
.LPC70_65:
	add	r1, pc, r0
	mov	r0, #225
	bl	p_23_plt__jit_icall_llvm_throw_corlib_exception_abs_trampoline_llvm
.Ltmp979:
.LBB70_354:
	ldr	r0, .LCPI70_41
.LPC70_41:
	add	r1, pc, r0
	mov	r0, #225
	bl	p_23_plt__jit_icall_llvm_throw_corlib_exception_abs_trampoline_llvm
.Ltmp980:
.LBB70_355:
	ldr	r0, .LCPI70_40
.LPC70_40:
	add	r1, pc, r0
	mov	r0, #225
	bl	p_23_plt__jit_icall_llvm_throw_corlib_exception_abs_trampoline_llvm
.Ltmp981:
.LBB70_356:
	ldr	r0, .LCPI70_75
.LPC70_75:
	add	r1, pc, r0
	mov	r0, #225
	bl	p_23_plt__jit_icall_llvm_throw_corlib_exception_abs_trampoline_llvm
.Ltmp982:
.LBB70_357:
	ldr	r0, .LCPI70_26
.LPC70_26:
	add	r1, pc, r0
	mov	r0, #225
	bl	p_23_plt__jit_icall_llvm_throw_corlib_exception_abs_trampoline_llvm
.Ltmp983:
.LBB70_358:
	ldr	r0, .LCPI70_25
.LPC70_25:
	add	r1, pc, r0
	mov	r0, #225
	bl	p_23_plt__jit_icall_llvm_throw_corlib_exception_abs_trampoline_llvm
.Ltmp984:
.LBB70_359:
	ldr	r0, .LCPI70_74
.LPC70_74:
	add	r1, pc, r0
	mov	r0, #225
	bl	p_23_plt__jit_icall_llvm_throw_corlib_exception_abs_trampoline_llvm
.Ltmp985:
.LBB70_360:
	ldr	r0, .LCPI70_46
.LPC70_46:
	add	r1, pc, r0
	mov	r0, #225
	bl	p_23_plt__jit_icall_llvm_throw_corlib_exception_abs_trampoline_llvm
.Ltmp986:
.LBB70_361:
	ldr	r0, .LCPI70_9
.LPC70_9:
	add	r1, pc, r0
	mov	r0, #203
	bl	p_23_plt__jit_icall_llvm_throw_corlib_exception_abs_trampoline_llvm
.Ltmp987:
.LBB70_362:
	ldr	r0, .LCPI70_24
.LPC70_24:
	add	r1, pc, r0
	mov	r0, #203
	bl	p_23_plt__jit_icall_llvm_throw_corlib_exception_abs_trampoline_llvm
.Ltmp988:
.LBB70_363:
	ldr	r0, .LCPI70_23
.LPC70_23:
	add	r1, pc, r0
	mov	r0, #203
	bl	p_23_plt__jit_icall_llvm_throw_corlib_exception_abs_trampoline_llvm
.Ltmp989:
.LBB70_364:
	ldr	r0, .LCPI70_73
.LPC70_73:
	add	r1, pc, r0
	mov	r0, #225
	bl	p_23_plt__jit_icall_llvm_throw_corlib_exception_abs_trampoline_llvm
.Ltmp990:
.LBB70_365:
	ldr	r0, .LCPI70_72
.LPC70_72:
	add	r1, pc, r0
	mov	r0, #225
	bl	p_23_plt__jit_icall_llvm_throw_corlib_exception_abs_trampoline_llvm
.Ltmp991:
.LBB70_366:
	ldr	r0, .LCPI70_71
.LPC70_71:
	add	r1, pc, r0
	mov	r0, #225
	bl	p_23_plt__jit_icall_llvm_throw_corlib_exception_abs_trampoline_llvm
.Ltmp992:
.LBB70_367:
	ldr	r0, .LCPI70_67
.LPC70_67:
	add	r1, pc, r0
	mov	r0, #225
	bl	p_23_plt__jit_icall_llvm_throw_corlib_exception_abs_trampoline_llvm
.Ltmp993:
.LBB70_368:
	ldr	r0, .LCPI70_66
.LPC70_66:
	add	r1, pc, r0
	mov	r0, #225
	bl	p_23_plt__jit_icall_llvm_throw_corlib_exception_abs_trampoline_llvm
.Ltmp994:
.LBB70_369:
	ldr	r0, .LCPI70_69
.LPC70_69:
	add	r1, pc, r0
	mov	r0, #225
	bl	p_23_plt__jit_icall_llvm_throw_corlib_exception_abs_trampoline_llvm
.Ltmp995:
.LBB70_370:
	ldr	r0, .LCPI70_68
.LPC70_68:
	add	r1, pc, r0
	mov	r0, #225
	bl	p_23_plt__jit_icall_llvm_throw_corlib_exception_abs_trampoline_llvm
.Ltmp996:
.LBB70_371:
	ldr	r0, .LCPI70_70
.LPC70_70:
	add	r1, pc, r0
	mov	r0, #123
	bl	p_23_plt__jit_icall_llvm_throw_corlib_exception_abs_trampoline_llvm
.LBB70_372:
.Ltmp877:
.LBB70_373:
	mov	r4, #0
.LBB70_374:
	ldr	r0, [sp, #36]
	str	r0, [sp, #72]
	ldr	r5, [sp, #72]
	ldr	r0, [sp, #72]
	cmp	r0, #0
	beq	.LBB70_381
	ldr	r0, [sp, #72]
	ldr	r0, [r0]
	str	r0, [sp, #76]
	ldr	r1, [sp, #76]
	ldr	r0, [r11, #460]
	ldr	r1, [r1, #20]
	cmp	r1, r0
	blo	.LBB70_377
	ldr	r1, [sp, #76]
	mov	r2, #1
	ldr	r1, [r1, #16]
	ldrb	r1, [r1, r0, asr #3]
	and	r0, r0, #7
	tst	r1, r2, lsl r0
	bne	.LBB70_381
.LBB70_377:
	ldr	r0, [sp, #76]
	ldr	r1, [r11, #272]
	ldr	r0, [r0]
	cmp	r0, r1
	beq	.LBB70_379
.LBB70_378:
	mov	r5, #0
	b	.LBB70_381
.LBB70_379:
	ldr	r0, [sp, #72]
	ldr	r0, [r0, #16]
	cmp	r0, #0
	beq	.LBB70_378
	ldr	r0, [sp, #72]
	bl	p_197_plt_wrapper_proxy_isinst_object___proxy_isinst_wrapper_System_IDisposable_object_llvm
	cmp	r0, #0
	moveq	r5, #0
.LBB70_381:
	str	r5, [sp, #80]
	ldr	r0, [sp, #80]
	str	r0, [sp, #40]
	ldr	r0, [sp, #40]
	cmp	r0, #0
	beq	.LBB70_384
	ldr	r0, [sp, #40]
	cmp	r0, #0
	beq	.LBB70_395
	ldr	r1, [r0]
	ldr	r2, [r11, #464]
	ldr	r1, [r1, #-20]
	str	r2, [sp, #8]
	ldr	r8, [sp, #8]
	blx	r1
.LBB70_384:
	cmp	r4, #0
	beq	.LBB70_394
	ldr	r0, [sp, #44]
	cmp	r0, #0
	beq	.LBB70_387
.Ltmp891:
	bl	p_102_plt__jit_icall_ves_icall_thread_finish_async_abort_llvm
.Ltmp892:
.LBB70_387:
	ldr	r0, [sp, #32]
	cmp	r0, #0
	beq	.LBB70_396
	ldr	r1, [r11, #252]
	bl	p_174_plt_System_Text_StringBuilder_Append_string_llvm
	ldr	r0, [sp, #20]
	ldr	r0, [r0]
	bl	p_171_plt__rgctx_fetch_64_llvm
	mov	r1, #16
	bl	p_40_plt_wrapper_alloc_object_AllocSmall_intptr_intptr_llvm
	mov	r4, r0
	bl	p_172_plt_SQLite_TableQuery_1_CompileResult_T_REF__ctor_llvm
	str	r4, [sp, #48]
	ldr	r4, [sp, #48]
	ldr	r5, [sp, #48]
	ldr	r0, [sp, #32]
	cmp	r0, #0
	beq	.LBB70_397
	ldr	r1, [r0]
	ldr	r1, [r1, #40]
	blx	r1
	str	r5, [sp, #52]
	ldr	r1, [sp, #52]
	str	r0, [sp, #56]
	cmp	r1, #0
	beq	.LBB70_398
	ldr	r1, [sp, #52]
	ldr	r2, [sp, #56]
	cmp	r1, #0
	beq	.LBB70_399
	ldr	r0, [r11, #8]
	dmb	ish
	str	r2, [r1, #8]!
	mov	r2, #1
	strb	r2, [r0, r1, lsr #9]
	str	r4, [sp, #60]
	ldr	r1, [sp, #60]
	ldr	r2, [sp, #60]
	ldr	r3, [sp, #28]
	str	r2, [sp, #64]
	ldr	r2, [sp, #64]
	str	r3, [sp, #68]
	cmp	r2, #0
	beq	.LBB70_400
	ldr	r2, [sp, #64]
	ldr	r3, [sp, #68]
	cmp	r2, #0
	beq	.LBB70_401
	dmb	ish
	str	r3, [r2, #12]!
	mov	r3, #1
	lsr	r2, r2, #9
	strb	r3, [r2, r0]
	str	r1, [sp, #16]
	b	.LBB70_182
.LBB70_394:
	bl	p_110_plt__jit_icall_llvm_resume_unwind_trampoline_llvm
.Ltmp997:
.LBB70_395:
	ldr	r0, .LCPI70_16
.LPC70_16:
	add	r1, pc, r0
	mov	r0, #225
	bl	p_23_plt__jit_icall_llvm_throw_corlib_exception_abs_trampoline_llvm
.Ltmp998:
.LBB70_396:
	ldr	r0, .LCPI70_22
.LPC70_22:
	add	r1, pc, r0
	mov	r0, #225
	bl	p_23_plt__jit_icall_llvm_throw_corlib_exception_abs_trampoline_llvm
.Ltmp999:
.LBB70_397:
	ldr	r0, .LCPI70_21
.LPC70_21:
	add	r1, pc, r0
	mov	r0, #225
	bl	p_23_plt__jit_icall_llvm_throw_corlib_exception_abs_trampoline_llvm
.Ltmp1000:
.LBB70_398:
	ldr	r0, .LCPI70_20
.LPC70_20:
	add	r1, pc, r0
	mov	r0, #225
	bl	p_23_plt__jit_icall_llvm_throw_corlib_exception_abs_trampoline_llvm
.Ltmp1001:
.LBB70_399:
	ldr	r0, .LCPI70_19
.LPC70_19:
	add	r1, pc, r0
	mov	r0, #225
	bl	p_23_plt__jit_icall_llvm_throw_corlib_exception_abs_trampoline_llvm
.Ltmp1002:
.LBB70_400:
	ldr	r0, .LCPI70_18
.LPC70_18:
	add	r1, pc, r0
	mov	r0, #225
	bl	p_23_plt__jit_icall_llvm_throw_corlib_exception_abs_trampoline_llvm
.Ltmp1003:
.LBB70_401:
	ldr	r0, .LCPI70_17
.LPC70_17:
	add	r1, pc, r0
	mov	r0, #225
	bl	p_23_plt__jit_icall_llvm_throw_corlib_exception_abs_trampoline_llvm
.LBB70_402:
.Ltmp890:
	b	.LBB70_373
	.p2align	2
.LCPI70_0:
	.long	.Ltmp934-(.LPC70_0+8)
.LCPI70_1:
	.long	.Ltmp966-(.LPC70_1+8)
.LCPI70_2:
	.long	.Ltmp965-(.LPC70_2+8)
.LCPI70_3:
	.long	.Ltmp964-(.LPC70_3+8)
.LCPI70_4:
	.long	.Ltmp963-(.LPC70_4+8)
.LCPI70_5:
	.long	.Ltmp956-(.LPC70_5+8)
.LCPI70_6:
	.long	.Ltmp947-(.LPC70_6+8)
.LCPI70_7:
	.long	.Ltmp946-(.LPC70_7+8)
.LCPI70_8:
	.long	.Ltmp941-(.LPC70_8+8)
.LCPI70_9:
	.long	.Ltmp986-(.LPC70_9+8)
.LCPI70_10:
	.long	.Ltmp962-(.LPC70_10+8)
.LCPI70_11:
	.long	.Ltmp955-(.LPC70_11+8)
.LCPI70_12:
	.long	.Ltmp954-(.LPC70_12+8)
.LCPI70_13:
	.long	.Ltmp953-(.LPC70_13+8)
.LCPI70_14:
	.long	.Ltmp952-(.LPC70_14+8)
.LCPI70_15:
	.long	.Ltmp957-(.LPC70_15+8)
.LCPI70_16:
	.long	.Ltmp997-(.LPC70_16+8)
.LCPI70_17:
	.long	.Ltmp1003-(.LPC70_17+8)
.LCPI70_18:
	.long	.Ltmp1002-(.LPC70_18+8)
.LCPI70_19:
	.long	.Ltmp1001-(.LPC70_19+8)
.LCPI70_20:
	.long	.Ltmp1000-(.LPC70_20+8)
.LCPI70_21:
	.long	.Ltmp999-(.LPC70_21+8)
.LCPI70_22:
	.long	.Ltmp998-(.LPC70_22+8)
.LCPI70_23:
	.long	.Ltmp988-(.LPC70_23+8)
.LCPI70_24:
	.long	.Ltmp987-(.LPC70_24+8)
.LCPI70_25:
	.long	.Ltmp983-(.LPC70_25+8)
.LCPI70_26:
	.long	.Ltmp982-(.LPC70_26+8)
.LCPI70_27:
	.long	.Ltmp939-(.LPC70_27+8)
.LCPI70_28:
	.long	.Ltmp940-(.LPC70_28+8)
.LCPI70_29:
	.long	.Ltmp935-(.LPC70_29+8)
.LCPI70_30:
	.long	.Ltmp932-(.LPC70_30+8)
.LCPI70_31:
	.long	.Ltmp933-(.LPC70_31+8)
.LCPI70_32:
	.long	.Ltmp922-(.LPC70_32+8)
.LCPI70_33:
	.long	.Ltmp923-(.LPC70_33+8)
.LCPI70_34:
	.long	.Ltmp906-(.LPC70_34+8)
.LCPI70_35:
	.long	.Ltmp917-(.LPC70_35+8)
.LCPI70_37:
	.long	.Ltmp931-(.LPC70_37+8)
.LCPI70_38:
	.long	.Ltmp937-(.LPC70_38+8)
.LCPI70_39:
	.long	.Ltmp936-(.LPC70_39+8)
.LCPI70_40:
	.long	.Ltmp980-(.LPC70_40+8)
.LCPI70_41:
	.long	.Ltmp979-(.LPC70_41+8)
.LCPI70_42:
	.long	.Ltmp944-(.LPC70_42+8)
.LCPI70_43:
	.long	.Ltmp943-(.LPC70_43+8)
.LCPI70_44:
	.long	.Ltmp960-(.LPC70_44+8)
.LCPI70_45:
	.long	.Ltmp961-(.LPC70_45+8)
.LCPI70_46:
	.long	.Ltmp985-(.LPC70_46+8)
.LCPI70_47:
	.long	.Ltmp951-(.LPC70_47+8)
.LCPI70_48:
	.long	.Ltmp950-(.LPC70_48+8)
.LCPI70_49:
	.long	.Ltmp949-(.LPC70_49+8)
.LCPI70_50:
	.long	.Ltmp948-(.LPC70_50+8)
.LCPI70_51:
	.long	.Ltmp959-(.LPC70_51+8)
.LCPI70_52:
	.long	.Ltmp958-(.LPC70_52+8)
.LCPI70_53:
	.long	.Ltmp976-(.LPC70_53+8)
.LCPI70_54:
	.long	.Ltmp977-(.LPC70_54+8)
.LCPI70_55:
	.long	.Ltmp905-(.LPC70_55+8)
.LCPI70_56:
	.long	.Ltmp973-(.LPC70_56+8)
.LCPI70_57:
	.long	.Ltmp972-(.LPC70_57+8)
.LCPI70_58:
	.long	.Ltmp971-(.LPC70_58+8)
.LCPI70_59:
	.long	.Ltmp970-(.LPC70_59+8)
.LCPI70_60:
	.long	.Ltmp969-(.LPC70_60+8)
.LCPI70_61:
	.long	.Ltmp968-(.LPC70_61+8)
.LCPI70_62:
	.long	.Ltmp967-(.LPC70_62+8)
.LCPI70_63:
	.long	.Ltmp975-(.LPC70_63+8)
.LCPI70_64:
	.long	.Ltmp974-(.LPC70_64+8)
.LCPI70_65:
	.long	.Ltmp978-(.LPC70_65+8)
.LCPI70_66:
	.long	.Ltmp993-(.LPC70_66+8)
.LCPI70_67:
	.long	.Ltmp992-(.LPC70_67+8)
.LCPI70_68:
	.long	.Ltmp995-(.LPC70_68+8)
.LCPI70_69:
	.long	.Ltmp994-(.LPC70_69+8)
.LCPI70_70:
	.long	.Ltmp996-(.LPC70_70+8)
.LCPI70_71:
	.long	.Ltmp991-(.LPC70_71+8)
.LCPI70_72:
	.long	.Ltmp990-(.LPC70_72+8)
.LCPI70_73:
	.long	.Ltmp989-(.LPC70_73+8)
.LCPI70_74:
	.long	.Ltmp984-(.LPC70_74+8)
.LCPI70_75:
	.long	.Ltmp981-(.LPC70_75+8)
.LCPI70_76:
	.long	.Ltmp945-(.LPC70_76+8)
.LCPI70_77:
	.long	.Ltmp942-(.LPC70_77+8)
.LCPI70_78:
	.long	.Ltmp938-(.LPC70_78+8)
.LCPI70_79:
	.long	.Ltmp930-(.LPC70_79+8)
.LCPI70_80:
	.long	.Ltmp924-(.LPC70_80+8)
.LCPI70_81:
	.long	.Ltmp921-(.LPC70_81+8)
.LCPI70_82:
	.long	.Ltmp919-(.LPC70_82+8)
.LCPI70_83:
	.long	.Ltmp907-(.LPC70_83+8)
.LCPI70_84:
	.long	.Ltmp918-(.LPC70_84+8)
.LCPI70_85:
	.long	.Ltmp910-(.LPC70_85+8)
.LCPI70_86:
	.long	.Ltmp925-(.LPC70_86+8)
.LCPI70_87:
	.long	.Ltmp926-(.LPC70_87+8)
.LCPI70_88:
	.long	.Ltmp911-(.LPC70_88+8)
.LCPI70_89:
	.long	.Ltmp914-(.LPC70_89+8)
.LCPI70_90:
	.long	.Ltmp929-(.LPC70_90+8)
.LCPI70_91:
	.long	.Ltmp928-(.LPC70_91+8)
.LCPI70_92:
	.long	.Ltmp927-(.LPC70_92+8)
.LCPI70_93:
	.long	.Ltmp920-(.LPC70_93+8)
.LCPI70_94:
	.long	.Ltmp912-(.LPC70_94+8)
.LCPI70_95:
	.long	.Ltmp909-(.LPC70_95+8)
.LCPI70_96:
	.long	.Ltmp916-(.LPC70_96+8)
.LCPI70_97:
	.long	.Ltmp915-(.LPC70_97+8)
.LCPI70_98:
	.long	.Ltmp913-(.LPC70_98+8)
.LCPI70_99:
	.long	.Ltmp908-(.LPC70_99+8)
.LCPI70_102:
	.long	mono_aot_SQLite_net_llvm_got-(.LPC70_102+8)
.LCPI70_103:
	.long	mono_aot_SQLite_net_llvm_got-(.LPC70_103+8)
.LCPI70_104:
	.long	mono_aot_SQLite_net_llvm_got-(.LPC70_104+8)
.Lfunc_end70:
	.size	SQLite_TableQuery_1_T_REF_CompileExpr_System_Linq_Expressions_Expression_System_Collections_Generic_List_1_object, .Lfunc_end70-SQLite_TableQuery_1_T_REF_CompileExpr_System_Linq_Expressions_Expression_System_Collections_Generic_List_1_object
.Lexception66:
	.fnend

	.hidden	SQLite_TableQuery_1_T_REF_ConvertTo_object_System_Type
	.globl	SQLite_TableQuery_1_T_REF_ConvertTo_object_System_Type
	.p2align	2
	.type	SQLite_TableQuery_1_T_REF_ConvertTo_object_System_Type,%function
	.code	32
SQLite_TableQuery_1_T_REF_ConvertTo_object_System_Type:
.Lfunc_begin71:
	.fnstart
	.save	{r4, r5, r11, lr}
	push	{r4, r5, r11, lr}
.Ltmp1004:
.Ltmp1005:
.Ltmp1006:
.Ltmp1007:
.Ltmp1008:
	.pad	#8
	sub	sp, sp, #8
.Ltmp1009:
	mov	r4, r0
	ldr	r0, .LCPI71_0
	mov	r5, r1
.LPC71_0:
	add	r0, pc, r0
	ldr	r0, [r0, #28]
	str	r8, [sp, #4]
	ldr	r0, [r0]
	cmp	r0, #0
	blne	mono_aot_SQLite_net_icall_cold_wrapper_265
	mov	r0, r5
	bl	p_198_plt_System_Nullable_GetUnderlyingType_System_Type_llvm
	mov	r1, r0
	cmp	r1, #0
	beq	.LBB71_3
	cmp	r4, #0
	beq	.LBB71_5
	mov	r0, r4
	b	.LBB71_4
.LBB71_3:
	mov	r0, r4
	mov	r1, r5
.LBB71_4:
	bl	p_199_plt_System_Convert_ChangeType_object_System_Type_llvm
	add	sp, sp, #8
	pop	{r4, r5, r11, pc}
.LBB71_5:
	mov	r0, #0
	add	sp, sp, #8
	pop	{r4, r5, r11, pc}
	.p2align	2
.LCPI71_0:
	.long	mono_aot_SQLite_net_llvm_got-(.LPC71_0+8)
.Lfunc_end71:
	.size	SQLite_TableQuery_1_T_REF_ConvertTo_object_System_Type, .Lfunc_end71-SQLite_TableQuery_1_T_REF_ConvertTo_object_System_Type
.Lexception67:
	.fnend

	.hidden	SQLite_TableQuery_1_T_REF_CompileNullBinaryExpression_System_Linq_Expressions_BinaryExpression_SQLite_TableQuery_1_CompileResult_T_REF
	.globl	SQLite_TableQuery_1_T_REF_CompileNullBinaryExpression_System_Linq_Expressions_BinaryExpression_SQLite_TableQuery_1_CompileResult_T_REF
	.p2align	2
	.type	SQLite_TableQuery_1_T_REF_CompileNullBinaryExpression_System_Linq_Expressions_BinaryExpression_SQLite_TableQuery_1_CompileResult_T_REF,%function
	.code	32
SQLite_TableQuery_1_T_REF_CompileNullBinaryExpression_System_Linq_Expressions_BinaryExpression_SQLite_TableQuery_1_CompileResult_T_REF:
.Lfunc_begin72:
	.fnstart
	.save	{r4, r5, r6, r7, r9, lr}
	push	{r4, r5, r6, r7, r9, lr}
.Ltmp1010:
.Ltmp1011:
.Ltmp1012:
.Ltmp1013:
.Ltmp1014:
.Ltmp1015:
.Ltmp1016:
	.pad	#8
	sub	sp, sp, #8
.Ltmp1017:
	ldr	r9, .LCPI72_2
	mov	r6, r0
	ldr	r0, .LCPI72_3
	mov	r4, r1
.LPC72_2:
	add	r9, pc, r9
	mov	r5, r2
.LPC72_3:
	add	r0, pc, r0
	ldr	r1, [r9, #28]
	ldrb	r7, [r0, #379]
	str	r6, [sp, #4]
	ldr	r0, [r1]
	cmp	r0, #0
	blne	mono_aot_SQLite_net_icall_cold_wrapper_265
	cmp	r7, #0
	beq	.LBB72_13
	cmp	r4, #0
	beq	.LBB72_14
.LBB72_2:
	ldr	r0, [r4]
	ldr	r1, [r0, #76]
	mov	r0, r4
	blx	r1
	cmp	r0, #13
	bne	.LBB72_5
	cmp	r5, #0
	beq	.LBB72_15
	ldr	r1, [r5, #8]
	ldr	r0, [r9, #240]
	ldr	r2, [r9, #476]
	b	.LBB72_12
.LBB72_5:
	ldr	r0, [r4]
	ldr	r1, [r0, #76]
	mov	r0, r4
	blx	r1
	cmp	r0, #35
	bne	.LBB72_7
	ldr	r1, [r5, #8]
	ldr	r0, [r9, #240]
	ldr	r2, [r9, #472]
	b	.LBB72_12
.LBB72_7:
	ldr	r0, [r4]
	ldr	r1, [r0, #76]
	mov	r0, r4
	blx	r1
	cmp	r0, #15
	beq	.LBB72_11
	ldr	r0, [r4]
	ldr	r1, [r0, #76]
	mov	r0, r4
	blx	r1
	cmp	r0, #16
	beq	.LBB72_11
	ldr	r0, [r4]
	ldr	r1, [r0, #76]
	mov	r0, r4
	blx	r1
	cmp	r0, #20
	beq	.LBB72_11
	ldr	r0, [r4]
	ldr	r1, [r0, #76]
	mov	r0, r4
	blx	r1
	cmp	r0, #21
	bne	.LBB72_16
.LBB72_11:
	ldr	r1, [r5, #8]
	ldr	r0, [r9, #240]
	ldr	r2, [r9, #468]
.LBB72_12:
	bl	p_143_plt_string_Concat_string_string_string_llvm
	add	sp, sp, #8
	pop	{r4, r5, r6, r7, r9, pc}
.LBB72_13:
	movw	r0, #379
	mov	r1, r6
	bl	mono_aot_SQLite_net_init_method_gshared_this
	cmp	r4, #0
	bne	.LBB72_2
.Ltmp1018:
.LBB72_14:
	ldr	r0, .LCPI72_1
.LPC72_1:
	add	r1, pc, r0
	mov	r0, #225
	bl	p_23_plt__jit_icall_llvm_throw_corlib_exception_abs_trampoline_llvm
.Ltmp1019:
.LBB72_15:
	ldr	r0, .LCPI72_0
.LPC72_0:
	add	r1, pc, r0
	mov	r0, #225
	bl	p_23_plt__jit_icall_llvm_throw_corlib_exception_abs_trampoline_llvm
.LBB72_16:
	ldr	r0, .LCPI72_4
	movw	r1, #4701
.LPC72_4:
	ldr	r0, [pc, r0]
	bl	p_30_plt__jit_icall_mono_helper_ldstr_llvm
	mov	r5, r0
	ldr	r0, [r4]
	ldr	r1, [r0, #76]
	mov	r0, r4
	blx	r1
	mov	r4, r0
	ldr	r0, [r9, #224]
	mov	r1, #12
	bl	p_40_plt_wrapper_alloc_object_AllocSmall_intptr_intptr_llvm
	ldr	r1, [r0]
	str	r4, [r0, #8]
	ldr	r1, [r1, #40]
	blx	r1
	mov	r1, r0
	mov	r0, r5
	bl	p_108_plt_string_Concat_string_string_llvm
	mov	r1, r0
	movw	r0, #224
	movt	r0, #512
	bl	p_31_plt__jit_icall_mono_create_corlib_exception_1_llvm
	bl	p_32_plt__jit_icall_mono_arch_throw_exception_llvm
	.p2align	2
.LCPI72_0:
	.long	.Ltmp1019-(.LPC72_0+8)
.LCPI72_1:
	.long	.Ltmp1018-(.LPC72_1+8)
.LCPI72_2:
	.long	mono_aot_SQLite_net_llvm_got-(.LPC72_2+8)
.LCPI72_3:
	.long	mono_inited-(.LPC72_3+8)
.LCPI72_4:
	.long	mono_aot_SQLite_net_llvm_got-(.LPC72_4+8)
.Lfunc_end72:
	.size	SQLite_TableQuery_1_T_REF_CompileNullBinaryExpression_System_Linq_Expressions_BinaryExpression_SQLite_TableQuery_1_CompileResult_T_REF, .Lfunc_end72-SQLite_TableQuery_1_T_REF_CompileNullBinaryExpression_System_Linq_Expressions_BinaryExpression_SQLite_TableQuery_1_CompileResult_T_REF
.Lexception68:
	.fnend

	.hidden	SQLite_TableQuery_1_T_REF_GetSqlName_System_Linq_Expressions_Expression
	.globl	SQLite_TableQuery_1_T_REF_GetSqlName_System_Linq_Expressions_Expression
	.p2align	2
	.type	SQLite_TableQuery_1_T_REF_GetSqlName_System_Linq_Expressions_Expression,%function
	.code	32
SQLite_TableQuery_1_T_REF_GetSqlName_System_Linq_Expressions_Expression:
.Lfunc_begin73:
	.fnstart
	.save	{r4, r5, r6, r7, r11, lr}
	push	{r4, r5, r6, r7, r11, lr}
.Ltmp1020:
.Ltmp1021:
.Ltmp1022:
.Ltmp1023:
.Ltmp1024:
.Ltmp1025:
.Ltmp1026:
	.pad	#8
	sub	sp, sp, #8
.Ltmp1027:
	ldr	r6, .LCPI73_1
	mov	r5, r0
	ldr	r0, .LCPI73_2
	mov	r4, r1
.LPC73_1:
	add	r6, pc, r6
.LPC73_2:
	add	r0, pc, r0
	ldr	r1, [r6, #28]
	ldrb	r7, [r0, #380]
	str	r5, [sp, #4]
	ldr	r0, [r1]
	cmp	r0, #0
	blne	mono_aot_SQLite_net_icall_cold_wrapper_265
	cmp	r7, #0
	beq	.LBB73_15
	cmp	r4, #0
	beq	.LBB73_16
.LBB73_2:
	ldr	r0, [r4]
	ldr	r1, [r0, #76]
	mov	r0, r4
	blx	r1
	mov	r4, r0
	sub	r1, r4, #2
	cmp	r1, #35
	bhi	.LBB73_17
	adr	r2, .LJTI73_0
	add	r0, r6, #516
	ldr	r1, [r2, r1, lsl #2]
	add	pc, r2, r1
	.p2align	2
.LJTI73_0:
	.long	.LBB73_5-.LJTI73_0
	.long	.LBB73_8-.LJTI73_0
	.long	.LBB73_17-.LJTI73_0
	.long	.LBB73_17-.LJTI73_0
	.long	.LBB73_17-.LJTI73_0
	.long	.LBB73_17-.LJTI73_0
	.long	.LBB73_17-.LJTI73_0
	.long	.LBB73_17-.LJTI73_0
	.long	.LBB73_17-.LJTI73_0
	.long	.LBB73_17-.LJTI73_0
	.long	.LBB73_17-.LJTI73_0
	.long	.LBB73_9-.LJTI73_0
	.long	.LBB73_17-.LJTI73_0
	.long	.LBB73_14-.LJTI73_0
	.long	.LBB73_10-.LJTI73_0
	.long	.LBB73_17-.LJTI73_0
	.long	.LBB73_17-.LJTI73_0
	.long	.LBB73_17-.LJTI73_0
	.long	.LBB73_11-.LJTI73_0
	.long	.LBB73_12-.LJTI73_0
	.long	.LBB73_17-.LJTI73_0
	.long	.LBB73_17-.LJTI73_0
	.long	.LBB73_17-.LJTI73_0
	.long	.LBB73_17-.LJTI73_0
	.long	.LBB73_17-.LJTI73_0
	.long	.LBB73_17-.LJTI73_0
	.long	.LBB73_17-.LJTI73_0
	.long	.LBB73_17-.LJTI73_0
	.long	.LBB73_17-.LJTI73_0
	.long	.LBB73_17-.LJTI73_0
	.long	.LBB73_17-.LJTI73_0
	.long	.LBB73_17-.LJTI73_0
	.long	.LBB73_17-.LJTI73_0
	.long	.LBB73_13-.LJTI73_0
	.long	.LBB73_6-.LJTI73_0
	.long	.LBB73_7-.LJTI73_0
.LBB73_5:
	add	r0, r6, #500
	b	.LBB73_14
.LBB73_6:
	add	r0, r6, #492
	b	.LBB73_14
.LBB73_7:
	add	r0, r6, #488
	b	.LBB73_14
.LBB73_8:
	add	r0, r6, #496
	b	.LBB73_14
.LBB73_9:
	add	r0, r6, #484
	b	.LBB73_14
.LBB73_10:
	add	r0, r6, #512
	b	.LBB73_14
.LBB73_11:
	add	r0, r6, #508
	b	.LBB73_14
.LBB73_12:
	add	r0, r6, #504
	b	.LBB73_14
.LBB73_13:
	add	r0, r6, #480
.LBB73_14:
	ldr	r0, [r0]
	add	sp, sp, #8
	pop	{r4, r5, r6, r7, r11, pc}
.LBB73_15:
	mov	r0, #380
	mov	r1, r5
	bl	mono_aot_SQLite_net_init_method_gshared_this
	cmp	r4, #0
	bne	.LBB73_2
.Ltmp1028:
.LBB73_16:
	ldr	r0, .LCPI73_0
.LPC73_0:
	add	r1, pc, r0
	mov	r0, #225
	bl	p_23_plt__jit_icall_llvm_throw_corlib_exception_abs_trampoline_llvm
.LBB73_17:
	ldr	r0, .LCPI73_3
	movw	r1, #4849
.LPC73_3:
	ldr	r0, [pc, r0]
	bl	p_30_plt__jit_icall_mono_helper_ldstr_llvm
	mov	r5, r0
	ldr	r0, [r6, #224]
	mov	r1, #12
	bl	p_40_plt_wrapper_alloc_object_AllocSmall_intptr_intptr_llvm
	ldr	r1, [r0]
	str	r4, [r0, #8]
	ldr	r1, [r1, #40]
	blx	r1
	mov	r1, r0
	mov	r0, r5
	bl	p_108_plt_string_Concat_string_string_llvm
	mov	r1, r0
	movw	r0, #224
	movt	r0, #512
	bl	p_31_plt__jit_icall_mono_create_corlib_exception_1_llvm
	bl	p_32_plt__jit_icall_mono_arch_throw_exception_llvm
	.p2align	2
.LCPI73_0:
	.long	.Ltmp1028-(.LPC73_0+8)
.LCPI73_1:
	.long	mono_aot_SQLite_net_llvm_got-(.LPC73_1+8)
.LCPI73_2:
	.long	mono_inited-(.LPC73_2+8)
.LCPI73_3:
	.long	mono_aot_SQLite_net_llvm_got-(.LPC73_3+8)
.Lfunc_end73:
	.size	SQLite_TableQuery_1_T_REF_GetSqlName_System_Linq_Expressions_Expression, .Lfunc_end73-SQLite_TableQuery_1_T_REF_GetSqlName_System_Linq_Expressions_Expression
.Lexception69:
	.fnend

	.hidden	SQLite_TableQuery_1_T_REF_Count
	.globl	SQLite_TableQuery_1_T_REF_Count
	.p2align	2
	.type	SQLite_TableQuery_1_T_REF_Count,%function
	.code	32
SQLite_TableQuery_1_T_REF_Count:
.Lfunc_begin74:
	.fnstart
	.save	{r4, r5, r6, lr}
	push	{r4, r5, r6, lr}
.Ltmp1029:
.Ltmp1030:
.Ltmp1031:
.Ltmp1032:
.Ltmp1033:
	.pad	#8
	sub	sp, sp, #8
.Ltmp1034:
	mov	r4, r0
	ldr	r0, .LCPI74_1
	ldr	r5, .LCPI74_2
.LPC74_1:
	add	r0, pc, r0
.LPC74_2:
	add	r5, pc, r5
	ldrb	r6, [r0, #381]
	ldr	r0, [r5, #28]
	str	r4, [sp]
	str	r4, [sp, #4]
	ldr	r0, [r0]
	cmp	r0, #0
	blne	mono_aot_SQLite_net_icall_cold_wrapper_265
	cmp	r6, #0
	beq	.LBB74_3
.LBB74_1:
	ldr	r0, [sp, #4]
	ldr	r1, [r5, #520]
	bl	p_200_plt_SQLite_TableQuery_1_T_REF_GenerateCommand_string_llvm
	cmp	r0, #0
	beq	.LBB74_4
	bl	p_201_plt_SQLite_SQLiteCommand_ExecuteScalar_int_llvm
	add	sp, sp, #8
	pop	{r4, r5, r6, pc}
.LBB74_3:
	movw	r0, #381
	mov	r1, r4
	bl	mono_aot_SQLite_net_init_method_gshared_this
	b	.LBB74_1
.Ltmp1035:
.LBB74_4:
	ldr	r0, .LCPI74_0
.LPC74_0:
	add	r1, pc, r0
	mov	r0, #225
	bl	p_23_plt__jit_icall_llvm_throw_corlib_exception_abs_trampoline_llvm
	.p2align	2
.LCPI74_0:
	.long	.Ltmp1035-(.LPC74_0+8)
.LCPI74_1:
	.long	mono_inited-(.LPC74_1+8)
.LCPI74_2:
	.long	mono_aot_SQLite_net_llvm_got-(.LPC74_2+8)
.Lfunc_end74:
	.size	SQLite_TableQuery_1_T_REF_Count, .Lfunc_end74-SQLite_TableQuery_1_T_REF_Count
.Lexception70:
	.fnend

	.hidden	SQLite_TableQuery_1_T_REF_Count_System_Linq_Expressions_Expression_1_System_Func_2_T_REF_bool
	.globl	SQLite_TableQuery_1_T_REF_Count_System_Linq_Expressions_Expression_1_System_Func_2_T_REF_bool
	.p2align	2
	.type	SQLite_TableQuery_1_T_REF_Count_System_Linq_Expressions_Expression_1_System_Func_2_T_REF_bool,%function
	.code	32
SQLite_TableQuery_1_T_REF_Count_System_Linq_Expressions_Expression_1_System_Func_2_T_REF_bool:
.Lfunc_begin75:
	.fnstart
	.save	{r4, r5, r11, lr}
	push	{r4, r5, r11, lr}
.Ltmp1036:
.Ltmp1037:
.Ltmp1038:
.Ltmp1039:
.Ltmp1040:
	.pad	#8
	sub	sp, sp, #8
.Ltmp1041:
	mov	r4, r1
	ldr	r1, .LCPI75_1
.LPC75_1:
	add	r1, pc, r1
	ldr	r1, [r1, #28]
	str	r0, [sp]
	str	r0, [sp, #4]
	ldr	r5, [sp, #4]
	ldr	r0, [r1]
	cmp	r0, #0
	blne	mono_aot_SQLite_net_icall_cold_wrapper_265
	mov	r0, r5
	mov	r1, r4
	bl	p_202_plt_SQLite_TableQuery_1_T_REF_Where_System_Linq_Expressions_Expression_1_System_Func_2_T_REF_bool_1_llvm
	cmp	r0, #0
	beq	.LBB75_2
	bl	p_203_plt_SQLite_TableQuery_1_T_REF_Count_llvm
	add	sp, sp, #8
	pop	{r4, r5, r11, pc}
.Ltmp1042:
.LBB75_2:
	ldr	r0, .LCPI75_0
.LPC75_0:
	add	r1, pc, r0
	mov	r0, #225
	bl	p_23_plt__jit_icall_llvm_throw_corlib_exception_abs_trampoline_llvm
	.p2align	2
.LCPI75_0:
	.long	.Ltmp1042-(.LPC75_0+8)
.LCPI75_1:
	.long	mono_aot_SQLite_net_llvm_got-(.LPC75_1+8)
.Lfunc_end75:
	.size	SQLite_TableQuery_1_T_REF_Count_System_Linq_Expressions_Expression_1_System_Func_2_T_REF_bool, .Lfunc_end75-SQLite_TableQuery_1_T_REF_Count_System_Linq_Expressions_Expression_1_System_Func_2_T_REF_bool
.Lexception71:
	.fnend

	.hidden	SQLite_TableQuery_1_T_REF_GetEnumerator
	.globl	SQLite_TableQuery_1_T_REF_GetEnumerator
	.p2align	2
	.type	SQLite_TableQuery_1_T_REF_GetEnumerator,%function
	.code	32
SQLite_TableQuery_1_T_REF_GetEnumerator:
.Lfunc_begin76:
	.fnstart
	.save	{r4, r5, r6, r8, r11, lr}
	push	{r4, r5, r6, r8, r11, lr}
.Ltmp1043:
.Ltmp1044:
.Ltmp1045:
.Ltmp1046:
.Ltmp1047:
.Ltmp1048:
.Ltmp1049:
	.pad	#32
	sub	sp, sp, #32
.Ltmp1050:
	mov	r4, r0
	ldr	r0, .LCPI76_5
	ldr	r5, .LCPI76_6
.LPC76_5:
	add	r0, pc, r0
.LPC76_6:
	add	r5, pc, r5
	ldrb	r6, [r0, #383]
	ldr	r0, [r5, #28]
	str	r4, [sp, #8]
	str	r4, [sp, #12]
	ldr	r0, [r0]
	cmp	r0, #0
	blne	mono_aot_SQLite_net_icall_cold_wrapper_265
	cmp	r6, #0
	beq	.LBB76_10
.LBB76_1:
	ldr	r0, [sp, #12]
	cmp	r0, #0
	beq	.LBB76_13
	ldrb	r6, [r0, #64]
	ldr	r0, [sp, #12]
	ldr	r1, [r5, #524]
	bl	p_200_plt_SQLite_TableQuery_1_T_REF_GenerateCommand_string_llvm
	mov	r4, r0
	ldr	r0, [sp, #12]
	cmp	r6, #0
	ldr	r0, [r0]
	beq	.LBB76_6
	bl	p_204_plt__rgctx_fetch_71_llvm
	cmp	r4, #0
	beq	.LBB76_14
	str	r0, [sp, #4]
	mov	r0, r4
	ldr	r8, [sp, #4]
	bl	p_205_plt_SQLite_SQLiteCommand_ExecuteDeferredQuery_T_REF_0_llvm
	mov	r4, r0
	ldr	r0, [sp, #12]
	ldr	r0, [r0]
	bl	p_206_plt__rgctx_fetch_72_llvm
	cmp	r4, #0
	beq	.LBB76_15
	ldr	r1, [r4]
	ldr	r1, [r1, #-40]
	str	r0, [sp, #4]
	mov	r0, r4
	ldr	r8, [sp, #4]
	blx	r1
	add	sp, sp, #32
	pop	{r4, r5, r6, r8, r11, pc}
.LBB76_6:
	bl	p_207_plt__rgctx_fetch_73_llvm
	cmp	r4, #0
	beq	.LBB76_16
	str	r0, [sp, #4]
	mov	r0, r4
	ldr	r8, [sp, #4]
	bl	p_208_plt_SQLite_SQLiteCommand_ExecuteQuery_T_REF_0_llvm
	mov	r4, r0
	ldr	r0, [sp, #12]
	ldr	r0, [r0]
	bl	p_209_plt__rgctx_fetch_74_llvm
	ldrb	r1, [r0, #25]
	cmp	r1, #0
	beq	.LBB76_11
	cmp	r4, #0
	beq	.LBB76_12
.LBB76_9:
	add	r1, sp, #16
	mov	r0, r4
	bl	p_210_plt_System_Collections_Generic_List_1_T_REF_GetEnumerator_llvm
	ldr	r0, [sp, #12]
	ldr	r0, [r0]
	bl	p_211_plt__rgctx_fetch_75_llvm
	mov	r1, #24
	bl	p_40_plt_wrapper_alloc_object_AllocSmall_intptr_intptr_llvm
	dmb	ish
	ldr	r1, [r5, #8]
	ldr	r2, [sp, #16]
	mov	r3, #1
	str	r2, [r0, #8]
	add	r2, r0, #8
	strb	r3, [r1, r2, lsr #9]
	ldr	r2, [sp, #20]
	str	r2, [r0, #12]
	ldr	r2, [sp, #24]
	str	r2, [r0, #16]
	ldr	r2, [sp, #28]
	str	r2, [r0, #20]
	add	r2, r0, #20
	strb	r3, [r1, r2, lsr #9]
	add	sp, sp, #32
	pop	{r4, r5, r6, r8, r11, pc}
.LBB76_10:
	movw	r0, #383
	mov	r1, r4
	bl	mono_aot_SQLite_net_init_method_gshared_this
	b	.LBB76_1
.LBB76_11:
	bl	p_138_plt__jit_icall_mono_generic_class_init_llvm
	cmp	r4, #0
	bne	.LBB76_9
.Ltmp1051:
.LBB76_12:
	ldr	r0, .LCPI76_2
.LPC76_2:
	add	r1, pc, r0
	mov	r0, #225
	bl	p_23_plt__jit_icall_llvm_throw_corlib_exception_abs_trampoline_llvm
.Ltmp1052:
.LBB76_13:
	ldr	r0, .LCPI76_4
.LPC76_4:
	add	r1, pc, r0
	mov	r0, #225
	bl	p_23_plt__jit_icall_llvm_throw_corlib_exception_abs_trampoline_llvm
.Ltmp1053:
.LBB76_14:
	ldr	r0, .LCPI76_1
.LPC76_1:
	add	r1, pc, r0
	mov	r0, #225
	bl	p_23_plt__jit_icall_llvm_throw_corlib_exception_abs_trampoline_llvm
.Ltmp1054:
.LBB76_15:
	ldr	r0, .LCPI76_0
.LPC76_0:
	add	r1, pc, r0
	mov	r0, #225
	bl	p_23_plt__jit_icall_llvm_throw_corlib_exception_abs_trampoline_llvm
.Ltmp1055:
.LBB76_16:
	ldr	r0, .LCPI76_3
.LPC76_3:
	add	r1, pc, r0
	mov	r0, #225
	bl	p_23_plt__jit_icall_llvm_throw_corlib_exception_abs_trampoline_llvm
	.p2align	2
.LCPI76_0:
	.long	.Ltmp1054-(.LPC76_0+8)
.LCPI76_1:
	.long	.Ltmp1053-(.LPC76_1+8)
.LCPI76_2:
	.long	.Ltmp1051-(.LPC76_2+8)
.LCPI76_3:
	.long	.Ltmp1055-(.LPC76_3+8)
.LCPI76_4:
	.long	.Ltmp1052-(.LPC76_4+8)
.LCPI76_5:
	.long	mono_inited-(.LPC76_5+8)
.LCPI76_6:
	.long	mono_aot_SQLite_net_llvm_got-(.LPC76_6+8)
.Lfunc_end76:
	.size	SQLite_TableQuery_1_T_REF_GetEnumerator, .Lfunc_end76-SQLite_TableQuery_1_T_REF_GetEnumerator
.Lexception72:
	.fnend

	.hidden	SQLite_TableQuery_1_T_REF_System_Collections_IEnumerable_GetEnumerator
	.globl	SQLite_TableQuery_1_T_REF_System_Collections_IEnumerable_GetEnumerator
	.p2align	2
	.type	SQLite_TableQuery_1_T_REF_System_Collections_IEnumerable_GetEnumerator,%function
	.code	32
SQLite_TableQuery_1_T_REF_System_Collections_IEnumerable_GetEnumerator:
.Lfunc_begin77:
	.fnstart
	.save	{r4, lr}
	push	{r4, lr}
.Ltmp1056:
.Ltmp1057:
.Ltmp1058:
	.pad	#8
	sub	sp, sp, #8
.Ltmp1059:
	ldr	r1, .LCPI77_0
.LPC77_0:
	add	r1, pc, r1
	ldr	r1, [r1, #28]
	str	r0, [sp]
	str	r0, [sp, #4]
	ldr	r4, [sp, #4]
	ldr	r0, [r1]
	cmp	r0, #0
	blne	mono_aot_SQLite_net_icall_cold_wrapper_265
	mov	r0, r4
	bl	p_212_plt_SQLite_TableQuery_1_T_REF_GetEnumerator_llvm
	add	sp, sp, #8
	pop	{r4, pc}
	.p2align	2
.LCPI77_0:
	.long	mono_aot_SQLite_net_llvm_got-(.LPC77_0+8)
.Lfunc_end77:
	.size	SQLite_TableQuery_1_T_REF_System_Collections_IEnumerable_GetEnumerator, .Lfunc_end77-SQLite_TableQuery_1_T_REF_System_Collections_IEnumerable_GetEnumerator
.Lexception73:
	.fnend

	.hidden	SQLite_TableQuery_1_T_REF_ToList
	.globl	SQLite_TableQuery_1_T_REF_ToList
	.p2align	2
	.type	SQLite_TableQuery_1_T_REF_ToList,%function
	.code	32
SQLite_TableQuery_1_T_REF_ToList:
.Lfunc_begin78:
	.fnstart
	.save	{r4, r5, r6, r8, r11, lr}
	push	{r4, r5, r6, r8, r11, lr}
.Ltmp1060:
.Ltmp1061:
.Ltmp1062:
.Ltmp1063:
.Ltmp1064:
.Ltmp1065:
.Ltmp1066:
	.pad	#16
	sub	sp, sp, #16
.Ltmp1067:
	mov	r4, r0
	ldr	r0, .LCPI78_1
	ldr	r5, .LCPI78_2
.LPC78_1:
	add	r0, pc, r0
.LPC78_2:
	add	r5, pc, r5
	ldrb	r6, [r0, #385]
	ldr	r0, [r5, #28]
	str	r4, [sp, #8]
	str	r4, [sp, #12]
	ldr	r0, [r0]
	cmp	r0, #0
	blne	mono_aot_SQLite_net_icall_cold_wrapper_265
	cmp	r6, #0
	beq	.LBB78_3
.LBB78_1:
	ldr	r0, [sp, #12]
	ldr	r1, [r5, #524]
	bl	p_200_plt_SQLite_TableQuery_1_T_REF_GenerateCommand_string_llvm
	mov	r4, r0
	ldr	r0, [sp, #12]
	ldr	r0, [r0]
	bl	p_207_plt__rgctx_fetch_73_llvm
	cmp	r4, #0
	beq	.LBB78_4
	str	r0, [sp, #4]
	mov	r0, r4
	ldr	r8, [sp, #4]
	bl	p_208_plt_SQLite_SQLiteCommand_ExecuteQuery_T_REF_0_llvm
	add	sp, sp, #16
	pop	{r4, r5, r6, r8, r11, pc}
.LBB78_3:
	movw	r0, #385
	mov	r1, r4
	bl	mono_aot_SQLite_net_init_method_gshared_this
	b	.LBB78_1
.Ltmp1068:
.LBB78_4:
	ldr	r0, .LCPI78_0
.LPC78_0:
	add	r1, pc, r0
	mov	r0, #225
	bl	p_23_plt__jit_icall_llvm_throw_corlib_exception_abs_trampoline_llvm
	.p2align	2
.LCPI78_0:
	.long	.Ltmp1068-(.LPC78_0+8)
.LCPI78_1:
	.long	mono_inited-(.LPC78_1+8)
.LCPI78_2:
	.long	mono_aot_SQLite_net_llvm_got-(.LPC78_2+8)
.Lfunc_end78:
	.size	SQLite_TableQuery_1_T_REF_ToList, .Lfunc_end78-SQLite_TableQuery_1_T_REF_ToList
.Lexception74:
	.fnend

	.hidden	SQLite_TableQuery_1_T_REF_ToArray
	.globl	SQLite_TableQuery_1_T_REF_ToArray
	.p2align	2
	.type	SQLite_TableQuery_1_T_REF_ToArray,%function
	.code	32
SQLite_TableQuery_1_T_REF_ToArray:
.Lfunc_begin79:
	.fnstart
	.save	{r4, r5, r6, r8, r11, lr}
	push	{r4, r5, r6, r8, r11, lr}
.Ltmp1069:
.Ltmp1070:
.Ltmp1071:
.Ltmp1072:
.Ltmp1073:
.Ltmp1074:
.Ltmp1075:
	.pad	#16
	sub	sp, sp, #16
.Ltmp1076:
	mov	r4, r0
	ldr	r0, .LCPI79_2
	ldr	r5, .LCPI79_3
.LPC79_2:
	add	r0, pc, r0
.LPC79_3:
	add	r5, pc, r5
	ldrb	r6, [r0, #386]
	ldr	r0, [r5, #28]
	str	r4, [sp, #8]
	str	r4, [sp, #12]
	ldr	r0, [r0]
	cmp	r0, #0
	blne	mono_aot_SQLite_net_icall_cold_wrapper_265
	cmp	r6, #0
	beq	.LBB79_5
.LBB79_1:
	ldr	r0, [sp, #12]
	ldr	r1, [r5, #524]
	bl	p_200_plt_SQLite_TableQuery_1_T_REF_GenerateCommand_string_llvm
	mov	r4, r0
	ldr	r0, [sp, #12]
	ldr	r0, [r0]
	bl	p_207_plt__rgctx_fetch_73_llvm
	cmp	r4, #0
	beq	.LBB79_8
	str	r0, [sp, #4]
	mov	r0, r4
	ldr	r8, [sp, #4]
	bl	p_208_plt_SQLite_SQLiteCommand_ExecuteQuery_T_REF_0_llvm
	mov	r4, r0
	ldr	r0, [sp, #12]
	ldr	r0, [r0]
	bl	p_209_plt__rgctx_fetch_74_llvm
	ldrb	r1, [r0, #25]
	cmp	r1, #0
	beq	.LBB79_6
	cmp	r4, #0
	beq	.LBB79_7
.LBB79_4:
	mov	r0, r4
	bl	p_213_plt_System_Collections_Generic_List_1_T_REF_ToArray_llvm
	add	sp, sp, #16
	pop	{r4, r5, r6, r8, r11, pc}
.LBB79_5:
	movw	r0, #386
	mov	r1, r4
	bl	mono_aot_SQLite_net_init_method_gshared_this
	b	.LBB79_1
.LBB79_6:
	bl	p_138_plt__jit_icall_mono_generic_class_init_llvm
	cmp	r4, #0
	bne	.LBB79_4
.Ltmp1077:
.LBB79_7:
	ldr	r0, .LCPI79_0
.LPC79_0:
	add	r1, pc, r0
	mov	r0, #225
	bl	p_23_plt__jit_icall_llvm_throw_corlib_exception_abs_trampoline_llvm
.Ltmp1078:
.LBB79_8:
	ldr	r0, .LCPI79_1
.LPC79_1:
	add	r1, pc, r0
	mov	r0, #225
	bl	p_23_plt__jit_icall_llvm_throw_corlib_exception_abs_trampoline_llvm
	.p2align	2
.LCPI79_0:
	.long	.Ltmp1077-(.LPC79_0+8)
.LCPI79_1:
	.long	.Ltmp1078-(.LPC79_1+8)
.LCPI79_2:
	.long	mono_inited-(.LPC79_2+8)
.LCPI79_3:
	.long	mono_aot_SQLite_net_llvm_got-(.LPC79_3+8)
.Lfunc_end79:
	.size	SQLite_TableQuery_1_T_REF_ToArray, .Lfunc_end79-SQLite_TableQuery_1_T_REF_ToArray
.Lexception75:
	.fnend

	.hidden	SQLite_TableQuery_1_T_REF_First
	.globl	SQLite_TableQuery_1_T_REF_First
	.p2align	2
	.type	SQLite_TableQuery_1_T_REF_First,%function
	.code	32
SQLite_TableQuery_1_T_REF_First:
.Lfunc_begin80:
	.fnstart
	.save	{r4, r8, r11, lr}
	push	{r4, r8, r11, lr}
.Ltmp1079:
.Ltmp1080:
.Ltmp1081:
.Ltmp1082:
.Ltmp1083:
	.pad	#16
	sub	sp, sp, #16
.Ltmp1084:
	ldr	r1, .LCPI80_1
.LPC80_1:
	add	r1, pc, r1
	ldr	r1, [r1, #28]
	str	r0, [sp, #8]
	str	r0, [sp, #12]
	ldr	r4, [sp, #12]
	ldr	r0, [r1]
	cmp	r0, #0
	blne	mono_aot_SQLite_net_icall_cold_wrapper_265
	mov	r0, r4
	mov	r1, #1
	bl	p_149_plt_SQLite_TableQuery_1_T_REF_Take_int_llvm
	cmp	r0, #0
	beq	.LBB80_2
	bl	p_214_plt_SQLite_TableQuery_1_T_REF_ToList_llvm
	mov	r4, r0
	ldr	r0, [sp, #12]
	ldr	r0, [r0]
	bl	p_215_plt__rgctx_fetch_76_llvm
	str	r0, [sp, #4]
	mov	r0, r4
	ldr	r8, [sp, #4]
	bl	p_216_plt_System_Linq_Enumerable_First_T_REF_System_Collections_Generic_IEnumerable_1_T_REF_0_llvm
	add	sp, sp, #16
	pop	{r4, r8, r11, pc}
.Ltmp1085:
.LBB80_2:
	ldr	r0, .LCPI80_0
.LPC80_0:
	add	r1, pc, r0
	mov	r0, #225
	bl	p_23_plt__jit_icall_llvm_throw_corlib_exception_abs_trampoline_llvm
	.p2align	2
.LCPI80_0:
	.long	.Ltmp1085-(.LPC80_0+8)
.LCPI80_1:
	.long	mono_aot_SQLite_net_llvm_got-(.LPC80_1+8)
.Lfunc_end80:
	.size	SQLite_TableQuery_1_T_REF_First, .Lfunc_end80-SQLite_TableQuery_1_T_REF_First
.Lexception76:
	.fnend

	.hidden	SQLite_TableQuery_1_T_REF_FirstOrDefault
	.globl	SQLite_TableQuery_1_T_REF_FirstOrDefault
	.p2align	2
	.type	SQLite_TableQuery_1_T_REF_FirstOrDefault,%function
	.code	32
SQLite_TableQuery_1_T_REF_FirstOrDefault:
.Lfunc_begin81:
	.fnstart
	.save	{r4, r8, r11, lr}
	push	{r4, r8, r11, lr}
.Ltmp1086:
.Ltmp1087:
.Ltmp1088:
.Ltmp1089:
.Ltmp1090:
	.pad	#16
	sub	sp, sp, #16
.Ltmp1091:
	ldr	r1, .LCPI81_1
.LPC81_1:
	add	r1, pc, r1
	ldr	r1, [r1, #28]
	str	r0, [sp, #8]
	str	r0, [sp, #12]
	ldr	r4, [sp, #12]
	ldr	r0, [r1]
	cmp	r0, #0
	blne	mono_aot_SQLite_net_icall_cold_wrapper_265
	mov	r0, r4
	mov	r1, #1
	bl	p_149_plt_SQLite_TableQuery_1_T_REF_Take_int_llvm
	cmp	r0, #0
	beq	.LBB81_2
	bl	p_214_plt_SQLite_TableQuery_1_T_REF_ToList_llvm
	mov	r4, r0
	ldr	r0, [sp, #12]
	ldr	r0, [r0]
	bl	p_217_plt__rgctx_fetch_77_llvm
	str	r0, [sp, #4]
	mov	r0, r4
	ldr	r8, [sp, #4]
	bl	p_218_plt_System_Linq_Enumerable_FirstOrDefault_T_REF_System_Collections_Generic_IEnumerable_1_T_REF_1_llvm
	add	sp, sp, #16
	pop	{r4, r8, r11, pc}
.Ltmp1092:
.LBB81_2:
	ldr	r0, .LCPI81_0
.LPC81_0:
	add	r1, pc, r0
	mov	r0, #225
	bl	p_23_plt__jit_icall_llvm_throw_corlib_exception_abs_trampoline_llvm
	.p2align	2
.LCPI81_0:
	.long	.Ltmp1092-(.LPC81_0+8)
.LCPI81_1:
	.long	mono_aot_SQLite_net_llvm_got-(.LPC81_1+8)
.Lfunc_end81:
	.size	SQLite_TableQuery_1_T_REF_FirstOrDefault, .Lfunc_end81-SQLite_TableQuery_1_T_REF_FirstOrDefault
.Lexception77:
	.fnend

	.hidden	SQLite_TableQuery_1_T_REF_First_System_Linq_Expressions_Expression_1_System_Func_2_T_REF_bool
	.globl	SQLite_TableQuery_1_T_REF_First_System_Linq_Expressions_Expression_1_System_Func_2_T_REF_bool
	.p2align	2
	.type	SQLite_TableQuery_1_T_REF_First_System_Linq_Expressions_Expression_1_System_Func_2_T_REF_bool,%function
	.code	32
SQLite_TableQuery_1_T_REF_First_System_Linq_Expressions_Expression_1_System_Func_2_T_REF_bool:
.Lfunc_begin82:
	.fnstart
	.save	{r4, r5, r11, lr}
	push	{r4, r5, r11, lr}
.Ltmp1093:
.Ltmp1094:
.Ltmp1095:
.Ltmp1096:
.Ltmp1097:
	.pad	#8
	sub	sp, sp, #8
.Ltmp1098:
	mov	r4, r1
	ldr	r1, .LCPI82_1
.LPC82_1:
	add	r1, pc, r1
	ldr	r1, [r1, #28]
	str	r0, [sp]
	str	r0, [sp, #4]
	ldr	r5, [sp, #4]
	ldr	r0, [r1]
	cmp	r0, #0
	blne	mono_aot_SQLite_net_icall_cold_wrapper_265
	mov	r0, r5
	mov	r1, r4
	bl	p_202_plt_SQLite_TableQuery_1_T_REF_Where_System_Linq_Expressions_Expression_1_System_Func_2_T_REF_bool_1_llvm
	cmp	r0, #0
	beq	.LBB82_2
	bl	p_150_plt_SQLite_TableQuery_1_T_REF_First_0_llvm
	add	sp, sp, #8
	pop	{r4, r5, r11, pc}
.Ltmp1099:
.LBB82_2:
	ldr	r0, .LCPI82_0
.LPC82_0:
	add	r1, pc, r0
	mov	r0, #225
	bl	p_23_plt__jit_icall_llvm_throw_corlib_exception_abs_trampoline_llvm
	.p2align	2
.LCPI82_0:
	.long	.Ltmp1099-(.LPC82_0+8)
.LCPI82_1:
	.long	mono_aot_SQLite_net_llvm_got-(.LPC82_1+8)
.Lfunc_end82:
	.size	SQLite_TableQuery_1_T_REF_First_System_Linq_Expressions_Expression_1_System_Func_2_T_REF_bool, .Lfunc_end82-SQLite_TableQuery_1_T_REF_First_System_Linq_Expressions_Expression_1_System_Func_2_T_REF_bool
.Lexception78:
	.fnend

	.hidden	SQLite_TableQuery_1_T_REF_FirstOrDefault_System_Linq_Expressions_Expression_1_System_Func_2_T_REF_bool
	.globl	SQLite_TableQuery_1_T_REF_FirstOrDefault_System_Linq_Expressions_Expression_1_System_Func_2_T_REF_bool
	.p2align	2
	.type	SQLite_TableQuery_1_T_REF_FirstOrDefault_System_Linq_Expressions_Expression_1_System_Func_2_T_REF_bool,%function
	.code	32
SQLite_TableQuery_1_T_REF_FirstOrDefault_System_Linq_Expressions_Expression_1_System_Func_2_T_REF_bool:
.Lfunc_begin83:
	.fnstart
	.save	{r4, r5, r11, lr}
	push	{r4, r5, r11, lr}
.Ltmp1100:
.Ltmp1101:
.Ltmp1102:
.Ltmp1103:
.Ltmp1104:
	.pad	#8
	sub	sp, sp, #8
.Ltmp1105:
	mov	r4, r1
	ldr	r1, .LCPI83_1
.LPC83_1:
	add	r1, pc, r1
	ldr	r1, [r1, #28]
	str	r0, [sp]
	str	r0, [sp, #4]
	ldr	r5, [sp, #4]
	ldr	r0, [r1]
	cmp	r0, #0
	blne	mono_aot_SQLite_net_icall_cold_wrapper_265
	mov	r0, r5
	mov	r1, r4
	bl	p_202_plt_SQLite_TableQuery_1_T_REF_Where_System_Linq_Expressions_Expression_1_System_Func_2_T_REF_bool_1_llvm
	cmp	r0, #0
	beq	.LBB83_2
	bl	p_219_plt_SQLite_TableQuery_1_T_REF_FirstOrDefault_0_llvm
	add	sp, sp, #8
	pop	{r4, r5, r11, pc}
.Ltmp1106:
.LBB83_2:
	ldr	r0, .LCPI83_0
.LPC83_0:
	add	r1, pc, r0
	mov	r0, #225
	bl	p_23_plt__jit_icall_llvm_throw_corlib_exception_abs_trampoline_llvm
	.p2align	2
.LCPI83_0:
	.long	.Ltmp1106-(.LPC83_0+8)
.LCPI83_1:
	.long	mono_aot_SQLite_net_llvm_got-(.LPC83_1+8)
.Lfunc_end83:
	.size	SQLite_TableQuery_1_T_REF_FirstOrDefault_System_Linq_Expressions_Expression_1_System_Func_2_T_REF_bool, .Lfunc_end83-SQLite_TableQuery_1_T_REF_FirstOrDefault_System_Linq_Expressions_Expression_1_System_Func_2_T_REF_bool
.Lexception79:
	.fnend

	.hidden	SQLite_TableQuery_1_CompileResult_T_REF_get_CommandText
	.globl	SQLite_TableQuery_1_CompileResult_T_REF_get_CommandText
	.p2align	2
	.type	SQLite_TableQuery_1_CompileResult_T_REF_get_CommandText,%function
	.code	32
SQLite_TableQuery_1_CompileResult_T_REF_get_CommandText:
.Lfunc_begin84:
	.fnstart
	.save	{r11, lr}
	push	{r11, lr}
.Ltmp1107:
.Ltmp1108:
.Ltmp1109:
	.pad	#8
	sub	sp, sp, #8
.Ltmp1110:
	str	r0, [sp]
	str	r0, [sp, #4]
	ldr	r0, [sp, #4]
	cmp	r0, #0
	ldrne	r0, [r0, #8]
	addne	sp, sp, #8
	popne	{r11, pc}
.Ltmp1111:
.LBB84_1:
	ldr	r0, .LCPI84_0
.LPC84_0:
	add	r1, pc, r0
	mov	r0, #225
	bl	p_23_plt__jit_icall_llvm_throw_corlib_exception_abs_trampoline_llvm
	.p2align	2
.LCPI84_0:
	.long	.Ltmp1111-(.LPC84_0+8)
.Lfunc_end84:
	.size	SQLite_TableQuery_1_CompileResult_T_REF_get_CommandText, .Lfunc_end84-SQLite_TableQuery_1_CompileResult_T_REF_get_CommandText
.Lexception80:
	.fnend

	.hidden	SQLite_TableQuery_1_CompileResult_T_REF_set_CommandText_string
	.globl	SQLite_TableQuery_1_CompileResult_T_REF_set_CommandText_string
	.p2align	2
	.type	SQLite_TableQuery_1_CompileResult_T_REF_set_CommandText_string,%function
	.code	32
SQLite_TableQuery_1_CompileResult_T_REF_set_CommandText_string:
.Lfunc_begin85:
	.fnstart
	.save	{r11, lr}
	push	{r11, lr}
.Ltmp1112:
.Ltmp1113:
.Ltmp1114:
	.pad	#8
	sub	sp, sp, #8
.Ltmp1115:
	str	r0, [sp]
	str	r0, [sp, #4]
	ldr	r0, [sp, #4]
	cmp	r0, #0
	beq	.LBB85_2
	ldr	r2, .LCPI85_1
	dmb	ish
	str	r1, [r0, #8]!
	mov	r1, #1
.LPC85_1:
	add	r2, pc, r2
	ldr	r2, [r2, #8]
	strb	r1, [r2, r0, lsr #9]
	add	sp, sp, #8
	pop	{r11, pc}
.Ltmp1116:
.LBB85_2:
	ldr	r0, .LCPI85_0
.LPC85_0:
	add	r1, pc, r0
	mov	r0, #225
	bl	p_23_plt__jit_icall_llvm_throw_corlib_exception_abs_trampoline_llvm
	.p2align	2
.LCPI85_0:
	.long	.Ltmp1116-(.LPC85_0+8)
.LCPI85_1:
	.long	mono_aot_SQLite_net_llvm_got-(.LPC85_1+8)
.Lfunc_end85:
	.size	SQLite_TableQuery_1_CompileResult_T_REF_set_CommandText_string, .Lfunc_end85-SQLite_TableQuery_1_CompileResult_T_REF_set_CommandText_string
.Lexception81:
	.fnend

	.hidden	SQLite_TableQuery_1_CompileResult_T_REF_get_Value
	.globl	SQLite_TableQuery_1_CompileResult_T_REF_get_Value
	.p2align	2
	.type	SQLite_TableQuery_1_CompileResult_T_REF_get_Value,%function
	.code	32
SQLite_TableQuery_1_CompileResult_T_REF_get_Value:
.Lfunc_begin86:
	.fnstart
	.save	{r11, lr}
	push	{r11, lr}
.Ltmp1117:
.Ltmp1118:
.Ltmp1119:
	.pad	#8
	sub	sp, sp, #8
.Ltmp1120:
	str	r0, [sp]
	str	r0, [sp, #4]
	ldr	r0, [sp, #4]
	cmp	r0, #0
	ldrne	r0, [r0, #12]
	addne	sp, sp, #8
	popne	{r11, pc}
.Ltmp1121:
.LBB86_1:
	ldr	r0, .LCPI86_0
.LPC86_0:
	add	r1, pc, r0
	mov	r0, #225
	bl	p_23_plt__jit_icall_llvm_throw_corlib_exception_abs_trampoline_llvm
	.p2align	2
.LCPI86_0:
	.long	.Ltmp1121-(.LPC86_0+8)
.Lfunc_end86:
	.size	SQLite_TableQuery_1_CompileResult_T_REF_get_Value, .Lfunc_end86-SQLite_TableQuery_1_CompileResult_T_REF_get_Value
.Lexception82:
	.fnend

	.hidden	SQLite_TableQuery_1_CompileResult_T_REF_set_Value_object
	.globl	SQLite_TableQuery_1_CompileResult_T_REF_set_Value_object
	.p2align	2
	.type	SQLite_TableQuery_1_CompileResult_T_REF_set_Value_object,%function
	.code	32
SQLite_TableQuery_1_CompileResult_T_REF_set_Value_object:
.Lfunc_begin87:
	.fnstart
	.save	{r11, lr}
	push	{r11, lr}
.Ltmp1122:
.Ltmp1123:
.Ltmp1124:
	.pad	#8
	sub	sp, sp, #8
.Ltmp1125:
	str	r0, [sp]
	str	r0, [sp, #4]
	ldr	r0, [sp, #4]
	cmp	r0, #0
	beq	.LBB87_2
	ldr	r2, .LCPI87_1
	dmb	ish
	str	r1, [r0, #12]!
	mov	r1, #1
.LPC87_1:
	add	r2, pc, r2
	ldr	r2, [r2, #8]
	strb	r1, [r2, r0, lsr #9]
	add	sp, sp, #8
	pop	{r11, pc}
.Ltmp1126:
.LBB87_2:
	ldr	r0, .LCPI87_0
.LPC87_0:
	add	r1, pc, r0
	mov	r0, #225
	bl	p_23_plt__jit_icall_llvm_throw_corlib_exception_abs_trampoline_llvm
	.p2align	2
.LCPI87_0:
	.long	.Ltmp1126-(.LPC87_0+8)
.LCPI87_1:
	.long	mono_aot_SQLite_net_llvm_got-(.LPC87_1+8)
.Lfunc_end87:
	.size	SQLite_TableQuery_1_CompileResult_T_REF_set_Value_object, .Lfunc_end87-SQLite_TableQuery_1_CompileResult_T_REF_set_Value_object
.Lexception83:
	.fnend

	.hidden	SQLite_TableQuery_1_CompileResult_T_REF__ctor
	.globl	SQLite_TableQuery_1_CompileResult_T_REF__ctor
	.p2align	2
	.type	SQLite_TableQuery_1_CompileResult_T_REF__ctor,%function
	.code	32
SQLite_TableQuery_1_CompileResult_T_REF__ctor:
.Lfunc_begin88:
	.fnstart
	.pad	#4
	sub	sp, sp, #4
.Ltmp1127:
	str	r0, [sp]
	add	sp, sp, #4
	bx	lr
.Lfunc_end88:
	.size	SQLite_TableQuery_1_CompileResult_T_REF__ctor, .Lfunc_end88-SQLite_TableQuery_1_CompileResult_T_REF__ctor
.Lexception84:
	.fnend

	.hidden	SQLite_TableQuery_1__c_T_REF__cctor
	.globl	SQLite_TableQuery_1__c_T_REF__cctor
	.p2align	2
	.type	SQLite_TableQuery_1__c_T_REF__cctor,%function
	.code	32
SQLite_TableQuery_1__c_T_REF__cctor:
.Lfunc_begin89:
	.fnstart
	.save	{r4, lr}
	push	{r4, lr}
.Ltmp1128:
.Ltmp1129:
.Ltmp1130:
	.pad	#8
	sub	sp, sp, #8
.Ltmp1131:
	ldr	r0, .LCPI89_0
.LPC89_0:
	add	r0, pc, r0
	ldr	r0, [r0, #28]
	str	r8, [sp, #4]
	ldr	r4, [sp, #4]
	ldr	r0, [r0]
	cmp	r0, #0
	blne	mono_aot_SQLite_net_icall_cold_wrapper_265
	mov	r0, r4
	bl	p_220_plt__rgctx_fetch_78_llvm
	mov	r1, #8
	bl	p_40_plt_wrapper_alloc_object_AllocSmall_intptr_intptr_llvm
	mov	r4, r0
	bl	p_221_plt_SQLite_TableQuery_1__c_T_REF__ctor_llvm
	ldr	r0, [sp, #4]
	bl	p_222_plt__rgctx_fetch_79_llvm
	dmb	ish
	str	r4, [r0]
	add	sp, sp, #8
	pop	{r4, pc}
	.p2align	2
.LCPI89_0:
	.long	mono_aot_SQLite_net_llvm_got-(.LPC89_0+8)
.Lfunc_end89:
	.size	SQLite_TableQuery_1__c_T_REF__cctor, .Lfunc_end89-SQLite_TableQuery_1__c_T_REF__cctor
.Lexception85:
	.fnend

	.hidden	SQLite_TableQuery_1__c_T_REF__ctor
	.globl	SQLite_TableQuery_1__c_T_REF__ctor
	.p2align	2
	.type	SQLite_TableQuery_1__c_T_REF__ctor,%function
	.code	32
SQLite_TableQuery_1__c_T_REF__ctor:
.Lfunc_begin90:
	.fnstart
	.save	{r11, lr}
	push	{r11, lr}
.Ltmp1132:
.Ltmp1133:
.Ltmp1134:
	.pad	#8
	sub	sp, sp, #8
.Ltmp1135:
	mov	r1, r0
	ldr	r0, .LCPI90_0
.LPC90_0:
	add	r0, pc, r0
	ldrb	r0, [r0, #397]
	str	r1, [sp, #4]
	cmp	r0, #0
	beq	.LBB90_2
	add	sp, sp, #8
	pop	{r11, pc}
.LBB90_2:
	movw	r0, #397
	bl	mono_aot_SQLite_net_init_method_gshared_this
	add	sp, sp, #8
	pop	{r11, pc}
	.p2align	2
.LCPI90_0:
	.long	mono_inited-(.LPC90_0+8)
.Lfunc_end90:
	.size	SQLite_TableQuery_1__c_T_REF__ctor, .Lfunc_end90-SQLite_TableQuery_1__c_T_REF__ctor
.Lexception86:
	.fnend

	.hidden	SQLite_TableQuery_1__c_T_REF__GenerateCommandb__35_0_SQLite_BaseTableQuery_Ordering
	.globl	SQLite_TableQuery_1__c_T_REF__GenerateCommandb__35_0_SQLite_BaseTableQuery_Ordering
	.p2align	2
	.type	SQLite_TableQuery_1__c_T_REF__GenerateCommandb__35_0_SQLite_BaseTableQuery_Ordering,%function
	.code	32
SQLite_TableQuery_1__c_T_REF__GenerateCommandb__35_0_SQLite_BaseTableQuery_Ordering:
.Lfunc_begin91:
	.fnstart
	.save	{r4, r5, r6, r7, r11, lr}
	push	{r4, r5, r6, r7, r11, lr}
.Ltmp1136:
.Ltmp1137:
.Ltmp1138:
.Ltmp1139:
.Ltmp1140:
.Ltmp1141:
.Ltmp1142:
	.pad	#8
	sub	sp, sp, #8
.Ltmp1143:
	ldr	r6, .LCPI91_1
	mov	r5, r0
	ldr	r0, .LCPI91_2
	mov	r4, r1
.LPC91_1:
	add	r6, pc, r6
.LPC91_2:
	add	r0, pc, r0
	ldr	r1, [r6, #28]
	ldrb	r7, [r0, #398]
	str	r5, [sp, #4]
	ldr	r0, [r1]
	cmp	r0, #0
	blne	mono_aot_SQLite_net_icall_cold_wrapper_265
	cmp	r7, #0
	beq	.LBB91_3
	cmp	r4, #0
	beq	.LBB91_4
.LBB91_2:
	ldrb	r2, [r4, #12]
	add	r3, r6, #244
	ldr	r0, [r6, #160]
	cmp	r2, #0
	ldr	r1, [r4, #8]
	addeq	r3, r6, #528
	mov	r2, r0
	ldr	r3, [r3]
	bl	p_190_plt_string_Concat_string_string_string_string_llvm
	add	sp, sp, #8
	pop	{r4, r5, r6, r7, r11, pc}
.LBB91_3:
	movw	r0, #398
	mov	r1, r5
