	.text
	.syntax unified
	.eabi_attribute	67, "2.09"
	.eabi_attribute	6, 10
	.eabi_attribute	7, 65
	.eabi_attribute	8, 1
	.eabi_attribute	9, 2
	.fpu	vfpv3-d16
	.eabi_attribute	34, 1
	.eabi_attribute	15, 1
	.eabi_attribute	16, 1
	.eabi_attribute	17, 2
	.eabi_attribute	20, 1
	.eabi_attribute	21, 1
	.eabi_attribute	23, 3
	.eabi_attribute	24, 1
	.eabi_attribute	25, 1
	.eabi_attribute	38, 1
	.eabi_attribute	14, 0
	.file	"aot"
	.weak	gc.safepoint_poll
	.p2align	2
	.type	gc.safepoint_poll,%function
	.code	32
gc.safepoint_poll:
.Lfunc_begin0:
	.fnstart
	ldr	r0, .LCPI0_0
.LPC0_0:
	add	r0, pc, r0
	ldr	r0, [r0, #28]
	ldr	r0, [r0]
	cmp	r0, #0
	bxeq	lr
	.save	{r11, lr}
	push	{r11, lr}
.Ltmp0:
.Ltmp1:
.Ltmp2:
	bl	mono_aot_Mono_Android_icall_cold_wrapper_265
	pop	{r11, lr}
	bx	lr
	.p2align	2
.LCPI0_0:
	.long	mono_aot_Mono_Android_llvm_got-(.LPC0_0+8)
.Lfunc_end0:
	.size	gc.safepoint_poll, .Lfunc_end0-gc.safepoint_poll
	.fnend

	.p2align	2
	.type	mono_aot_Mono_Android_icall_cold_wrapper_265,%function
	.code	32
mono_aot_Mono_Android_icall_cold_wrapper_265:
.Lfunc_begin1:
	.fnstart
	.save	{r11, lr}
	push	{r11, lr}
.Ltmp3:
.Ltmp4:
.Ltmp5:
	ldr	r0, .LCPI1_0
.LPC1_0:
	add	r0, pc, r0
	ldr	r0, [r0, #80]
	blx	r0
	pop	{r11, pc}
	.p2align	2
.LCPI1_0:
	.long	mono_aot_Mono_Android_llvm_got-(.LPC1_0+8)
.Lfunc_end1:
	.size	mono_aot_Mono_Android_icall_cold_wrapper_265, .Lfunc_end1-mono_aot_Mono_Android_icall_cold_wrapper_265
	.fnend

	.p2align	2
	.type	mono_aot_Mono_Android_init_method,%function
	.code	32
mono_aot_Mono_Android_init_method:
.Lfunc_begin2:
	.fnstart
	.save	{r4, r5, r11, lr}
	push	{r4, r5, r11, lr}
.Ltmp6:
.Ltmp7:
.Ltmp8:
.Ltmp9:
.Ltmp10:
	ldr	r5, .LCPI2_0
	mov	r4, r0
.LPC2_0:
	add	r5, pc, r5
	ldrb	r0, [r5, r4]
	cmp	r0, #0
	popne	{r4, r5, r11, pc}
	ldr	r0, .LCPI2_1
	mov	r2, r4
.LPC2_1:
	add	r0, pc, r0
	ldr	r1, [r0, #16]
	ldr	r3, [r0, #56]
	ldr	r0, .LCPI2_2
.LPC2_2:
	ldr	r0, [pc, r0]
	blx	r3
	mov	r0, #1
	strb	r0, [r5, r4]
	pop	{r4, r5, r11, pc}
	.p2align	2
.LCPI2_0:
	.long	mono_inited-(.LPC2_0+8)
.LCPI2_1:
	.long	mono_aot_Mono_Android_llvm_got-(.LPC2_1+8)
.LCPI2_2:
.Ltmp11:
	.long	mono_aot_file_info(GOT_PREL)-((.LPC2_2+8)-.Ltmp11)
.Lfunc_end2:
	.size	mono_aot_Mono_Android_init_method, .Lfunc_end2-mono_aot_Mono_Android_init_method
	.fnend

	.p2align	2
	.type	mono_aot_Mono_Android_init_method_gshared_mrgctx,%function
	.code	32
mono_aot_Mono_Android_init_method_gshared_mrgctx:
.Lfunc_begin3:
	.fnstart
	.save	{r4, r5, r11, lr}
	push	{r4, r5, r11, lr}
.Ltmp12:
.Ltmp13:
.Ltmp14:
.Ltmp15:
.Ltmp16:
	ldr	r5, .LCPI3_0
	mov	r4, r0
	mov	r3, r1
.LPC3_0:
	add	r5, pc, r5
	ldrb	r0, [r5, r4]
	cmp	r0, #0
	popne	{r4, r5, r11, pc}
	ldr	r0, .LCPI3_1
	mov	r2, r4
.LPC3_1:
	add	r0, pc, r0
	ldr	r1, [r0, #16]
	ldr	r12, [r0, #64]
	ldr	r0, .LCPI3_2
.LPC3_2:
	ldr	r0, [pc, r0]
	blx	r12
	mov	r0, #1
	strb	r0, [r5, r4]
	pop	{r4, r5, r11, pc}
	.p2align	2
.LCPI3_0:
	.long	mono_inited-(.LPC3_0+8)
.LCPI3_1:
	.long	mono_aot_Mono_Android_llvm_got-(.LPC3_1+8)
.LCPI3_2:
.Ltmp17:
	.long	mono_aot_file_info(GOT_PREL)-((.LPC3_2+8)-.Ltmp17)
.Lfunc_end3:
	.size	mono_aot_Mono_Android_init_method_gshared_mrgctx, .Lfunc_end3-mono_aot_Mono_Android_init_method_gshared_mrgctx
	.fnend

	.p2align	2
	.type	mono_aot_Mono_Android_init_method_gshared_this,%function
	.code	32
mono_aot_Mono_Android_init_method_gshared_this:
.Lfunc_begin4:
	.fnstart
	.save	{r4, r5, r11, lr}
	push	{r4, r5, r11, lr}
.Ltmp18:
.Ltmp19:
.Ltmp20:
.Ltmp21:
.Ltmp22:
	ldr	r5, .LCPI4_0
	mov	r4, r0
	mov	r3, r1
.LPC4_0:
	add	r5, pc, r5
	ldrb	r0, [r5, r4]
	cmp	r0, #0
	popne	{r4, r5, r11, pc}
	ldr	r0, .LCPI4_1
	mov	r2, r4
.LPC4_1:
	add	r0, pc, r0
	ldr	r1, [r0, #16]
	ldr	r12, [r0, #60]
	ldr	r0, .LCPI4_2
.LPC4_2:
	ldr	r0, [pc, r0]
	blx	r12
	mov	r0, #1
	strb	r0, [r5, r4]
	pop	{r4, r5, r11, pc}
	.p2align	2
.LCPI4_0:
	.long	mono_inited-(.LPC4_0+8)
.LCPI4_1:
	.long	mono_aot_Mono_Android_llvm_got-(.LPC4_1+8)
.LCPI4_2:
.Ltmp23:
	.long	mono_aot_file_info(GOT_PREL)-((.LPC4_2+8)-.Ltmp23)
.Lfunc_end4:
	.size	mono_aot_Mono_Android_init_method_gshared_this, .Lfunc_end4-mono_aot_Mono_Android_init_method_gshared_this
	.fnend

	.p2align	2
	.type	mono_aot_Mono_Android_init_method_gshared_vtable,%function
	.code	32
mono_aot_Mono_Android_init_method_gshared_vtable:
.Lfunc_begin5:
	.fnstart
	.save	{r4, r5, r11, lr}
	push	{r4, r5, r11, lr}
.Ltmp24:
.Ltmp25:
.Ltmp26:
.Ltmp27:
.Ltmp28:
	ldr	r5, .LCPI5_0
	mov	r4, r0
	mov	r3, r1
.LPC5_0:
	add	r5, pc, r5
	ldrb	r0, [r5, r4]
	cmp	r0, #0
	popne	{r4, r5, r11, pc}
	ldr	r0, .LCPI5_1
	mov	r2, r4
.LPC5_1:
	add	r0, pc, r0
	ldr	r1, [r0, #16]
	ldr	r12, [r0, #68]
	ldr	r0, .LCPI5_2
.LPC5_2:
	ldr	r0, [pc, r0]
	blx	r12
	mov	r0, #1
	strb	r0, [r5, r4]
	pop	{r4, r5, r11, pc}
	.p2align	2
.LCPI5_0:
	.long	mono_inited-(.LPC5_0+8)
.LCPI5_1:
	.long	mono_aot_Mono_Android_llvm_got-(.LPC5_1+8)
.LCPI5_2:
.Ltmp29:
	.long	mono_aot_file_info(GOT_PREL)-((.LPC5_2+8)-.Ltmp29)
.Lfunc_end5:
	.size	mono_aot_Mono_Android_init_method_gshared_vtable, .Lfunc_end5-mono_aot_Mono_Android_init_method_gshared_vtable
	.fnend

	.hidden	_f__AnonymousType0_2__Descriptionj__TPar_REF__Methodj__TPar_REF_get_Description
	.globl	_f__AnonymousType0_2__Descriptionj__TPar_REF__Methodj__TPar_REF_get_Description
	.p2align	2
	.type	_f__AnonymousType0_2__Descriptionj__TPar_REF__Methodj__TPar_REF_get_Description,%function
	.code	32
_f__AnonymousType0_2__Descriptionj__TPar_REF__Methodj__TPar_REF_get_Description:
.Lfunc_begin6:
	.fnstart
	.save	{r11, lr}
	push	{r11, lr}
.Ltmp30:
.Ltmp31:
.Ltmp32:
	.pad	#8
	sub	sp, sp, #8
.Ltmp33:
	str	r0, [sp]
	str	r0, [sp, #4]
	ldr	r0, [sp, #4]
	cmp	r0, #0
	ldrne	r0, [r0, #8]
	addne	sp, sp, #8
	popne	{r11, pc}
.Ltmp34:
.LBB6_1:
	ldr	r0, .LCPI6_0
.LPC6_0:
	add	r1, pc, r0
	mov	r0, #225
	bl	p_1_plt__jit_icall_llvm_throw_corlib_exception_abs_trampoline_llvm
	.p2align	2
.LCPI6_0:
	.long	.Ltmp34-(.LPC6_0+8)
.Lfunc_end6:
	.size	_f__AnonymousType0_2__Descriptionj__TPar_REF__Methodj__TPar_REF_get_Description, .Lfunc_end6-_f__AnonymousType0_2__Descriptionj__TPar_REF__Methodj__TPar_REF_get_Description
.Lexception0:
	.fnend

	.hidden	_f__AnonymousType0_2__Descriptionj__TPar_REF__Methodj__TPar_REF_get_Method
	.globl	_f__AnonymousType0_2__Descriptionj__TPar_REF__Methodj__TPar_REF_get_Method
	.p2align	2
	.type	_f__AnonymousType0_2__Descriptionj__TPar_REF__Methodj__TPar_REF_get_Method,%function
	.code	32
_f__AnonymousType0_2__Descriptionj__TPar_REF__Methodj__TPar_REF_get_Method:
.Lfunc_begin7:
	.fnstart
	.save	{r11, lr}
	push	{r11, lr}
.Ltmp35:
.Ltmp36:
.Ltmp37:
	.pad	#8
	sub	sp, sp, #8
.Ltmp38:
	str	r0, [sp]
	str	r0, [sp, #4]
	ldr	r0, [sp, #4]
	cmp	r0, #0
	ldrne	r0, [r0, #12]
	addne	sp, sp, #8
	popne	{r11, pc}
.Ltmp39:
.LBB7_1:
	ldr	r0, .LCPI7_0
.LPC7_0:
	add	r1, pc, r0
	mov	r0, #225
	bl	p_1_plt__jit_icall_llvm_throw_corlib_exception_abs_trampoline_llvm
	.p2align	2
.LCPI7_0:
	.long	.Ltmp39-(.LPC7_0+8)
.Lfunc_end7:
	.size	_f__AnonymousType0_2__Descriptionj__TPar_REF__Methodj__TPar_REF_get_Method, .Lfunc_end7-_f__AnonymousType0_2__Descriptionj__TPar_REF__Methodj__TPar_REF_get_Method
.Lexception1:
	.fnend

	.hidden	_f__AnonymousType0_2__Descriptionj__TPar_REF__Methodj__TPar_REF__ctor__Descriptionj__TPar_REF__Methodj__TPar_REF
	.globl	_f__AnonymousType0_2__Descriptionj__TPar_REF__Methodj__TPar_REF__ctor__Descriptionj__TPar_REF__Methodj__TPar_REF
	.p2align	2
	.type	_f__AnonymousType0_2__Descriptionj__TPar_REF__Methodj__TPar_REF__ctor__Descriptionj__TPar_REF__Methodj__TPar_REF,%function
	.code	32
_f__AnonymousType0_2__Descriptionj__TPar_REF__Methodj__TPar_REF__ctor__Descriptionj__TPar_REF__Methodj__TPar_REF:
.Lfunc_begin8:
	.fnstart
	.save	{r11, lr}
	push	{r11, lr}
.Ltmp40:
.Ltmp41:
.Ltmp42:
	.pad	#8
	sub	sp, sp, #8
.Ltmp43:
	str	r0, [sp]
	str	r0, [sp, #4]
	ldr	r3, [sp, #4]
	cmp	r3, #0
	beq	.LBB8_3
	ldr	r0, .LCPI8_2
	dmb	ish
	str	r1, [r3, #8]!
	mov	r1, #1
.LPC8_2:
	add	r0, pc, r0
	ldr	r0, [r0, #8]
	strb	r1, [r0, r3, lsr #9]
	ldr	r3, [sp, #4]
	cmp	r3, #0
	beq	.LBB8_4
	dmb	ish
	str	r2, [r3, #12]!
	lsr	r2, r3, #9
	strb	r1, [r2, r0]
	add	sp, sp, #8
	pop	{r11, pc}
.Ltmp44:
.LBB8_3:
	ldr	r0, .LCPI8_1
.LPC8_1:
	add	r1, pc, r0
	mov	r0, #225
	bl	p_1_plt__jit_icall_llvm_throw_corlib_exception_abs_trampoline_llvm
.Ltmp45:
.LBB8_4:
	ldr	r0, .LCPI8_0
.LPC8_0:
	add	r1, pc, r0
	mov	r0, #225
	bl	p_1_plt__jit_icall_llvm_throw_corlib_exception_abs_trampoline_llvm
	.p2align	2
.LCPI8_0:
	.long	.Ltmp45-(.LPC8_0+8)
.LCPI8_1:
	.long	.Ltmp44-(.LPC8_1+8)
.LCPI8_2:
	.long	mono_aot_Mono_Android_llvm_got-(.LPC8_2+8)
.Lfunc_end8:
	.size	_f__AnonymousType0_2__Descriptionj__TPar_REF__Methodj__TPar_REF__ctor__Descriptionj__TPar_REF__Methodj__TPar_REF, .Lfunc_end8-_f__AnonymousType0_2__Descriptionj__TPar_REF__Methodj__TPar_REF__ctor__Descriptionj__TPar_REF__Methodj__TPar_REF
.Lexception2:
	.fnend

	.hidden	_f__AnonymousType0_2__Descriptionj__TPar_REF__Methodj__TPar_REF_Equals_object
	.globl	_f__AnonymousType0_2__Descriptionj__TPar_REF__Methodj__TPar_REF_Equals_object
	.p2align	2
	.type	_f__AnonymousType0_2__Descriptionj__TPar_REF__Methodj__TPar_REF_Equals_object,%function
	.code	32
_f__AnonymousType0_2__Descriptionj__TPar_REF__Methodj__TPar_REF_Equals_object:
.Lfunc_begin9:
	.fnstart
	.save	{r4, r5, r6, r8, r11, lr}
	push	{r4, r5, r6, r8, r11, lr}
.Ltmp46:
.Ltmp47:
.Ltmp48:
.Ltmp49:
.Ltmp50:
.Ltmp51:
.Ltmp52:
	.pad	#16
	sub	sp, sp, #16
.Ltmp53:
	mov	r4, r1
	ldr	r1, .LCPI9_4
	str	r0, [sp, #8]
.LPC9_4:
	add	r1, pc, r1
	str	r0, [sp, #12]
	ldr	r0, [sp, #12]
	ldr	r1, [r1, #28]
	ldr	r5, [r0]
	ldr	r0, [r1]
	cmp	r0, #0
	blne	mono_aot_Mono_Android_icall_cold_wrapper_265
	mov	r0, r5
	bl	p_2_plt__rgctx_fetch_0_llvm
	mov	r2, r0
	mov	r0, r4
	ldr	r1, [r2, #4]
	bl	p_3_plt_wrapper_castclass_object___isinst_with_cache_object_intptr_intptr_llvm
	mov	r4, r0
	mov	r5, #0
	cmp	r4, #0
	beq	.LBB9_11
	ldr	r0, [sp, #12]
	ldr	r0, [r0]
	bl	p_4_plt__rgctx_fetch_1_llvm
	ldr	r0, [sp, #12]
	ldr	r0, [r0]
	bl	p_5_plt__rgctx_fetch_2_llvm
	ldr	r6, [r0]
	dmb	ish
	cmp	r6, #0
	bne	.LBB9_3
	ldr	r0, [sp, #12]
	ldr	r0, [r0]
	bl	p_4_plt__rgctx_fetch_1_llvm
	str	r0, [sp, #4]
	ldr	r8, [sp, #4]
	bl	p_9_plt_System_Collections_Generic_EqualityComparer_1__Descriptionj__TPar_REF_CreateComparer_llvm
	mov	r6, r0
	ldr	r0, [sp, #12]
	ldr	r0, [r0]
	bl	p_5_plt__rgctx_fetch_2_llvm
	dmb	ish
	str	r6, [r0]
.LBB9_3:
	ldr	r0, [sp, #12]
	cmp	r0, #0
	beq	.LBB9_12
	cmp	r6, #0
	beq	.LBB9_13
	ldr	r3, [r6]
	ldr	r1, [r0, #8]
	mov	r0, r6
	ldr	r2, [r4, #8]
	ldr	r3, [r3, #84]
	blx	r3
	tst	r0, #255
	beq	.LBB9_11
	ldr	r0, [sp, #12]
	ldr	r0, [r0]
	bl	p_6_plt__rgctx_fetch_3_llvm
	ldr	r0, [sp, #12]
	ldr	r0, [r0]
	bl	p_7_plt__rgctx_fetch_4_llvm
	ldr	r5, [r0]
	dmb	ish
	cmp	r5, #0
	bne	.LBB9_8
	ldr	r0, [sp, #12]
	ldr	r0, [r0]
	bl	p_6_plt__rgctx_fetch_3_llvm
	str	r0, [sp, #4]
	ldr	r8, [sp, #4]
	bl	p_8_plt_System_Collections_Generic_EqualityComparer_1__Methodj__TPar_REF_CreateComparer_llvm
	mov	r5, r0
	ldr	r0, [sp, #12]
	ldr	r0, [r0]
	bl	p_7_plt__rgctx_fetch_4_llvm
	dmb	ish
	str	r5, [r0]
.LBB9_8:
	ldr	r0, [sp, #12]
	cmp	r0, #0
	beq	.LBB9_14
	cmp	r5, #0
	beq	.LBB9_15
	ldr	r3, [r5]
	ldr	r1, [r0, #12]
	mov	r0, r5
	ldr	r2, [r4, #12]
	ldr	r3, [r3, #84]
	blx	r3
	mov	r5, r0
.LBB9_11:
	mov	r0, r5
	add	sp, sp, #16
	pop	{r4, r5, r6, r8, r11, pc}
.Ltmp54:
.LBB9_12:
	ldr	r0, .LCPI9_3
.LPC9_3:
	add	r1, pc, r0
	mov	r0, #225
	bl	p_1_plt__jit_icall_llvm_throw_corlib_exception_abs_trampoline_llvm
.Ltmp55:
.LBB9_13:
	ldr	r0, .LCPI9_2
.LPC9_2:
	add	r1, pc, r0
	mov	r0, #225
	bl	p_1_plt__jit_icall_llvm_throw_corlib_exception_abs_trampoline_llvm
.Ltmp56:
.LBB9_14:
	ldr	r0, .LCPI9_1
.LPC9_1:
	add	r1, pc, r0
	mov	r0, #225
	bl	p_1_plt__jit_icall_llvm_throw_corlib_exception_abs_trampoline_llvm
.Ltmp57:
.LBB9_15:
	ldr	r0, .LCPI9_0
.LPC9_0:
	add	r1, pc, r0
	mov	r0, #225
	bl	p_1_plt__jit_icall_llvm_throw_corlib_exception_abs_trampoline_llvm
	.p2align	2
.LCPI9_0:
	.long	.Ltmp57-(.LPC9_0+8)
.LCPI9_1:
	.long	.Ltmp56-(.LPC9_1+8)
.LCPI9_2:
	.long	.Ltmp55-(.LPC9_2+8)
.LCPI9_3:
	.long	.Ltmp54-(.LPC9_3+8)
.LCPI9_4:
	.long	mono_aot_Mono_Android_llvm_got-(.LPC9_4+8)
.Lfunc_end9:
	.size	_f__AnonymousType0_2__Descriptionj__TPar_REF__Methodj__TPar_REF_Equals_object, .Lfunc_end9-_f__AnonymousType0_2__Descriptionj__TPar_REF__Methodj__TPar_REF_Equals_object
.Lexception3:
	.fnend

	.hidden	_f__AnonymousType0_2__Descriptionj__TPar_REF__Methodj__TPar_REF_GetHashCode
	.globl	_f__AnonymousType0_2__Descriptionj__TPar_REF__Methodj__TPar_REF_GetHashCode
	.p2align	2
	.type	_f__AnonymousType0_2__Descriptionj__TPar_REF__Methodj__TPar_REF_GetHashCode,%function
	.code	32
_f__AnonymousType0_2__Descriptionj__TPar_REF__Methodj__TPar_REF_GetHashCode:
.Lfunc_begin10:
	.fnstart
	.save	{r4, r5, r8, lr}
	push	{r4, r5, r8, lr}
.Ltmp58:
.Ltmp59:
.Ltmp60:
.Ltmp61:
.Ltmp62:
	.pad	#16
	sub	sp, sp, #16
.Ltmp63:
	ldr	r1, .LCPI10_4
	str	r0, [sp, #8]
.LPC10_4:
	add	r1, pc, r1
	str	r0, [sp, #12]
	ldr	r0, [sp, #12]
	ldr	r1, [r1, #28]
	ldr	r4, [r0]
	ldr	r0, [r1]
	cmp	r0, #0
	blne	mono_aot_Mono_Android_icall_cold_wrapper_265
	mov	r0, r4
	bl	p_4_plt__rgctx_fetch_1_llvm
	ldr	r0, [sp, #12]
	ldr	r0, [r0]
	bl	p_5_plt__rgctx_fetch_2_llvm
	ldr	r4, [r0]
	dmb	ish
	cmp	r4, #0
	bne	.LBB10_2
	ldr	r0, [sp, #12]
	ldr	r0, [r0]
	bl	p_4_plt__rgctx_fetch_1_llvm
	str	r0, [sp, #4]
	ldr	r8, [sp, #4]
	bl	p_9_plt_System_Collections_Generic_EqualityComparer_1__Descriptionj__TPar_REF_CreateComparer_llvm
	mov	r4, r0
	ldr	r0, [sp, #12]
	ldr	r0, [r0]
	bl	p_5_plt__rgctx_fetch_2_llvm
	dmb	ish
	str	r4, [r0]
.LBB10_2:
	ldr	r0, [sp, #12]
	cmp	r0, #0
	beq	.LBB10_9
	cmp	r4, #0
	beq	.LBB10_10
	ldr	r2, [r4]
	ldr	r1, [r0, #8]
	mov	r0, r4
	ldr	r2, [r2, #80]
	blx	r2
	mov	r4, r0
	ldr	r0, [sp, #12]
	ldr	r0, [r0]
	bl	p_6_plt__rgctx_fetch_3_llvm
	ldr	r0, [sp, #12]
	ldr	r0, [r0]
	bl	p_7_plt__rgctx_fetch_4_llvm
	ldr	r5, [r0]
	dmb	ish
	cmp	r5, #0
	bne	.LBB10_6
	ldr	r0, [sp, #12]
	ldr	r0, [r0]
	bl	p_6_plt__rgctx_fetch_3_llvm
	str	r0, [sp, #4]
	ldr	r8, [sp, #4]
	bl	p_8_plt_System_Collections_Generic_EqualityComparer_1__Methodj__TPar_REF_CreateComparer_llvm
	mov	r5, r0
	ldr	r0, [sp, #12]
	ldr	r0, [r0]
	bl	p_7_plt__rgctx_fetch_4_llvm
	dmb	ish
	str	r5, [r0]
.LBB10_6:
	ldr	r0, [sp, #12]
	cmp	r0, #0
	beq	.LBB10_11
	cmp	r5, #0
	beq	.LBB10_12
	movw	r1, #64087
	movw	r2, #21801
	movt	r1, #5948
	movt	r2, #42325
	mla	r4, r4, r2, r1
	ldr	r2, [r5]
	ldr	r1, [r0, #12]
	mov	r0, r5
	ldr	r2, [r2, #80]
	blx	r2
	add	r0, r4, r0
	add	sp, sp, #16
	pop	{r4, r5, r8, pc}
.Ltmp64:
.LBB10_9:
	ldr	r0, .LCPI10_3
.LPC10_3:
	add	r1, pc, r0
	mov	r0, #225
	bl	p_1_plt__jit_icall_llvm_throw_corlib_exception_abs_trampoline_llvm
.Ltmp65:
.LBB10_10:
	ldr	r0, .LCPI10_2
.LPC10_2:
	add	r1, pc, r0
	mov	r0, #225
	bl	p_1_plt__jit_icall_llvm_throw_corlib_exception_abs_trampoline_llvm
.Ltmp66:
.LBB10_11:
	ldr	r0, .LCPI10_1
.LPC10_1:
	add	r1, pc, r0
	mov	r0, #225
	bl	p_1_plt__jit_icall_llvm_throw_corlib_exception_abs_trampoline_llvm
.Ltmp67:
.LBB10_12:
	ldr	r0, .LCPI10_0
.LPC10_0:
	add	r1, pc, r0
	mov	r0, #225
	bl	p_1_plt__jit_icall_llvm_throw_corlib_exception_abs_trampoline_llvm
	.p2align	2
.LCPI10_0:
	.long	.Ltmp67-(.LPC10_0+8)
.LCPI10_1:
	.long	.Ltmp66-(.LPC10_1+8)
.LCPI10_2:
	.long	.Ltmp65-(.LPC10_2+8)
.LCPI10_3:
	.long	.Ltmp64-(.LPC10_3+8)
.LCPI10_4:
	.long	mono_aot_Mono_Android_llvm_got-(.LPC10_4+8)
.Lfunc_end10:
	.size	_f__AnonymousType0_2__Descriptionj__TPar_REF__Methodj__TPar_REF_GetHashCode, .Lfunc_end10-_f__AnonymousType0_2__Descriptionj__TPar_REF__Methodj__TPar_REF_GetHashCode
.Lexception4:
	.fnend

	.hidden	_f__AnonymousType0_2__Descriptionj__TPar_REF__Methodj__TPar_REF_ToString
	.globl	_f__AnonymousType0_2__Descriptionj__TPar_REF__Methodj__TPar_REF_ToString
	.p2align	2
	.type	_f__AnonymousType0_2__Descriptionj__TPar_REF__Methodj__TPar_REF_ToString,%function
	.code	32
_f__AnonymousType0_2__Descriptionj__TPar_REF__Methodj__TPar_REF_ToString:
.Lfunc_begin11:
	.fnstart
	.save	{r4, r5, r6, lr}
	push	{r4, r5, r6, lr}
.Ltmp68:
.Ltmp69:
.Ltmp70:
.Ltmp71:
.Ltmp72:
	.pad	#16
	sub	sp, sp, #16
.Ltmp73:
	mov	r4, r0
	ldr	r0, .LCPI11_4
	ldr	r5, .LCPI11_5
.LPC11_4:
	add	r0, pc, r0
.LPC11_5:
	add	r5, pc, r5
	ldrb	r6, [r0, #5]
	ldr	r0, [r5, #28]
	str	r4, [sp]
	str	r4, [sp, #4]
	ldr	r0, [r0]
	cmp	r0, #0
	blne	mono_aot_Mono_Android_icall_cold_wrapper_265
	cmp	r6, #0
	beq	.LBB11_16
.LBB11_1:
	ldr	r0, [r5, #104]
	mov	r6, #0
	mov	r1, #2
	str	r6, [sp, #12]
	str	r6, [sp, #8]
	bl	p_10_plt_wrapper_alloc_object_AllocVector_intptr_intptr_llvm
	mov	r4, r0
	ldr	r0, [sp, #4]
	cmp	r0, #0
	beq	.LBB11_17
	ldr	r0, [r0, #8]
	str	r6, [sp, #8]
	ldr	r1, [sp, #8]
	cmp	r1, #0
	beq	.LBB11_5
	cmp	r0, #0
	bne	.LBB11_6
.Ltmp74:
	ldr	r0, .LCPI11_0
.LPC11_0:
	add	r1, pc, r0
	mov	r0, #225
	bl	p_1_plt__jit_icall_llvm_throw_corlib_exception_abs_trampoline_llvm
.LBB11_5:
	str	r0, [sp, #8]
	ldr	r0, [sp, #8]
	cmp	r0, #0
	beq	.LBB11_14
.LBB11_6:
	ldr	r1, [r0]
	ldr	r1, [r1, #40]
	blx	r1
	mov	r2, r0
.LBB11_7:
	ldr	r0, [r4]
	mov	r1, #0
	mov	r6, #0
	ldr	r3, [r0, #136]
	mov	r0, r4
	blx	r3
	ldr	r0, [sp, #4]
	cmp	r0, #0
	beq	.LBB11_18
	ldr	r0, [r0, #12]
	str	r6, [sp, #12]
	ldr	r1, [sp, #12]
	cmp	r1, #0
	beq	.LBB11_11
	cmp	r0, #0
	bne	.LBB11_12
.Ltmp75:
	ldr	r0, .LCPI11_1
.LPC11_1:
	add	r1, pc, r0
	mov	r0, #225
	bl	p_1_plt__jit_icall_llvm_throw_corlib_exception_abs_trampoline_llvm
.LBB11_11:
	str	r0, [sp, #12]
	ldr	r0, [sp, #12]
	cmp	r0, #0
	beq	.LBB11_15
.LBB11_12:
	ldr	r1, [r0]
	ldr	r1, [r1, #40]
	blx	r1
	mov	r2, r0
.LBB11_13:
	ldr	r0, [r4]
	mov	r1, #1
	ldr	r5, [r5, #100]
	ldr	r3, [r0, #136]
	mov	r0, r4
	blx	r3
	mov	r0, #0
	mov	r1, r5
	mov	r2, r4
	bl	p_11_plt_string_Format_System_IFormatProvider_string_object___llvm
	add	sp, sp, #16
	pop	{r4, r5, r6, pc}
.LBB11_14:
	mov	r2, #0
	b	.LBB11_7
.LBB11_15:
	mov	r2, #0
	b	.LBB11_13
.LBB11_16:
	mov	r0, #5
	mov	r1, r4
	bl	mono_aot_Mono_Android_init_method_gshared_this
	b	.LBB11_1
.Ltmp76:
.LBB11_17:
	ldr	r0, .LCPI11_3
.LPC11_3:
	add	r1, pc, r0
	mov	r0, #225
	bl	p_1_plt__jit_icall_llvm_throw_corlib_exception_abs_trampoline_llvm
.Ltmp77:
.LBB11_18:
	ldr	r0, .LCPI11_2
.LPC11_2:
	add	r1, pc, r0
	mov	r0, #225
	bl	p_1_plt__jit_icall_llvm_throw_corlib_exception_abs_trampoline_llvm
	.p2align	2
.LCPI11_0:
	.long	.Ltmp74-(.LPC11_0+8)
.LCPI11_1:
	.long	.Ltmp75-(.LPC11_1+8)
.LCPI11_2:
	.long	.Ltmp77-(.LPC11_2+8)
.LCPI11_3:
	.long	.Ltmp76-(.LPC11_3+8)
.LCPI11_4:
	.long	mono_inited-(.LPC11_4+8)
.LCPI11_5:
	.long	mono_aot_Mono_Android_llvm_got-(.LPC11_5+8)
.Lfunc_end11:
	.size	_f__AnonymousType0_2__Descriptionj__TPar_REF__Methodj__TPar_REF_ToString, .Lfunc_end11-_f__AnonymousType0_2__Descriptionj__TPar_REF__Methodj__TPar_REF_ToString
.Lexception5:
	.fnend

	.hidden	System_Linq_Extensions_ToEnumerator_Dispose_T_REF_Java_Util_IIterator
	.globl	System_Linq_Extensions_ToEnumerator_Dispose_T_REF_Java_Util_IIterator
	.p2align	2
	.type	System_Linq_Extensions_ToEnumerator_Dispose_T_REF_Java_Util_IIterator,%function
	.code	32
System_Linq_Extensions_ToEnumerator_Dispose_T_REF_Java_Util_IIterator:
.Lfunc_begin12:
	.fnstart
	.save	{r4, r5, r6, lr}
	push	{r4, r5, r6, lr}
.Ltmp78:
.Ltmp79:
.Ltmp80:
.Ltmp81:
.Ltmp82:
	.pad	#8
	sub	sp, sp, #8
.Ltmp83:
	ldr	r6, .LCPI12_0
	mov	r4, r0
	ldr	r0, .LCPI12_1
.LPC12_0:
	add	r6, pc, r6
.LPC12_1:
	add	r0, pc, r0
	ldr	r1, [r6, #28]
	ldrb	r5, [r0, #1695]
	str	r8, [sp, #4]
	ldr	r0, [r1]
	cmp	r0, #0
	blne	mono_aot_Mono_Android_icall_cold_wrapper_265
	cmp	r5, #0
	beq	.LBB12_2
.LBB12_1:
	ldr	r0, [sp, #4]
	bl	p_12_plt__rgctx_fetch_5_llvm
	mov	r1, #24
	bl	p_13_plt_wrapper_alloc_object_AllocSmall_intptr_intptr_llvm
	mov	r1, #0
	mov	r5, r0
	bl	p_14_plt_System_Linq_Extensions__ToEnumerator_Disposed__5_1_T_REF__ctor_int_llvm
	ldr	r0, [r6, #8]
	mov	r1, r5
	dmb	ish
	str	r4, [r1, #12]!
	mov	r2, #1
	strb	r2, [r0, r1, lsr #9]
	mov	r0, r5
	add	sp, sp, #8
	pop	{r4, r5, r6, pc}
.LBB12_2:
	movw	r0, #1695
	mov	r1, r8
	bl	mono_aot_Mono_Android_init_method_gshared_mrgctx
	b	.LBB12_1
	.p2align	2
.LCPI12_0:
	.long	mono_aot_Mono_Android_llvm_got-(.LPC12_0+8)
.LCPI12_1:
	.long	mono_inited-(.LPC12_1+8)
.Lfunc_end12:
	.size	System_Linq_Extensions_ToEnumerator_Dispose_T_REF_Java_Util_IIterator, .Lfunc_end12-System_Linq_Extensions_ToEnumerator_Dispose_T_REF_Java_Util_IIterator
.Lexception6:
	.fnend

	.hidden	System_Linq_Extensions__ToEnumerator_Disposed__5_1_T_REF__ctor_int
	.globl	System_Linq_Extensions__ToEnumerator_Disposed__5_1_T_REF__ctor_int
	.p2align	2
	.type	System_Linq_Extensions__ToEnumerator_Disposed__5_1_T_REF__ctor_int,%function
	.code	32
System_Linq_Extensions__ToEnumerator_Disposed__5_1_T_REF__ctor_int:
.Lfunc_begin13:
	.fnstart
	.save	{r11, lr}
	push	{r11, lr}
.Ltmp84:
.Ltmp85:
.Ltmp86:
	.pad	#8
	sub	sp, sp, #8
.Ltmp87:
	str	r0, [sp]
	str	r0, [sp, #4]
	ldr	r0, [sp, #4]
	cmp	r0, #0
	strne	r1, [r0, #20]
	addne	sp, sp, #8
	popne	{r11, pc}
.Ltmp88:
.LBB13_1:
	ldr	r0, .LCPI13_0
.LPC13_0:
	add	r1, pc, r0
	mov	r0, #225
	bl	p_1_plt__jit_icall_llvm_throw_corlib_exception_abs_trampoline_llvm
	.p2align	2
.LCPI13_0:
	.long	.Ltmp88-(.LPC13_0+8)
.Lfunc_end13:
	.size	System_Linq_Extensions__ToEnumerator_Disposed__5_1_T_REF__ctor_int, .Lfunc_end13-System_Linq_Extensions__ToEnumerator_Disposed__5_1_T_REF__ctor_int
.Lexception7:
	.fnend

	.hidden	System_Linq_Extensions__ToEnumerator_Disposed__5_1_T_REF_System_IDisposable_Dispose
	.globl	System_Linq_Extensions__ToEnumerator_Disposed__5_1_T_REF_System_IDisposable_Dispose
	.p2align	2
	.type	System_Linq_Extensions__ToEnumerator_Disposed__5_1_T_REF_System_IDisposable_Dispose,%function
	.code	32
System_Linq_Extensions__ToEnumerator_Disposed__5_1_T_REF_System_IDisposable_Dispose:
.Lfunc_begin14:
	.fnstart
	.save	{r4, lr}
	push	{r4, lr}
.Ltmp92:
.Ltmp93:
.Ltmp94:
	.pad	#16
	sub	sp, sp, #16
.Ltmp95:
	ldr	r1, .LCPI14_1
.LPC14_1:
	add	r1, pc, r1
	ldr	r1, [r1, #28]
	str	r0, [sp, #4]
	str	r0, [sp, #8]
	ldr	r4, [sp, #8]
	ldr	r0, [r1]
	cmp	r0, #0
	blne	mono_aot_Mono_Android_icall_cold_wrapper_265
	cmp	r4, #0
	beq	.LBB14_5
	ldr	r0, [r4, #20]
	cmp	r0, #1
	cmnne	r0, #3
	bne	.LBB14_4
	ldr	r0, [sp, #8]
	mov	r1, #0
	str	r1, [sp, #12]
	bl	p_16_plt_System_Linq_Extensions__ToEnumerator_Disposed__5_1_T_REF__m__Finally1_llvm
	ldr	r0, [sp, #12]
	cmp	r0, #0
	beq	.LBB14_4
.Ltmp89:
	bl	p_15_plt__jit_icall_ves_icall_thread_finish_async_abort_llvm
.Ltmp90:
.LBB14_4:
	add	sp, sp, #16
	pop	{r4, pc}
.Ltmp96:
.LBB14_5:
	ldr	r0, .LCPI14_0
.LPC14_0:
	add	r1, pc, r0
	mov	r0, #225
	bl	p_1_plt__jit_icall_llvm_throw_corlib_exception_abs_trampoline_llvm
.LBB14_6:
.Ltmp91:
	ldr	r0, [sp, #8]
	bl	p_16_plt_System_Linq_Extensions__ToEnumerator_Disposed__5_1_T_REF__m__Finally1_llvm
	bl	p_17_plt__jit_icall_llvm_resume_unwind_trampoline_llvm
	.p2align	2
.LCPI14_0:
	.long	.Ltmp96-(.LPC14_0+8)
.LCPI14_1:
	.long	mono_aot_Mono_Android_llvm_got-(.LPC14_1+8)
.Lfunc_end14:
	.size	System_Linq_Extensions__ToEnumerator_Disposed__5_1_T_REF_System_IDisposable_Dispose, .Lfunc_end14-System_Linq_Extensions__ToEnumerator_Disposed__5_1_T_REF_System_IDisposable_Dispose
.Lexception8:
	.fnend

	.hidden	System_Linq_Extensions__ToEnumerator_Disposed__5_1_T_REF_MoveNext
	.globl	System_Linq_Extensions__ToEnumerator_Disposed__5_1_T_REF_MoveNext
	.p2align	2
	.type	System_Linq_Extensions__ToEnumerator_Disposed__5_1_T_REF_MoveNext,%function
	.code	32
System_Linq_Extensions__ToEnumerator_Disposed__5_1_T_REF_MoveNext:
.Lfunc_begin15:
	.fnstart
	.save	{r4, r5, r6, r8, r11, lr}
	push	{r4, r5, r6, r8, r11, lr}
.Ltmp138:
.Ltmp139:
.Ltmp140:
.Ltmp141:
.Ltmp142:
.Ltmp143:
.Ltmp144:
	.pad	#16
	sub	sp, sp, #16
.Ltmp145:
	mov	r4, r0
	ldr	r0, .LCPI15_13
	ldr	r6, .LCPI15_14
.LPC15_13:
	add	r0, pc, r0
.LPC15_14:
	add	r6, pc, r6
	ldrb	r5, [r0, #1705]
	ldr	r0, [r6, #28]
	str	r4, [sp, #8]
	str	r4, [sp, #12]
	ldr	r0, [r0]
	cmp	r0, #0
	blne	mono_aot_Mono_Android_icall_cold_wrapper_265
	cmp	r5, #0
	beq	.LBB15_30
.LBB15_1:
	ldr	r0, [sp, #12]
	cmp	r0, #0
	beq	.LBB15_32
	ldr	r1, [r0, #20]
	cmp	r1, #0
	beq	.LBB15_7
	mov	r0, #0
	cmp	r1, #1
	bne	.LBB15_25
	ldr	r0, [sp, #12]
	cmp	r0, #0
	bne	.LBB15_11
.Ltmp146:
	ldr	r0, .LCPI15_0
.Ltmp97:
.LPC15_0:
	add	r1, pc, r0
	mov	r0, #225
	bl	p_1_plt__jit_icall_llvm_throw_corlib_exception_abs_trampoline_llvm
.Ltmp98:
.LBB15_7:
	ldr	r0, [sp, #12]
	cmp	r0, #0
	beq	.LBB15_46
	mvn	r1, #0
	str	r1, [r0, #20]
	ldr	r0, [sp, #12]
	ldr	r1, [sp, #12]
	cmp	r1, #0
	beq	.LBB15_48
	cmp	r0, #0
	beq	.LBB15_50
	ldr	r1, [r1, #12]
	dmb	ish
	ldr	r2, [r6, #8]
	str	r1, [r0, #16]!
	mov	r1, #1
	strb	r1, [r2, r0, lsr #9]
	ldr	r0, [sp, #12]
	cmp	r0, #0
	beq	.LBB15_52
.LBB15_11:
	mvn	r1, #2
	str	r1, [r0, #20]
	ldr	r0, [sp, #12]
	cmp	r0, #0
	beq	.LBB15_34
	ldr	r0, [r0, #12]
	cmp	r0, #0
	beq	.LBB15_36
	ldr	r1, [r0]
	ldr	r2, [r6, #108]
	ldr	r1, [r1, #-8]
	str	r2, [sp, #4]
	ldr	r8, [sp, #4]
.Ltmp99:
	blx	r1
.Ltmp100:
	ldr	r4, [sp, #12]
	tst	r0, #255
	beq	.LBB15_26
	ldr	r0, [sp, #12]
	cmp	r0, #0
	beq	.LBB15_38
	ldr	r0, [r0, #12]
	cmp	r0, #0
	beq	.LBB15_40
	ldr	r1, [r0]
	ldr	r2, [r6, #112]
	ldr	r1, [r1, #-60]
	str	r2, [sp, #4]
	ldr	r8, [sp, #4]
.Ltmp101:
	blx	r1
	mov	r5, r0
.Ltmp102:
	ldr	r0, [r6, #116]
	ldrb	r1, [r0, #25]
	cmp	r1, #0
	beq	.LBB15_31
.LBB15_19:
	ldr	r0, [r6, #120]
	ldr	r1, [r0]
.Ltmp105:
	mov	r0, r5
	bl	Android_Runtime_JNIEnv_CallObjectMethod_intptr_intptr
	mov	r5, r0
.Ltmp106:
	ldr	r0, [sp, #12]
	ldr	r0, [r0]
.Ltmp107:
	bl	p_19_plt__rgctx_fetch_6_llvm
.Ltmp108:
	str	r0, [sp, #4]
	ldr	r8, [sp, #4]
.Ltmp109:
	mov	r0, r5
	mov	r1, #1
	bl	p_20_plt_Java_Interop_JavaConvert_FromJniHandle_T_REF_intptr_Android_Runtime_JniHandleOwnership_llvm
.Ltmp110:
	cmp	r4, #0
	beq	.LBB15_42
	ldr	r1, [r6, #8]
	dmb	ish
	str	r0, [r4, #8]!
	mov	r0, #1
	strb	r0, [r1, r4, lsr #9]
	ldr	r1, [sp, #12]
	cmp	r1, #0
	beq	.LBB15_44
	mov	r2, #5
	b	.LBB15_29
.LBB15_25:
	add	sp, sp, #16
	pop	{r4, r5, r6, r8, r11, pc}
.LBB15_26:
.Ltmp119:
	mov	r0, r4
	bl	p_16_plt_System_Linq_Extensions__ToEnumerator_Disposed__5_1_T_REF__m__Finally1_llvm
.Ltmp120:
	ldr	r1, [sp, #12]
	cmp	r1, #0
	beq	.LBB15_54
	mov	r0, #0
	mov	r2, #4
.LBB15_29:
	str	r0, [r1, r2, lsl #2]
	add	sp, sp, #16
	pop	{r4, r5, r6, r8, r11, pc}
.LBB15_30:
	movw	r0, #1705
	mov	r1, r4
	bl	mono_aot_Mono_Android_init_method_gshared_this
	b	.LBB15_1
.LBB15_31:
.Ltmp103:
	bl	p_21_plt__jit_icall_mono_generic_class_init_llvm
.Ltmp104:
	b	.LBB15_19
.Ltmp147:
.LBB15_32:
	ldr	r0, .LCPI15_12
.Ltmp135:
.LPC15_12:
	add	r1, pc, r0
	mov	r0, #225
	bl	p_1_plt__jit_icall_llvm_throw_corlib_exception_abs_trampoline_llvm
.Ltmp136:
.Ltmp148:
.LBB15_34:
	ldr	r0, .LCPI15_7
.Ltmp125:
.LPC15_7:
	add	r1, pc, r0
	mov	r0, #225
	bl	p_1_plt__jit_icall_llvm_throw_corlib_exception_abs_trampoline_llvm
.Ltmp126:
.Ltmp149:
.LBB15_36:
	ldr	r0, .LCPI15_6
.Ltmp123:
.LPC15_6:
	add	r1, pc, r0
	mov	r0, #225
	bl	p_1_plt__jit_icall_llvm_throw_corlib_exception_abs_trampoline_llvm
.Ltmp124:
.Ltmp150:
.LBB15_38:
	ldr	r0, .LCPI15_4
.Ltmp117:
.LPC15_4:
	add	r1, pc, r0
	mov	r0, #225
	bl	p_1_plt__jit_icall_llvm_throw_corlib_exception_abs_trampoline_llvm
.Ltmp118:
.Ltmp151:
.LBB15_40:
	ldr	r0, .LCPI15_3
.Ltmp115:
.LPC15_3:
	add	r1, pc, r0
	mov	r0, #225
	bl	p_1_plt__jit_icall_llvm_throw_corlib_exception_abs_trampoline_llvm
.Ltmp116:
.Ltmp152:
.LBB15_42:
	ldr	r0, .LCPI15_2
.Ltmp113:
.LPC15_2:
	add	r1, pc, r0
	mov	r0, #225
	bl	p_1_plt__jit_icall_llvm_throw_corlib_exception_abs_trampoline_llvm
.Ltmp114:
.Ltmp153:
.LBB15_44:
	ldr	r0, .LCPI15_1
.Ltmp111:
.LPC15_1:
	add	r1, pc, r0
	mov	r0, #225
	bl	p_1_plt__jit_icall_llvm_throw_corlib_exception_abs_trampoline_llvm
.Ltmp112:
.Ltmp154:
.LBB15_46:
	ldr	r0, .LCPI15_11
.Ltmp133:
.LPC15_11:
	add	r1, pc, r0
	mov	r0, #225
	bl	p_1_plt__jit_icall_llvm_throw_corlib_exception_abs_trampoline_llvm
.Ltmp134:
.Ltmp155:
.LBB15_48:
	ldr	r0, .LCPI15_10
.Ltmp131:
.LPC15_10:
	add	r1, pc, r0
	mov	r0, #225
	bl	p_1_plt__jit_icall_llvm_throw_corlib_exception_abs_trampoline_llvm
.Ltmp132:
.Ltmp156:
.LBB15_50:
	ldr	r0, .LCPI15_9
.Ltmp129:
.LPC15_9:
	add	r1, pc, r0
	mov	r0, #225
	bl	p_1_plt__jit_icall_llvm_throw_corlib_exception_abs_trampoline_llvm
.Ltmp130:
.Ltmp157:
.LBB15_52:
	ldr	r0, .LCPI15_8
.Ltmp127:
.LPC15_8:
	add	r1, pc, r0
	mov	r0, #225
	bl	p_1_plt__jit_icall_llvm_throw_corlib_exception_abs_trampoline_llvm
.Ltmp128:
.Ltmp158:
.LBB15_54:
	ldr	r0, .LCPI15_5
.Ltmp121:
.LPC15_5:
	add	r1, pc, r0
	mov	r0, #225
	bl	p_1_plt__jit_icall_llvm_throw_corlib_exception_abs_trampoline_llvm
.Ltmp122:
.LBB15_56:
.Ltmp137:
	ldr	r0, [sp, #12]
	bl	p_22_plt_System_Linq_Extensions__ToEnumerator_Disposed__5_1_T_REF_System_IDisposable_Dispose_llvm
	bl	p_17_plt__jit_icall_llvm_resume_unwind_trampoline_llvm
	.p2align	2
.LCPI15_0:
	.long	.Ltmp146-(.LPC15_0+8)
.LCPI15_1:
	.long	.Ltmp153-(.LPC15_1+8)
.LCPI15_2:
	.long	.Ltmp152-(.LPC15_2+8)
.LCPI15_3:
	.long	.Ltmp151-(.LPC15_3+8)
.LCPI15_4:
	.long	.Ltmp150-(.LPC15_4+8)
.LCPI15_5:
	.long	.Ltmp158-(.LPC15_5+8)
.LCPI15_6:
	.long	.Ltmp149-(.LPC15_6+8)
.LCPI15_7:
	.long	.Ltmp148-(.LPC15_7+8)
.LCPI15_8:
	.long	.Ltmp157-(.LPC15_8+8)
.LCPI15_9:
	.long	.Ltmp156-(.LPC15_9+8)
.LCPI15_10:
	.long	.Ltmp155-(.LPC15_10+8)
.LCPI15_11:
	.long	.Ltmp154-(.LPC15_11+8)
.LCPI15_12:
	.long	.Ltmp147-(.LPC15_12+8)
.LCPI15_13:
	.long	mono_inited-(.LPC15_13+8)
.LCPI15_14:
	.long	mono_aot_Mono_Android_llvm_got-(.LPC15_14+8)
.Lfunc_end15:
	.size	System_Linq_Extensions__ToEnumerator_Disposed__5_1_T_REF_MoveNext, .Lfunc_end15-System_Linq_Extensions__ToEnumerator_Disposed__5_1_T_REF_MoveNext
.Lexception9:
	.fnend

	.hidden	System_Linq_Extensions__ToEnumerator_Disposed__5_1_T_REF__m__Finally1
	.globl	System_Linq_Extensions__ToEnumerator_Disposed__5_1_T_REF__m__Finally1
	.p2align	2
	.type	System_Linq_Extensions__ToEnumerator_Disposed__5_1_T_REF__m__Finally1,%function
	.code	32
System_Linq_Extensions__ToEnumerator_Disposed__5_1_T_REF__m__Finally1:
.Lfunc_begin16:
	.fnstart
	.save	{r4, r5, r6, r8, r11, lr}
	push	{r4, r5, r6, r8, r11, lr}
.Ltmp159:
.Ltmp160:
.Ltmp161:
.Ltmp162:
.Ltmp163:
.Ltmp164:
.Ltmp165:
	.pad	#16
	sub	sp, sp, #16
.Ltmp166:
	mov	r4, r0
	ldr	r0, .LCPI16_4
	ldr	r5, .LCPI16_5
.LPC16_4:
	add	r0, pc, r0
.LPC16_5:
	add	r5, pc, r5
	ldrb	r6, [r0, #1706]
	ldr	r0, [r5, #28]
	str	r4, [sp, #8]
	str	r4, [sp, #12]
	ldr	r0, [r0]
	cmp	r0, #0
	blne	mono_aot_Mono_Android_icall_cold_wrapper_265
	cmp	r6, #0
	beq	.LBB16_8
.LBB16_1:
	ldr	r0, [sp, #12]
	cmp	r0, #0
	beq	.LBB16_9
	mvn	r1, #0
	str	r1, [r0, #20]
	ldr	r0, [sp, #12]
	cmp	r0, #0
	beq	.LBB16_10
	ldr	r0, [r0, #16]
	cmp	r0, #0
	beq	.LBB16_7
	ldr	r0, [sp, #12]
	cmp	r0, #0
	beq	.LBB16_11
	ldr	r0, [r0, #16]
	cmp	r0, #0
	beq	.LBB16_12
	ldr	r1, [r0]
	ldr	r2, [r5, #124]
	ldr	r1, [r1, #-20]
	str	r2, [sp, #4]
	ldr	r8, [sp, #4]
	blx	r1
.LBB16_7:
	add	sp, sp, #16
	pop	{r4, r5, r6, r8, r11, pc}
.LBB16_8:
	movw	r0, #1706
	mov	r1, r4
	bl	mono_aot_Mono_Android_init_method_gshared_this
	b	.LBB16_1
.Ltmp167:
.LBB16_9:
	ldr	r0, .LCPI16_3
.LPC16_3:
	add	r1, pc, r0
	mov	r0, #225
	bl	p_1_plt__jit_icall_llvm_throw_corlib_exception_abs_trampoline_llvm
.Ltmp168:
.LBB16_10:
	ldr	r0, .LCPI16_2
.LPC16_2:
	add	r1, pc, r0
	mov	r0, #225
	bl	p_1_plt__jit_icall_llvm_throw_corlib_exception_abs_trampoline_llvm
.Ltmp169:
.LBB16_11:
	ldr	r0, .LCPI16_1
.LPC16_1:
	add	r1, pc, r0
	mov	r0, #225
	bl	p_1_plt__jit_icall_llvm_throw_corlib_exception_abs_trampoline_llvm
.Ltmp170:
.LBB16_12:
	ldr	r0, .LCPI16_0
.LPC16_0:
	add	r1, pc, r0
	mov	r0, #225
	bl	p_1_plt__jit_icall_llvm_throw_corlib_exception_abs_trampoline_llvm
	.p2align	2
.LCPI16_0:
	.long	.Ltmp170-(.LPC16_0+8)
.LCPI16_1:
	.long	.Ltmp169-(.LPC16_1+8)
.LCPI16_2:
	.long	.Ltmp168-(.LPC16_2+8)
.LCPI16_3:
	.long	.Ltmp167-(.LPC16_3+8)
.LCPI16_4:
	.long	mono_inited-(.LPC16_4+8)
.LCPI16_5:
	.long	mono_aot_Mono_Android_llvm_got-(.LPC16_5+8)
.Lfunc_end16:
	.size	System_Linq_Extensions__ToEnumerator_Disposed__5_1_T_REF__m__Finally1, .Lfunc_end16-System_Linq_Extensions__ToEnumerator_Disposed__5_1_T_REF__m__Finally1
.Lexception10:
	.fnend

	.hidden	System_Linq_Extensions__ToEnumerator_Disposed__5_1_T_REF_System_Collections_Generic_IEnumerator_T_get_Current
	.globl	System_Linq_Extensions__ToEnumerator_Disposed__5_1_T_REF_System_Collections_Generic_IEnumerator_T_get_Current
	.p2align	2
	.type	System_Linq_Extensions__ToEnumerator_Disposed__5_1_T_REF_System_Collections_Generic_IEnumerator_T_get_Current,%function
	.code	32
System_Linq_Extensions__ToEnumerator_Disposed__5_1_T_REF_System_Collections_Generic_IEnumerator_T_get_Current:
.Lfunc_begin17:
	.fnstart
	.save	{r11, lr}
	push	{r11, lr}
.Ltmp171:
.Ltmp172:
.Ltmp173:
	.pad	#8
	sub	sp, sp, #8
.Ltmp174:
	str	r0, [sp]
	str	r0, [sp, #4]
	ldr	r0, [sp, #4]
	cmp	r0, #0
	ldrne	r0, [r0, #8]
	addne	sp, sp, #8
	popne	{r11, pc}
.Ltmp175:
.LBB17_1:
	ldr	r0, .LCPI17_0
.LPC17_0:
	add	r1, pc, r0
	mov	r0, #225
	bl	p_1_plt__jit_icall_llvm_throw_corlib_exception_abs_trampoline_llvm
	.p2align	2
.LCPI17_0:
	.long	.Ltmp175-(.LPC17_0+8)
.Lfunc_end17:
	.size	System_Linq_Extensions__ToEnumerator_Disposed__5_1_T_REF_System_Collections_Generic_IEnumerator_T_get_Current, .Lfunc_end17-System_Linq_Extensions__ToEnumerator_Disposed__5_1_T_REF_System_Collections_Generic_IEnumerator_T_get_Current
.Lexception11:
	.fnend

	.hidden	System_Linq_Extensions__ToEnumerator_Disposed__5_1_T_REF_System_Collections_IEnumerator_Reset
	.globl	System_Linq_Extensions__ToEnumerator_Disposed__5_1_T_REF_System_Collections_IEnumerator_Reset
	.p2align	2
	.type	System_Linq_Extensions__ToEnumerator_Disposed__5_1_T_REF_System_Collections_IEnumerator_Reset,%function
	.code	32
System_Linq_Extensions__ToEnumerator_Disposed__5_1_T_REF_System_Collections_IEnumerator_Reset:
.Lfunc_begin18:
	.fnstart
	.save	{r11, lr}
	push	{r11, lr}
.Ltmp176:
.Ltmp177:
.Ltmp178:
	.pad	#8
	sub	sp, sp, #8
.Ltmp179:
	ldr	r1, .LCPI18_0
.LPC18_0:
	add	r1, pc, r1
	ldr	r1, [r1, #28]
	str	r0, [sp, #4]
	ldr	r0, [r1]
	cmp	r0, #0
	blne	mono_aot_Mono_Android_icall_cold_wrapper_265
	movw	r0, #224
	movt	r0, #512
	bl	p_23_plt__jit_icall_mono_create_corlib_exception_0_llvm
	bl	p_24_plt__jit_icall_mono_arch_throw_exception_llvm
	.p2align	2
.LCPI18_0:
	.long	mono_aot_Mono_Android_llvm_got-(.LPC18_0+8)
.Lfunc_end18:
	.size	System_Linq_Extensions__ToEnumerator_Disposed__5_1_T_REF_System_Collections_IEnumerator_Reset, .Lfunc_end18-System_Linq_Extensions__ToEnumerator_Disposed__5_1_T_REF_System_Collections_IEnumerator_Reset
.Lexception12:
	.fnend

	.hidden	System_Linq_Extensions__ToEnumerator_Disposed__5_1_T_REF_System_Collections_IEnumerator_get_Current
	.globl	System_Linq_Extensions__ToEnumerator_Disposed__5_1_T_REF_System_Collections_IEnumerator_get_Current
	.p2align	2
	.type	System_Linq_Extensions__ToEnumerator_Disposed__5_1_T_REF_System_Collections_IEnumerator_get_Current,%function
	.code	32
System_Linq_Extensions__ToEnumerator_Disposed__5_1_T_REF_System_Collections_IEnumerator_get_Current:
.Lfunc_begin19:
	.fnstart
	.save	{r11, lr}
	push	{r11, lr}
.Ltmp180:
.Ltmp181:
.Ltmp182:
	.pad	#8
	sub	sp, sp, #8
.Ltmp183:
	str	r0, [sp]
	str	r0, [sp, #4]
	ldr	r0, [sp, #4]
	cmp	r0, #0
	ldrne	r0, [r0, #8]
	addne	sp, sp, #8
	popne	{r11, pc}
.Ltmp184:
.LBB19_1:
	ldr	r0, .LCPI19_0
.LPC19_0:
	add	r1, pc, r0
	mov	r0, #225
	bl	p_1_plt__jit_icall_llvm_throw_corlib_exception_abs_trampoline_llvm
	.p2align	2
.LCPI19_0:
	.long	.Ltmp184-(.LPC19_0+8)
.Lfunc_end19:
	.size	System_Linq_Extensions__ToEnumerator_Disposed__5_1_T_REF_System_Collections_IEnumerator_get_Current, .Lfunc_end19-System_Linq_Extensions__ToEnumerator_Disposed__5_1_T_REF_System_Collections_IEnumerator_get_Current
.Lexception13:
	.fnend

	.hidden	Android_Widget_AbsListView__ctor_intptr_Android_Runtime_JniHandleOwnership
	.globl	Android_Widget_AbsListView__ctor_intptr_Android_Runtime_JniHandleOwnership
	.p2align	2
	.type	Android_Widget_AbsListView__ctor_intptr_Android_Runtime_JniHandleOwnership,%function
	.code	32
Android_Widget_AbsListView__ctor_intptr_Android_Runtime_JniHandleOwnership:
.Lfunc_begin20:
	.fnstart
	.save	{r4, r5, r6, r7, r11, lr}
	push	{r4, r5, r6, r7, r11, lr}
.Ltmp185:
.Ltmp186:
.Ltmp187:
.Ltmp188:
.Ltmp189:
.Ltmp190:
.Ltmp191:
	mov	r6, r0
	ldr	r0, .LCPI20_0
	mov	r5, r1
	ldr	r1, .LCPI20_1
.LPC20_0:
	add	r0, pc, r0
	mov	r4, r2
.LPC20_1:
	add	r1, pc, r1
	ldr	r0, [r0, #28]
	ldrb	r7, [r1, #1716]
	ldr	r0, [r0]
	cmp	r0, #0
	blne	mono_aot_Mono_Android_icall_cold_wrapper_265
	cmp	r7, #0
	beq	.LBB20_2
.LBB20_1:
	mov	r0, r6
	mov	r1, r5
	mov	r2, r4
	bl	p_25_plt_Android_Widget_AdapterView_1_Android_Widget_IListAdapter__ctor_intptr_Android_Runtime_JniHandleOwnership_llvm
	pop	{r4, r5, r6, r7, r11, pc}
.LBB20_2:
	movw	r0, #1716
	bl	mono_aot_Mono_Android_init_method
	b	.LBB20_1
	.p2align	2
.LCPI20_0:
	.long	mono_aot_Mono_Android_llvm_got-(.LPC20_0+8)
.LCPI20_1:
	.long	mono_inited-(.LPC20_1+8)
.Lfunc_end20:
	.size	Android_Widget_AbsListView__ctor_intptr_Android_Runtime_JniHandleOwnership, .Lfunc_end20-Android_Widget_AbsListView__ctor_intptr_Android_Runtime_JniHandleOwnership
.Lexception14:
	.fnend

	.hidden	Android_Widget_AbsListView_set_FastScrollEnabled_bool
	.globl	Android_Widget_AbsListView_set_FastScrollEnabled_bool
	.p2align	2
	.type	Android_Widget_AbsListView_set_FastScrollEnabled_bool,%function
	.code	32
Android_Widget_AbsListView_set_FastScrollEnabled_bool:
.Lfunc_begin21:
	.fnstart
	.save	{r4, r5, r6, r7, r9, r10, r11, lr}
	push	{r4, r5, r6, r7, r9, r10, r11, lr}
.Ltmp192:
.Ltmp193:
.Ltmp194:
.Ltmp195:
.Ltmp196:
.Ltmp197:
.Ltmp198:
.Ltmp199:
	.setfp	r11, sp, #24
	add	r11, sp, #24
.Ltmp200:
	ldr	r7, .LCPI21_2
	mov	r9, r0
	ldr	r0, .LCPI21_3
	mov	r5, r1
.LPC21_2:
	add	r7, pc, r7
.LPC21_3:
	add	r0, pc, r0
	ldr	r1, [r7, #28]
	ldrb	r4, [r0, #1724]
	ldr	r0, [r1]
	cmp	r0, #0
	blne	mono_aot_Mono_Android_icall_cold_wrapper_265
	cmp	r4, #0
	beq	.LBB21_6
.LBB21_1:
	mov	r0, #1
	mov	r1, #8
	bl	p_26_plt__jit_icall___emul_op_imul_ovf_un_llvm
	mov	r4, #0
	cmp	r0, #0
	mov	r6, #0
	beq	.LBB21_3
	add	r0, r0, #7
	bic	r2, r0, #7
	sub	r6, sp, r2
	mov	sp, r6
	mov	r0, r6
	mov	r1, #0
	bl	memset
.LBB21_3:
	ldr	r0, [r7, #128]
	uxtb	r1, r5
	str	r4, [r6, #4]
	str	r1, [r6]
	ldr	r0, [r0]
	cmp	r0, #0
	beq	.LBB21_7
	bl	p_27_plt_Java_Interop_JniPeerMembers_get_InstanceMethods_llvm
	cmp	r0, #0
	beq	.LBB21_8
	ldr	r1, [r7, #132]
	mov	r2, r9
	mov	r3, r6
	bl	p_28_plt_Java_Interop_JniPeerMembers_JniInstanceMethods_InvokeVirtualVoidMethod_string_Java_Interop_IJavaPeerable_Java_Interop_JniArgumentValue__llvm
	sub	sp, r11, #24
	pop	{r4, r5, r6, r7, r9, r10, r11, pc}
.LBB21_6:
	movw	r0, #1724
	bl	mono_aot_Mono_Android_init_method
	b	.LBB21_1
.Ltmp201:
.LBB21_7:
	ldr	r0, .LCPI21_1
.LPC21_1:
	add	r1, pc, r0
	mov	r0, #225
	bl	p_1_plt__jit_icall_llvm_throw_corlib_exception_abs_trampoline_llvm
.Ltmp202:
.LBB21_8:
	ldr	r0, .LCPI21_0
.LPC21_0:
	add	r1, pc, r0
	mov	r0, #225
	bl	p_1_plt__jit_icall_llvm_throw_corlib_exception_abs_trampoline_llvm
	.p2align	2
.LCPI21_0:
	.long	.Ltmp202-(.LPC21_0+8)
.LCPI21_1:
	.long	.Ltmp201-(.LPC21_1+8)
.LCPI21_2:
	.long	mono_aot_Mono_Android_llvm_got-(.LPC21_2+8)
.LCPI21_3:
	.long	mono_inited-(.LPC21_3+8)
.Lfunc_end21:
	.size	Android_Widget_AbsListView_set_FastScrollEnabled_bool, .Lfunc_end21-Android_Widget_AbsListView_set_FastScrollEnabled_bool
.Lexception15:
	.fnend

	.hidden	Android_Widget_AbsListView__cctor
	.globl	Android_Widget_AbsListView__cctor
	.p2align	2
	.type	Android_Widget_AbsListView__cctor,%function
	.code	32
Android_Widget_AbsListView__cctor:
.Lfunc_begin22:
	.fnstart
	.save	{r4, r5, r6, r7, r11, lr}
	push	{r4, r5, r6, r7, r11, lr}
.Ltmp203:
.Ltmp204:
.Ltmp205:
.Ltmp206:
.Ltmp207:
.Ltmp208:
.Ltmp209:
	ldr	r7, .LCPI22_0
	ldr	r0, .LCPI22_1
.LPC22_0:
	add	r7, pc, r7
.LPC22_1:
	add	r0, pc, r0
	ldr	r1, [r7, #28]
	ldrb	r4, [r0, #1767]
	ldr	r0, [r1]
	cmp	r0, #0
	blne	mono_aot_Mono_Android_icall_cold_wrapper_265
	cmp	r4, #0
	beq	.LBB22_2
.LBB22_1:
	ldr	r0, [r7, #144]
	mov	r1, #40
	ldr	r4, [r7, #136]
	ldr	r5, [r7, #140]
	bl	p_13_plt_wrapper_alloc_object_AllocSmall_intptr_intptr_llvm
	mov	r1, r4
	mov	r2, r5
	mov	r6, r0
	bl	Android_Runtime_XAPeerMembers__ctor_string_System_Type
	ldr	r0, [r7, #128]
	dmb	ish
	str	r6, [r0]
	pop	{r4, r5, r6, r7, r11, pc}
.LBB22_2:
	movw	r0, #1767
	bl	mono_aot_Mono_Android_init_method
	b	.LBB22_1
	.p2align	2
.LCPI22_0:
	.long	mono_aot_Mono_Android_llvm_got-(.LPC22_0+8)
.LCPI22_1:
	.long	mono_inited-(.LPC22_1+8)
.Lfunc_end22:
	.size	Android_Widget_AbsListView__cctor, .Lfunc_end22-Android_Widget_AbsListView__cctor
.Lexception16:
	.fnend

	.hidden	Android_Widget_AdapterView__ctor_intptr_Android_Runtime_JniHandleOwnership
	.globl	Android_Widget_AdapterView__ctor_intptr_Android_Runtime_JniHandleOwnership
	.p2align	2
	.type	Android_Widget_AdapterView__ctor_intptr_Android_Runtime_JniHandleOwnership,%function
	.code	32
Android_Widget_AdapterView__ctor_intptr_Android_Runtime_JniHandleOwnership:
.Lfunc_begin23:
	.fnstart
	.save	{r4, r5, r6, r7, r11, lr}
	push	{r4, r5, r6, r7, r11, lr}
.Ltmp210:
.Ltmp211:
.Ltmp212:
.Ltmp213:
.Ltmp214:
.Ltmp215:
.Ltmp216:
	mov	r6, r0
	ldr	r0, .LCPI23_0
	mov	r5, r1
	ldr	r1, .LCPI23_1
.LPC23_0:
	add	r0, pc, r0
	mov	r4, r2
.LPC23_1:
	add	r1, pc, r1
	ldr	r0, [r0, #28]
	ldrb	r7, [r1, #1831]
	ldr	r0, [r0]
	cmp	r0, #0
	blne	mono_aot_Mono_Android_icall_cold_wrapper_265
	cmp	r7, #0
	beq	.LBB23_2
.LBB23_1:
	mov	r0, r6
	mov	r1, r5
	mov	r2, r4
	bl	Android_Views_ViewGroup__ctor_intptr_Android_Runtime_JniHandleOwnership
	pop	{r4, r5, r6, r7, r11, pc}
.LBB23_2:
	movw	r0, #1831
	bl	mono_aot_Mono_Android_init_method
	b	.LBB23_1
	.p2align	2
.LCPI23_0:
	.long	mono_aot_Mono_Android_llvm_got-(.LPC23_0+8)
.LCPI23_1:
	.long	mono_inited-(.LPC23_1+8)
.Lfunc_end23:
	.size	Android_Widget_AdapterView__ctor_intptr_Android_Runtime_JniHandleOwnership, .Lfunc_end23-Android_Widget_AdapterView__ctor_intptr_Android_Runtime_JniHandleOwnership
.Lexception17:
	.fnend

	.hidden	Android_Widget_AdapterView_set_OnItemClickListener_Android_Widget_AdapterView_IOnItemClickListener
	.globl	Android_Widget_AdapterView_set_OnItemClickListener_Android_Widget_AdapterView_IOnItemClickListener
	.p2align	2
	.type	Android_Widget_AdapterView_set_OnItemClickListener_Android_Widget_AdapterView_IOnItemClickListener,%function
	.code	32
Android_Widget_AdapterView_set_OnItemClickListener_Android_Widget_AdapterView_IOnItemClickListener:
.Lfunc_begin24:
	.fnstart
	.save	{r4, r5, r6, r7, r9, r10, r11, lr}
	push	{r4, r5, r6, r7, r9, r10, r11, lr}
.Ltmp236:
.Ltmp237:
.Ltmp238:
.Ltmp239:
.Ltmp240:
.Ltmp241:
.Ltmp242:
.Ltmp243:
	.setfp	r11, sp, #24
	add	r11, sp, #24
.Ltmp244:
	.pad	#8
	sub	sp, sp, #8
	ldr	r7, .LCPI24_4
	mov	r4, r0
	ldr	r0, .LCPI24_5
.LPC24_4:
	add	r7, pc, r7
	str	r1, [r11, #-32]
.LPC24_5:
	add	r0, pc, r0
	ldr	r2, [r7, #28]
	ldrb	r5, [r0, #1840]
	ldr	r0, [r2]
	cmp	r0, #0
	blne	mono_aot_Mono_Android_icall_cold_wrapper_265
	cmp	r5, #0
	beq	.LBB24_14
.LBB24_1:
	mov	r0, sp
	sub	r6, r0, #8
	mov	sp, r6
	mov	r5, #0
	str	r5, [r0, #-8]
.Ltmp217:
	mov	r0, #1
	mov	r1, #8
	bl	p_26_plt__jit_icall___emul_op_imul_ovf_un_llvm
.Ltmp218:
	cmp	r0, #0
	beq	.LBB24_4
	add	r0, r0, #7
	bic	r2, r0, #7
	sub	r5, sp, r2
	mov	sp, r5
	mov	r0, r5
	mov	r1, #0
	bl	memset
.LBB24_4:
	ldr	r0, [r11, #-32]
	cmp	r0, #0
	beq	.LBB24_8
	ldr	r0, [r11, #-32]
	cmp	r0, #0
	beq	.LBB24_19
	ldr	r1, [r0]
	ldr	r2, [r7, #160]
	ldr	r1, [r1]
	ldr	r1, [r1, #8]
	ldr	r1, [r1, #4]
	cmp	r1, r2
	bne	.LBB24_21
.Ltmp221:
	bl	Java_Lang_Object_get_Handle
.Ltmp222:
	b	.LBB24_9
.LBB24_8:
	ldr	r0, [r7, #148]
	ldr	r0, [r0]
.LBB24_9:
	ldr	r2, [r7, #152]
	mov	r1, #0
	str	r1, [r5, #4]
	str	r0, [r5]
	ldr	r0, [r2]
	cmp	r0, #0
	beq	.LBB24_15
.Ltmp225:
	bl	p_27_plt_Java_Interop_JniPeerMembers_get_InstanceMethods_llvm
.Ltmp226:
	cmp	r0, #0
	beq	.LBB24_17
	ldr	r1, [r7, #156]
.Ltmp227:
	mov	r2, r4
	mov	r3, r5
	bl	p_28_plt_Java_Interop_JniPeerMembers_JniInstanceMethods_InvokeVirtualVoidMethod_string_Java_Interop_IJavaPeerable_Java_Interop_JniArgumentValue__llvm
.Ltmp228:
	mov	r4, #1
	mov	r0, #0
	str	r0, [r11, #-28]
	str	r4, [r6]
	b	.LBB24_23
.LBB24_14:
	mov	r0, #1840
	bl	mono_aot_Mono_Android_init_method
	b	.LBB24_1
.Ltmp245:
.LBB24_15:
	ldr	r0, .LCPI24_3
.Ltmp231:
.LPC24_3:
	add	r1, pc, r0
	mov	r0, #225
	bl	p_1_plt__jit_icall_llvm_throw_corlib_exception_abs_trampoline_llvm
.Ltmp232:
.Ltmp246:
.LBB24_17:
	ldr	r0, .LCPI24_2
.Ltmp229:
.LPC24_2:
	add	r1, pc, r0
	mov	r0, #225
	bl	p_1_plt__jit_icall_llvm_throw_corlib_exception_abs_trampoline_llvm
.Ltmp230:
.Ltmp247:
.LBB24_19:
	ldr	r0, .LCPI24_1
.Ltmp223:
.LPC24_1:
	add	r1, pc, r0
	mov	r0, #225
	bl	p_1_plt__jit_icall_llvm_throw_corlib_exception_abs_trampoline_llvm
.Ltmp224:
.Ltmp248:
.LBB24_21:
	ldr	r0, .LCPI24_0
.Ltmp219:
.LPC24_0:
	add	r1, pc, r0
	mov	r0, #203
	bl	p_1_plt__jit_icall_llvm_throw_corlib_exception_abs_trampoline_llvm
.Ltmp220:
.LBB24_23:
	ldr	r0, [r11, #-32]
	bl	p_32_plt_System_GC_KeepAlive_object_llvm
	mov	r0, #0
	cmp	r4, #1
	str	r0, [r6]
	bne	.LBB24_27
	ldr	r0, [r11, #-28]
	cmp	r0, #0
	beq	.LBB24_26
.Ltmp234:
	bl	p_15_plt__jit_icall_ves_icall_thread_finish_async_abort_llvm
.Ltmp235:
.LBB24_26:
	sub	sp, r11, #24
	pop	{r4, r5, r6, r7, r9, r10, r11, pc}
.LBB24_27:
	bl	p_17_plt__jit_icall_llvm_resume_unwind_trampoline_llvm
.LBB24_28:
.Ltmp233:
	ldr	r4, [r6]
	b	.LBB24_23
	.p2align	2
.LCPI24_0:
	.long	.Ltmp248-(.LPC24_0+8)
.LCPI24_1:
	.long	.Ltmp247-(.LPC24_1+8)
.LCPI24_2:
	.long	.Ltmp246-(.LPC24_2+8)
.LCPI24_3:
	.long	.Ltmp245-(.LPC24_3+8)
.LCPI24_4:
	.long	mono_aot_Mono_Android_llvm_got-(.LPC24_4+8)
.LCPI24_5:
	.long	mono_inited-(.LPC24_5+8)
.Lfunc_end24:
	.size	Android_Widget_AdapterView_set_OnItemClickListener_Android_Widget_AdapterView_IOnItemClickListener, .Lfunc_end24-Android_Widget_AdapterView_set_OnItemClickListener_Android_Widget_AdapterView_IOnItemClickListener
.Lexception18:
	.fnend

	.hidden	Android_Widget_AdapterView_set_OnItemLongClickListener_Android_Widget_AdapterView_IOnItemLongClickListener
	.globl	Android_Widget_AdapterView_set_OnItemLongClickListener_Android_Widget_AdapterView_IOnItemLongClickListener
	.p2align	2
	.type	Android_Widget_AdapterView_set_OnItemLongClickListener_Android_Widget_AdapterView_IOnItemLongClickListener,%function
	.code	32
Android_Widget_AdapterView_set_OnItemLongClickListener_Android_Widget_AdapterView_IOnItemLongClickListener:
.Lfunc_begin25:
	.fnstart
	.save	{r4, r5, r6, r7, r9, r10, r11, lr}
	push	{r4, r5, r6, r7, r9, r10, r11, lr}
.Ltmp268:
.Ltmp269:
.Ltmp270:
.Ltmp271:
.Ltmp272:
.Ltmp273:
.Ltmp274:
.Ltmp275:
	.setfp	r11, sp, #24
	add	r11, sp, #24
.Ltmp276:
	.pad	#8
	sub	sp, sp, #8
	ldr	r7, .LCPI25_4
	mov	r4, r0
	ldr	r0, .LCPI25_5
.LPC25_4:
	add	r7, pc, r7
	str	r1, [r11, #-32]
.LPC25_5:
	add	r0, pc, r0
	ldr	r2, [r7, #28]
	ldrb	r5, [r0, #1841]
	ldr	r0, [r2]
	cmp	r0, #0
	blne	mono_aot_Mono_Android_icall_cold_wrapper_265
	cmp	r5, #0
	beq	.LBB25_14
.LBB25_1:
	mov	r0, sp
	sub	r6, r0, #8
	mov	sp, r6
	mov	r5, #0
	str	r5, [r0, #-8]
.Ltmp249:
	mov	r0, #1
	mov	r1, #8
	bl	p_26_plt__jit_icall___emul_op_imul_ovf_un_llvm
.Ltmp250:
	cmp	r0, #0
	beq	.LBB25_4
	add	r0, r0, #7
	bic	r2, r0, #7
	sub	r5, sp, r2
	mov	sp, r5
	mov	r0, r5
	mov	r1, #0
	bl	memset
.LBB25_4:
	ldr	r0, [r11, #-32]
	cmp	r0, #0
	beq	.LBB25_8
	ldr	r0, [r11, #-32]
	cmp	r0, #0
	beq	.LBB25_19
	ldr	r1, [r0]
	ldr	r2, [r7, #160]
	ldr	r1, [r1]
	ldr	r1, [r1, #8]
	ldr	r1, [r1, #4]
	cmp	r1, r2
	bne	.LBB25_21
.Ltmp253:
	bl	Java_Lang_Object_get_Handle
.Ltmp254:
	b	.LBB25_9
.LBB25_8:
	ldr	r0, [r7, #148]
	ldr	r0, [r0]
.LBB25_9:
	ldr	r2, [r7, #152]
	mov	r1, #0
	str	r1, [r5, #4]
	str	r0, [r5]
	ldr	r0, [r2]
	cmp	r0, #0
	beq	.LBB25_15
.Ltmp257:
	bl	p_27_plt_Java_Interop_JniPeerMembers_get_InstanceMethods_llvm
.Ltmp258:
	cmp	r0, #0
	beq	.LBB25_17
	ldr	r1, [r7, #164]
.Ltmp259:
	mov	r2, r4
	mov	r3, r5
	bl	p_28_plt_Java_Interop_JniPeerMembers_JniInstanceMethods_InvokeVirtualVoidMethod_string_Java_Interop_IJavaPeerable_Java_Interop_JniArgumentValue__llvm
.Ltmp260:
	mov	r4, #1
	mov	r0, #0
	str	r0, [r11, #-28]
	str	r4, [r6]
	b	.LBB25_23
.LBB25_14:
	movw	r0, #1841
	bl	mono_aot_Mono_Android_init_method
	b	.LBB25_1
.Ltmp277:
.LBB25_15:
	ldr	r0, .LCPI25_3
.Ltmp263:
.LPC25_3:
	add	r1, pc, r0
	mov	r0, #225
	bl	p_1_plt__jit_icall_llvm_throw_corlib_exception_abs_trampoline_llvm
.Ltmp264:
.Ltmp278:
.LBB25_17:
	ldr	r0, .LCPI25_2
.Ltmp261:
.LPC25_2:
	add	r1, pc, r0
	mov	r0, #225
	bl	p_1_plt__jit_icall_llvm_throw_corlib_exception_abs_trampoline_llvm
.Ltmp262:
.Ltmp279:
.LBB25_19:
	ldr	r0, .LCPI25_1
.Ltmp255:
.LPC25_1:
	add	r1, pc, r0
	mov	r0, #225
	bl	p_1_plt__jit_icall_llvm_throw_corlib_exception_abs_trampoline_llvm
.Ltmp256:
.Ltmp280:
.LBB25_21:
	ldr	r0, .LCPI25_0
.Ltmp251:
.LPC25_0:
	add	r1, pc, r0
	mov	r0, #203
	bl	p_1_plt__jit_icall_llvm_throw_corlib_exception_abs_trampoline_llvm
.Ltmp252:
.LBB25_23:
	ldr	r0, [r11, #-32]
	bl	p_32_plt_System_GC_KeepAlive_object_llvm
	mov	r0, #0
	cmp	r4, #1
	str	r0, [r6]
	bne	.LBB25_27
	ldr	r0, [r11, #-28]
	cmp	r0, #0
	beq	.LBB25_26
.Ltmp266:
	bl	p_15_plt__jit_icall_ves_icall_thread_finish_async_abort_llvm
.Ltmp267:
.LBB25_26:
	sub	sp, r11, #24
	pop	{r4, r5, r6, r7, r9, r10, r11, pc}
.LBB25_27:
	bl	p_17_plt__jit_icall_llvm_resume_unwind_trampoline_llvm
.LBB25_28:
.Ltmp265:
	ldr	r4, [r6]
	b	.LBB25_23
	.p2align	2
.LCPI25_0:
	.long	.Ltmp280-(.LPC25_0+8)
.LCPI25_1:
	.long	.Ltmp279-(.LPC25_1+8)
.LCPI25_2:
	.long	.Ltmp278-(.LPC25_2+8)
.LCPI25_3:
	.long	.Ltmp277-(.LPC25_3+8)
.LCPI25_4:
	.long	mono_aot_Mono_Android_llvm_got-(.LPC25_4+8)
.LCPI25_5:
	.long	mono_inited-(.LPC25_5+8)
.Lfunc_end25:
	.size	Android_Widget_AdapterView_set_OnItemLongClickListener_Android_Widget_AdapterView_IOnItemLongClickListener, .Lfunc_end25-Android_Widget_AdapterView_set_OnItemLongClickListener_Android_Widget_AdapterView_IOnItemLongClickListener
.Lexception19:
	.fnend

	.hidden	Android_Widget_AdapterView__cctor
	.globl	Android_Widget_AdapterView__cctor
	.p2align	2
	.type	Android_Widget_AdapterView__cctor,%function
	.code	32
Android_Widget_AdapterView__cctor:
.Lfunc_begin26:
	.fnstart
	.save	{r4, r5, r6, r7, r11, lr}
	push	{r4, r5, r6, r7, r11, lr}
.Ltmp281:
.Ltmp282:
.Ltmp283:
.Ltmp284:
.Ltmp285:
.Ltmp286:
.Ltmp287:
	ldr	r5, .LCPI26_0
	ldr	r0, .LCPI26_1
.LPC26_0:
	add	r5, pc, r5
.LPC26_1:
	add	r0, pc, r0
	ldr	r1, [r5, #28]
	ldrb	r4, [r0, #1860]
	ldr	r0, [r1]
	cmp	r0, #0
	blne	mono_aot_Mono_Android_icall_cold_wrapper_265
	cmp	r4, #0
	beq	.LBB26_2
.LBB26_1:
	ldr	r0, [r5, #144]
	mov	r1, #40
	ldrd	r6, r7, [r5, #168]
	bl	p_13_plt_wrapper_alloc_object_AllocSmall_intptr_intptr_llvm
	mov	r1, r6
	mov	r2, r7
	mov	r4, r0
	bl	Android_Runtime_XAPeerMembers__ctor_string_System_Type
	ldr	r0, [r5, #152]
	dmb	ish
	str	r4, [r0]
	pop	{r4, r5, r6, r7, r11, pc}
.LBB26_2:
	movw	r0, #1860
	bl	mono_aot_Mono_Android_init_method
	b	.LBB26_1
	.p2align	2
.LCPI26_0:
	.long	mono_aot_Mono_Android_llvm_got-(.LPC26_0+8)
.LCPI26_1:
	.long	mono_inited-(.LPC26_1+8)
.Lfunc_end26:
	.size	Android_Widget_AdapterView__cctor, .Lfunc_end26-Android_Widget_AdapterView__cctor
.Lexception20:
	.fnend

	.hidden	Android_Widget_BaseAdapter__ctor_intptr_Android_Runtime_JniHandleOwnership
	.globl	Android_Widget_BaseAdapter__ctor_intptr_Android_Runtime_JniHandleOwnership
	.p2align	2
	.type	Android_Widget_BaseAdapter__ctor_intptr_Android_Runtime_JniHandleOwnership,%function
	.code	32
Android_Widget_BaseAdapter__ctor_intptr_Android_Runtime_JniHandleOwnership:
.Lfunc_begin27:
	.fnstart
	.save	{r4, r5, r6, r7, r11, lr}
	push	{r4, r5, r6, r7, r11, lr}
.Ltmp288:
.Ltmp289:
.Ltmp290:
.Ltmp291:
.Ltmp292:
.Ltmp293:
.Ltmp294:
	mov	r6, r0
	ldr	r0, .LCPI27_0
	mov	r5, r1
	ldr	r1, .LCPI27_1
.LPC27_0:
	add	r0, pc, r0
	mov	r4, r2
.LPC27_1:
	add	r1, pc, r1
	ldr	r0, [r0, #28]
	ldrb	r7, [r1, #1968]
	ldr	r0, [r0]
	cmp	r0, #0
	blne	mono_aot_Mono_Android_icall_cold_wrapper_265
	cmp	r7, #0
	beq	.LBB27_2
.LBB27_1:
	mov	r0, r6
	mov	r1, r5
	mov	r2, r4
	bl	Java_Lang_Object__ctor_intptr_Android_Runtime_JniHandleOwnership
	pop	{r4, r5, r6, r7, r11, pc}
.LBB27_2:
	mov	r0, #1968
	bl	mono_aot_Mono_Android_init_method
	b	.LBB27_1
	.p2align	2
.LCPI27_0:
	.long	mono_aot_Mono_Android_llvm_got-(.LPC27_0+8)
.LCPI27_1:
	.long	mono_inited-(.LPC27_1+8)
.Lfunc_end27:
	.size	Android_Widget_BaseAdapter__ctor_intptr_Android_Runtime_JniHandleOwnership, .Lfunc_end27-Android_Widget_BaseAdapter__ctor_intptr_Android_Runtime_JniHandleOwnership
.Lexception21:
	.fnend

	.hidden	Android_Widget_BaseAdapter__cctor
	.globl	Android_Widget_BaseAdapter__cctor
	.p2align	2
	.type	Android_Widget_BaseAdapter__cctor,%function
	.code	32
Android_Widget_BaseAdapter__cctor:
.Lfunc_begin28:
	.fnstart
	.save	{r4, r5, r6, r7, r11, lr}
	push	{r4, r5, r6, r7, r11, lr}
.Ltmp295:
.Ltmp296:
.Ltmp297:
.Ltmp298:
.Ltmp299:
.Ltmp300:
.Ltmp301:
	ldr	r5, .LCPI28_0
	ldr	r0, .LCPI28_1
.LPC28_0:
	add	r5, pc, r5
.LPC28_1:
	add	r0, pc, r0
	ldr	r1, [r5, #28]
	ldrb	r4, [r0, #2016]
	ldr	r0, [r1]
	cmp	r0, #0
	blne	mono_aot_Mono_Android_icall_cold_wrapper_265
	cmp	r4, #0
	beq	.LBB28_2
.LBB28_1:
	ldr	r0, [r5, #144]
	mov	r1, #40
	ldrd	r6, r7, [r5, #176]
	bl	p_13_plt_wrapper_alloc_object_AllocSmall_intptr_intptr_llvm
	mov	r1, r6
	mov	r2, r7
	mov	r4, r0
	bl	Android_Runtime_XAPeerMembers__ctor_string_System_Type
	ldr	r0, [r5, #184]
	dmb	ish
	str	r4, [r0]
	pop	{r4, r5, r6, r7, r11, pc}
.LBB28_2:
	mov	r0, #2016
	bl	mono_aot_Mono_Android_init_method
	b	.LBB28_1
	.p2align	2
.LCPI28_0:
	.long	mono_aot_Mono_Android_llvm_got-(.LPC28_0+8)
.LCPI28_1:
	.long	mono_inited-(.LPC28_1+8)
.Lfunc_end28:
	.size	Android_Widget_BaseAdapter__cctor, .Lfunc_end28-Android_Widget_BaseAdapter__cctor
.Lexception22:
	.fnend

	.hidden	Android_Widget_Button__ctor_intptr_Android_Runtime_JniHandleOwnership
	.globl	Android_Widget_Button__ctor_intptr_Android_Runtime_JniHandleOwnership
	.p2align	2
	.type	Android_Widget_Button__ctor_intptr_Android_Runtime_JniHandleOwnership,%function
	.code	32
Android_Widget_Button__ctor_intptr_Android_Runtime_JniHandleOwnership:
.Lfunc_begin29:
	.fnstart
	.save	{r4, r5, r6, r7, r11, lr}
	push	{r4, r5, r6, r7, r11, lr}
.Ltmp302:
.Ltmp303:
.Ltmp304:
.Ltmp305:
.Ltmp306:
.Ltmp307:
.Ltmp308:
	mov	r6, r0
	ldr	r0, .LCPI29_0
	mov	r5, r1
	ldr	r1, .LCPI29_1
.LPC29_0:
	add	r0, pc, r0
	mov	r4, r2
.LPC29_1:
	add	r1, pc, r1
	ldr	r0, [r0, #28]
	ldrb	r7, [r1, #2028]
	ldr	r0, [r0]
	cmp	r0, #0
	blne	mono_aot_Mono_Android_icall_cold_wrapper_265
	cmp	r7, #0
	beq	.LBB29_2
.LBB29_1:
	mov	r0, r6
	mov	r1, r5
	mov	r2, r4
	bl	Android_Widget_TextView__ctor_intptr_Android_Runtime_JniHandleOwnership
	pop	{r4, r5, r6, r7, r11, pc}
.LBB29_2:
	movw	r0, #2028
	bl	mono_aot_Mono_Android_init_method
	b	.LBB29_1
	.p2align	2
.LCPI29_0:
	.long	mono_aot_Mono_Android_llvm_got-(.LPC29_0+8)
.LCPI29_1:
	.long	mono_inited-(.LPC29_1+8)
.Lfunc_end29:
	.size	Android_Widget_Button__ctor_intptr_Android_Runtime_JniHandleOwnership, .Lfunc_end29-Android_Widget_Button__ctor_intptr_Android_Runtime_JniHandleOwnership
.Lexception23:
	.fnend

	.hidden	Android_Widget_Button__cctor
	.globl	Android_Widget_Button__cctor
	.p2align	2
	.type	Android_Widget_Button__cctor,%function
	.code	32
Android_Widget_Button__cctor:
.Lfunc_begin30:
	.fnstart
	.save	{r4, r5, r6, r7, r11, lr}
	push	{r4, r5, r6, r7, r11, lr}
.Ltmp309:
.Ltmp310:
.Ltmp311:
.Ltmp312:
.Ltmp313:
.Ltmp314:
.Ltmp315:
	ldr	r7, .LCPI30_0
	ldr	r0, .LCPI30_1
.LPC30_0:
	add	r7, pc, r7
.LPC30_1:
	add	r0, pc, r0
	ldr	r1, [r7, #28]
	ldrb	r4, [r0, #2032]
	ldr	r0, [r1]
	cmp	r0, #0
	blne	mono_aot_Mono_Android_icall_cold_wrapper_265
	cmp	r4, #0
	beq	.LBB30_2
.LBB30_1:
	ldr	r0, [r7, #144]
	mov	r1, #40
	ldr	r4, [r7, #188]
	ldr	r5, [r7, #192]
	bl	p_13_plt_wrapper_alloc_object_AllocSmall_intptr_intptr_llvm
	mov	r1, r4
	mov	r2, r5
	mov	r6, r0
	bl	Android_Runtime_XAPeerMembers__ctor_string_System_Type
	ldr	r0, [r7, #196]
	dmb	ish
	str	r6, [r0]
	pop	{r4, r5, r6, r7, r11, pc}
.LBB30_2:
	mov	r0, #2032
	bl	mono_aot_Mono_Android_init_method
	b	.LBB30_1
	.p2align	2
.LCPI30_0:
	.long	mono_aot_Mono_Android_llvm_got-(.LPC30_0+8)
.LCPI30_1:
	.long	mono_inited-(.LPC30_1+8)
.Lfunc_end30:
	.size	Android_Widget_Button__cctor, .Lfunc_end30-Android_Widget_Button__cctor
.Lexception24:
	.fnend

	.hidden	Android_Widget_FrameLayout__ctor_intptr_Android_Runtime_JniHandleOwnership
	.globl	Android_Widget_FrameLayout__ctor_intptr_Android_Runtime_JniHandleOwnership
	.p2align	2
	.type	Android_Widget_FrameLayout__ctor_intptr_Android_Runtime_JniHandleOwnership,%function
	.code	32
Android_Widget_FrameLayout__ctor_intptr_Android_Runtime_JniHandleOwnership:
.Lfunc_begin31:
	.fnstart
	.save	{r4, r5, r6, r7, r11, lr}
	push	{r4, r5, r6, r7, r11, lr}
.Ltmp316:
.Ltmp317:
.Ltmp318:
.Ltmp319:
.Ltmp320:
.Ltmp321:
.Ltmp322:
	mov	r6, r0
	ldr	r0, .LCPI31_0
	mov	r5, r1
	ldr	r1, .LCPI31_1
.LPC31_0:
	add	r0, pc, r0
	mov	r4, r2
.LPC31_1:
	add	r1, pc, r1
	ldr	r0, [r0, #28]
	ldrb	r7, [r1, #2169]
	ldr	r0, [r0]
	cmp	r0, #0
	blne	mono_aot_Mono_Android_icall_cold_wrapper_265
	cmp	r7, #0
	beq	.LBB31_2
.LBB31_1:
	mov	r0, r6
	mov	r1, r5
	mov	r2, r4
	bl	Android_Views_ViewGroup__ctor_intptr_Android_Runtime_JniHandleOwnership
	pop	{r4, r5, r6, r7, r11, pc}
.LBB31_2:
	movw	r0, #2169
	bl	mono_aot_Mono_Android_init_method
	b	.LBB31_1
	.p2align	2
.LCPI31_0:
	.long	mono_aot_Mono_Android_llvm_got-(.LPC31_0+8)
.LCPI31_1:
	.long	mono_inited-(.LPC31_1+8)
.Lfunc_end31:
	.size	Android_Widget_FrameLayout__ctor_intptr_Android_Runtime_JniHandleOwnership, .Lfunc_end31-Android_Widget_FrameLayout__ctor_intptr_Android_Runtime_JniHandleOwnership
.Lexception25:
	.fnend

	.hidden	Android_Widget_FrameLayout_OnLayout_bool_int_int_int_int
	.globl	Android_Widget_FrameLayout_OnLayout_bool_int_int_int_int
	.p2align	2
	.type	Android_Widget_FrameLayout_OnLayout_bool_int_int_int_int,%function
	.code	32
Android_Widget_FrameLayout_OnLayout_bool_int_int_int_int:
.Lfunc_begin32:
	.fnstart
	.save	{r4, r5, r6, r7, r9, r10, r11, lr}
	push	{r4, r5, r6, r7, r9, r10, r11, lr}
.Ltmp323:
.Ltmp324:
.Ltmp325:
.Ltmp326:
.Ltmp327:
.Ltmp328:
.Ltmp329:
.Ltmp330:
	.setfp	r11, sp, #24
	add	r11, sp, #24
.Ltmp331:
	.pad	#8
	sub	sp, sp, #8
	str	r0, [r11, #-32]
	mov	r5, r1
	ldr	r10, .LCPI32_2
	mov	r6, r3
	ldr	r0, .LCPI32_3
	mov	r7, r2
.LPC32_2:
	add	r10, pc, r10
.LPC32_3:
	add	r0, pc, r0
	ldr	r1, [r10, #28]
	ldrb	r4, [r0, #2182]
	ldr	r0, [r1]
	cmp	r0, #0
	blne	mono_aot_Mono_Android_icall_cold_wrapper_265
	cmp	r4, #0
	beq	.LBB32_6
.LBB32_1:
	mov	r0, #5
	mov	r1, #8
	bl	p_26_plt__jit_icall___emul_op_imul_ovf_un_llvm
	mov	r9, #0
	cmp	r0, #0
	mov	r4, #0
	beq	.LBB32_3
	add	r0, r0, #7
	bic	r2, r0, #7
	sub	r4, sp, r2
	mov	sp, r4
	mov	r0, r4
	mov	r1, #0
	bl	memset
.LBB32_3:
	ldr	r0, [r11, #8]
	uxtb	r1, r5
	str	r9, [r4, #4]
	str	r7, [r4, #8]
	str	r9, [r4, #12]
	str	r6, [r4, #16]
	str	r9, [r4, #20]
	str	r0, [r4, #24]
	ldr	r0, [r11, #12]
	str	r9, [r4, #28]
	str	r0, [r4, #32]
	ldr	r0, [r10, #200]
	str	r9, [r4, #36]
	str	r1, [r4]
	ldr	r0, [r0]
	cmp	r0, #0
	beq	.LBB32_7
	bl	p_27_plt_Java_Interop_JniPeerMembers_get_InstanceMethods_llvm
	cmp	r0, #0
	beq	.LBB32_8
	ldr	r1, [r10, #204]
	mov	r3, r4
	ldr	r2, [r11, #-32]
	bl	p_28_plt_Java_Interop_JniPeerMembers_JniInstanceMethods_InvokeVirtualVoidMethod_string_Java_Interop_IJavaPeerable_Java_Interop_JniArgumentValue__llvm
	sub	sp, r11, #24
	pop	{r4, r5, r6, r7, r9, r10, r11, pc}
.LBB32_6:
	movw	r0, #2182
	bl	mono_aot_Mono_Android_init_method
	b	.LBB32_1
.Ltmp332:
.LBB32_7:
	ldr	r0, .LCPI32_1
.LPC32_1:
	add	r1, pc, r0
	mov	r0, #225
	bl	p_1_plt__jit_icall_llvm_throw_corlib_exception_abs_trampoline_llvm
.Ltmp333:
.LBB32_8:
	ldr	r0, .LCPI32_0
.LPC32_0:
	add	r1, pc, r0
	mov	r0, #225
	bl	p_1_plt__jit_icall_llvm_throw_corlib_exception_abs_trampoline_llvm
	.p2align	2
.LCPI32_0:
	.long	.Ltmp333-(.LPC32_0+8)
.LCPI32_1:
	.long	.Ltmp332-(.LPC32_1+8)
.LCPI32_2:
	.long	mono_aot_Mono_Android_llvm_got-(.LPC32_2+8)
.LCPI32_3:
	.long	mono_inited-(.LPC32_3+8)
.Lfunc_end32:
	.size	Android_Widget_FrameLayout_OnLayout_bool_int_int_int_int, .Lfunc_end32-Android_Widget_FrameLayout_OnLayout_bool_int_int_int_int
.Lexception26:
	.fnend

	.hidden	Android_Widget_FrameLayout__cctor
	.globl	Android_Widget_FrameLayout__cctor
	.p2align	2
	.type	Android_Widget_FrameLayout__cctor,%function
	.code	32
Android_Widget_FrameLayout__cctor:
.Lfunc_begin33:
	.fnstart
	.save	{r4, r5, r6, r7, r11, lr}
	push	{r4, r5, r6, r7, r11, lr}
.Ltmp334:
.Ltmp335:
.Ltmp336:
.Ltmp337:
.Ltmp338:
.Ltmp339:
.Ltmp340:
	ldr	r5, .LCPI33_0
	ldr	r0, .LCPI33_1
.LPC33_0:
	add	r5, pc, r5
.LPC33_1:
	add	r0, pc, r0
	ldr	r1, [r5, #28]
	ldrb	r4, [r0, #2186]
	ldr	r0, [r1]
	cmp	r0, #0
	blne	mono_aot_Mono_Android_icall_cold_wrapper_265
	cmp	r4, #0
	beq	.LBB33_2
.LBB33_1:
	ldr	r0, [r5, #144]
	mov	r1, #40
	ldrd	r6, r7, [r5, #208]
	bl	p_13_plt_wrapper_alloc_object_AllocSmall_intptr_intptr_llvm
	mov	r1, r6
	mov	r2, r7
	mov	r4, r0
	bl	Android_Runtime_XAPeerMembers__ctor_string_System_Type
	ldr	r0, [r5, #200]
	dmb	ish
	str	r4, [r0]
	pop	{r4, r5, r6, r7, r11, pc}
.LBB33_2:
	movw	r0, #2186
	bl	mono_aot_Mono_Android_init_method
	b	.LBB33_1
	.p2align	2
.LCPI33_0:
	.long	mono_aot_Mono_Android_llvm_got-(.LPC33_0+8)
.LCPI33_1:
	.long	mono_inited-(.LPC33_1+8)
.Lfunc_end33:
	.size	Android_Widget_FrameLayout__cctor, .Lfunc_end33-Android_Widget_FrameLayout__cctor
.Lexception27:
	.fnend

	.hidden	Android_Widget_HorizontalScrollView__ctor_intptr_Android_Runtime_JniHandleOwnership
	.globl	Android_Widget_HorizontalScrollView__ctor_intptr_Android_Runtime_JniHandleOwnership
	.p2align	2
	.type	Android_Widget_HorizontalScrollView__ctor_intptr_Android_Runtime_JniHandleOwnership,%function
	.code	32
Android_Widget_HorizontalScrollView__ctor_intptr_Android_Runtime_JniHandleOwnership:
.Lfunc_begin34:
	.fnstart
	.save	{r4, r5, r6, r7, r11, lr}
	push	{r4, r5, r6, r7, r11, lr}
.Ltmp341:
.Ltmp342:
.Ltmp343:
.Ltmp344:
.Ltmp345:
.Ltmp346:
.Ltmp347:
	mov	r6, r0
	ldr	r0, .LCPI34_0
	mov	r5, r1
	ldr	r1, .LCPI34_1
.LPC34_0:
	add	r0, pc, r0
	mov	r4, r2
.LPC34_1:
	add	r1, pc, r1
	ldr	r0, [r0, #28]
	ldrb	r7, [r1, #2200]
	ldr	r0, [r0]
	cmp	r0, #0
	blne	mono_aot_Mono_Android_icall_cold_wrapper_265
	cmp	r7, #0
	beq	.LBB34_2
.LBB34_1:
	mov	r0, r6
	mov	r1, r5
	mov	r2, r4
	bl	Android_Widget_FrameLayout__ctor_intptr_Android_Runtime_JniHandleOwnership
	pop	{r4, r5, r6, r7, r11, pc}
.LBB34_2:
	movw	r0, #2200
	bl	mono_aot_Mono_Android_init_method
	b	.LBB34_1
	.p2align	2
.LCPI34_0:
	.long	mono_aot_Mono_Android_llvm_got-(.LPC34_0+8)
.LCPI34_1:
	.long	mono_inited-(.LPC34_1+8)
.Lfunc_end34:
	.size	Android_Widget_HorizontalScrollView__ctor_intptr_Android_Runtime_JniHandleOwnership, .Lfunc_end34-Android_Widget_HorizontalScrollView__ctor_intptr_Android_Runtime_JniHandleOwnership
.Lexception28:
	.fnend

	.hidden	Android_Widget_HorizontalScrollView__cctor
	.globl	Android_Widget_HorizontalScrollView__cctor
	.p2align	2
	.type	Android_Widget_HorizontalScrollView__cctor,%function
	.code	32
Android_Widget_HorizontalScrollView__cctor:
.Lfunc_begin35:
	.fnstart
	.save	{r4, r5, r6, r7, r11, lr}
	push	{r4, r5, r6, r7, r11, lr}
.Ltmp348:
.Ltmp349:
.Ltmp350:
.Ltmp351:
.Ltmp352:
.Ltmp353:
.Ltmp354:
	ldr	r5, .LCPI35_0
	ldr	r0, .LCPI35_1
.LPC35_0:
	add	r5, pc, r5
.LPC35_1:
	add	r0, pc, r0
	ldr	r1, [r5, #28]
	ldrb	r4, [r0, #2204]
	ldr	r0, [r1]
	cmp	r0, #0
	blne	mono_aot_Mono_Android_icall_cold_wrapper_265
	cmp	r4, #0
	beq	.LBB35_2
.LBB35_1:
	ldr	r0, [r5, #144]
	mov	r1, #40
	ldrd	r6, r7, [r5, #216]
	bl	p_13_plt_wrapper_alloc_object_AllocSmall_intptr_intptr_llvm
	mov	r1, r6
	mov	r2, r7
	mov	r4, r0
	bl	Android_Runtime_XAPeerMembers__ctor_string_System_Type
	ldr	r0, [r5, #224]
	dmb	ish
	str	r4, [r0]
	pop	{r4, r5, r6, r7, r11, pc}
.LBB35_2:
	movw	r0, #2204
	bl	mono_aot_Mono_Android_init_method
	b	.LBB35_1
	.p2align	2
.LCPI35_0:
	.long	mono_aot_Mono_Android_llvm_got-(.LPC35_0+8)
.LCPI35_1:
	.long	mono_inited-(.LPC35_1+8)
.Lfunc_end35:
	.size	Android_Widget_HorizontalScrollView__cctor, .Lfunc_end35-Android_Widget_HorizontalScrollView__cctor
.Lexception29:
	.fnend

	.hidden	Android_Widget_ImageView_get_JniPeerMembers
	.globl	Android_Widget_ImageView_get_JniPeerMembers
	.p2align	2
	.type	Android_Widget_ImageView_get_JniPeerMembers,%function
	.code	32
Android_Widget_ImageView_get_JniPeerMembers:
.Lfunc_begin36:
	.fnstart
	ldr	r0, .LCPI36_0
.LPC36_0:
	add	r0, pc, r0
	ldrb	r0, [r0, #2324]
	cmp	r0, #0
	beq	.LBB36_2
.LBB36_1:
	ldr	r0, .LCPI36_1
.LPC36_1:
	add	r0, pc, r0
	ldr	r0, [r0, #228]
	ldr	r0, [r0]
	bx	lr
.LBB36_2:
	.save	{r11, lr}
	push	{r11, lr}
.Ltmp355:
.Ltmp356:
.Ltmp357:
	movw	r0, #2324
	bl	mono_aot_Mono_Android_init_method
	pop	{r11, lr}
	b	.LBB36_1
	.p2align	2
.LCPI36_0:
	.long	mono_inited-(.LPC36_0+8)
.LCPI36_1:
	.long	mono_aot_Mono_Android_llvm_got-(.LPC36_1+8)
.Lfunc_end36:
	.size	Android_Widget_ImageView_get_JniPeerMembers, .Lfunc_end36-Android_Widget_ImageView_get_JniPeerMembers
.Lexception30:
	.fnend

	.hidden	Android_Widget_ImageView_get_ThresholdType
	.globl	Android_Widget_ImageView_get_ThresholdType
	.p2align	2
	.type	Android_Widget_ImageView_get_ThresholdType,%function
	.code	32
Android_Widget_ImageView_get_ThresholdType:
.Lfunc_begin37:
	.fnstart
	.save	{r11, lr}
	push	{r11, lr}
.Ltmp358:
.Ltmp359:
.Ltmp360:
	ldr	r0, .LCPI37_1
.LPC37_1:
	add	r0, pc, r0
	ldrb	r0, [r0, #2326]
	cmp	r0, #0
	beq	.LBB37_3
.LBB37_1:
	ldr	r0, .LCPI37_2
.LPC37_2:
	add	r0, pc, r0
	ldr	r0, [r0, #228]
	ldr	r0, [r0]
	cmp	r0, #0
	ldrne	r0, [r0, #28]
	popne	{r11, pc}
.Ltmp361:
.LBB37_2:
	ldr	r0, .LCPI37_0
.LPC37_0:
	add	r1, pc, r0
	mov	r0, #225
	bl	p_1_plt__jit_icall_llvm_throw_corlib_exception_abs_trampoline_llvm
.LBB37_3:
	movw	r0, #2326
	bl	mono_aot_Mono_Android_init_method
	b	.LBB37_1
	.p2align	2
.LCPI37_0:
	.long	.Ltmp361-(.LPC37_0+8)
.LCPI37_1:
	.long	mono_inited-(.LPC37_1+8)
.LCPI37_2:
	.long	mono_aot_Mono_Android_llvm_got-(.LPC37_2+8)
.Lfunc_end37:
	.size	Android_Widget_ImageView_get_ThresholdType, .Lfunc_end37-Android_Widget_ImageView_get_ThresholdType
.Lexception31:
	.fnend

	.hidden	Android_Widget_ImageView__ctor_Android_Content_Context
	.globl	Android_Widget_ImageView__ctor_Android_Content_Context
	.p2align	2
	.type	Android_Widget_ImageView__ctor_Android_Content_Context,%function
	.code	32
Android_Widget_ImageView__ctor_Android_Content_Context:
.Lfunc_begin38:
	.fnstart
	.save	{r4, r5, r6, r7, r9, r10, r11, lr}
	push	{r4, r5, r6, r7, r9, r10, r11, lr}
.Ltmp391:
.Ltmp392:
.Ltmp393:
.Ltmp394:
.Ltmp395:
.Ltmp396:
.Ltmp397:
.Ltmp398:
	.setfp	r11, sp, #24
	add	r11, sp, #24
.Ltmp399:
	.pad	#24
	sub	sp, sp, #24
	ldr	r9, .LCPI38_6
	mov	r4, r0
	ldr	r0, .LCPI38_7
.LPC38_6:
	add	r9, pc, r9
	str	r1, [r11, #-44]
.LPC38_7:
	add	r0, pc, r0
	ldr	r2, [r9, #28]
	ldrb	r5, [r0, #2328]
	ldr	r0, [r2]
	cmp	r0, #0
	blne	mono_aot_Mono_Android_icall_cold_wrapper_265
	cmp	r5, #0
	beq	.LBB38_21
.LBB38_1:
	mov	r0, sp
	sub	r7, r0, #8
	mov	sp, r7
	ldr	r6, [r9, #148]
	mov	r1, #0
	str	r1, [r0, #-8]
	mov	r0, r4
	str	r1, [r11, #-36]
	mov	r2, #0
	str	r1, [r11, #-40]
	ldr	r1, [r6]
	bl	Android_Views_View__ctor_intptr_Android_Runtime_JniHandleOwnership
	mov	r0, r4
	bl	Java_Lang_Object_get_Handle
	ldr	r1, [r6]
	bl	p_37_plt_intptr_op_Inequality_intptr_intptr_llvm
	tst	r0, #255
	bne	.LBB38_37
.Ltmp362:
	mov	r0, #1
	mov	r1, #8
	bl	p_26_plt__jit_icall___emul_op_imul_ovf_un_llvm
.Ltmp363:
	cmp	r0, #0
	beq	.LBB38_5
	add	r0, r0, #7
	bic	r2, r0, #7
	sub	r5, sp, r2
	mov	sp, r5
	mov	r0, r5
	mov	r1, #0
	bl	memset
	b	.LBB38_6
.LBB38_5:
	mov	r5, #0
.LBB38_6:
	ldr	r0, [r11, #-44]
	cmp	r0, #0
	beq	.LBB38_9
	ldr	r0, [r11, #-44]
	cmp	r0, #0
	beq	.LBB38_32
.Ltmp364:
	bl	Java_Lang_Object_get_Handle
.Ltmp365:
	b	.LBB38_10
.LBB38_9:
	ldr	r0, [r6]
.LBB38_10:
	ldr	r10, [r9, #228]
	mov	r1, #0
	str	r1, [r5, #4]
	str	r0, [r5]
	ldr	r0, [r10]
	cmp	r0, #0
	beq	.LBB38_22
.Ltmp368:
	bl	p_27_plt_Java_Interop_JniPeerMembers_get_InstanceMethods_llvm
.Ltmp369:
	cmp	r4, #0
	beq	.LBB38_24
	cmp	r0, #0
	beq	.LBB38_26
	ldr	r1, [r4]
	ldr	r6, [r9, #232]
	ldr	r3, [r1, #12]
.Ltmp370:
	sub	sp, sp, #8
	sub	r1, r11, #40
	mov	r2, r6
	str	r5, [sp]
	bl	p_38_plt_Java_Interop_JniPeerMembers_JniInstanceMethods_StartCreateInstance_string_System_Type_Java_Interop_JniArgumentValue__llvm
	add	sp, sp, #8
.Ltmp371:
	ldr	r1, [r11, #-40]
.Ltmp372:
	mov	r0, r4
	mov	r2, #1
	bl	Java_Lang_Object_SetHandle_intptr_Android_Runtime_JniHandleOwnership
.Ltmp373:
	ldr	r0, [r10]
	cmp	r0, #0
	beq	.LBB38_28
.Ltmp374:
	bl	p_27_plt_Java_Interop_JniPeerMembers_get_InstanceMethods_llvm
.Ltmp375:
	cmp	r0, #0
	beq	.LBB38_30
.Ltmp376:
	mov	r1, r6
	mov	r2, r4
	mov	r3, r5
	bl	p_40_plt_Java_Interop_JniPeerMembers_JniInstanceMethods_FinishCreateInstance_string_Java_Interop_IJavaPeerable_Java_Interop_JniArgumentValue__llvm
.Ltmp377:
	mov	r4, #1
	mov	r0, #0
	str	r0, [r11, #-32]
	str	r4, [r7]
	b	.LBB38_34
.LBB38_21:
	movw	r0, #2328
	bl	mono_aot_Mono_Android_init_method
	b	.LBB38_1
.Ltmp400:
.LBB38_22:
	ldr	r0, .LCPI38_5
.Ltmp386:
.LPC38_5:
	add	r1, pc, r0
	mov	r0, #225
	bl	p_1_plt__jit_icall_llvm_throw_corlib_exception_abs_trampoline_llvm
.Ltmp387:
.Ltmp401:
.LBB38_24:
	ldr	r0, .LCPI38_4
.Ltmp384:
.LPC38_4:
	add	r1, pc, r0
	mov	r0, #225
	bl	p_1_plt__jit_icall_llvm_throw_corlib_exception_abs_trampoline_llvm
.Ltmp385:
.Ltmp402:
.LBB38_26:
	ldr	r0, .LCPI38_3
.Ltmp382:
.LPC38_3:
	add	r1, pc, r0
	mov	r0, #225
	bl	p_1_plt__jit_icall_llvm_throw_corlib_exception_abs_trampoline_llvm
.Ltmp383:
.Ltmp403:
.LBB38_28:
	ldr	r0, .LCPI38_2
.Ltmp380:
.LPC38_2:
	add	r1, pc, r0
	mov	r0, #225
	bl	p_1_plt__jit_icall_llvm_throw_corlib_exception_abs_trampoline_llvm
.Ltmp381:
.Ltmp404:
.LBB38_30:
	ldr	r0, .LCPI38_1
.Ltmp378:
.LPC38_1:
	add	r1, pc, r0
	mov	r0, #225
	bl	p_1_plt__jit_icall_llvm_throw_corlib_exception_abs_trampoline_llvm
.Ltmp379:
.Ltmp405:
.LBB38_32:
	ldr	r0, .LCPI38_0
.Ltmp366:
.LPC38_0:
	add	r1, pc, r0
	mov	r0, #225
	bl	p_1_plt__jit_icall_llvm_throw_corlib_exception_abs_trampoline_llvm
.Ltmp367:
.LBB38_34:
	ldr	r0, [r11, #-44]
	bl	p_32_plt_System_GC_KeepAlive_object_llvm
	mov	r0, #0
	cmp	r4, #1
	str	r0, [r7]
	bne	.LBB38_38
	ldr	r0, [r11, #-32]
	cmp	r0, #0
	beq	.LBB38_37
.Ltmp389:
	bl	p_15_plt__jit_icall_ves_icall_thread_finish_async_abort_llvm
.Ltmp390:
.LBB38_37:
	sub	sp, r11, #24
	pop	{r4, r5, r6, r7, r9, r10, r11, pc}
.LBB38_38:
	bl	p_17_plt__jit_icall_llvm_resume_unwind_trampoline_llvm
.LBB38_39:
.Ltmp388:
	ldr	r4, [r7]
	b	.LBB38_34
	.p2align	2
.LCPI38_0:
	.long	.Ltmp405-(.LPC38_0+8)
.LCPI38_1:
	.long	.Ltmp404-(.LPC38_1+8)
.LCPI38_2:
	.long	.Ltmp403-(.LPC38_2+8)
.LCPI38_3:
	.long	.Ltmp402-(.LPC38_3+8)
.LCPI38_4:
	.long	.Ltmp401-(.LPC38_4+8)
.LCPI38_5:
	.long	.Ltmp400-(.LPC38_5+8)
.LCPI38_6:
	.long	mono_aot_Mono_Android_llvm_got-(.LPC38_6+8)
.LCPI38_7:
	.long	mono_inited-(.LPC38_7+8)
.Lfunc_end38:
	.size	Android_Widget_ImageView__ctor_Android_Content_Context, .Lfunc_end38-Android_Widget_ImageView__ctor_Android_Content_Context
.Lexception32:
	.fnend

	.hidden	Android_Widget_ImageView_SetImageDrawable_Android_Graphics_Drawables_Drawable
	.globl	Android_Widget_ImageView_SetImageDrawable_Android_Graphics_Drawables_Drawable
	.p2align	2
	.type	Android_Widget_ImageView_SetImageDrawable_Android_Graphics_Drawables_Drawable,%function
	.code	32
Android_Widget_ImageView_SetImageDrawable_Android_Graphics_Drawables_Drawable:
.Lfunc_begin39:
	.fnstart
	.save	{r4, r5, r6, r7, r9, r10, r11, lr}
	push	{r4, r5, r6, r7, r9, r10, r11, lr}
.Ltmp423:
.Ltmp424:
.Ltmp425:
.Ltmp426:
.Ltmp427:
.Ltmp428:
.Ltmp429:
.Ltmp430:
	.setfp	r11, sp, #24
	add	r11, sp, #24
.Ltmp431:
	.pad	#8
	sub	sp, sp, #8
	ldr	r7, .LCPI39_3
	mov	r4, r0
	ldr	r0, .LCPI39_4
.LPC39_3:
	add	r7, pc, r7
	str	r1, [r11, #-32]
.LPC39_4:
	add	r0, pc, r0
	ldr	r2, [r7, #28]
	ldrb	r5, [r0, #2353]
	ldr	r0, [r2]
	cmp	r0, #0
	blne	mono_aot_Mono_Android_icall_cold_wrapper_265
	cmp	r5, #0
	beq	.LBB39_13
.LBB39_1:
	mov	r0, sp
	sub	r6, r0, #8
	mov	sp, r6
	mov	r5, #0
	str	r5, [r0, #-8]
.Ltmp406:
	mov	r0, #1
	mov	r1, #8
	bl	p_26_plt__jit_icall___emul_op_imul_ovf_un_llvm
.Ltmp407:
	cmp	r0, #0
	beq	.LBB39_4
	add	r0, r0, #7
	bic	r2, r0, #7
	sub	r5, sp, r2
	mov	sp, r5
	mov	r0, r5
	mov	r1, #0
	bl	memset
.LBB39_4:
	ldr	r0, [r11, #-32]
	cmp	r0, #0
	beq	.LBB39_7
	ldr	r0, [r11, #-32]
	cmp	r0, #0
	beq	.LBB39_18
.Ltmp408:
	bl	Java_Lang_Object_get_Handle
.Ltmp409:
	b	.LBB39_8
.LBB39_7:
	ldr	r0, [r7, #148]
	ldr	r0, [r0]
.LBB39_8:
	ldr	r2, [r7, #228]
	mov	r1, #0
	str	r1, [r5, #4]
	str	r0, [r5]
	ldr	r0, [r2]
	cmp	r0, #0
	beq	.LBB39_14
.Ltmp412:
	bl	p_27_plt_Java_Interop_JniPeerMembers_get_InstanceMethods_llvm
.Ltmp413:
	cmp	r0, #0
	beq	.LBB39_16
	ldr	r1, [r7, #236]
.Ltmp414:
	mov	r2, r4
	mov	r3, r5
	bl	p_28_plt_Java_Interop_JniPeerMembers_JniInstanceMethods_InvokeVirtualVoidMethod_string_Java_Interop_IJavaPeerable_Java_Interop_JniArgumentValue__llvm
.Ltmp415:
	mov	r4, #1
	mov	r0, #0
	str	r0, [r11, #-28]
	str	r4, [r6]
	b	.LBB39_20
.LBB39_13:
	movw	r0, #2353
	bl	mono_aot_Mono_Android_init_method
	b	.LBB39_1
.Ltmp432:
.LBB39_14:
	ldr	r0, .LCPI39_2
.Ltmp418:
.LPC39_2:
	add	r1, pc, r0
	mov	r0, #225
	bl	p_1_plt__jit_icall_llvm_throw_corlib_exception_abs_trampoline_llvm
.Ltmp419:
.Ltmp433:
.LBB39_16:
	ldr	r0, .LCPI39_1
.Ltmp416:
.LPC39_1:
	add	r1, pc, r0
	mov	r0, #225
	bl	p_1_plt__jit_icall_llvm_throw_corlib_exception_abs_trampoline_llvm
.Ltmp417:
.Ltmp434:
.LBB39_18:
	ldr	r0, .LCPI39_0
.Ltmp410:
.LPC39_0:
	add	r1, pc, r0
	mov	r0, #225
	bl	p_1_plt__jit_icall_llvm_throw_corlib_exception_abs_trampoline_llvm
.Ltmp411:
.LBB39_20:
	ldr	r0, [r11, #-32]
	bl	p_32_plt_System_GC_KeepAlive_object_llvm
	mov	r0, #0
	cmp	r4, #1
	str	r0, [r6]
	bne	.LBB39_24
	ldr	r0, [r11, #-28]
	cmp	r0, #0
	beq	.LBB39_23
.Ltmp421:
	bl	p_15_plt__jit_icall_ves_icall_thread_finish_async_abort_llvm
.Ltmp422:
.LBB39_23:
	sub	sp, r11, #24
	pop	{r4, r5, r6, r7, r9, r10, r11, pc}
.LBB39_24:
	bl	p_17_plt__jit_icall_llvm_resume_unwind_trampoline_llvm
.LBB39_25:
.Ltmp420:
	ldr	r4, [r6]
	b	.LBB39_20
	.p2align	2
.LCPI39_0:
	.long	.Ltmp434-(.LPC39_0+8)
.LCPI39_1:
	.long	.Ltmp433-(.LPC39_1+8)
.LCPI39_2:
	.long	.Ltmp432-(.LPC39_2+8)
.LCPI39_3:
	.long	mono_aot_Mono_Android_llvm_got-(.LPC39_3+8)
.LCPI39_4:
	.long	mono_inited-(.LPC39_4+8)
.Lfunc_end39:
	.size	Android_Widget_ImageView_SetImageDrawable_Android_Graphics_Drawables_Drawable, .Lfunc_end39-Android_Widget_ImageView_SetImageDrawable_Android_Graphics_Drawables_Drawable
.Lexception33:
	.fnend

	.hidden	Android_Widget_ImageView_SetImageResource_int
	.globl	Android_Widget_ImageView_SetImageResource_int
	.p2align	2
	.type	Android_Widget_ImageView_SetImageResource_int,%function
	.code	32
Android_Widget_ImageView_SetImageResource_int:
.Lfunc_begin40:
	.fnstart
	.save	{r4, r5, r6, r7, r9, r10, r11, lr}
	push	{r4, r5, r6, r7, r9, r10, r11, lr}
.Ltmp435:
.Ltmp436:
.Ltmp437:
.Ltmp438:
.Ltmp439:
.Ltmp440:
.Ltmp441:
.Ltmp442:
	.setfp	r11, sp, #24
	add	r11, sp, #24
.Ltmp443:
	ldr	r7, .LCPI40_2
	mov	r9, r0
	ldr	r0, .LCPI40_3
	mov	r5, r1
.LPC40_2:
	add	r7, pc, r7
.LPC40_3:
	add	r0, pc, r0
	ldr	r1, [r7, #28]
	ldrb	r4, [r0, #2356]
	ldr	r0, [r1]
	cmp	r0, #0
	blne	mono_aot_Mono_Android_icall_cold_wrapper_265
	cmp	r4, #0
	beq	.LBB40_6
.LBB40_1:
	mov	r0, #1
	mov	r1, #8
	bl	p_26_plt__jit_icall___emul_op_imul_ovf_un_llvm
	mov	r4, #0
	cmp	r0, #0
	mov	r6, #0
	beq	.LBB40_3
	add	r0, r0, #7
	bic	r2, r0, #7
	sub	r6, sp, r2
	mov	sp, r6
	mov	r0, r6
	mov	r1, #0
	bl	memset
.LBB40_3:
	ldr	r0, [r7, #228]
	str	r4, [r6, #4]
	str	r5, [r6]
	ldr	r0, [r0]
	cmp	r0, #0
	beq	.LBB40_7
	bl	p_27_plt_Java_Interop_JniPeerMembers_get_InstanceMethods_llvm
	cmp	r0, #0
	beq	.LBB40_8
	ldr	r1, [r7, #240]
	mov	r2, r9
	mov	r3, r6
	bl	p_28_plt_Java_Interop_JniPeerMembers_JniInstanceMethods_InvokeVirtualVoidMethod_string_Java_Interop_IJavaPeerable_Java_Interop_JniArgumentValue__llvm
	sub	sp, r11, #24
	pop	{r4, r5, r6, r7, r9, r10, r11, pc}
.LBB40_6:
	movw	r0, #2356
	bl	mono_aot_Mono_Android_init_method
	b	.LBB40_1
.Ltmp444:
.LBB40_7:
	ldr	r0, .LCPI40_1
.LPC40_1:
	add	r1, pc, r0
	mov	r0, #225
	bl	p_1_plt__jit_icall_llvm_throw_corlib_exception_abs_trampoline_llvm
.Ltmp445:
.LBB40_8:
	ldr	r0, .LCPI40_0
.LPC40_0:
	add	r1, pc, r0
	mov	r0, #225
	bl	p_1_plt__jit_icall_llvm_throw_corlib_exception_abs_trampoline_llvm
	.p2align	2
.LCPI40_0:
	.long	.Ltmp445-(.LPC40_0+8)
.LCPI40_1:
	.long	.Ltmp444-(.LPC40_1+8)
.LCPI40_2:
	.long	mono_aot_Mono_Android_llvm_got-(.LPC40_2+8)
.LCPI40_3:
	.long	mono_inited-(.LPC40_3+8)
.Lfunc_end40:
	.size	Android_Widget_ImageView_SetImageResource_int, .Lfunc_end40-Android_Widget_ImageView_SetImageResource_int
.Lexception34:
	.fnend

	.hidden	Android_Widget_ImageView_SetScaleType_Android_Widget_ImageView_ScaleType
	.globl	Android_Widget_ImageView_SetScaleType_Android_Widget_ImageView_ScaleType
	.p2align	2
	.type	Android_Widget_ImageView_SetScaleType_Android_Widget_ImageView_ScaleType,%function
	.code	32
Android_Widget_ImageView_SetScaleType_Android_Widget_ImageView_ScaleType:
.Lfunc_begin41:
	.fnstart
	.save	{r4, r5, r6, r7, r9, r10, r11, lr}
	push	{r4, r5, r6, r7, r9, r10, r11, lr}
.Ltmp463:
.Ltmp464:
.Ltmp465:
.Ltmp466:
.Ltmp467:
.Ltmp468:
.Ltmp469:
.Ltmp470:
	.setfp	r11, sp, #24
	add	r11, sp, #24
.Ltmp471:
	.pad	#8
	sub	sp, sp, #8
	ldr	r7, .LCPI41_3
	mov	r4, r0
	ldr	r0, .LCPI41_4
.LPC41_3:
	add	r7, pc, r7
	str	r1, [r11, #-32]
.LPC41_4:
	add	r0, pc, r0
	ldr	r2, [r7, #28]
	ldrb	r5, [r0, #2362]
	ldr	r0, [r2]
	cmp	r0, #0
	blne	mono_aot_Mono_Android_icall_cold_wrapper_265
	cmp	r5, #0
	beq	.LBB41_13
.LBB41_1:
	mov	r0, sp
	sub	r6, r0, #8
	mov	sp, r6
	mov	r5, #0
	str	r5, [r0, #-8]
.Ltmp446:
	mov	r0, #1
	mov	r1, #8
	bl	p_26_plt__jit_icall___emul_op_imul_ovf_un_llvm
.Ltmp447:
	cmp	r0, #0
	beq	.LBB41_4
	add	r0, r0, #7
	bic	r2, r0, #7
	sub	r5, sp, r2
	mov	sp, r5
	mov	r0, r5
	mov	r1, #0
	bl	memset
.LBB41_4:
	ldr	r0, [r11, #-32]
	cmp	r0, #0
	beq	.LBB41_7
	ldr	r0, [r11, #-32]
	cmp	r0, #0
	beq	.LBB41_18
.Ltmp448:
	bl	Java_Lang_Object_get_Handle
.Ltmp449:
	b	.LBB41_8
.LBB41_7:
	ldr	r0, [r7, #148]
	ldr	r0, [r0]
.LBB41_8:
	ldr	r2, [r7, #228]
	mov	r1, #0
	str	r1, [r5, #4]
	str	r0, [r5]
	ldr	r0, [r2]
	cmp	r0, #0
	beq	.LBB41_14
.Ltmp452:
	bl	p_27_plt_Java_Interop_JniPeerMembers_get_InstanceMethods_llvm
.Ltmp453:
	cmp	r0, #0
	beq	.LBB41_16
	ldr	r1, [r7, #244]
.Ltmp454:
	mov	r2, r4
	mov	r3, r5
	bl	p_28_plt_Java_Interop_JniPeerMembers_JniInstanceMethods_InvokeVirtualVoidMethod_string_Java_Interop_IJavaPeerable_Java_Interop_JniArgumentValue__llvm
.Ltmp455:
	mov	r4, #1
	mov	r0, #0
	str	r0, [r11, #-28]
	str	r4, [r6]
	b	.LBB41_20
.LBB41_13:
	movw	r0, #2362
	bl	mono_aot_Mono_Android_init_method
	b	.LBB41_1
.Ltmp472:
.LBB41_14:
	ldr	r0, .LCPI41_2
.Ltmp458:
.LPC41_2:
	add	r1, pc, r0
	mov	r0, #225
	bl	p_1_plt__jit_icall_llvm_throw_corlib_exception_abs_trampoline_llvm
.Ltmp459:
.Ltmp473:
.LBB41_16:
	ldr	r0, .LCPI41_1
.Ltmp456:
.LPC41_1:
	add	r1, pc, r0
	mov	r0, #225
	bl	p_1_plt__jit_icall_llvm_throw_corlib_exception_abs_trampoline_llvm
.Ltmp457:
.Ltmp474:
.LBB41_18:
	ldr	r0, .LCPI41_0
.Ltmp450:
.LPC41_0:
	add	r1, pc, r0
	mov	r0, #225
	bl	p_1_plt__jit_icall_llvm_throw_corlib_exception_abs_trampoline_llvm
.Ltmp451:
.LBB41_20:
	ldr	r0, [r11, #-32]
	bl	p_32_plt_System_GC_KeepAlive_object_llvm
	mov	r0, #0
	cmp	r4, #1
	str	r0, [r6]
	bne	.LBB41_24
	ldr	r0, [r11, #-28]
	cmp	r0, #0
	beq	.LBB41_23
.Ltmp461:
	bl	p_15_plt__jit_icall_ves_icall_thread_finish_async_abort_llvm
.Ltmp462:
.LBB41_23:
	sub	sp, r11, #24
	pop	{r4, r5, r6, r7, r9, r10, r11, pc}
.LBB41_24:
	bl	p_17_plt__jit_icall_llvm_resume_unwind_trampoline_llvm
.LBB41_25:
.Ltmp460:
	ldr	r4, [r6]
	b	.LBB41_20
	.p2align	2
.LCPI41_0:
	.long	.Ltmp474-(.LPC41_0+8)
.LCPI41_1:
	.long	.Ltmp473-(.LPC41_1+8)
.LCPI41_2:
	.long	.Ltmp472-(.LPC41_2+8)
.LCPI41_3:
	.long	mono_aot_Mono_Android_llvm_got-(.LPC41_3+8)
.LCPI41_4:
	.long	mono_inited-(.LPC41_4+8)
.Lfunc_end41:
	.size	Android_Widget_ImageView_SetScaleType_Android_Widget_ImageView_ScaleType, .Lfunc_end41-Android_Widget_ImageView_SetScaleType_Android_Widget_ImageView_ScaleType
.Lexception35:
	.fnend

	.hidden	Android_Widget_ImageView__cctor
	.globl	Android_Widget_ImageView__cctor
	.p2align	2
	.type	Android_Widget_ImageView__cctor,%function
	.code	32
Android_Widget_ImageView__cctor:
.Lfunc_begin42:
	.fnstart
	.save	{r4, r5, r6, r7, r11, lr}
	push	{r4, r5, r6, r7, r11, lr}
.Ltmp475:
.Ltmp476:
.Ltmp477:
.Ltmp478:
.Ltmp479:
.Ltmp480:
.Ltmp481:
	ldr	r5, .LCPI42_0
	ldr	r0, .LCPI42_1
.LPC42_0:
	add	r5, pc, r5
.LPC42_1:
	add	r0, pc, r0
	ldr	r1, [r5, #28]
	ldrb	r4, [r0, #2363]
	ldr	r0, [r1]
	cmp	r0, #0
	blne	mono_aot_Mono_Android_icall_cold_wrapper_265
	cmp	r4, #0
	beq	.LBB42_2
.LBB42_1:
	ldr	r0, [r5, #144]
	mov	r1, #40
	ldrd	r6, r7, [r5, #248]
	bl	p_13_plt_wrapper_alloc_object_AllocSmall_intptr_intptr_llvm
	mov	r1, r6
	mov	r2, r7
	mov	r4, r0
	bl	Android_Runtime_XAPeerMembers__ctor_string_System_Type
	ldr	r0, [r5, #228]
	dmb	ish
	str	r4, [r0]
	pop	{r4, r5, r6, r7, r11, pc}
.LBB42_2:
	movw	r0, #2363
	bl	mono_aot_Mono_Android_init_method
	b	.LBB42_1
	.p2align	2
.LCPI42_0:
	.long	mono_aot_Mono_Android_llvm_got-(.LPC42_0+8)
.LCPI42_1:
	.long	mono_inited-(.LPC42_1+8)
.Lfunc_end42:
	.size	Android_Widget_ImageView__cctor, .Lfunc_end42-Android_Widget_ImageView__cctor
.Lexception36:
	.fnend

	.hidden	Android_Widget_ImageView_ScaleType_get_FitCenter
	.globl	Android_Widget_ImageView_ScaleType_get_FitCenter
	.p2align	2
	.type	Android_Widget_ImageView_ScaleType_get_FitCenter,%function
	.code	32
Android_Widget_ImageView_ScaleType_get_FitCenter:
.Lfunc_begin43:
	.fnstart
	.save	{r4, r5, r8, lr}
	push	{r4, r5, r8, lr}
.Ltmp482:
.Ltmp483:
.Ltmp484:
.Ltmp485:
.Ltmp486:
	.pad	#16
	sub	sp, sp, #16
.Ltmp487:
	ldr	r4, .LCPI43_2
	ldr	r0, .LCPI43_3
.LPC43_2:
	add	r4, pc, r4
.LPC43_3:
	add	r0, pc, r0
	ldr	r1, [r4, #28]
	ldrb	r5, [r0, #2365]
	ldr	r0, [r1]
	cmp	r0, #0
	blne	mono_aot_Mono_Android_icall_cold_wrapper_265
	cmp	r5, #0
	beq	.LBB43_4
.LBB43_1:
	ldr	r0, [r4, #256]
	mov	r1, #0
	str	r1, [sp, #12]
	str	r1, [sp, #8]
	ldr	r0, [r0]
	cmp	r0, #0
	beq	.LBB43_5
	bl	p_41_plt_Java_Interop_JniPeerMembers_get_StaticFields_llvm
	cmp	r0, #0
	beq	.LBB43_6
	ldr	r2, [r4, #260]
	add	r1, sp, #8
	bl	p_42_plt_Java_Interop_JniPeerMembers_JniStaticFields_GetObjectValue_string_llvm
	ldr	r1, [r4, #264]
	str	r1, [sp, #4]
	mov	r1, #1
	ldr	r0, [sp, #8]
	ldr	r8, [sp, #4]
	bl	p_43_plt_Java_Lang_Object_GetObject_Android_Widget_ImageView_ScaleType_intptr_Android_Runtime_JniHandleOwnership_llvm
	add	sp, sp, #16
	pop	{r4, r5, r8, pc}
.LBB43_4:
	movw	r0, #2365
	bl	mono_aot_Mono_Android_init_method
	b	.LBB43_1
.Ltmp488:
.LBB43_5:
	ldr	r0, .LCPI43_1
.LPC43_1:
	add	r1, pc, r0
	mov	r0, #225
	bl	p_1_plt__jit_icall_llvm_throw_corlib_exception_abs_trampoline_llvm
.Ltmp489:
.LBB43_6:
	ldr	r0, .LCPI43_0
.LPC43_0:
	add	r1, pc, r0
	mov	r0, #225
	bl	p_1_plt__jit_icall_llvm_throw_corlib_exception_abs_trampoline_llvm
	.p2align	2
.LCPI43_0:
	.long	.Ltmp489-(.LPC43_0+8)
.LCPI43_1:
	.long	.Ltmp488-(.LPC43_1+8)
.LCPI43_2:
	.long	mono_aot_Mono_Android_llvm_got-(.LPC43_2+8)
.LCPI43_3:
	.long	mono_inited-(.LPC43_3+8)
.Lfunc_end43:
	.size	Android_Widget_ImageView_ScaleType_get_FitCenter, .Lfunc_end43-Android_Widget_ImageView_ScaleType_get_FitCenter
.Lexception37:
	.fnend

	.hidden	Android_Widget_ImageView_ScaleType__ctor_intptr_Android_Runtime_JniHandleOwnership
	.globl	Android_Widget_ImageView_ScaleType__ctor_intptr_Android_Runtime_JniHandleOwnership
	.p2align	2
	.type	Android_Widget_ImageView_ScaleType__ctor_intptr_Android_Runtime_JniHandleOwnership,%function
	.code	32
Android_Widget_ImageView_ScaleType__ctor_intptr_Android_Runtime_JniHandleOwnership:
.Lfunc_begin44:
	.fnstart
	.save	{r4, r5, r6, r7, r11, lr}
	push	{r4, r5, r6, r7, r11, lr}
.Ltmp490:
.Ltmp491:
.Ltmp492:
.Ltmp493:
.Ltmp494:
.Ltmp495:
.Ltmp496:
	mov	r6, r0
	ldr	r0, .LCPI44_0
	mov	r5, r1
	ldr	r1, .LCPI44_1
.LPC44_0:
	add	r0, pc, r0
	mov	r4, r2
.LPC44_1:
	add	r1, pc, r1
	ldr	r0, [r0, #28]
	ldrb	r7, [r1, #2370]
	ldr	r0, [r0]
	cmp	r0, #0
	blne	mono_aot_Mono_Android_icall_cold_wrapper_265
	cmp	r7, #0
	beq	.LBB44_2
.LBB44_1:
	mov	r0, r6
	mov	r1, r5
	mov	r2, r4
	bl	Java_Lang_Enum__ctor_intptr_Android_Runtime_JniHandleOwnership
	pop	{r4, r5, r6, r7, r11, pc}
.LBB44_2:
	movw	r0, #2370
	bl	mono_aot_Mono_Android_init_method
	b	.LBB44_1
	.p2align	2
.LCPI44_0:
	.long	mono_aot_Mono_Android_llvm_got-(.LPC44_0+8)
.LCPI44_1:
	.long	mono_inited-(.LPC44_1+8)
.Lfunc_end44:
	.size	Android_Widget_ImageView_ScaleType__ctor_intptr_Android_Runtime_JniHandleOwnership, .Lfunc_end44-Android_Widget_ImageView_ScaleType__ctor_intptr_Android_Runtime_JniHandleOwnership
.Lexception38:
	.fnend

	.hidden	Android_Widget_ImageView_ScaleType__cctor
	.globl	Android_Widget_ImageView_ScaleType__cctor
	.p2align	2
	.type	Android_Widget_ImageView_ScaleType__cctor,%function
	.code	32
Android_Widget_ImageView_ScaleType__cctor:
.Lfunc_begin45:
	.fnstart
	.save	{r4, r5, r6, r7, r11, lr}
	push	{r4, r5, r6, r7, r11, lr}
.Ltmp497:
.Ltmp498:
.Ltmp499:
.Ltmp500:
.Ltmp501:
.Ltmp502:
.Ltmp503:
	ldr	r7, .LCPI45_0
	ldr	r0, .LCPI45_1
.LPC45_0:
	add	r7, pc, r7
.LPC45_1:
	add	r0, pc, r0
	ldr	r1, [r7, #28]
	ldrb	r4, [r0, #2371]
	ldr	r0, [r1]
	cmp	r0, #0
	blne	mono_aot_Mono_Android_icall_cold_wrapper_265
	cmp	r4, #0
	beq	.LBB45_2
.LBB45_1:
	ldr	r0, [r7, #144]
	mov	r1, #40
	ldr	r4, [r7, #268]
	ldr	r5, [r7, #272]
	bl	p_13_plt_wrapper_alloc_object_AllocSmall_intptr_intptr_llvm
	mov	r1, r4
	mov	r2, r5
	mov	r6, r0
	bl	Android_Runtime_XAPeerMembers__ctor_string_System_Type
	ldr	r0, [r7, #256]
	dmb	ish
	str	r6, [r0]
	pop	{r4, r5, r6, r7, r11, pc}
.LBB45_2:
	movw	r0, #2371
	bl	mono_aot_Mono_Android_init_method
	b	.LBB45_1
	.p2align	2
.LCPI45_0:
	.long	mono_aot_Mono_Android_llvm_got-(.LPC45_0+8)
.LCPI45_1:
	.long	mono_inited-(.LPC45_1+8)
.Lfunc_end45:
	.size	Android_Widget_ImageView_ScaleType__cctor, .Lfunc_end45-Android_Widget_ImageView_ScaleType__cctor
.Lexception39:
	.fnend

	.hidden	Android_Widget_LinearLayout_get_JniPeerMembers
	.globl	Android_Widget_LinearLayout_get_JniPeerMembers
	.p2align	2
	.type	Android_Widget_LinearLayout_get_JniPeerMembers,%function
	.code	32
Android_Widget_LinearLayout_get_JniPeerMembers:
.Lfunc_begin46:
	.fnstart
	ldr	r0, .LCPI46_0
.LPC46_0:
	add	r0, pc, r0
	ldrb	r0, [r0, #2414]
	cmp	r0, #0
	beq	.LBB46_2
.LBB46_1:
	ldr	r0, .LCPI46_1
.LPC46_1:
	add	r0, pc, r0
	ldr	r0, [r0, #276]
	ldr	r0, [r0]
	bx	lr
.LBB46_2:
	.save	{r11, lr}
	push	{r11, lr}
.Ltmp504:
.Ltmp505:
.Ltmp506:
	movw	r0, #2414
	bl	mono_aot_Mono_Android_init_method
	pop	{r11, lr}
	b	.LBB46_1
	.p2align	2
.LCPI46_0:
	.long	mono_inited-(.LPC46_0+8)
.LCPI46_1:
	.long	mono_aot_Mono_Android_llvm_got-(.LPC46_1+8)
.Lfunc_end46:
	.size	Android_Widget_LinearLayout_get_JniPeerMembers, .Lfunc_end46-Android_Widget_LinearLayout_get_JniPeerMembers
.Lexception40:
	.fnend

	.hidden	Android_Widget_LinearLayout_get_ThresholdType
	.globl	Android_Widget_LinearLayout_get_ThresholdType
	.p2align	2
	.type	Android_Widget_LinearLayout_get_ThresholdType,%function
	.code	32
Android_Widget_LinearLayout_get_ThresholdType:
.Lfunc_begin47:
	.fnstart
	.save	{r11, lr}
	push	{r11, lr}
.Ltmp507:
.Ltmp508:
.Ltmp509:
	ldr	r0, .LCPI47_1
.LPC47_1:
	add	r0, pc, r0
	ldrb	r0, [r0, #2416]
	cmp	r0, #0
	beq	.LBB47_3
.LBB47_1:
	ldr	r0, .LCPI47_2
.LPC47_2:
	add	r0, pc, r0
	ldr	r0, [r0, #276]
	ldr	r0, [r0]
	cmp	r0, #0
	ldrne	r0, [r0, #28]
	popne	{r11, pc}
.Ltmp510:
.LBB47_2:
	ldr	r0, .LCPI47_0
.LPC47_0:
	add	r1, pc, r0
	mov	r0, #225
	bl	p_1_plt__jit_icall_llvm_throw_corlib_exception_abs_trampoline_llvm
.LBB47_3:
	mov	r0, #2416
	bl	mono_aot_Mono_Android_init_method
	b	.LBB47_1
	.p2align	2
.LCPI47_0:
	.long	.Ltmp510-(.LPC47_0+8)
.LCPI47_1:
	.long	mono_inited-(.LPC47_1+8)
.LCPI47_2:
	.long	mono_aot_Mono_Android_llvm_got-(.LPC47_2+8)
.Lfunc_end47:
	.size	Android_Widget_LinearLayout_get_ThresholdType, .Lfunc_end47-Android_Widget_LinearLayout_get_ThresholdType
.Lexception41:
	.fnend

	.hidden	Android_Widget_LinearLayout__ctor_Android_Content_Context
	.globl	Android_Widget_LinearLayout__ctor_Android_Content_Context
	.p2align	2
	.type	Android_Widget_LinearLayout__ctor_Android_Content_Context,%function
	.code	32
Android_Widget_LinearLayout__ctor_Android_Content_Context:
.Lfunc_begin48:
	.fnstart
	.save	{r4, r5, r6, r7, r9, r10, r11, lr}
	push	{r4, r5, r6, r7, r9, r10, r11, lr}
.Ltmp540:
.Ltmp541:
.Ltmp542:
.Ltmp543:
.Ltmp544:
.Ltmp545:
.Ltmp546:
.Ltmp547:
	.setfp	r11, sp, #24
	add	r11, sp, #24
.Ltmp548:
	.pad	#24
	sub	sp, sp, #24
	ldr	r9, .LCPI48_6
	mov	r4, r0
	ldr	r0, .LCPI48_7
.LPC48_6:
	add	r9, pc, r9
	str	r1, [r11, #-44]
.LPC48_7:
	add	r0, pc, r0
	ldr	r2, [r9, #28]
	ldrb	r5, [r0, #2418]
	ldr	r0, [r2]
	cmp	r0, #0
	blne	mono_aot_Mono_Android_icall_cold_wrapper_265
	cmp	r5, #0
	beq	.LBB48_21
.LBB48_1:
	mov	r0, sp
	sub	r7, r0, #8
	mov	sp, r7
	ldr	r6, [r9, #148]
	mov	r1, #0
	str	r1, [r0, #-8]
	mov	r0, r4
	str	r1, [r11, #-36]
	mov	r2, #0
	str	r1, [r11, #-40]
	ldr	r1, [r6]
	bl	Android_Views_ViewGroup__ctor_intptr_Android_Runtime_JniHandleOwnership
	mov	r0, r4
	bl	Java_Lang_Object_get_Handle
	ldr	r1, [r6]
	bl	p_37_plt_intptr_op_Inequality_intptr_intptr_llvm
	tst	r0, #255
	bne	.LBB48_37
.Ltmp511:
	mov	r0, #1
	mov	r1, #8
	bl	p_26_plt__jit_icall___emul_op_imul_ovf_un_llvm
.Ltmp512:
	cmp	r0, #0
	beq	.LBB48_5
	add	r0, r0, #7
	bic	r2, r0, #7
	sub	r5, sp, r2
	mov	sp, r5
	mov	r0, r5
	mov	r1, #0
	bl	memset
	b	.LBB48_6
.LBB48_5:
	mov	r5, #0
.LBB48_6:
	ldr	r0, [r11, #-44]
	cmp	r0, #0
	beq	.LBB48_9
	ldr	r0, [r11, #-44]
	cmp	r0, #0
	beq	.LBB48_32
.Ltmp513:
	bl	Java_Lang_Object_get_Handle
.Ltmp514:
	b	.LBB48_10
.LBB48_9:
	ldr	r0, [r6]
.LBB48_10:
	ldr	r10, [r9, #276]
	mov	r1, #0
	str	r1, [r5, #4]
	str	r0, [r5]
	ldr	r0, [r10]
	cmp	r0, #0
	beq	.LBB48_22
.Ltmp517:
	bl	p_27_plt_Java_Interop_JniPeerMembers_get_InstanceMethods_llvm
.Ltmp518:
	cmp	r4, #0
	beq	.LBB48_24
	cmp	r0, #0
	beq	.LBB48_26
	ldr	r1, [r4]
	ldr	r6, [r9, #232]
	ldr	r3, [r1, #12]
.Ltmp519:
	sub	sp, sp, #8
	sub	r1, r11, #40
	mov	r2, r6
	str	r5, [sp]
	bl	p_38_plt_Java_Interop_JniPeerMembers_JniInstanceMethods_StartCreateInstance_string_System_Type_Java_Interop_JniArgumentValue__llvm
	add	sp, sp, #8
.Ltmp520:
	ldr	r1, [r11, #-40]
.Ltmp521:
	mov	r0, r4
	mov	r2, #1
	bl	Java_Lang_Object_SetHandle_intptr_Android_Runtime_JniHandleOwnership
.Ltmp522:
	ldr	r0, [r10]
	cmp	r0, #0
	beq	.LBB48_28
.Ltmp523:
	bl	p_27_plt_Java_Interop_JniPeerMembers_get_InstanceMethods_llvm
.Ltmp524:
	cmp	r0, #0
	beq	.LBB48_30
.Ltmp525:
	mov	r1, r6
	mov	r2, r4
	mov	r3, r5
	bl	p_40_plt_Java_Interop_JniPeerMembers_JniInstanceMethods_FinishCreateInstance_string_Java_Interop_IJavaPeerable_Java_Interop_JniArgumentValue__llvm
.Ltmp526:
	mov	r4, #1
	mov	r0, #0
	str	r0, [r11, #-32]
	str	r4, [r7]
	b	.LBB48_34
.LBB48_21:
	movw	r0, #2418
	bl	mono_aot_Mono_Android_init_method
	b	.LBB48_1
.Ltmp549:
.LBB48_22:
	ldr	r0, .LCPI48_5
.Ltmp535:
.LPC48_5:
	add	r1, pc, r0
	mov	r0, #225
	bl	p_1_plt__jit_icall_llvm_throw_corlib_exception_abs_trampoline_llvm
.Ltmp536:
.Ltmp550:
.LBB48_24:
	ldr	r0, .LCPI48_4
.Ltmp533:
.LPC48_4:
	add	r1, pc, r0
	mov	r0, #225
	bl	p_1_plt__jit_icall_llvm_throw_corlib_exception_abs_trampoline_llvm
.Ltmp534:
.Ltmp551:
.LBB48_26:
	ldr	r0, .LCPI48_3
.Ltmp531:
.LPC48_3:
	add	r1, pc, r0
	mov	r0, #225
	bl	p_1_plt__jit_icall_llvm_throw_corlib_exception_abs_trampoline_llvm
.Ltmp532:
.Ltmp552:
.LBB48_28:
	ldr	r0, .LCPI48_2
.Ltmp529:
.LPC48_2:
	add	r1, pc, r0
	mov	r0, #225
	bl	p_1_plt__jit_icall_llvm_throw_corlib_exception_abs_trampoline_llvm
.Ltmp530:
.Ltmp553:
.LBB48_30:
	ldr	r0, .LCPI48_1
.Ltmp527:
.LPC48_1:
	add	r1, pc, r0
	mov	r0, #225
	bl	p_1_plt__jit_icall_llvm_throw_corlib_exception_abs_trampoline_llvm
.Ltmp528:
.Ltmp554:
.LBB48_32:
	ldr	r0, .LCPI48_0
.Ltmp515:
.LPC48_0:
	add	r1, pc, r0
	mov	r0, #225
	bl	p_1_plt__jit_icall_llvm_throw_corlib_exception_abs_trampoline_llvm
.Ltmp516:
.LBB48_34:
	ldr	r0, [r11, #-44]
	bl	p_32_plt_System_GC_KeepAlive_object_llvm
	mov	r0, #0
	cmp	r4, #1
	str	r0, [r7]
	bne	.LBB48_38
	ldr	r0, [r11, #-32]
	cmp	r0, #0
	beq	.LBB48_37
.Ltmp538:
	bl	p_15_plt__jit_icall_ves_icall_thread_finish_async_abort_llvm
.Ltmp539:
.LBB48_37:
	sub	sp, r11, #24
	pop	{r4, r5, r6, r7, r9, r10, r11, pc}
.LBB48_38:
	bl	p_17_plt__jit_icall_llvm_resume_unwind_trampoline_llvm
.LBB48_39:
.Ltmp537:
	ldr	r4, [r7]
	b	.LBB48_34
	.p2align	2
.LCPI48_0:
	.long	.Ltmp554-(.LPC48_0+8)
.LCPI48_1:
	.long	.Ltmp553-(.LPC48_1+8)
.LCPI48_2:
	.long	.Ltmp552-(.LPC48_2+8)
.LCPI48_3:
	.long	.Ltmp551-(.LPC48_3+8)
.LCPI48_4:
	.long	.Ltmp550-(.LPC48_4+8)
.LCPI48_5:
	.long	.Ltmp549-(.LPC48_5+8)
.LCPI48_6:
	.long	mono_aot_Mono_Android_llvm_got-(.LPC48_6+8)
.LCPI48_7:
	.long	mono_inited-(.LPC48_7+8)
.Lfunc_end48:
	.size	Android_Widget_LinearLayout__ctor_Android_Content_Context, .Lfunc_end48-Android_Widget_LinearLayout__ctor_Android_Content_Context
.Lexception42:
	.fnend

	.hidden	Android_Widget_LinearLayout_set_Orientation_Android_Widget_Orientation
	.globl	Android_Widget_LinearLayout_set_Orientation_Android_Widget_Orientation
	.p2align	2
	.type	Android_Widget_LinearLayout_set_Orientation_Android_Widget_Orientation,%function
	.code	32
Android_Widget_LinearLayout_set_Orientation_Android_Widget_Orientation:
.Lfunc_begin49:
	.fnstart
	.save	{r4, r5, r6, r7, r9, r10, r11, lr}
	push	{r4, r5, r6, r7, r9, r10, r11, lr}
.Ltmp555:
.Ltmp556:
.Ltmp557:
.Ltmp558:
.Ltmp559:
.Ltmp560:
.Ltmp561:
.Ltmp562:
	.setfp	r11, sp, #24
	add	r11, sp, #24
.Ltmp563:
	ldr	r7, .LCPI49_2
	mov	r9, r0
	ldr	r0, .LCPI49_3
	mov	r5, r1
.LPC49_2:
	add	r7, pc, r7
.LPC49_3:
	add	r0, pc, r0
	ldr	r1, [r7, #28]
	ldrb	r4, [r0, #2426]
	ldr	r0, [r1]
	cmp	r0, #0
	blne	mono_aot_Mono_Android_icall_cold_wrapper_265
	cmp	r4, #0
	beq	.LBB49_6
.LBB49_1:
	mov	r0, #1
	mov	r1, #8
	bl	p_26_plt__jit_icall___emul_op_imul_ovf_un_llvm
	mov	r4, #0
	cmp	r0, #0
	mov	r6, #0
	beq	.LBB49_3
	add	r0, r0, #7
	bic	r2, r0, #7
	sub	r6, sp, r2
	mov	sp, r6
	mov	r0, r6
	mov	r1, #0
	bl	memset
.LBB49_3:
	ldr	r0, [r7, #276]
	str	r4, [r6, #4]
	str	r5, [r6]
	ldr	r0, [r0]
	cmp	r0, #0
	beq	.LBB49_7
	bl	p_27_plt_Java_Interop_JniPeerMembers_get_InstanceMethods_llvm
	cmp	r0, #0
	beq	.LBB49_8
	ldr	r1, [r7, #280]
	mov	r2, r9
	mov	r3, r6
	bl	p_28_plt_Java_Interop_JniPeerMembers_JniInstanceMethods_InvokeVirtualVoidMethod_string_Java_Interop_IJavaPeerable_Java_Interop_JniArgumentValue__llvm
	sub	sp, r11, #24
	pop	{r4, r5, r6, r7, r9, r10, r11, pc}
.LBB49_6:
	movw	r0, #2426
	bl	mono_aot_Mono_Android_init_method
	b	.LBB49_1
.Ltmp564:
.LBB49_7:
	ldr	r0, .LCPI49_1
.LPC49_1:
	add	r1, pc, r0
	mov	r0, #225
	bl	p_1_plt__jit_icall_llvm_throw_corlib_exception_abs_trampoline_llvm
.Ltmp565:
.LBB49_8:
	ldr	r0, .LCPI49_0
.LPC49_0:
	add	r1, pc, r0
	mov	r0, #225
	bl	p_1_plt__jit_icall_llvm_throw_corlib_exception_abs_trampoline_llvm
	.p2align	2
.LCPI49_0:
	.long	.Ltmp565-(.LPC49_0+8)
.LCPI49_1:
	.long	.Ltmp564-(.LPC49_1+8)
.LCPI49_2:
	.long	mono_aot_Mono_Android_llvm_got-(.LPC49_2+8)
.LCPI49_3:
	.long	mono_inited-(.LPC49_3+8)
.Lfunc_end49:
	.size	Android_Widget_LinearLayout_set_Orientation_Android_Widget_Orientation, .Lfunc_end49-Android_Widget_LinearLayout_set_Orientation_Android_Widget_Orientation
.Lexception43:
	.fnend

	.hidden	Android_Widget_LinearLayout__cctor
	.globl	Android_Widget_LinearLayout__cctor
	.p2align	2
	.type	Android_Widget_LinearLayout__cctor,%function
	.code	32
Android_Widget_LinearLayout__cctor:
.Lfunc_begin50:
	.fnstart
	.save	{r4, r5, r6, r7, r11, lr}
	push	{r4, r5, r6, r7, r11, lr}
.Ltmp566:
.Ltmp567:
.Ltmp568:
.Ltmp569:
.Ltmp570:
.Ltmp571:
.Ltmp572:
	ldr	r7, .LCPI50_0
	ldr	r0, .LCPI50_1
.LPC50_0:
	add	r7, pc, r7
.LPC50_1:
	add	r0, pc, r0
	ldr	r1, [r7, #28]
	ldrb	r4, [r0, #2433]
	ldr	r0, [r1]
	cmp	r0, #0
	blne	mono_aot_Mono_Android_icall_cold_wrapper_265
	cmp	r4, #0
	beq	.LBB50_2
.LBB50_1:
	ldr	r0, [r7, #144]
	mov	r1, #40
	ldr	r4, [r7, #284]
	ldr	r5, [r7, #288]
	bl	p_13_plt_wrapper_alloc_object_AllocSmall_intptr_intptr_llvm
	mov	r1, r4
	mov	r2, r5
	mov	r6, r0
	bl	Android_Runtime_XAPeerMembers__ctor_string_System_Type
	ldr	r0, [r7, #276]
	dmb	ish
	str	r6, [r0]
	pop	{r4, r5, r6, r7, r11, pc}
.LBB50_2:
	movw	r0, #2433
	bl	mono_aot_Mono_Android_init_method
	b	.LBB50_1
	.p2align	2
.LCPI50_0:
	.long	mono_aot_Mono_Android_llvm_got-(.LPC50_0+8)
.LCPI50_1:
	.long	mono_inited-(.LPC50_1+8)
.Lfunc_end50:
	.size	Android_Widget_LinearLayout__cctor, .Lfunc_end50-Android_Widget_LinearLayout__cctor
.Lexception44:
	.fnend

	.hidden	Android_Widget_LinearLayout_LayoutParams__ctor_int_int
	.globl	Android_Widget_LinearLayout_LayoutParams__ctor_int_int
	.p2align	2
	.type	Android_Widget_LinearLayout_LayoutParams__ctor_int_int,%function
	.code	32
Android_Widget_LinearLayout_LayoutParams__ctor_int_int:
.Lfunc_begin51:
	.fnstart
	.save	{r4, r5, r6, r7, r9, r10, r11, lr}
	push	{r4, r5, r6, r7, r9, r10, r11, lr}
.Ltmp573:
.Ltmp574:
.Ltmp575:
.Ltmp576:
.Ltmp577:
.Ltmp578:
.Ltmp579:
.Ltmp580:
	.setfp	r11, sp, #24
	add	r11, sp, #24
.Ltmp581:
	.pad	#16
	sub	sp, sp, #16
	ldr	r6, .LCPI51_5
	mov	r4, r0
	ldr	r0, .LCPI51_6
	mov	r10, r1
.LPC51_5:
	add	r6, pc, r6
	mov	r9, r2
.LPC51_6:
	add	r0, pc, r0
	ldr	r1, [r6, #28]
	ldrb	r5, [r0, #2441]
	ldr	r0, [r1]
	cmp	r0, #0
	blne	mono_aot_Mono_Android_icall_cold_wrapper_265
	cmp	r5, #0
	beq	.LBB51_11
.LBB51_1:
	ldr	r7, [r6, #148]
	mov	r5, #0
	str	r5, [r11, #-36]
	mov	r0, r4
	str	r5, [r11, #-40]
	mov	r2, #0
	ldr	r1, [r7]
	bl	Android_Views_ViewGroup_MarginLayoutParams__ctor_intptr_Android_Runtime_JniHandleOwnership
	mov	r0, r4
	bl	Java_Lang_Object_get_Handle
	ldr	r1, [r7]
	bl	p_37_plt_intptr_op_Inequality_intptr_intptr_llvm
	tst	r0, #255
	beq	.LBB51_3
	sub	sp, r11, #24
	pop	{r4, r5, r6, r7, r9, r10, r11, pc}
.LBB51_3:
	mov	r0, #2
	mov	r1, #8
	bl	p_26_plt__jit_icall___emul_op_imul_ovf_un_llvm
	cmp	r0, #0
	beq	.LBB51_5
	add	r0, r0, #7
	bic	r2, r0, #7
	sub	r5, sp, r2
	mov	sp, r5
	mov	r0, r5
	mov	r1, #0
	bl	memset
.LBB51_5:
	ldr	r7, [r6, #292]
	mov	r0, #0
	str	r0, [r5, #4]
	str	r10, [r5]
	str	r9, [r5, #8]
	str	r0, [r5, #12]
	ldr	r0, [r7]
	cmp	r0, #0
	beq	.LBB51_12
	bl	p_27_plt_Java_Interop_JniPeerMembers_get_InstanceMethods_llvm
	cmp	r4, #0
	beq	.LBB51_13
	cmp	r0, #0
	beq	.LBB51_14
	ldr	r6, [r6, #296]
	ldr	r1, [r4]
	ldr	r3, [r1, #12]
	sub	sp, sp, #8
	sub	r1, r11, #40
	mov	r2, r6
	str	r5, [sp]
	bl	p_38_plt_Java_Interop_JniPeerMembers_JniInstanceMethods_StartCreateInstance_string_System_Type_Java_Interop_JniArgumentValue__llvm
	add	sp, sp, #8
	ldr	r1, [r11, #-40]
	mov	r0, r4
	mov	r2, #1
	bl	Java_Lang_Object_SetHandle_intptr_Android_Runtime_JniHandleOwnership
	ldr	r0, [r7]
	cmp	r0, #0
	beq	.LBB51_15
	bl	p_27_plt_Java_Interop_JniPeerMembers_get_InstanceMethods_llvm
	cmp	r0, #0
	beq	.LBB51_16
	mov	r1, r6
	mov	r2, r4
	mov	r3, r5
	bl	p_40_plt_Java_Interop_JniPeerMembers_JniInstanceMethods_FinishCreateInstance_string_Java_Interop_IJavaPeerable_Java_Interop_JniArgumentValue__llvm
	sub	sp, r11, #24
	pop	{r4, r5, r6, r7, r9, r10, r11, pc}
.LBB51_11:
	movw	r0, #2441
	bl	mono_aot_Mono_Android_init_method
	b	.LBB51_1
.Ltmp582:
.LBB51_12:
	ldr	r0, .LCPI51_4
.LPC51_4:
	add	r1, pc, r0
	mov	r0, #225
	bl	p_1_plt__jit_icall_llvm_throw_corlib_exception_abs_trampoline_llvm
.Ltmp583:
.LBB51_13:
	ldr	r0, .LCPI51_3
.LPC51_3:
	add	r1, pc, r0
	mov	r0, #225
	bl	p_1_plt__jit_icall_llvm_throw_corlib_exception_abs_trampoline_llvm
.Ltmp584:
.LBB51_14:
	ldr	r0, .LCPI51_2
.LPC51_2:
	add	r1, pc, r0
	mov	r0, #225
	bl	p_1_plt__jit_icall_llvm_throw_corlib_exception_abs_trampoline_llvm
.Ltmp585:
.LBB51_15:
	ldr	r0, .LCPI51_1
.LPC51_1:
	add	r1, pc, r0
	mov	r0, #225
	bl	p_1_plt__jit_icall_llvm_throw_corlib_exception_abs_trampoline_llvm
.Ltmp586:
.LBB51_16:
	ldr	r0, .LCPI51_0
.LPC51_0:
	add	r1, pc, r0
	mov	r0, #225
	bl	p_1_plt__jit_icall_llvm_throw_corlib_exception_abs_trampoline_llvm
	.p2align	2
.LCPI51_0:
	.long	.Ltmp586-(.LPC51_0+8)
.LCPI51_1:
	.long	.Ltmp585-(.LPC51_1+8)
.LCPI51_2:
	.long	.Ltmp584-(.LPC51_2+8)
.LCPI51_3:
	.long	.Ltmp583-(.LPC51_3+8)
.LCPI51_4:
	.long	.Ltmp582-(.LPC51_4+8)
.LCPI51_5:
	.long	mono_aot_Mono_Android_llvm_got-(.LPC51_5+8)
.LCPI51_6:
	.long	mono_inited-(.LPC51_6+8)
.Lfunc_end51:
	.size	Android_Widget_LinearLayout_LayoutParams__ctor_int_int, .Lfunc_end51-Android_Widget_LinearLayout_LayoutParams__ctor_int_int
.Lexception45:
	.fnend

	.hidden	Android_Widget_LinearLayout_LayoutParams__cctor
	.globl	Android_Widget_LinearLayout_LayoutParams__cctor
	.p2align	2
	.type	Android_Widget_LinearLayout_LayoutParams__cctor,%function
	.code	32
Android_Widget_LinearLayout_LayoutParams__cctor:
.Lfunc_begin52:
	.fnstart
	.save	{r4, r5, r6, r7, r11, lr}
	push	{r4, r5, r6, r7, r11, lr}
.Ltmp587:
.Ltmp588:
.Ltmp589:
.Ltmp590:
.Ltmp591:
.Ltmp592:
.Ltmp593:
	ldr	r7, .LCPI52_0
	ldr	r0, .LCPI52_1
.LPC52_0:
	add	r7, pc, r7
.LPC52_1:
	add	r0, pc, r0
	ldr	r1, [r7, #28]
	ldrb	r4, [r0, #2442]
	ldr	r0, [r1]
	cmp	r0, #0
	blne	mono_aot_Mono_Android_icall_cold_wrapper_265
	cmp	r4, #0
	beq	.LBB52_2
.LBB52_1:
	ldr	r0, [r7, #144]
	mov	r1, #40
	ldr	r4, [r7, #300]
	ldr	r5, [r7, #304]
	bl	p_13_plt_wrapper_alloc_object_AllocSmall_intptr_intptr_llvm
	mov	r1, r4
	mov	r2, r5
	mov	r6, r0
	bl	Android_Runtime_XAPeerMembers__ctor_string_System_Type
	ldr	r0, [r7, #292]
	dmb	ish
	str	r6, [r0]
	pop	{r4, r5, r6, r7, r11, pc}
.LBB52_2:
	movw	r0, #2442
	bl	mono_aot_Mono_Android_init_method
	b	.LBB52_1
	.p2align	2
.LCPI52_0:
	.long	mono_aot_Mono_Android_llvm_got-(.LPC52_0+8)
.LCPI52_1:
	.long	mono_inited-(.LPC52_1+8)
.Lfunc_end52:
	.size	Android_Widget_LinearLayout_LayoutParams__cctor, .Lfunc_end52-Android_Widget_LinearLayout_LayoutParams__cctor
.Lexception46:
	.fnend

	.hidden	Android_Widget_ListView_get_ThresholdType
	.globl	Android_Widget_ListView_get_ThresholdType
	.p2align	2
	.type	Android_Widget_ListView_get_ThresholdType,%function
	.code	32
Android_Widget_ListView_get_ThresholdType:
.Lfunc_begin53:
	.fnstart
	.save	{r11, lr}
	push	{r11, lr}
.Ltmp594:
.Ltmp595:
.Ltmp596:
	ldr	r0, .LCPI53_1
.LPC53_1:
	add	r0, pc, r0
	ldrb	r0, [r0, #2445]
	cmp	r0, #0
	beq	.LBB53_3
.LBB53_1:
	ldr	r0, .LCPI53_2
.LPC53_2:
	add	r0, pc, r0
	ldr	r0, [r0, #308]
	ldr	r0, [r0]
	cmp	r0, #0
	ldrne	r0, [r0, #28]
	popne	{r11, pc}
.Ltmp597:
.LBB53_2:
	ldr	r0, .LCPI53_0
.LPC53_0:
	add	r1, pc, r0
	mov	r0, #225
	bl	p_1_plt__jit_icall_llvm_throw_corlib_exception_abs_trampoline_llvm
.LBB53_3:
	movw	r0, #2445
	bl	mono_aot_Mono_Android_init_method
	b	.LBB53_1
	.p2align	2
.LCPI53_0:
	.long	.Ltmp597-(.LPC53_0+8)
.LCPI53_1:
	.long	mono_inited-(.LPC53_1+8)
.LCPI53_2:
	.long	mono_aot_Mono_Android_llvm_got-(.LPC53_2+8)
.Lfunc_end53:
	.size	Android_Widget_ListView_get_ThresholdType, .Lfunc_end53-Android_Widget_ListView_get_ThresholdType
.Lexception47:
	.fnend

	.hidden	Android_Widget_ListView__ctor_Android_Content_Context
	.globl	Android_Widget_ListView__ctor_Android_Content_Context
	.p2align	2
	.type	Android_Widget_ListView__ctor_Android_Content_Context,%function
	.code	32
Android_Widget_ListView__ctor_Android_Content_Context:
.Lfunc_begin54:
	.fnstart
	.save	{r4, r5, r6, r7, r9, r10, r11, lr}
	push	{r4, r5, r6, r7, r9, r10, r11, lr}
.Ltmp627:
.Ltmp628:
.Ltmp629:
.Ltmp630:
.Ltmp631:
.Ltmp632:
.Ltmp633:
.Ltmp634:
	.setfp	r11, sp, #24
	add	r11, sp, #24
.Ltmp635:
	.pad	#24
	sub	sp, sp, #24
	ldr	r9, .LCPI54_6
	mov	r4, r0
	ldr	r0, .LCPI54_7
.LPC54_6:
	add	r9, pc, r9
	str	r1, [r11, #-44]
.LPC54_7:
	add	r0, pc, r0
	ldr	r2, [r9, #28]
	ldrb	r5, [r0, #2447]
	ldr	r0, [r2]
	cmp	r0, #0
	blne	mono_aot_Mono_Android_icall_cold_wrapper_265
	cmp	r5, #0
	beq	.LBB54_21
.LBB54_1:
	mov	r0, sp
	sub	r7, r0, #8
	mov	sp, r7
	ldr	r6, [r9, #148]
	mov	r1, #0
	str	r1, [r0, #-8]
	mov	r0, r4
	str	r1, [r11, #-36]
	mov	r2, #0
	str	r1, [r11, #-40]
	ldr	r1, [r6]
	bl	Android_Widget_AbsListView__ctor_intptr_Android_Runtime_JniHandleOwnership
	mov	r0, r4
	bl	Java_Lang_Object_get_Handle
	ldr	r1, [r6]
	bl	p_37_plt_intptr_op_Inequality_intptr_intptr_llvm
	tst	r0, #255
	bne	.LBB54_37
.Ltmp598:
	mov	r0, #1
	mov	r1, #8
	bl	p_26_plt__jit_icall___emul_op_imul_ovf_un_llvm
.Ltmp599:
	cmp	r0, #0
	beq	.LBB54_5
	add	r0, r0, #7
	bic	r2, r0, #7
	sub	r5, sp, r2
	mov	sp, r5
	mov	r0, r5
	mov	r1, #0
	bl	memset
	b	.LBB54_6
.LBB54_5:
	mov	r5, #0
.LBB54_6:
	ldr	r0, [r11, #-44]
	cmp	r0, #0
	beq	.LBB54_9
	ldr	r0, [r11, #-44]
	cmp	r0, #0
	beq	.LBB54_32
.Ltmp600:
	bl	Java_Lang_Object_get_Handle
.Ltmp601:
	b	.LBB54_10
.LBB54_9:
	ldr	r0, [r6]
.LBB54_10:
	ldr	r10, [r9, #308]
	mov	r1, #0
	str	r1, [r5, #4]
	str	r0, [r5]
	ldr	r0, [r10]
	cmp	r0, #0
	beq	.LBB54_22
.Ltmp604:
	bl	p_27_plt_Java_Interop_JniPeerMembers_get_InstanceMethods_llvm
.Ltmp605:
	cmp	r4, #0
	beq	.LBB54_24
	cmp	r0, #0
	beq	.LBB54_26
	ldr	r1, [r4]
	ldr	r6, [r9, #232]
	ldr	r3, [r1, #12]
.Ltmp606:
	sub	sp, sp, #8
	sub	r1, r11, #40
	mov	r2, r6
	str	r5, [sp]
	bl	p_38_plt_Java_Interop_JniPeerMembers_JniInstanceMethods_StartCreateInstance_string_System_Type_Java_Interop_JniArgumentValue__llvm
	add	sp, sp, #8
.Ltmp607:
	ldr	r1, [r11, #-40]
.Ltmp608:
	mov	r0, r4
	mov	r2, #1
	bl	Java_Lang_Object_SetHandle_intptr_Android_Runtime_JniHandleOwnership
.Ltmp609:
	ldr	r0, [r10]
	cmp	r0, #0
	beq	.LBB54_28
.Ltmp610:
	bl	p_27_plt_Java_Interop_JniPeerMembers_get_InstanceMethods_llvm
.Ltmp611:
	cmp	r0, #0
	beq	.LBB54_30
.Ltmp612:
	mov	r1, r6
	mov	r2, r4
	mov	r3, r5
	bl	p_40_plt_Java_Interop_JniPeerMembers_JniInstanceMethods_FinishCreateInstance_string_Java_Interop_IJavaPeerable_Java_Interop_JniArgumentValue__llvm
.Ltmp613:
	mov	r4, #1
	mov	r0, #0
	str	r0, [r11, #-32]
	str	r4, [r7]
	b	.LBB54_34
.LBB54_21:
	movw	r0, #2447
	bl	mono_aot_Mono_Android_init_method
	b	.LBB54_1
.Ltmp636:
.LBB54_22:
	ldr	r0, .LCPI54_5
.Ltmp622:
.LPC54_5:
	add	r1, pc, r0
	mov	r0, #225
	bl	p_1_plt__jit_icall_llvm_throw_corlib_exception_abs_trampoline_llvm
.Ltmp623:
.Ltmp637:
.LBB54_24:
	ldr	r0, .LCPI54_4
.Ltmp620:
.LPC54_4:
	add	r1, pc, r0
	mov	r0, #225
	bl	p_1_plt__jit_icall_llvm_throw_corlib_exception_abs_trampoline_llvm
.Ltmp621:
.Ltmp638:
.LBB54_26:
	ldr	r0, .LCPI54_3
.Ltmp618:
.LPC54_3:
	add	r1, pc, r0
	mov	r0, #225
	bl	p_1_plt__jit_icall_llvm_throw_corlib_exception_abs_trampoline_llvm
.Ltmp619:
.Ltmp639:
.LBB54_28:
	ldr	r0, .LCPI54_2
.Ltmp616:
.LPC54_2:
	add	r1, pc, r0
	mov	r0, #225
	bl	p_1_plt__jit_icall_llvm_throw_corlib_exception_abs_trampoline_llvm
.Ltmp617:
.Ltmp640:
.LBB54_30:
	ldr	r0, .LCPI54_1
.Ltmp614:
.LPC54_1:
	add	r1, pc, r0
	mov	r0, #225
	bl	p_1_plt__jit_icall_llvm_throw_corlib_exception_abs_trampoline_llvm
.Ltmp615:
.Ltmp641:
.LBB54_32:
	ldr	r0, .LCPI54_0
.Ltmp602:
.LPC54_0:
	add	r1, pc, r0
	mov	r0, #225
	bl	p_1_plt__jit_icall_llvm_throw_corlib_exception_abs_trampoline_llvm
.Ltmp603:
.LBB54_34:
	ldr	r0, [r11, #-44]
	bl	p_32_plt_System_GC_KeepAlive_object_llvm
	mov	r0, #0
	cmp	r4, #1
	str	r0, [r7]
	bne	.LBB54_38
	ldr	r0, [r11, #-32]
	cmp	r0, #0
	beq	.LBB54_37
.Ltmp625:
	bl	p_15_plt__jit_icall_ves_icall_thread_finish_async_abort_llvm
.Ltmp626:
.LBB54_37:
	sub	sp, r11, #24
	pop	{r4, r5, r6, r7, r9, r10, r11, pc}
.LBB54_38:
	bl	p_17_plt__jit_icall_llvm_resume_unwind_trampoline_llvm
.LBB54_39:
.Ltmp624:
	ldr	r4, [r7]
	b	.LBB54_34
	.p2align	2
.LCPI54_0:
	.long	.Ltmp641-(.LPC54_0+8)
.LCPI54_1:
	.long	.Ltmp640-(.LPC54_1+8)
.LCPI54_2:
	.long	.Ltmp639-(.LPC54_2+8)
.LCPI54_3:
	.long	.Ltmp638-(.LPC54_3+8)
.LCPI54_4:
	.long	.Ltmp637-(.LPC54_4+8)
.LCPI54_5:
	.long	.Ltmp636-(.LPC54_5+8)
.LCPI54_6:
	.long	mono_aot_Mono_Android_llvm_got-(.LPC54_6+8)
.LCPI54_7:
	.long	mono_inited-(.LPC54_7+8)
.Lfunc_end54:
	.size	Android_Widget_ListView__ctor_Android_Content_Context, .Lfunc_end54-Android_Widget_ListView__ctor_Android_Content_Context
.Lexception48:
	.fnend

	.hidden	Android_Widget_ListView_set_Adapter_Android_Widget_IListAdapter
	.globl	Android_Widget_ListView_set_Adapter_Android_Widget_IListAdapter
	.p2align	2
	.type	Android_Widget_ListView_set_Adapter_Android_Widget_IListAdapter,%function
	.code	32
Android_Widget_ListView_set_Adapter_Android_Widget_IListAdapter:
.Lfunc_begin55:
	.fnstart
	.save	{r4, r5, r6, r7, r9, r10, r11, lr}
	push	{r4, r5, r6, r7, r9, r10, r11, lr}
.Ltmp661:
.Ltmp662:
.Ltmp663:
.Ltmp664:
.Ltmp665:
.Ltmp666:
.Ltmp667:
.Ltmp668:
	.setfp	r11, sp, #24
	add	r11, sp, #24
.Ltmp669:
	.pad	#8
	sub	sp, sp, #8
	ldr	r7, .LCPI55_4
	mov	r4, r0
	ldr	r0, .LCPI55_5
.LPC55_4:
	add	r7, pc, r7
	str	r1, [r11, #-32]
.LPC55_5:
	add	r0, pc, r0
	ldr	r2, [r7, #28]
	ldrb	r5, [r0, #2455]
	ldr	r0, [r2]
	cmp	r0, #0
	blne	mono_aot_Mono_Android_icall_cold_wrapper_265
	cmp	r5, #0
	beq	.LBB55_14
.LBB55_1:
	mov	r0, sp
	sub	r6, r0, #8
	mov	sp, r6
	mov	r5, #0
	str	r5, [r0, #-8]
.Ltmp642:
	mov	r0, #1
	mov	r1, #8
	bl	p_26_plt__jit_icall___emul_op_imul_ovf_un_llvm
.Ltmp643:
	cmp	r0, #0
	beq	.LBB55_4
	add	r0, r0, #7
	bic	r2, r0, #7
	sub	r5, sp, r2
	mov	sp, r5
	mov	r0, r5
	mov	r1, #0
	bl	memset
.LBB55_4:
	ldr	r0, [r11, #-32]
	cmp	r0, #0
	beq	.LBB55_8
	ldr	r0, [r11, #-32]
	cmp	r0, #0
	beq	.LBB55_19
	ldr	r1, [r0]
	ldr	r2, [r7, #160]
	ldr	r1, [r1]
	ldr	r1, [r1, #8]
	ldr	r1, [r1, #4]
	cmp	r1, r2
	bne	.LBB55_21
.Ltmp646:
	bl	Java_Lang_Object_get_Handle
.Ltmp647:
	b	.LBB55_9
.LBB55_8:
	ldr	r0, [r7, #148]
	ldr	r0, [r0]
.LBB55_9:
	ldr	r2, [r7, #308]
	mov	r1, #0
	str	r1, [r5, #4]
	str	r0, [r5]
	ldr	r0, [r2]
	cmp	r0, #0
	beq	.LBB55_15
.Ltmp650:
	bl	p_27_plt_Java_Interop_JniPeerMembers_get_InstanceMethods_llvm
.Ltmp651:
	cmp	r0, #0
	beq	.LBB55_17
	ldr	r1, [r7, #312]
.Ltmp652:
	mov	r2, r4
	mov	r3, r5
	bl	p_28_plt_Java_Interop_JniPeerMembers_JniInstanceMethods_InvokeVirtualVoidMethod_string_Java_Interop_IJavaPeerable_Java_Interop_JniArgumentValue__llvm
.Ltmp653:
	mov	r4, #1
	mov	r0, #0
	str	r0, [r11, #-28]
	str	r4, [r6]
	b	.LBB55_23
.LBB55_14:
	movw	r0, #2455
	bl	mono_aot_Mono_Android_init_method
	b	.LBB55_1
.Ltmp670:
.LBB55_15:
	ldr	r0, .LCPI55_3
.Ltmp656:
.LPC55_3:
	add	r1, pc, r0
	mov	r0, #225
	bl	p_1_plt__jit_icall_llvm_throw_corlib_exception_abs_trampoline_llvm
.Ltmp657:
.Ltmp671:
.LBB55_17:
	ldr	r0, .LCPI55_2
.Ltmp654:
.LPC55_2:
	add	r1, pc, r0
	mov	r0, #225
	bl	p_1_plt__jit_icall_llvm_throw_corlib_exception_abs_trampoline_llvm
.Ltmp655:
.Ltmp672:
.LBB55_19:
	ldr	r0, .LCPI55_1
.Ltmp648:
.LPC55_1:
	add	r1, pc, r0
	mov	r0, #225
	bl	p_1_plt__jit_icall_llvm_throw_corlib_exception_abs_trampoline_llvm
.Ltmp649:
.Ltmp673:
.LBB55_21:
	ldr	r0, .LCPI55_0
.Ltmp644:
.LPC55_0:
	add	r1, pc, r0
	mov	r0, #203
	bl	p_1_plt__jit_icall_llvm_throw_corlib_exception_abs_trampoline_llvm
.Ltmp645:
.LBB55_23:
	ldr	r0, [r11, #-32]
	bl	p_32_plt_System_GC_KeepAlive_object_llvm
	mov	r0, #0
	cmp	r4, #1
	str	r0, [r6]
	bne	.LBB55_27
	ldr	r0, [r11, #-28]
	cmp	r0, #0
	beq	.LBB55_26
.Ltmp659:
	bl	p_15_plt__jit_icall_ves_icall_thread_finish_async_abort_llvm
.Ltmp660:
.LBB55_26:
	sub	sp, r11, #24
	pop	{r4, r5, r6, r7, r9, r10, r11, pc}
.LBB55_27:
	bl	p_17_plt__jit_icall_llvm_resume_unwind_trampoline_llvm
.LBB55_28:
.Ltmp658:
	ldr	r4, [r6]
	b	.LBB55_23
	.p2align	2
.LCPI55_0:
	.long	.Ltmp673-(.LPC55_0+8)
.LCPI55_1:
	.long	.Ltmp672-(.LPC55_1+8)
.LCPI55_2:
	.long	.Ltmp671-(.LPC55_2+8)
.LCPI55_3:
	.long	.Ltmp670-(.LPC55_3+8)
.LCPI55_4:
	.long	mono_aot_Mono_Android_llvm_got-(.LPC55_4+8)
.LCPI55_5:
	.long	mono_inited-(.LPC55_5+8)
.Lfunc_end55:
	.size	Android_Widget_ListView_set_Adapter_Android_Widget_IListAdapter, .Lfunc_end55-Android_Widget_ListView_set_Adapter_Android_Widget_IListAdapter
.Lexception49:
	.fnend

	.hidden	Android_Widget_ListView_set_ChoiceMode_Android_Widget_ChoiceMode
	.globl	Android_Widget_ListView_set_ChoiceMode_Android_Widget_ChoiceMode
	.p2align	2
	.type	Android_Widget_ListView_set_ChoiceMode_Android_Widget_ChoiceMode,%function
	.code	32
Android_Widget_ListView_set_ChoiceMode_Android_Widget_ChoiceMode:
.Lfunc_begin56:
	.fnstart
	.save	{r4, r5, r6, r7, r9, r10, r11, lr}
	push	{r4, r5, r6, r7, r9, r10, r11, lr}
.Ltmp674:
.Ltmp675:
.Ltmp676:
.Ltmp677:
.Ltmp678:
.Ltmp679:
.Ltmp680:
.Ltmp681:
	.setfp	r11, sp, #24
	add	r11, sp, #24
.Ltmp682:
	ldr	r7, .LCPI56_2
	mov	r9, r0
	ldr	r0, .LCPI56_3
	mov	r5, r1
.LPC56_2:
	add	r7, pc, r7
.LPC56_3:
	add	r0, pc, r0
	ldr	r1, [r7, #28]
	ldrb	r4, [r0, #2458]
	ldr	r0, [r1]
	cmp	r0, #0
	blne	mono_aot_Mono_Android_icall_cold_wrapper_265
	cmp	r4, #0
	beq	.LBB56_6
.LBB56_1:
	mov	r0, #1
	mov	r1, #8
	bl	p_26_plt__jit_icall___emul_op_imul_ovf_un_llvm
	mov	r4, #0
	cmp	r0, #0
	mov	r6, #0
	beq	.LBB56_3
	add	r0, r0, #7
	bic	r2, r0, #7
	sub	r6, sp, r2
	mov	sp, r6
	mov	r0, r6
	mov	r1, #0
	bl	memset
.LBB56_3:
	ldr	r0, [r7, #308]
	str	r4, [r6, #4]
	str	r5, [r6]
	ldr	r0, [r0]
	cmp	r0, #0
	beq	.LBB56_7
	bl	p_27_plt_Java_Interop_JniPeerMembers_get_InstanceMethods_llvm
	cmp	r0, #0
	beq	.LBB56_8
	ldr	r1, [r7, #316]
	mov	r2, r9
	mov	r3, r6
	bl	p_28_plt_Java_Interop_JniPeerMembers_JniInstanceMethods_InvokeVirtualVoidMethod_string_Java_Interop_IJavaPeerable_Java_Interop_JniArgumentValue__llvm
	sub	sp, r11, #24
	pop	{r4, r5, r6, r7, r9, r10, r11, pc}
.LBB56_6:
	movw	r0, #2458
	bl	mono_aot_Mono_Android_init_method
	b	.LBB56_1
.Ltmp683:
.LBB56_7:
	ldr	r0, .LCPI56_1
.LPC56_1:
	add	r1, pc, r0
	mov	r0, #225
	bl	p_1_plt__jit_icall_llvm_throw_corlib_exception_abs_trampoline_llvm
.Ltmp684:
.LBB56_8:
	ldr	r0, .LCPI56_0
.LPC56_0:
	add	r1, pc, r0
	mov	r0, #225
	bl	p_1_plt__jit_icall_llvm_throw_corlib_exception_abs_trampoline_llvm
	.p2align	2
.LCPI56_0:
	.long	.Ltmp684-(.LPC56_0+8)
.LCPI56_1:
	.long	.Ltmp683-(.LPC56_1+8)
.LCPI56_2:
	.long	mono_aot_Mono_Android_llvm_got-(.LPC56_2+8)
.LCPI56_3:
	.long	mono_inited-(.LPC56_3+8)
.Lfunc_end56:
	.size	Android_Widget_ListView_set_ChoiceMode_Android_Widget_ChoiceMode, .Lfunc_end56-Android_Widget_ListView_set_ChoiceMode_Android_Widget_ChoiceMode
.Lexception50:
	.fnend

	.hidden	Android_Widget_ListView_set_DividerHeight_int
	.globl	Android_Widget_ListView_set_DividerHeight_int
	.p2align	2
	.type	Android_Widget_ListView_set_DividerHeight_int,%function
	.code	32
Android_Widget_ListView_set_DividerHeight_int:
.Lfunc_begin57:
	.fnstart
	.save	{r4, r5, r6, r7, r9, r10, r11, lr}
	push	{r4, r5, r6, r7, r9, r10, r11, lr}
.Ltmp685:
.Ltmp686:
.Ltmp687:
.Ltmp688:
.Ltmp689:
.Ltmp690:
.Ltmp691:
.Ltmp692:
	.setfp	r11, sp, #24
	add	r11, sp, #24
.Ltmp693:
	ldr	r7, .LCPI57_2
	mov	r9, r0
	ldr	r0, .LCPI57_3
	mov	r5, r1
.LPC57_2:
	add	r7, pc, r7
.LPC57_3:
	add	r0, pc, r0
	ldr	r1, [r7, #28]
	ldrb	r4, [r0, #2461]
	ldr	r0, [r1]
	cmp	r0, #0
	blne	mono_aot_Mono_Android_icall_cold_wrapper_265
	cmp	r4, #0
	beq	.LBB57_6
.LBB57_1:
	mov	r0, #1
	mov	r1, #8
	bl	p_26_plt__jit_icall___emul_op_imul_ovf_un_llvm
	mov	r4, #0
	cmp	r0, #0
	mov	r6, #0
	beq	.LBB57_3
	add	r0, r0, #7
	bic	r2, r0, #7
	sub	r6, sp, r2
	mov	sp, r6
	mov	r0, r6
	mov	r1, #0
	bl	memset
.LBB57_3:
	ldr	r0, [r7, #308]
	str	r4, [r6, #4]
	str	r5, [r6]
	ldr	r0, [r0]
	cmp	r0, #0
	beq	.LBB57_7
	bl	p_27_plt_Java_Interop_JniPeerMembers_get_InstanceMethods_llvm
	cmp	r0, #0
	beq	.LBB57_8
	ldr	r1, [r7, #320]
	mov	r2, r9
	mov	r3, r6
	bl	p_28_plt_Java_Interop_JniPeerMembers_JniInstanceMethods_InvokeVirtualVoidMethod_string_Java_Interop_IJavaPeerable_Java_Interop_JniArgumentValue__llvm
	sub	sp, r11, #24
	pop	{r4, r5, r6, r7, r9, r10, r11, pc}
.LBB57_6:
	movw	r0, #2461
	bl	mono_aot_Mono_Android_init_method
	b	.LBB57_1
.Ltmp694:
.LBB57_7:
	ldr	r0, .LCPI57_1
.LPC57_1:
	add	r1, pc, r0
	mov	r0, #225
	bl	p_1_plt__jit_icall_llvm_throw_corlib_exception_abs_trampoline_llvm
.Ltmp695:
.LBB57_8:
	ldr	r0, .LCPI57_0
.LPC57_0:
	add	r1, pc, r0
	mov	r0, #225
	bl	p_1_plt__jit_icall_llvm_throw_corlib_exception_abs_trampoline_llvm
	.p2align	2
.LCPI57_0:
	.long	.Ltmp695-(.LPC57_0+8)
.LCPI57_1:
	.long	.Ltmp694-(.LPC57_1+8)
.LCPI57_2:
	.long	mono_aot_Mono_Android_llvm_got-(.LPC57_2+8)
.LCPI57_3:
	.long	mono_inited-(.LPC57_3+8)
.Lfunc_end57:
	.size	Android_Widget_ListView_set_DividerHeight_int, .Lfunc_end57-Android_Widget_ListView_set_DividerHeight_int
.Lexception51:
	.fnend

	.hidden	Android_Widget_ListView_AddFooterView_Android_Views_View_Java_Lang_Object_bool
	.globl	Android_Widget_ListView_AddFooterView_Android_Views_View_Java_Lang_Object_bool
	.p2align	2
	.type	Android_Widget_ListView_AddFooterView_Android_Views_View_Java_Lang_Object_bool,%function
	.code	32
Android_Widget_ListView_AddFooterView_Android_Views_View_Java_Lang_Object_bool:
.Lfunc_begin58:
	.fnstart
	.save	{r4, r5, r6, r7, r9, r10, r11, lr}
	push	{r4, r5, r6, r7, r9, r10, r11, lr}
.Ltmp717:
.Ltmp718:
.Ltmp719:
.Ltmp720:
.Ltmp721:
.Ltmp722:
.Ltmp723:
.Ltmp724:
	.setfp	r11, sp, #24
	add	r11, sp, #24
.Ltmp725:
	.pad	#16
	sub	sp, sp, #16
	ldr	r4, .LCPI58_4
	mov	r9, r0
	ldr	r0, .LCPI58_5
	mov	r5, r3
.LPC58_4:
	add	r4, pc, r4
	str	r2, [r11, #-32]
.LPC58_5:
	add	r0, pc, r0
	str	r1, [r11, #-36]
	ldr	r3, [r4, #28]
	ldrb	r6, [r0, #2470]
	ldr	r0, [r3]
	cmp	r0, #0
	blne	mono_aot_Mono_Android_icall_cold_wrapper_265
	cmp	r6, #0
	beq	.LBB58_17
.LBB58_1:
	mov	r0, sp
	sub	r7, r0, #8
	mov	sp, r7
	mov	r6, #0
	str	r6, [r0, #-8]
.Ltmp696:
	mov	r0, #3
	mov	r1, #8
	bl	p_26_plt__jit_icall___emul_op_imul_ovf_un_llvm
.Ltmp697:
	cmp	r0, #0
	beq	.LBB58_4
	add	r0, r0, #7
	bic	r2, r0, #7
	sub	r6, sp, r2
	mov	sp, r6
	mov	r0, r6
	mov	r1, #0
	bl	memset
.LBB58_4:
	ldr	r0, [r11, #-36]
	cmp	r0, #0
	beq	.LBB58_7
	ldr	r0, [r11, #-36]
	cmp	r0, #0
	beq	.LBB58_22
.Ltmp698:
	bl	Java_Lang_Object_get_Handle
.Ltmp699:
	b	.LBB58_8
.LBB58_7:
	ldr	r0, [r4, #148]
	ldr	r0, [r0]
.LBB58_8:
	mov	r1, #0
	str	r1, [r6, #4]
	str	r0, [r6]
	ldr	r0, [r11, #-32]
	cmp	r0, #0
	beq	.LBB58_11
	ldr	r0, [r11, #-32]
	cmp	r0, #0
	beq	.LBB58_24
.Ltmp702:
	bl	Java_Lang_Object_get_Handle
.Ltmp703:
	b	.LBB58_12
.LBB58_11:
	ldr	r0, [r4, #148]
	ldr	r0, [r0]
.LBB58_12:
	mov	r1, #0
	str	r1, [r6, #12]
	str	r0, [r6, #8]
	ldr	r0, [r4, #308]
	str	r1, [r6, #20]
	uxtb	r1, r5
	str	r1, [r6, #16]
	ldr	r0, [r0]
	cmp	r0, #0
	beq	.LBB58_18
.Ltmp706:
	bl	p_27_plt_Java_Interop_JniPeerMembers_get_InstanceMethods_llvm
.Ltmp707:
	cmp	r0, #0
	beq	.LBB58_20
	ldr	r1, [r4, #324]
.Ltmp708:
	mov	r2, r9
	mov	r3, r6
	bl	p_28_plt_Java_Interop_JniPeerMembers_JniInstanceMethods_InvokeVirtualVoidMethod_string_Java_Interop_IJavaPeerable_Java_Interop_JniArgumentValue__llvm
.Ltmp709:
	mov	r4, #1
	mov	r0, #0
	str	r0, [r11, #-28]
	str	r4, [r7]
	b	.LBB58_26
.LBB58_17:
	movw	r0, #2470
	bl	mono_aot_Mono_Android_init_method
	b	.LBB58_1
.Ltmp726:
.LBB58_18:
	ldr	r0, .LCPI58_3
.Ltmp712:
.LPC58_3:
	add	r1, pc, r0
	mov	r0, #225
	bl	p_1_plt__jit_icall_llvm_throw_corlib_exception_abs_trampoline_llvm
.Ltmp713:
.Ltmp727:
.LBB58_20:
	ldr	r0, .LCPI58_2
.Ltmp710:
.LPC58_2:
	add	r1, pc, r0
	mov	r0, #225
	bl	p_1_plt__jit_icall_llvm_throw_corlib_exception_abs_trampoline_llvm
.Ltmp711:
.Ltmp728:
.LBB58_22:
	ldr	r0, .LCPI58_0
.Ltmp700:
.LPC58_0:
	add	r1, pc, r0
	mov	r0, #225
	bl	p_1_plt__jit_icall_llvm_throw_corlib_exception_abs_trampoline_llvm
.Ltmp701:
.Ltmp729:
.LBB58_24:
	ldr	r0, .LCPI58_1
.Ltmp704:
.LPC58_1:
	add	r1, pc, r0
	mov	r0, #225
	bl	p_1_plt__jit_icall_llvm_throw_corlib_exception_abs_trampoline_llvm
.Ltmp705:
.LBB58_26:
	ldr	r0, [r11, #-36]
	bl	p_32_plt_System_GC_KeepAlive_object_llvm
	ldr	r0, [r11, #-32]
	bl	p_32_plt_System_GC_KeepAlive_object_llvm
	mov	r0, #0
	cmp	r4, #1
	str	r0, [r7]
	bne	.LBB58_30
	ldr	r0, [r11, #-28]
	cmp	r0, #0
	beq	.LBB58_29
.Ltmp715:
	bl	p_15_plt__jit_icall_ves_icall_thread_finish_async_abort_llvm
.Ltmp716:
.LBB58_29:
	sub	sp, r11, #24
	pop	{r4, r5, r6, r7, r9, r10, r11, pc}
.LBB58_30:
	bl	p_17_plt__jit_icall_llvm_resume_unwind_trampoline_llvm
.LBB58_31:
.Ltmp714:
	ldr	r4, [r7]
	b	.LBB58_26
	.p2align	2
.LCPI58_0:
	.long	.Ltmp728-(.LPC58_0+8)
.LCPI58_1:
	.long	.Ltmp729-(.LPC58_1+8)
.LCPI58_2:
	.long	.Ltmp727-(.LPC58_2+8)
.LCPI58_3:
	.long	.Ltmp726-(.LPC58_3+8)
.LCPI58_4:
	.long	mono_aot_Mono_Android_llvm_got-(.LPC58_4+8)
.LCPI58_5:
	.long	mono_inited-(.LPC58_5+8)
.Lfunc_end58:
	.size	Android_Widget_ListView_AddFooterView_Android_Views_View_Java_Lang_Object_bool, .Lfunc_end58-Android_Widget_ListView_AddFooterView_Android_Views_View_Java_Lang_Object_bool
.Lexception52:
	.fnend

	.hidden	Android_Widget_ListView_AddHeaderView_Android_Views_View_Java_Lang_Object_bool
	.globl	Android_Widget_ListView_AddHeaderView_Android_Views_View_Java_Lang_Object_bool
	.p2align	2
	.type	Android_Widget_ListView_AddHeaderView_Android_Views_View_Java_Lang_Object_bool,%function
	.code	32
Android_Widget_ListView_AddHeaderView_Android_Views_View_Java_Lang_Object_bool:
.Lfunc_begin59:
	.fnstart
	.save	{r4, r5, r6, r7, r9, r10, r11, lr}
	push	{r4, r5, r6, r7, r9, r10, r11, lr}
.Ltmp751:
.Ltmp752:
.Ltmp753:
.Ltmp754:
.Ltmp755:
.Ltmp756:
.Ltmp757:
.Ltmp758:
	.setfp	r11, sp, #24
	add	r11, sp, #24
.Ltmp759:
	.pad	#16
	sub	sp, sp, #16
	ldr	r4, .LCPI59_4
	mov	r9, r0
	ldr	r0, .LCPI59_5
	mov	r5, r3
.LPC59_4:
	add	r4, pc, r4
	str	r2, [r11, #-32]
.LPC59_5:
	add	r0, pc, r0
	str	r1, [r11, #-36]
	ldr	r3, [r4, #28]
	ldrb	r6, [r0, #2476]
	ldr	r0, [r3]
	cmp	r0, #0
	blne	mono_aot_Mono_Android_icall_cold_wrapper_265
	cmp	r6, #0
	beq	.LBB59_17
.LBB59_1:
	mov	r0, sp
	sub	r7, r0, #8
	mov	sp, r7
	mov	r6, #0
	str	r6, [r0, #-8]
.Ltmp730:
	mov	r0, #3
	mov	r1, #8
	bl	p_26_plt__jit_icall___emul_op_imul_ovf_un_llvm
.Ltmp731:
	cmp	r0, #0
	beq	.LBB59_4
	add	r0, r0, #7
	bic	r2, r0, #7
	sub	r6, sp, r2
	mov	sp, r6
	mov	r0, r6
	mov	r1, #0
	bl	memset
.LBB59_4:
	ldr	r0, [r11, #-36]
	cmp	r0, #0
	beq	.LBB59_7
	ldr	r0, [r11, #-36]
	cmp	r0, #0
	beq	.LBB59_22
.Ltmp732:
	bl	Java_Lang_Object_get_Handle
.Ltmp733:
	b	.LBB59_8
.LBB59_7:
	ldr	r0, [r4, #148]
	ldr	r0, [r0]
.LBB59_8:
	mov	r1, #0
	str	r1, [r6, #4]
	str	r0, [r6]
	ldr	r0, [r11, #-32]
	cmp	r0, #0
	beq	.LBB59_11
	ldr	r0, [r11, #-32]
	cmp	r0, #0
	beq	.LBB59_24
.Ltmp736:
	bl	Java_Lang_Object_get_Handle
.Ltmp737:
	b	.LBB59_12
.LBB59_11:
	ldr	r0, [r4, #148]
	ldr	r0, [r0]
.LBB59_12:
	mov	r1, #0
	str	r1, [r6, #12]
	str	r0, [r6, #8]
	ldr	r0, [r4, #308]
	str	r1, [r6, #20]
	uxtb	r1, r5
	str	r1, [r6, #16]
	ldr	r0, [r0]
	cmp	r0, #0
	beq	.LBB59_18
.Ltmp740:
	bl	p_27_plt_Java_Interop_JniPeerMembers_get_InstanceMethods_llvm
.Ltmp741:
	cmp	r0, #0
	beq	.LBB59_20
	ldr	r1, [r4, #328]
.Ltmp742:
	mov	r2, r9
	mov	r3, r6
	bl	p_28_plt_Java_Interop_JniPeerMembers_JniInstanceMethods_InvokeVirtualVoidMethod_string_Java_Interop_IJavaPeerable_Java_Interop_JniArgumentValue__llvm
.Ltmp743:
	mov	r4, #1
	mov	r0, #0
	str	r0, [r11, #-28]
	str	r4, [r7]
	b	.LBB59_26
.LBB59_17:
	movw	r0, #2476
	bl	mono_aot_Mono_Android_init_method
	b	.LBB59_1
.Ltmp760:
.LBB59_18:
	ldr	r0, .LCPI59_3
.Ltmp746:
.LPC59_3:
	add	r1, pc, r0
	mov	r0, #225
	bl	p_1_plt__jit_icall_llvm_throw_corlib_exception_abs_trampoline_llvm
.Ltmp747:
.Ltmp761:
.LBB59_20:
	ldr	r0, .LCPI59_2
.Ltmp744:
.LPC59_2:
	add	r1, pc, r0
	mov	r0, #225
	bl	p_1_plt__jit_icall_llvm_throw_corlib_exception_abs_trampoline_llvm
.Ltmp745:
.Ltmp762:
.LBB59_22:
	ldr	r0, .LCPI59_0
.Ltmp734:
.LPC59_0:
	add	r1, pc, r0
	mov	r0, #225
	bl	p_1_plt__jit_icall_llvm_throw_corlib_exception_abs_trampoline_llvm
.Ltmp735:
.Ltmp763:
.LBB59_24:
	ldr	r0, .LCPI59_1
.Ltmp738:
.LPC59_1:
	add	r1, pc, r0
	mov	r0, #225
	bl	p_1_plt__jit_icall_llvm_throw_corlib_exception_abs_trampoline_llvm
.Ltmp739:
.LBB59_26:
	ldr	r0, [r11, #-36]
	bl	p_32_plt_System_GC_KeepAlive_object_llvm
	ldr	r0, [r11, #-32]
	bl	p_32_plt_System_GC_KeepAlive_object_llvm
	mov	r0, #0
	cmp	r4, #1
	str	r0, [r7]
	bne	.LBB59_30
	ldr	r0, [r11, #-28]
	cmp	r0, #0
	beq	.LBB59_29
.Ltmp749:
	bl	p_15_plt__jit_icall_ves_icall_thread_finish_async_abort_llvm
.Ltmp750:
.LBB59_29:
	sub	sp, r11, #24
	pop	{r4, r5, r6, r7, r9, r10, r11, pc}
.LBB59_30:
	bl	p_17_plt__jit_icall_llvm_resume_unwind_trampoline_llvm
.LBB59_31:
.Ltmp748:
	ldr	r4, [r7]
	b	.LBB59_26
	.p2align	2
.LCPI59_0:
	.long	.Ltmp762-(.LPC59_0+8)
.LCPI59_1:
	.long	.Ltmp763-(.LPC59_1+8)
.LCPI59_2:
	.long	.Ltmp761-(.LPC59_2+8)
.LCPI59_3:
	.long	.Ltmp760-(.LPC59_3+8)
.LCPI59_4:
	.long	mono_aot_Mono_Android_llvm_got-(.LPC59_4+8)
.LCPI59_5:
	.long	mono_inited-(.LPC59_5+8)
.Lfunc_end59:
	.size	Android_Widget_ListView_AddHeaderView_Android_Views_View_Java_Lang_Object_bool, .Lfunc_end59-Android_Widget_ListView_AddHeaderView_Android_Views_View_Java_Lang_Object_bool
.Lexception53:
	.fnend

	.hidden	Android_Widget_ListView__cctor
	.globl	Android_Widget_ListView__cctor
	.p2align	2
	.type	Android_Widget_ListView__cctor,%function
	.code	32
Android_Widget_ListView__cctor:
.Lfunc_begin60:
	.fnstart
	.save	{r4, r5, r6, r7, r11, lr}
	push	{r4, r5, r6, r7, r11, lr}
.Ltmp764:
.Ltmp765:
.Ltmp766:
.Ltmp767:
.Ltmp768:
.Ltmp769:
.Ltmp770:
	ldr	r7, .LCPI60_0
	ldr	r0, .LCPI60_1
.LPC60_0:
	add	r7, pc, r7
.LPC60_1:
	add	r0, pc, r0
	ldr	r1, [r7, #28]
	ldrb	r4, [r0, #2489]
	ldr	r0, [r1]
	cmp	r0, #0
	blne	mono_aot_Mono_Android_icall_cold_wrapper_265
	cmp	r4, #0
	beq	.LBB60_2
.LBB60_1:
	ldr	r0, [r7, #144]
	mov	r1, #40
	ldr	r4, [r7, #332]
	ldr	r5, [r7, #336]
	bl	p_13_plt_wrapper_alloc_object_AllocSmall_intptr_intptr_llvm
	mov	r1, r4
	mov	r2, r5
	mov	r6, r0
	bl	Android_Runtime_XAPeerMembers__ctor_string_System_Type
	ldr	r0, [r7, #308]
	dmb	ish
	str	r6, [r0]
	pop	{r4, r5, r6, r7, r11, pc}
.LBB60_2:
	movw	r0, #2489
	bl	mono_aot_Mono_Android_init_method
	b	.LBB60_1
	.p2align	2
.LCPI60_0:
	.long	mono_aot_Mono_Android_llvm_got-(.LPC60_0+8)
.LCPI60_1:
	.long	mono_inited-(.LPC60_1+8)
.Lfunc_end60:
	.size	Android_Widget_ListView__cctor, .Lfunc_end60-Android_Widget_ListView__cctor
.Lexception54:
	.fnend

	.hidden	Android_Widget_RelativeLayout_get_ThresholdType
	.globl	Android_Widget_RelativeLayout_get_ThresholdType
	.p2align	2
	.type	Android_Widget_RelativeLayout_get_ThresholdType,%function
	.code	32
Android_Widget_RelativeLayout_get_ThresholdType:
.Lfunc_begin61:
	.fnstart
	.save	{r11, lr}
	push	{r11, lr}
.Ltmp771:
.Ltmp772:
.Ltmp773:
	ldr	r0, .LCPI61_1
.LPC61_1:
	add	r0, pc, r0
	ldrb	r0, [r0, #2649]
	cmp	r0, #0
	beq	.LBB61_3
.LBB61_1:
	ldr	r0, .LCPI61_2
.LPC61_2:
	add	r0, pc, r0
	ldr	r0, [r0, #340]
	ldr	r0, [r0]
	cmp	r0, #0
	ldrne	r0, [r0, #28]
	popne	{r11, pc}
.Ltmp774:
.LBB61_2:
	ldr	r0, .LCPI61_0
.LPC61_0:
	add	r1, pc, r0
	mov	r0, #225
	bl	p_1_plt__jit_icall_llvm_throw_corlib_exception_abs_trampoline_llvm
.LBB61_3:
	movw	r0, #2649
	bl	mono_aot_Mono_Android_init_method
	b	.LBB61_1
	.p2align	2
.LCPI61_0:
	.long	.Ltmp774-(.LPC61_0+8)
.LCPI61_1:
	.long	mono_inited-(.LPC61_1+8)
.LCPI61_2:
	.long	mono_aot_Mono_Android_llvm_got-(.LPC61_2+8)
.Lfunc_end61:
	.size	Android_Widget_RelativeLayout_get_ThresholdType, .Lfunc_end61-Android_Widget_RelativeLayout_get_ThresholdType
.Lexception55:
	.fnend

	.hidden	Android_Widget_RelativeLayout__ctor_Android_Content_Context
	.globl	Android_Widget_RelativeLayout__ctor_Android_Content_Context
	.p2align	2
	.type	Android_Widget_RelativeLayout__ctor_Android_Content_Context,%function
	.code	32
Android_Widget_RelativeLayout__ctor_Android_Content_Context:
.Lfunc_begin62:
	.fnstart
	.save	{r4, r5, r6, r7, r9, r10, r11, lr}
	push	{r4, r5, r6, r7, r9, r10, r11, lr}
.Ltmp804:
.Ltmp805:
.Ltmp806:
.Ltmp807:
.Ltmp808:
.Ltmp809:
.Ltmp810:
.Ltmp811:
	.setfp	r11, sp, #24
	add	r11, sp, #24
.Ltmp812:
	.pad	#24
	sub	sp, sp, #24
	ldr	r9, .LCPI62_6
	mov	r4, r0
	ldr	r0, .LCPI62_7
.LPC62_6:
	add	r9, pc, r9
	str	r1, [r11, #-44]
.LPC62_7:
	add	r0, pc, r0
	ldr	r2, [r9, #28]
	ldrb	r5, [r0, #2651]
	ldr	r0, [r2]
	cmp	r0, #0
	blne	mono_aot_Mono_Android_icall_cold_wrapper_265
	cmp	r5, #0
	beq	.LBB62_21
.LBB62_1:
	mov	r0, sp
	sub	r7, r0, #8
	mov	sp, r7
	ldr	r6, [r9, #148]
	mov	r1, #0
	str	r1, [r0, #-8]
	mov	r0, r4
	str	r1, [r11, #-36]
	mov	r2, #0
	str	r1, [r11, #-40]
	ldr	r1, [r6]
	bl	Android_Views_ViewGroup__ctor_intptr_Android_Runtime_JniHandleOwnership
	mov	r0, r4
	bl	Java_Lang_Object_get_Handle
	ldr	r1, [r6]
	bl	p_37_plt_intptr_op_Inequality_intptr_intptr_llvm
	tst	r0, #255
	bne	.LBB62_37
.Ltmp775:
	mov	r0, #1
	mov	r1, #8
	bl	p_26_plt__jit_icall___emul_op_imul_ovf_un_llvm
.Ltmp776:
	cmp	r0, #0
	beq	.LBB62_5
	add	r0, r0, #7
	bic	r2, r0, #7
	sub	r5, sp, r2
	mov	sp, r5
	mov	r0, r5
	mov	r1, #0
	bl	memset
	b	.LBB62_6
.LBB62_5:
	mov	r5, #0
.LBB62_6:
	ldr	r0, [r11, #-44]
	cmp	r0, #0
	beq	.LBB62_9
	ldr	r0, [r11, #-44]
	cmp	r0, #0
	beq	.LBB62_32
.Ltmp777:
	bl	Java_Lang_Object_get_Handle
.Ltmp778:
	b	.LBB62_10
.LBB62_9:
	ldr	r0, [r6]
.LBB62_10:
	ldr	r10, [r9, #340]
	mov	r1, #0
	str	r1, [r5, #4]
	str	r0, [r5]
	ldr	r0, [r10]
	cmp	r0, #0
	beq	.LBB62_22
.Ltmp781:
	bl	p_27_plt_Java_Interop_JniPeerMembers_get_InstanceMethods_llvm
.Ltmp782:
	cmp	r4, #0
	beq	.LBB62_24
	cmp	r0, #0
	beq	.LBB62_26
	ldr	r1, [r4]
	ldr	r6, [r9, #232]
	ldr	r3, [r1, #12]
.Ltmp783:
	sub	sp, sp, #8
	sub	r1, r11, #40
	mov	r2, r6
	str	r5, [sp]
	bl	p_38_plt_Java_Interop_JniPeerMembers_JniInstanceMethods_StartCreateInstance_string_System_Type_Java_Interop_JniArgumentValue__llvm
	add	sp, sp, #8
.Ltmp784:
	ldr	r1, [r11, #-40]
.Ltmp785:
	mov	r0, r4
	mov	r2, #1
	bl	Java_Lang_Object_SetHandle_intptr_Android_Runtime_JniHandleOwnership
.Ltmp786:
	ldr	r0, [r10]
	cmp	r0, #0
	beq	.LBB62_28
.Ltmp787:
	bl	p_27_plt_Java_Interop_JniPeerMembers_get_InstanceMethods_llvm
.Ltmp788:
	cmp	r0, #0
	beq	.LBB62_30
.Ltmp789:
	mov	r1, r6
	mov	r2, r4
	mov	r3, r5
	bl	p_40_plt_Java_Interop_JniPeerMembers_JniInstanceMethods_FinishCreateInstance_string_Java_Interop_IJavaPeerable_Java_Interop_JniArgumentValue__llvm
.Ltmp790:
	mov	r4, #1
	mov	r0, #0
	str	r0, [r11, #-32]
	str	r4, [r7]
	b	.LBB62_34
.LBB62_21:
	movw	r0, #2651
	bl	mono_aot_Mono_Android_init_method
	b	.LBB62_1
.Ltmp813:
.LBB62_22:
	ldr	r0, .LCPI62_5
.Ltmp799:
.LPC62_5:
	add	r1, pc, r0
	mov	r0, #225
	bl	p_1_plt__jit_icall_llvm_throw_corlib_exception_abs_trampoline_llvm
.Ltmp800:
.Ltmp814:
.LBB62_24:
	ldr	r0, .LCPI62_4
.Ltmp797:
.LPC62_4:
	add	r1, pc, r0
	mov	r0, #225
	bl	p_1_plt__jit_icall_llvm_throw_corlib_exception_abs_trampoline_llvm
.Ltmp798:
.Ltmp815:
.LBB62_26:
	ldr	r0, .LCPI62_3
.Ltmp795:
.LPC62_3:
	add	r1, pc, r0
	mov	r0, #225
	bl	p_1_plt__jit_icall_llvm_throw_corlib_exception_abs_trampoline_llvm
.Ltmp796:
.Ltmp816:
.LBB62_28:
	ldr	r0, .LCPI62_2
.Ltmp793:
.LPC62_2:
	add	r1, pc, r0
	mov	r0, #225
	bl	p_1_plt__jit_icall_llvm_throw_corlib_exception_abs_trampoline_llvm
.Ltmp794:
.Ltmp817:
.LBB62_30:
	ldr	r0, .LCPI62_1
.Ltmp791:
.LPC62_1:
	add	r1, pc, r0
	mov	r0, #225
	bl	p_1_plt__jit_icall_llvm_throw_corlib_exception_abs_trampoline_llvm
.Ltmp792:
.Ltmp818:
.LBB62_32:
	ldr	r0, .LCPI62_0
.Ltmp779:
.LPC62_0:
	add	r1, pc, r0
	mov	r0, #225
	bl	p_1_plt__jit_icall_llvm_throw_corlib_exception_abs_trampoline_llvm
.Ltmp780:
.LBB62_34:
	ldr	r0, [r11, #-44]
	bl	p_32_plt_System_GC_KeepAlive_object_llvm
	mov	r0, #0
	cmp	r4, #1
	str	r0, [r7]
	bne	.LBB62_38
	ldr	r0, [r11, #-32]
	cmp	r0, #0
	beq	.LBB62_37
.Ltmp802:
	bl	p_15_plt__jit_icall_ves_icall_thread_finish_async_abort_llvm
.Ltmp803:
.LBB62_37:
	sub	sp, r11, #24
	pop	{r4, r5, r6, r7, r9, r10, r11, pc}
.LBB62_38:
	bl	p_17_plt__jit_icall_llvm_resume_unwind_trampoline_llvm
.LBB62_39:
.Ltmp801:
	ldr	r4, [r7]
	b	.LBB62_34
	.p2align	2
.LCPI62_0:
	.long	.Ltmp818-(.LPC62_0+8)
.LCPI62_1:
	.long	.Ltmp817-(.LPC62_1+8)
.LCPI62_2:
	.long	.Ltmp816-(.LPC62_2+8)
.LCPI62_3:
	.long	.Ltmp815-(.LPC62_3+8)
.LCPI62_4:
	.long	.Ltmp814-(.LPC62_4+8)
.LCPI62_5:
	.long	.Ltmp813-(.LPC62_5+8)
.LCPI62_6:
	.long	mono_aot_Mono_Android_llvm_got-(.LPC62_6+8)
.LCPI62_7:
	.long	mono_inited-(.LPC62_7+8)
.Lfunc_end62:
	.size	Android_Widget_RelativeLayout__ctor_Android_Content_Context, .Lfunc_end62-Android_Widget_RelativeLayout__ctor_Android_Content_Context
.Lexception56:
	.fnend

	.hidden	Android_Widget_RelativeLayout__cctor
	.globl	Android_Widget_RelativeLayout__cctor
	.p2align	2
	.type	Android_Widget_RelativeLayout__cctor,%function
	.code	32
Android_Widget_RelativeLayout__cctor:
.Lfunc_begin63:
	.fnstart
	.save	{r4, r5, r6, r7, r11, lr}
	push	{r4, r5, r6, r7, r11, lr}
.Ltmp819:
.Ltmp820:
.Ltmp821:
.Ltmp822:
.Ltmp823:
.Ltmp824:
.Ltmp825:
	ldr	r7, .LCPI63_0
	ldr	r0, .LCPI63_1
.LPC63_0:
	add	r7, pc, r7
.LPC63_1:
	add	r0, pc, r0
	ldr	r1, [r7, #28]
	ldrb	r4, [r0, #2657]
	ldr	r0, [r1]
	cmp	r0, #0
	blne	mono_aot_Mono_Android_icall_cold_wrapper_265
	cmp	r4, #0
	beq	.LBB63_2
.LBB63_1:
	ldr	r0, [r7, #144]
	mov	r1, #40
	ldr	r4, [r7, #344]
	ldr	r5, [r7, #348]
	bl	p_13_plt_wrapper_alloc_object_AllocSmall_intptr_intptr_llvm
	mov	r1, r4
	mov	r2, r5
	mov	r6, r0
	bl	Android_Runtime_XAPeerMembers__ctor_string_System_Type
	ldr	r0, [r7, #340]
	dmb	ish
	str	r6, [r0]
	pop	{r4, r5, r6, r7, r11, pc}
.LBB63_2:
	movw	r0, #2657
	bl	mono_aot_Mono_Android_init_method
	b	.LBB63_1
	.p2align	2
.LCPI63_0:
	.long	mono_aot_Mono_Android_llvm_got-(.LPC63_0+8)
.LCPI63_1:
	.long	mono_inited-(.LPC63_1+8)
.Lfunc_end63:
	.size	Android_Widget_RelativeLayout__cctor, .Lfunc_end63-Android_Widget_RelativeLayout__cctor
.Lexception57:
	.fnend

	.hidden	Android_Widget_TextView_get_JniPeerMembers
	.globl	Android_Widget_TextView_get_JniPeerMembers
	.p2align	2
	.type	Android_Widget_TextView_get_JniPeerMembers,%function
	.code	32
Android_Widget_TextView_get_JniPeerMembers:
.Lfunc_begin64:
	.fnstart
	ldr	r0, .LCPI64_0
.LPC64_0:
	add	r0, pc, r0
	ldrb	r0, [r0, #2779]
	cmp	r0, #0
	beq	.LBB64_2
.LBB64_1:
	ldr	r0, .LCPI64_1
.LPC64_1:
	add	r0, pc, r0
	ldr	r0, [r0, #352]
	ldr	r0, [r0]
	bx	lr
.LBB64_2:
	.save	{r11, lr}
	push	{r11, lr}
.Ltmp826:
.Ltmp827:
.Ltmp828:
	movw	r0, #2779
	bl	mono_aot_Mono_Android_init_method
	pop	{r11, lr}
	b	.LBB64_1
	.p2align	2
.LCPI64_0:
	.long	mono_inited-(.LPC64_0+8)
.LCPI64_1:
	.long	mono_aot_Mono_Android_llvm_got-(.LPC64_1+8)
.Lfunc_end64:
	.size	Android_Widget_TextView_get_JniPeerMembers, .Lfunc_end64-Android_Widget_TextView_get_JniPeerMembers
.Lexception58:
	.fnend

	.hidden	Android_Widget_TextView_get_ThresholdType
	.globl	Android_Widget_TextView_get_ThresholdType
	.p2align	2
	.type	Android_Widget_TextView_get_ThresholdType,%function
	.code	32
Android_Widget_TextView_get_ThresholdType:
.Lfunc_begin65:
	.fnstart
	.save	{r11, lr}
	push	{r11, lr}
.Ltmp829:
.Ltmp830:
.Ltmp831:
	ldr	r0, .LCPI65_1
.LPC65_1:
	add	r0, pc, r0
	ldrb	r0, [r0, #2781]
	cmp	r0, #0
	beq	.LBB65_3
.LBB65_1:
	ldr	r0, .LCPI65_2
.LPC65_2:
	add	r0, pc, r0
	ldr	r0, [r0, #352]
	ldr	r0, [r0]
	cmp	r0, #0
	ldrne	r0, [r0, #28]
	popne	{r11, pc}
.Ltmp832:
.LBB65_2:
	ldr	r0, .LCPI65_0
.LPC65_0:
	add	r1, pc, r0
	mov	r0, #225
	bl	p_1_plt__jit_icall_llvm_throw_corlib_exception_abs_trampoline_llvm
.LBB65_3:
	movw	r0, #2781
	bl	mono_aot_Mono_Android_init_method
	b	.LBB65_1
	.p2align	2
.LCPI65_0:
	.long	.Ltmp832-(.LPC65_0+8)
.LCPI65_1:
	.long	mono_inited-(.LPC65_1+8)
.LCPI65_2:
	.long	mono_aot_Mono_Android_llvm_got-(.LPC65_2+8)
.Lfunc_end65:
	.size	Android_Widget_TextView_get_ThresholdType, .Lfunc_end65-Android_Widget_TextView_get_ThresholdType
.Lexception59:
	.fnend

	.hidden	Android_Widget_TextView__ctor_intptr_Android_Runtime_JniHandleOwnership
	.globl	Android_Widget_TextView__ctor_intptr_Android_Runtime_JniHandleOwnership
	.p2align	2
	.type	Android_Widget_TextView__ctor_intptr_Android_Runtime_JniHandleOwnership,%function
	.code	32
Android_Widget_TextView__ctor_intptr_Android_Runtime_JniHandleOwnership:
.Lfunc_begin66:
	.fnstart
	.save	{r4, r5, r6, r7, r11, lr}
	push	{r4, r5, r6, r7, r11, lr}
.Ltmp833:
.Ltmp834:
.Ltmp835:
.Ltmp836:
.Ltmp837:
.Ltmp838:
.Ltmp839:
	mov	r6, r0
	ldr	r0, .LCPI66_0
	mov	r5, r1
	ldr	r1, .LCPI66_1
.LPC66_0:
	add	r0, pc, r0
	mov	r4, r2
.LPC66_1:
	add	r1, pc, r1
	ldr	r0, [r0, #28]
	ldrb	r7, [r1, #2782]
	ldr	r0, [r0]
	cmp	r0, #0
	blne	mono_aot_Mono_Android_icall_cold_wrapper_265
	cmp	r7, #0
	beq	.LBB66_2
.LBB66_1:
	mov	r0, r6
	mov	r1, r5
	mov	r2, r4
	bl	Android_Views_View__ctor_intptr_Android_Runtime_JniHandleOwnership
	pop	{r4, r5, r6, r7, r11, pc}
.LBB66_2:
	movw	r0, #2782
	bl	mono_aot_Mono_Android_init_method
	b	.LBB66_1
	.p2align	2
.LCPI66_0:
	.long	mono_aot_Mono_Android_llvm_got-(.LPC66_0+8)
.LCPI66_1:
	.long	mono_inited-(.LPC66_1+8)
.Lfunc_end66:
	.size	Android_Widget_TextView__ctor_intptr_Android_Runtime_JniHandleOwnership, .Lfunc_end66-Android_Widget_TextView__ctor_intptr_Android_Runtime_JniHandleOwnership
.Lexception60:
	.fnend

	.hidden	Android_Widget_TextView__ctor_Android_Content_Context
	.globl	Android_Widget_TextView__ctor_Android_Content_Context
	.p2align	2
	.type	Android_Widget_TextView__ctor_Android_Content_Context,%function
	.code	32
Android_Widget_TextView__ctor_Android_Content_Context:
.Lfunc_begin67:
	.fnstart
	.save	{r4, r5, r6, r7, r9, r10, r11, lr}
	push	{r4, r5, r6, r7, r9, r10, r11, lr}
.Ltmp869:
.Ltmp870:
.Ltmp871:
.Ltmp872:
.Ltmp873:
.Ltmp874:
.Ltmp875:
.Ltmp876:
	.setfp	r11, sp, #24
	add	r11, sp, #24
.Ltmp877:
	.pad	#24
	sub	sp, sp, #24
	ldr	r9, .LCPI67_6
	mov	r4, r0
	ldr	r0, .LCPI67_7
.LPC67_6:
	add	r9, pc, r9
	str	r1, [r11, #-44]
.LPC67_7:
	add	r0, pc, r0
	ldr	r2, [r9, #28]
	ldrb	r5, [r0, #2783]
	ldr	r0, [r2]
	cmp	r0, #0
	blne	mono_aot_Mono_Android_icall_cold_wrapper_265
	cmp	r5, #0
	beq	.LBB67_21
.LBB67_1:
	mov	r0, sp
	sub	r7, r0, #8
	mov	sp, r7
	ldr	r6, [r9, #148]
	mov	r1, #0
	str	r1, [r0, #-8]
	mov	r0, r4
	str	r1, [r11, #-36]
	mov	r2, #0
	str	r1, [r11, #-40]
	ldr	r1, [r6]
	bl	Android_Views_View__ctor_intptr_Android_Runtime_JniHandleOwnership
	mov	r0, r4
	bl	Java_Lang_Object_get_Handle
	ldr	r1, [r6]
	bl	p_37_plt_intptr_op_Inequality_intptr_intptr_llvm
	tst	r0, #255
	bne	.LBB67_37
.Ltmp840:
	mov	r0, #1
	mov	r1, #8
	bl	p_26_plt__jit_icall___emul_op_imul_ovf_un_llvm
.Ltmp841:
	cmp	r0, #0
	beq	.LBB67_5
	add	r0, r0, #7
	bic	r2, r0, #7
	sub	r5, sp, r2
	mov	sp, r5
	mov	r0, r5
	mov	r1, #0
	bl	memset
	b	.LBB67_6
.LBB67_5:
	mov	r5, #0
.LBB67_6:
	ldr	r0, [r11, #-44]
	cmp	r0, #0
	beq	.LBB67_9
	ldr	r0, [r11, #-44]
	cmp	r0, #0
	beq	.LBB67_32
.Ltmp842:
	bl	Java_Lang_Object_get_Handle
.Ltmp843:
	b	.LBB67_10
.LBB67_9:
	ldr	r0, [r6]
.LBB67_10:
	ldr	r10, [r9, #352]
	mov	r1, #0
	str	r1, [r5, #4]
	str	r0, [r5]
	ldr	r0, [r10]
	cmp	r0, #0
	beq	.LBB67_22
.Ltmp846:
	bl	p_27_plt_Java_Interop_JniPeerMembers_get_InstanceMethods_llvm
.Ltmp847:
	cmp	r4, #0
	beq	.LBB67_24
	cmp	r0, #0
	beq	.LBB67_26
	ldr	r1, [r4]
	ldr	r6, [r9, #232]
	ldr	r3, [r1, #12]
.Ltmp848:
	sub	sp, sp, #8
	sub	r1, r11, #40
	mov	r2, r6
	str	r5, [sp]
	bl	p_38_plt_Java_Interop_JniPeerMembers_JniInstanceMethods_StartCreateInstance_string_System_Type_Java_Interop_JniArgumentValue__llvm
	add	sp, sp, #8
.Ltmp849:
	ldr	r1, [r11, #-40]
.Ltmp850:
	mov	r0, r4
	mov	r2, #1
	bl	Java_Lang_Object_SetHandle_intptr_Android_Runtime_JniHandleOwnership
.Ltmp851:
	ldr	r0, [r10]
	cmp	r0, #0
	beq	.LBB67_28
.Ltmp852:
	bl	p_27_plt_Java_Interop_JniPeerMembers_get_InstanceMethods_llvm
.Ltmp853:
	cmp	r0, #0
	beq	.LBB67_30
.Ltmp854:
	mov	r1, r6
	mov	r2, r4
	mov	r3, r5
	bl	p_40_plt_Java_Interop_JniPeerMembers_JniInstanceMethods_FinishCreateInstance_string_Java_Interop_IJavaPeerable_Java_Interop_JniArgumentValue__llvm
.Ltmp855:
	mov	r4, #1
	mov	r0, #0
	str	r0, [r11, #-32]
	str	r4, [r7]
	b	.LBB67_34
.LBB67_21:
	movw	r0, #2783
	bl	mono_aot_Mono_Android_init_method
	b	.LBB67_1
.Ltmp878:
.LBB67_22:
	ldr	r0, .LCPI67_5
.Ltmp864:
.LPC67_5:
	add	r1, pc, r0
	mov	r0, #225
	bl	p_1_plt__jit_icall_llvm_throw_corlib_exception_abs_trampoline_llvm
.Ltmp865:
.Ltmp879:
.LBB67_24:
	ldr	r0, .LCPI67_4
.Ltmp862:
.LPC67_4:
	add	r1, pc, r0
	mov	r0, #225
	bl	p_1_plt__jit_icall_llvm_throw_corlib_exception_abs_trampoline_llvm
.Ltmp863:
.Ltmp880:
.LBB67_26:
	ldr	r0, .LCPI67_3
.Ltmp860:
.LPC67_3:
	add	r1, pc, r0
	mov	r0, #225
	bl	p_1_plt__jit_icall_llvm_throw_corlib_exception_abs_trampoline_llvm
.Ltmp861:
.Ltmp881:
.LBB67_28:
	ldr	r0, .LCPI67_2
.Ltmp858:
.LPC67_2:
	add	r1, pc, r0
	mov	r0, #225
	bl	p_1_plt__jit_icall_llvm_throw_corlib_exception_abs_trampoline_llvm
.Ltmp859:
.Ltmp882:
.LBB67_30:
	ldr	r0, .LCPI67_1
.Ltmp856:
.LPC67_1:
	add	r1, pc, r0
	mov	r0, #225
	bl	p_1_plt__jit_icall_llvm_throw_corlib_exception_abs_trampoline_llvm
.Ltmp857:
.Ltmp883:
.LBB67_32:
	ldr	r0, .LCPI67_0
.Ltmp844:
.LPC67_0:
	add	r1, pc, r0
	mov	r0, #225
	bl	p_1_plt__jit_icall_llvm_throw_corlib_exception_abs_trampoline_llvm
.Ltmp845:
.LBB67_34:
	ldr	r0, [r11, #-44]
	bl	p_32_plt_System_GC_KeepAlive_object_llvm
	mov	r0, #0
	cmp	r4, #1
	str	r0, [r7]
	bne	.LBB67_38
	ldr	r0, [r11, #-32]
	cmp	r0, #0
	beq	.LBB67_37
.Ltmp867:
	bl	p_15_plt__jit_icall_ves_icall_thread_finish_async_abort_llvm
.Ltmp868:
.LBB67_37:
	sub	sp, r11, #24
	pop	{r4, r5, r6, r7, r9, r10, r11, pc}
.LBB67_38:
	bl	p_17_plt__jit_icall_llvm_resume_unwind_trampoline_llvm
.LBB67_39:
.Ltmp866:
	ldr	r4, [r7]
	b	.LBB67_34
	.p2align	2
.LCPI67_0:
	.long	.Ltmp883-(.LPC67_0+8)
.LCPI67_1:
	.long	.Ltmp882-(.LPC67_1+8)
.LCPI67_2:
	.long	.Ltmp881-(.LPC67_2+8)
.LCPI67_3:
	.long	.Ltmp880-(.LPC67_3+8)
.LCPI67_4:
	.long	.Ltmp879-(.LPC67_4+8)
.LCPI67_5:
	.long	.Ltmp878-(.LPC67_5+8)
.LCPI67_6:
	.long	mono_aot_Mono_Android_llvm_got-(.LPC67_6+8)
.LCPI67_7:
	.long	mono_inited-(.LPC67_7+8)
.Lfunc_end67:
	.size	Android_Widget_TextView__ctor_Android_Content_Context, .Lfunc_end67-Android_Widget_TextView__ctor_Android_Content_Context
.Lexception61:
	.fnend

	.hidden	Android_Widget_TextView_set_Ellipsize_Android_Text_TextUtils_TruncateAt
	.globl	Android_Widget_TextView_set_Ellipsize_Android_Text_TextUtils_TruncateAt
	.p2align	2
	.type	Android_Widget_TextView_set_Ellipsize_Android_Text_TextUtils_TruncateAt,%function
	.code	32
Android_Widget_TextView_set_Ellipsize_Android_Text_TextUtils_TruncateAt:
.Lfunc_begin68:
	.fnstart
	.save	{r4, r5, r6, r7, r9, r10, r11, lr}
	push	{r4, r5, r6, r7, r9, r10, r11, lr}
.Ltmp901:
.Ltmp902:
.Ltmp903:
.Ltmp904:
.Ltmp905:
.Ltmp906:
.Ltmp907:
.Ltmp908:
	.setfp	r11, sp, #24
	add	r11, sp, #24
.Ltmp909:
	.pad	#8
	sub	sp, sp, #8
	ldr	r7, .LCPI68_3
	mov	r4, r0
	ldr	r0, .LCPI68_4
.LPC68_3:
	add	r7, pc, r7
	str	r1, [r11, #-32]
.LPC68_4:
	add	r0, pc, r0
	ldr	r2, [r7, #28]
	ldrb	r5, [r0, #2808]
	ldr	r0, [r2]
	cmp	r0, #0
	blne	mono_aot_Mono_Android_icall_cold_wrapper_265
	cmp	r5, #0
	beq	.LBB68_13
.LBB68_1:
	mov	r0, sp
	sub	r6, r0, #8
	mov	sp, r6
	mov	r5, #0
	str	r5, [r0, #-8]
.Ltmp884:
	mov	r0, #1
	mov	r1, #8
	bl	p_26_plt__jit_icall___emul_op_imul_ovf_un_llvm
.Ltmp885:
	cmp	r0, #0
	beq	.LBB68_4
	add	r0, r0, #7
	bic	r2, r0, #7
	sub	r5, sp, r2
	mov	sp, r5
	mov	r0, r5
	mov	r1, #0
	bl	memset
.LBB68_4:
	ldr	r0, [r11, #-32]
	cmp	r0, #0
	beq	.LBB68_7
	ldr	r0, [r11, #-32]
	cmp	r0, #0
	beq	.LBB68_18
.Ltmp886:
	bl	Java_Lang_Object_get_Handle
.Ltmp887:
	b	.LBB68_8
.LBB68_7:
	ldr	r0, [r7, #148]
	ldr	r0, [r0]
.LBB68_8:
	ldr	r2, [r7, #352]
	mov	r1, #0
	str	r1, [r5, #4]
	str	r0, [r5]
	ldr	r0, [r2]
	cmp	r0, #0
	beq	.LBB68_14
.Ltmp890:
	bl	p_27_plt_Java_Interop_JniPeerMembers_get_InstanceMethods_llvm
.Ltmp891:
	cmp	r0, #0
	beq	.LBB68_16
	ldr	r1, [r7, #356]
.Ltmp892:
	mov	r2, r4
	mov	r3, r5
	bl	p_28_plt_Java_Interop_JniPeerMembers_JniInstanceMethods_InvokeVirtualVoidMethod_string_Java_Interop_IJavaPeerable_Java_Interop_JniArgumentValue__llvm
.Ltmp893:
	mov	r4, #1
	mov	r0, #0
	str	r0, [r11, #-28]
	str	r4, [r6]
	b	.LBB68_20
.LBB68_13:
	movw	r0, #2808
	bl	mono_aot_Mono_Android_init_method
	b	.LBB68_1
.Ltmp910:
.LBB68_14:
	ldr	r0, .LCPI68_2
.Ltmp896:
.LPC68_2:
	add	r1, pc, r0
	mov	r0, #225
	bl	p_1_plt__jit_icall_llvm_throw_corlib_exception_abs_trampoline_llvm
.Ltmp897:
.Ltmp911:
.LBB68_16:
	ldr	r0, .LCPI68_1
.Ltmp894:
.LPC68_1:
	add	r1, pc, r0
	mov	r0, #225
	bl	p_1_plt__jit_icall_llvm_throw_corlib_exception_abs_trampoline_llvm
.Ltmp895:
.Ltmp912:
.LBB68_18:
	ldr	r0, .LCPI68_0
.Ltmp888:
.LPC68_0:
	add	r1, pc, r0
	mov	r0, #225
	bl	p_1_plt__jit_icall_llvm_throw_corlib_exception_abs_trampoline_llvm
.Ltmp889:
.LBB68_20:
	ldr	r0, [r11, #-32]
	bl	p_32_plt_System_GC_KeepAlive_object_llvm
	mov	r0, #0
	cmp	r4, #1
	str	r0, [r6]
	bne	.LBB68_24
	ldr	r0, [r11, #-28]
	cmp	r0, #0
	beq	.LBB68_23
.Ltmp899:
	bl	p_15_plt__jit_icall_ves_icall_thread_finish_async_abort_llvm
.Ltmp900:
.LBB68_23:
	sub	sp, r11, #24
	pop	{r4, r5, r6, r7, r9, r10, r11, pc}
.LBB68_24:
	bl	p_17_plt__jit_icall_llvm_resume_unwind_trampoline_llvm
.LBB68_25:
.Ltmp898:
	ldr	r4, [r6]
	b	.LBB68_20
	.p2align	2
.LCPI68_0:
	.long	.Ltmp912-(.LPC68_0+8)
.LCPI68_1:
	.long	.Ltmp911-(.LPC68_1+8)
.LCPI68_2:
	.long	.Ltmp910-(.LPC68_2+8)
.LCPI68_3:
	.long	mono_aot_Mono_Android_llvm_got-(.LPC68_3+8)
.LCPI68_4:
	.long	mono_inited-(.LPC68_4+8)
.Lfunc_end68:
	.size	Android_Widget_TextView_set_Ellipsize_Android_Text_TextUtils_TruncateAt, .Lfunc_end68-Android_Widget_TextView_set_Ellipsize_Android_Text_TextUtils_TruncateAt
.Lexception62:
	.fnend

	.hidden	Android_Widget_TextView_set_Gravity_Android_Views_GravityFlags
	.globl	Android_Widget_TextView_set_Gravity_Android_Views_GravityFlags
	.p2align	2
	.type	Android_Widget_TextView_set_Gravity_Android_Views_GravityFlags,%function
	.code	32
Android_Widget_TextView_set_Gravity_Android_Views_GravityFlags:
.Lfunc_begin69:
	.fnstart
	.save	{r4, r5, r6, r7, r9, r10, r11, lr}
	push	{r4, r5, r6, r7, r9, r10, r11, lr}
.Ltmp913:
.Ltmp914:
.Ltmp915:
.Ltmp916:
.Ltmp917:
.Ltmp918:
.Ltmp919:
.Ltmp920:
	.setfp	r11, sp, #24
	add	r11, sp, #24
.Ltmp921:
	ldr	r7, .LCPI69_2
	mov	r9, r0
	ldr	r0, .LCPI69_3
	mov	r5, r1
.LPC69_2:
	add	r7, pc, r7
.LPC69_3:
	add	r0, pc, r0
	ldr	r1, [r7, #28]
	ldrb	r4, [r0, #2811]
	ldr	r0, [r1]
	cmp	r0, #0
	blne	mono_aot_Mono_Android_icall_cold_wrapper_265
	cmp	r4, #0
	beq	.LBB69_6
.LBB69_1:
	mov	r0, #1
	mov	r1, #8
	bl	p_26_plt__jit_icall___emul_op_imul_ovf_un_llvm
	mov	r4, #0
	cmp	r0, #0
	mov	r6, #0
	beq	.LBB69_3
	add	r0, r0, #7
	bic	r2, r0, #7
	sub	r6, sp, r2
	mov	sp, r6
	mov	r0, r6
	mov	r1, #0
	bl	memset
.LBB69_3:
	ldr	r0, [r7, #352]
	str	r4, [r6, #4]
	str	r5, [r6]
	ldr	r0, [r0]
	cmp	r0, #0
	beq	.LBB69_7
	bl	p_27_plt_Java_Interop_JniPeerMembers_get_InstanceMethods_llvm
	cmp	r0, #0
	beq	.LBB69_8
	ldr	r1, [r7, #360]
	mov	r2, r9
	mov	r3, r6
	bl	p_28_plt_Java_Interop_JniPeerMembers_JniInstanceMethods_InvokeVirtualVoidMethod_string_Java_Interop_IJavaPeerable_Java_Interop_JniArgumentValue__llvm
	sub	sp, r11, #24
	pop	{r4, r5, r6, r7, r9, r10, r11, pc}
.LBB69_6:
	movw	r0, #2811
	bl	mono_aot_Mono_Android_init_method
	b	.LBB69_1
.Ltmp922:
.LBB69_7:
	ldr	r0, .LCPI69_1
.LPC69_1:
	add	r1, pc, r0
	mov	r0, #225
	bl	p_1_plt__jit_icall_llvm_throw_corlib_exception_abs_trampoline_llvm
.Ltmp923:
.LBB69_8:
	ldr	r0, .LCPI69_0
.LPC69_0:
	add	r1, pc, r0
	mov	r0, #225
	bl	p_1_plt__jit_icall_llvm_throw_corlib_exception_abs_trampoline_llvm
	.p2align	2
.LCPI69_0:
	.long	.Ltmp923-(.LPC69_0+8)
.LCPI69_1:
	.long	.Ltmp922-(.LPC69_1+8)
.LCPI69_2:
	.long	mono_aot_Mono_Android_llvm_got-(.LPC69_2+8)
.LCPI69_3:
	.long	mono_inited-(.LPC69_3+8)
.Lfunc_end69:
	.size	Android_Widget_TextView_set_Gravity_Android_Views_GravityFlags, .Lfunc_end69-Android_Widget_TextView_set_Gravity_Android_Views_GravityFlags
.Lexception63:
	.fnend

	.hidden	Android_Widget_TextView_get_HintFormatted
	.globl	Android_Widget_TextView_get_HintFormatted
	.p2align	2
	.type	Android_Widget_TextView_get_HintFormatted,%function
	.code	32
Android_Widget_TextView_get_HintFormatted:
.Lfunc_begin70:
	.fnstart
	.save	{r4, r5, r6, r8, r11, lr}
	push	{r4, r5, r6, r8, r11, lr}
.Ltmp924:
.Ltmp925:
.Ltmp926:
.Ltmp927:
.Ltmp928:
.Ltmp929:
.Ltmp930:
	.pad	#16
	sub	sp, sp, #16
.Ltmp931:
	ldr	r5, .LCPI70_2
	mov	r4, r0
	ldr	r0, .LCPI70_3
.LPC70_2:
	add	r5, pc, r5
.LPC70_3:
	add	r0, pc, r0
	ldr	r1, [r5, #28]
	ldrb	r6, [r0, #2812]
	ldr	r0, [r1]
	cmp	r0, #0
	blne	mono_aot_Mono_Android_icall_cold_wrapper_265
	cmp	r6, #0
	beq	.LBB70_4
.LBB70_1:
	ldr	r0, [r5, #352]
	mov	r1, #0
	str	r1, [sp, #12]
	str	r1, [sp, #8]
	ldr	r0, [r0]
	cmp	r0, #0
	beq	.LBB70_5
	bl	p_27_plt_Java_Interop_JniPeerMembers_get_InstanceMethods_llvm
	cmp	r0, #0
	beq	.LBB70_6
	mov	r1, #0
	ldr	r2, [r5, #364]
	str	r1, [sp]
	add	r1, sp, #8
	mov	r3, r4
	bl	p_47_plt_Java_Interop_JniPeerMembers_JniInstanceMethods_InvokeVirtualObjectMethod_string_Java_Interop_IJavaPeerable_Java_Interop_JniArgumentValue__llvm
	ldr	r1, [r5, #368]
	str	r1, [sp, #4]
	mov	r1, #1
	ldr	r0, [sp, #8]
	ldr	r8, [sp, #4]
	bl	p_48_plt_Java_Lang_Object_GetObject_Java_Lang_ICharSequence_intptr_Android_Runtime_JniHandleOwnership_llvm
	add	sp, sp, #16
	pop	{r4, r5, r6, r8, r11, pc}
.LBB70_4:
	movw	r0, #2812
	bl	mono_aot_Mono_Android_init_method
	b	.LBB70_1
.Ltmp932:
.LBB70_5:
	ldr	r0, .LCPI70_1
.LPC70_1:
	add	r1, pc, r0
	mov	r0, #225
	bl	p_1_plt__jit_icall_llvm_throw_corlib_exception_abs_trampoline_llvm
.Ltmp933:
.LBB70_6:
	ldr	r0, .LCPI70_0
.LPC70_0:
	add	r1, pc, r0
	mov	r0, #225
	bl	p_1_plt__jit_icall_llvm_throw_corlib_exception_abs_trampoline_llvm
	.p2align	2
.LCPI70_0:
	.long	.Ltmp933-(.LPC70_0+8)
.LCPI70_1:
	.long	.Ltmp932-(.LPC70_1+8)
.LCPI70_2:
	.long	mono_aot_Mono_Android_llvm_got-(.LPC70_2+8)
.LCPI70_3:
	.long	mono_inited-(.LPC70_3+8)
.Lfunc_end70:
	.size	Android_Widget_TextView_get_HintFormatted, .Lfunc_end70-Android_Widget_TextView_get_HintFormatted
.Lexception64:
	.fnend

	.hidden	Android_Widget_TextView_set_HintFormatted_Java_Lang_ICharSequence
	.globl	Android_Widget_TextView_set_HintFormatted_Java_Lang_ICharSequence
	.p2align	2
	.type	Android_Widget_TextView_set_HintFormatted_Java_Lang_ICharSequence,%function
	.code	32
Android_Widget_TextView_set_HintFormatted_Java_Lang_ICharSequence:
.Lfunc_begin71:
	.fnstart
	.save	{r4, r5, r6, r7, r9, r10, r11, lr}
	push	{r4, r5, r6, r7, r9, r10, r11, lr}
.Ltmp947:
.Ltmp948:
.Ltmp949:
.Ltmp950:
.Ltmp951:
.Ltmp952:
.Ltmp953:
.Ltmp954:
	.setfp	r11, sp, #24
	add	r11, sp, #24
.Ltmp955:
	.pad	#16
	sub	sp, sp, #16
	ldr	r7, .LCPI71_2
	mov	r4, r0
	ldr	r0, .LCPI71_3
.LPC71_2:
	add	r7, pc, r7
	str	r1, [r11, #-36]
.LPC71_3:
	add	r0, pc, r0
	ldr	r2, [r7, #28]
	ldrb	r5, [r0, #2813]
	ldr	r0, [r2]
	cmp	r0, #0
	blne	mono_aot_Mono_Android_icall_cold_wrapper_265
	cmp	r5, #0
	beq	.LBB71_9
.LBB71_1:
	mov	r0, sp
	sub	r6, r0, #8
	mov	sp, r6
	mov	r5, #0
	str	r5, [r0, #-8]
	ldr	r0, [r11, #-36]
	bl	Android_Runtime_CharSequence_ToLocalJniHandle_Java_Lang_ICharSequence
	str	r0, [r11, #-32]
.Ltmp934:
	mov	r0, #1
	mov	r1, #8
	bl	p_26_plt__jit_icall___emul_op_imul_ovf_un_llvm
.Ltmp935:
	cmp	r0, #0
	beq	.LBB71_4
	add	r0, r0, #7
	bic	r2, r0, #7
	sub	r5, sp, r2
	mov	sp, r5
	mov	r0, r5
	mov	r1, #0
	bl	memset
.LBB71_4:
	ldr	r2, [r7, #352]
	mov	r1, #0
	ldr	r0, [r11, #-32]
	str	r1, [r5, #4]
	str	r0, [r5]
	ldr	r0, [r2]
	cmp	r0, #0
	beq	.LBB71_10
.Ltmp936:
	bl	p_27_plt_Java_Interop_JniPeerMembers_get_InstanceMethods_llvm
.Ltmp937:
	cmp	r0, #0
	beq	.LBB71_12
	ldr	r1, [r7, #372]
.Ltmp938:
	mov	r2, r4
	mov	r3, r5
	bl	p_50_plt_Java_Interop_JniPeerMembers_JniInstanceMethods_InvokeNonvirtualVoidMethod_string_Java_Interop_IJavaPeerable_Java_Interop_JniArgumentValue__llvm
.Ltmp939:
	mov	r4, #1
	mov	r0, #0
	str	r0, [r11, #-28]
	str	r4, [r6]
	b	.LBB71_14
.LBB71_9:
	movw	r0, #2813
	bl	mono_aot_Mono_Android_init_method
	b	.LBB71_1
.Ltmp956:
.LBB71_10:
	ldr	r0, .LCPI71_1
.Ltmp942:
.LPC71_1:
	add	r1, pc, r0
	mov	r0, #225
	bl	p_1_plt__jit_icall_llvm_throw_corlib_exception_abs_trampoline_llvm
.Ltmp943:
.Ltmp957:
.LBB71_12:
	ldr	r0, .LCPI71_0
.Ltmp940:
.LPC71_0:
	add	r1, pc, r0
	mov	r0, #225
	bl	p_1_plt__jit_icall_llvm_throw_corlib_exception_abs_trampoline_llvm
.Ltmp941:
.LBB71_14:
	ldr	r0, [r11, #-32]
	bl	Android_Runtime_JNIEnv_DeleteLocalRef_intptr
	ldr	r0, [r11, #-36]
	bl	p_32_plt_System_GC_KeepAlive_object_llvm
	mov	r0, #0
	cmp	r4, #1
	str	r0, [r6]
	bne	.LBB71_18
	ldr	r0, [r11, #-28]
	cmp	r0, #0
	beq	.LBB71_17
.Ltmp945:
	bl	p_15_plt__jit_icall_ves_icall_thread_finish_async_abort_llvm
.Ltmp946:
.LBB71_17:
	sub	sp, r11, #24
	pop	{r4, r5, r6, r7, r9, r10, r11, pc}
.LBB71_18:
	bl	p_17_plt__jit_icall_llvm_resume_unwind_trampoline_llvm
.LBB71_19:
.Ltmp944:
	ldr	r4, [r6]
	b	.LBB71_14
	.p2align	2
.LCPI71_0:
	.long	.Ltmp957-(.LPC71_0+8)
.LCPI71_1:
	.long	.Ltmp956-(.LPC71_1+8)
.LCPI71_2:
	.long	mono_aot_Mono_Android_llvm_got-(.LPC71_2+8)
.LCPI71_3:
	.long	mono_inited-(.LPC71_3+8)
.Lfunc_end71:
	.size	Android_Widget_TextView_set_HintFormatted_Java_Lang_ICharSequence, .Lfunc_end71-Android_Widget_TextView_set_HintFormatted_Java_Lang_ICharSequence
.Lexception65:
	.fnend

	.hidden	Android_Widget_TextView_get_Hint
	.globl	Android_Widget_TextView_get_Hint
	.p2align	2
	.type	Android_Widget_TextView_get_Hint,%function
	.code	32
Android_Widget_TextView_get_Hint:
.Lfunc_begin72:
	.fnstart
	.save	{r4, r5, r6, r8, r11, lr}
	push	{r4, r5, r6, r8, r11, lr}
.Ltmp958:
.Ltmp959:
.Ltmp960:
.Ltmp961:
.Ltmp962:
.Ltmp963:
.Ltmp964:
	.pad	#8
	sub	sp, sp, #8
.Ltmp965:
	ldr	r5, .LCPI72_1
	mov	r4, r0
	ldr	r0, .LCPI72_2
.LPC72_1:
	add	r5, pc, r5
.LPC72_2:
	add	r0, pc, r0
	ldr	r1, [r5, #28]
	ldrb	r6, [r0, #2814]
	ldr	r0, [r1]
	cmp	r0, #0
	blne	mono_aot_Mono_Android_icall_cold_wrapper_265
	cmp	r6, #0
	beq	.LBB72_5
.LBB72_1:
	mov	r0, r4
	bl	Android_Widget_TextView_get_HintFormatted
	cmp	r0, #0
	beq	.LBB72_4
	mov	r0, r4
	bl	Android_Widget_TextView_get_HintFormatted
	cmp	r0, #0
	beq	.LBB72_6
	ldr	r1, [r0]
	ldr	r2, [r5, #376]
	ldr	r1, [r1, #-60]
	str	r2, [sp, #4]
	ldr	r8, [sp, #4]
	blx	r1
	add	sp, sp, #8
	pop	{r4, r5, r6, r8, r11, pc}
.LBB72_4:
	mov	r0, #0
	add	sp, sp, #8
	pop	{r4, r5, r6, r8, r11, pc}
.LBB72_5:
	movw	r0, #2814
	bl	mono_aot_Mono_Android_init_method
	b	.LBB72_1
.Ltmp966:
.LBB72_6:
	ldr	r0, .LCPI72_0
.LPC72_0:
	add	r1, pc, r0
	mov	r0, #225
	bl	p_1_plt__jit_icall_llvm_throw_corlib_exception_abs_trampoline_llvm
	.p2align	2
.LCPI72_0:
	.long	.Ltmp966-(.LPC72_0+8)
.LCPI72_1:
	.long	mono_aot_Mono_Android_llvm_got-(.LPC72_1+8)
.LCPI72_2:
	.long	mono_inited-(.LPC72_2+8)
.Lfunc_end72:
	.size	Android_Widget_TextView_get_Hint, .Lfunc_end72-Android_Widget_TextView_get_Hint
.Lexception66:
	.fnend

	.hidden	Android_Widget_TextView_set_Hint_string
	.globl	Android_Widget_TextView_set_Hint_string
	.p2align	2
	.type	Android_Widget_TextView_set_Hint_string,%function
	.code	32
Android_Widget_TextView_set_Hint_string:
.Lfunc_begin73:
	.fnstart
	.save	{r4, r5, r6, r7, r11, lr}
	push	{r4, r5, r6, r7, r11, lr}
.Ltmp967:
.Ltmp968:
.Ltmp969:
.Ltmp970:
.Ltmp971:
.Ltmp972:
.Ltmp973:
	ldr	r6, .LCPI73_0
	mov	r4, r0
	ldr	r0, .LCPI73_1
	mov	r5, r1
.LPC73_0:
	add	r6, pc, r6
.LPC73_1:
	add	r0, pc, r0
	ldr	r1, [r6, #28]
	ldrb	r7, [r0, #2815]
	ldr	r0, [r1]
	cmp	r0, #0
	blne	mono_aot_Mono_Android_icall_cold_wrapper_265
	cmp	r7, #0
	beq	.LBB73_3
	cmp	r5, #0
	beq	.LBB73_4
.LBB73_2:
	ldr	r0, [r6, #380]
	bl	p_55_plt__jit_icall_ves_icall_object_new_specific_llvm
	mov	r1, r5
	mov	r6, r0
	bl	Java_Lang_String__ctor_string
	mov	r0, r4
	mov	r1, r6
	bl	Android_Widget_TextView_set_HintFormatted_Java_Lang_ICharSequence
	cmp	r6, #0
	movne	r0, r6
	blne	Java_Lang_Object_Dispose
	pop	{r4, r5, r6, r7, r11, pc}
.LBB73_3:
	movw	r0, #2815
	bl	mono_aot_Mono_Android_init_method
	cmp	r5, #0
	bne	.LBB73_2
.LBB73_4:
	mov	r0, r4
	mov	r1, #0
	bl	Android_Widget_TextView_set_HintFormatted_Java_Lang_ICharSequence
	pop	{r4, r5, r6, r7, r11, pc}
	.p2align	2
.LCPI73_0:
	.long	mono_aot_Mono_Android_llvm_got-(.LPC73_0+8)
.LCPI73_1:
	.long	mono_inited-(.LPC73_1+8)
.Lfunc_end73:
	.size	Android_Widget_TextView_set_Hint_string, .Lfunc_end73-Android_Widget_TextView_set_Hint_string
.Lexception67:
	.fnend

	.hidden	Android_Widget_TextView_get_ShadowColor
	.globl	Android_Widget_TextView_get_ShadowColor
	.p2align	2
	.type	Android_Widget_TextView_get_ShadowColor,%function
	.code	32
Android_Widget_TextView_get_ShadowColor:
.Lfunc_begin74:
	.fnstart
	.save	{r4, r5, r6, r7, r11, lr}
	push	{r4, r5, r6, r7, r11, lr}
.Ltmp974:
.Ltmp975:
.Ltmp976:
.Ltmp977:
.Ltmp978:
.Ltmp979:
.Ltmp980:
	ldr	r6, .LCPI74_2
	mov	r5, r0
	ldr	r0, .LCPI74_3
	mov	r4, r1
.LPC74_2:
	add	r6, pc, r6
.LPC74_3:
	add	r0, pc, r0
	ldr	r1, [r6, #28]
	ldrb	r7, [r0, #2857]
	ldr	r0, [r1]
	cmp	r0, #0
	blne	mono_aot_Mono_Android_icall_cold_wrapper_265
	cmp	r7, #0
	beq	.LBB74_4
.LBB74_1:
	ldr	r0, [r6, #352]
	ldr	r0, [r0]
	cmp	r0, #0
	beq	.LBB74_5
	bl	p_27_plt_Java_Interop_JniPeerMembers_get_InstanceMethods_llvm
	cmp	r0, #0
	beq	.LBB74_6
	ldr	r1, [r6, #384]
	mov	r2, r5
	mov	r3, #0
	bl	p_57_plt_Java_Interop_JniPeerMembers_JniInstanceMethods_InvokeVirtualInt32Method_string_Java_Interop_IJavaPeerable_Java_Interop_JniArgumentValue__llvm
	str	r0, [r4]
	pop	{r4, r5, r6, r7, r11, pc}
.LBB74_4:
	movw	r0, #2857
	bl	mono_aot_Mono_Android_init_method
	b	.LBB74_1
.Ltmp981:
.LBB74_5:
	ldr	r0, .LCPI74_1
.LPC74_1:
	add	r1, pc, r0
	mov	r0, #225
	bl	p_1_plt__jit_icall_llvm_throw_corlib_exception_abs_trampoline_llvm
.Ltmp982:
.LBB74_6:
	ldr	r0, .LCPI74_0
.LPC74_0:
	add	r1, pc, r0
	mov	r0, #225
	bl	p_1_plt__jit_icall_llvm_throw_corlib_exception_abs_trampoline_llvm
	.p2align	2
.LCPI74_0:
	.long	.Ltmp982-(.LPC74_0+8)
.LCPI74_1:
	.long	.Ltmp981-(.LPC74_1+8)
.LCPI74_2:
	.long	mono_aot_Mono_Android_llvm_got-(.LPC74_2+8)
.LCPI74_3:
	.long	mono_inited-(.LPC74_3+8)
.Lfunc_end74:
	.size	Android_Widget_TextView_get_ShadowColor, .Lfunc_end74-Android_Widget_TextView_get_ShadowColor
.Lexception68:
	.fnend

	.hidden	Android_Widget_TextView_get_ShadowDx
	.globl	Android_Widget_TextView_get_ShadowDx
	.p2align	2
	.type	Android_Widget_TextView_get_ShadowDx,%function
	.code	32
Android_Widget_TextView_get_ShadowDx:
.Lfunc_begin75:
	.fnstart
	.save	{r4, r5, r6, lr}
	push	{r4, r5, r6, lr}
.Ltmp983:
.Ltmp984:
.Ltmp985:
.Ltmp986:
.Ltmp987:
	ldr	r5, .LCPI75_2
	mov	r4, r0
	ldr	r0, .LCPI75_3
.LPC75_2:
	add	r5, pc, r5
.LPC75_3:
	add	r0, pc, r0
	ldr	r1, [r5, #28]
	ldrb	r6, [r0, #2860]
	ldr	r0, [r1]
	cmp	r0, #0
	blne	mono_aot_Mono_Android_icall_cold_wrapper_265
	cmp	r6, #0
	beq	.LBB75_4
.LBB75_1:
	ldr	r0, [r5, #352]
	ldr	r0, [r0]
	cmp	r0, #0
	beq	.LBB75_5
	bl	p_27_plt_Java_Interop_JniPeerMembers_get_InstanceMethods_llvm
	cmp	r0, #0
	beq	.LBB75_6
	ldr	r1, [r5, #388]
	mov	r2, r4
	mov	r3, #0
	bl	p_58_plt_Java_Interop_JniPeerMembers_JniInstanceMethods_InvokeVirtualSingleMethod_string_Java_Interop_IJavaPeerable_Java_Interop_JniArgumentValue__llvm
	pop	{r4, r5, r6, pc}
.LBB75_4:
	movw	r0, #2860
	bl	mono_aot_Mono_Android_init_method
	b	.LBB75_1
.Ltmp988:
.LBB75_5:
	ldr	r0, .LCPI75_1
.LPC75_1:
	add	r1, pc, r0
	mov	r0, #225
	bl	p_1_plt__jit_icall_llvm_throw_corlib_exception_abs_trampoline_llvm
.Ltmp989:
.LBB75_6:
	ldr	r0, .LCPI75_0
.LPC75_0:
	add	r1, pc, r0
	mov	r0, #225
	bl	p_1_plt__jit_icall_llvm_throw_corlib_exception_abs_trampoline_llvm
	.p2align	2
.LCPI75_0:
	.long	.Ltmp989-(.LPC75_0+8)
.LCPI75_1:
	.long	.Ltmp988-(.LPC75_1+8)
.LCPI75_2:
	.long	mono_aot_Mono_Android_llvm_got-(.LPC75_2+8)
.LCPI75_3:
	.long	mono_inited-(.LPC75_3+8)
.Lfunc_end75:
	.size	Android_Widget_TextView_get_ShadowDx, .Lfunc_end75-Android_Widget_TextView_get_ShadowDx
.Lexception69:
	.fnend

	.hidden	Android_Widget_TextView_get_ShadowDy
	.globl	Android_Widget_TextView_get_ShadowDy
	.p2align	2
	.type	Android_Widget_TextView_get_ShadowDy,%function
	.code	32
Android_Widget_TextView_get_ShadowDy:
.Lfunc_begin76:
	.fnstart
	.save	{r4, r5, r6, lr}
	push	{r4, r5, r6, lr}
.Ltmp990:
.Ltmp991:
.Ltmp992:
.Ltmp993:
.Ltmp994:
	ldr	r5, .LCPI76_2
	mov	r4, r0
	ldr	r0, .LCPI76_3
.LPC76_2:
	add	r5, pc, r5
.LPC76_3:
	add	r0, pc, r0
	ldr	r1, [r5, #28]
	ldrb	r6, [r0, #2863]
	ldr	r0, [r1]
	cmp	r0, #0
	blne	mono_aot_Mono_Android_icall_cold_wrapper_265
	cmp	r6, #0
	beq	.LBB76_4
.LBB76_1:
	ldr	r0, [r5, #352]
	ldr	r0, [r0]
	cmp	r0, #0
	beq	.LBB76_5
	bl	p_27_plt_Java_Interop_JniPeerMembers_get_InstanceMethods_llvm
	cmp	r0, #0
	beq	.LBB76_6
	ldr	r1, [r5, #392]
	mov	r2, r4
	mov	r3, #0
	bl	p_58_plt_Java_Interop_JniPeerMembers_JniInstanceMethods_InvokeVirtualSingleMethod_string_Java_Interop_IJavaPeerable_Java_Interop_JniArgumentValue__llvm
	pop	{r4, r5, r6, pc}
.LBB76_4:
	movw	r0, #2863
	bl	mono_aot_Mono_Android_init_method
	b	.LBB76_1
.Ltmp995:
.LBB76_5:
	ldr	r0, .LCPI76_1
.LPC76_1:
	add	r1, pc, r0
	mov	r0, #225
	bl	p_1_plt__jit_icall_llvm_throw_corlib_exception_abs_trampoline_llvm
.Ltmp996:
.LBB76_6:
	ldr	r0, .LCPI76_0
.LPC76_0:
	add	r1, pc, r0
	mov	r0, #225
	bl	p_1_plt__jit_icall_llvm_throw_corlib_exception_abs_trampoline_llvm
	.p2align	2
.LCPI76_0:
	.long	.Ltmp996-(.LPC76_0+8)
.LCPI76_1:
	.long	.Ltmp995-(.LPC76_1+8)
.LCPI76_2:
	.long	mono_aot_Mono_Android_llvm_got-(.LPC76_2+8)
.LCPI76_3:
	.long	mono_inited-(.LPC76_3+8)
.Lfunc_end76:
	.size	Android_Widget_TextView_get_ShadowDy, .Lfunc_end76-Android_Widget_TextView_get_ShadowDy
.Lexception70:
	.fnend

	.hidden	Android_Widget_TextView_get_ShadowRadius
	.globl	Android_Widget_TextView_get_ShadowRadius
	.p2align	2
	.type	Android_Widget_TextView_get_ShadowRadius,%function
	.code	32
Android_Widget_TextView_get_ShadowRadius:
.Lfunc_begin77:
	.fnstart
	.save	{r4, r5, r6, lr}
	push	{r4, r5, r6, lr}
.Ltmp997:
.Ltmp998:
.Ltmp999:
.Ltmp1000:
.Ltmp1001:
	ldr	r5, .LCPI77_2
	mov	r4, r0
	ldr	r0, .LCPI77_3
.LPC77_2:
	add	r5, pc, r5
.LPC77_3:
	add	r0, pc, r0
	ldr	r1, [r5, #28]
	ldrb	r6, [r0, #2866]
	ldr	r0, [r1]
	cmp	r0, #0
	blne	mono_aot_Mono_Android_icall_cold_wrapper_265
	cmp	r6, #0
	beq	.LBB77_4
.LBB77_1:
	ldr	r0, [r5, #352]
	ldr	r0, [r0]
	cmp	r0, #0
	beq	.LBB77_5
	bl	p_27_plt_Java_Interop_JniPeerMembers_get_InstanceMethods_llvm
	cmp	r0, #0
	beq	.LBB77_6
	ldr	r1, [r5, #396]
	mov	r2, r4
	mov	r3, #0
	bl	p_58_plt_Java_Interop_JniPeerMembers_JniInstanceMethods_InvokeVirtualSingleMethod_string_Java_Interop_IJavaPeerable_Java_Interop_JniArgumentValue__llvm
	pop	{r4, r5, r6, pc}
.LBB77_4:
	movw	r0, #2866
	bl	mono_aot_Mono_Android_init_method
	b	.LBB77_1
.Ltmp1002:
.LBB77_5:
	ldr	r0, .LCPI77_1
.LPC77_1:
	add	r1, pc, r0
	mov	r0, #225
	bl	p_1_plt__jit_icall_llvm_throw_corlib_exception_abs_trampoline_llvm
.Ltmp1003:
.LBB77_6:
	ldr	r0, .LCPI77_0
.LPC77_0:
	add	r1, pc, r0
	mov	r0, #225
	bl	p_1_plt__jit_icall_llvm_throw_corlib_exception_abs_trampoline_llvm
	.p2align	2
.LCPI77_0:
	.long	.Ltmp1003-(.LPC77_0+8)
.LCPI77_1:
	.long	.Ltmp1002-(.LPC77_1+8)
.LCPI77_2:
	.long	mono_aot_Mono_Android_llvm_got-(.LPC77_2+8)
.LCPI77_3:
	.long	mono_inited-(.LPC77_3+8)
.Lfunc_end77:
	.size	Android_Widget_TextView_get_ShadowRadius, .Lfunc_end77-Android_Widget_TextView_get_ShadowRadius
.Lexception71:
	.fnend

	.hidden	Android_Widget_TextView_get_TextFormatted
	.globl	Android_Widget_TextView_get_TextFormatted
	.p2align	2
	.type	Android_Widget_TextView_get_TextFormatted,%function
	.code	32
Android_Widget_TextView_get_TextFormatted:
.Lfunc_begin78:
	.fnstart
	.save	{r4, r5, r6, r8, r11, lr}
	push	{r4, r5, r6, r8, r11, lr}
.Ltmp1004:
.Ltmp1005:
.Ltmp1006:
.Ltmp1007:
.Ltmp1008:
.Ltmp1009:
.Ltmp1010:
	.pad	#16
	sub	sp, sp, #16
.Ltmp1011:
	ldr	r5, .LCPI78_2
	mov	r4, r0
	ldr	r0, .LCPI78_3
.LPC78_2:
	add	r5, pc, r5
.LPC78_3:
	add	r0, pc, r0
	ldr	r1, [r5, #28]
	ldrb	r6, [r0, #2867]
	ldr	r0, [r1]
	cmp	r0, #0
	blne	mono_aot_Mono_Android_icall_cold_wrapper_265
	cmp	r6, #0
	beq	.LBB78_4
.LBB78_1:
	ldr	r0, [r5, #352]
	mov	r1, #0
	str	r1, [sp, #12]
	str	r1, [sp, #8]
	ldr	r0, [r0]
	cmp	r0, #0
	beq	.LBB78_5
	bl	p_27_plt_Java_Interop_JniPeerMembers_get_InstanceMethods_llvm
	cmp	r0, #0
	beq	.LBB78_6
	mov	r1, #0
	ldr	r2, [r5, #400]
	str	r1, [sp]
	add	r1, sp, #8
	mov	r3, r4
	bl	p_47_plt_Java_Interop_JniPeerMembers_JniInstanceMethods_InvokeVirtualObjectMethod_string_Java_Interop_IJavaPeerable_Java_Interop_JniArgumentValue__llvm
	ldr	r1, [r5, #368]
	str	r1, [sp, #4]
	mov	r1, #1
	ldr	r0, [sp, #8]
	ldr	r8, [sp, #4]
	bl	p_48_plt_Java_Lang_Object_GetObject_Java_Lang_ICharSequence_intptr_Android_Runtime_JniHandleOwnership_llvm
	add	sp, sp, #16
	pop	{r4, r5, r6, r8, r11, pc}
.LBB78_4:
	movw	r0, #2867
	bl	mono_aot_Mono_Android_init_method
	b	.LBB78_1
.Ltmp1012:
.LBB78_5:
	ldr	r0, .LCPI78_1
.LPC78_1:
	add	r1, pc, r0
	mov	r0, #225
	bl	p_1_plt__jit_icall_llvm_throw_corlib_exception_abs_trampoline_llvm
.Ltmp1013:
.LBB78_6:
	ldr	r0, .LCPI78_0
.LPC78_0:
	add	r1, pc, r0
	mov	r0, #225
	bl	p_1_plt__jit_icall_llvm_throw_corlib_exception_abs_trampoline_llvm
	.p2align	2
.LCPI78_0:
	.long	.Ltmp1013-(.LPC78_0+8)
.LCPI78_1:
	.long	.Ltmp1012-(.LPC78_1+8)
.LCPI78_2:
	.long	mono_aot_Mono_Android_llvm_got-(.LPC78_2+8)
.LCPI78_3:
	.long	mono_inited-(.LPC78_3+8)
.Lfunc_end78:
	.size	Android_Widget_TextView_get_TextFormatted, .Lfunc_end78-Android_Widget_TextView_get_TextFormatted
.Lexception72:
	.fnend

	.hidden	Android_Widget_TextView_set_TextFormatted_Java_Lang_ICharSequence
	.globl	Android_Widget_TextView_set_TextFormatted_Java_Lang_ICharSequence
	.p2align	2
	.type	Android_Widget_TextView_set_TextFormatted_Java_Lang_ICharSequence,%function
	.code	32
Android_Widget_TextView_set_TextFormatted_Java_Lang_ICharSequence:
.Lfunc_begin79:
	.fnstart
	.save	{r4, r5, r6, r7, r9, r10, r11, lr}
	push	{r4, r5, r6, r7, r9, r10, r11, lr}
.Ltmp1027:
.Ltmp1028:
.Ltmp1029:
.Ltmp1030:
.Ltmp1031:
.Ltmp1032:
.Ltmp1033:
.Ltmp1034:
	.setfp	r11, sp, #24
	add	r11, sp, #24
.Ltmp1035:
	.pad	#16
	sub	sp, sp, #16
	ldr	r7, .LCPI79_2
	mov	r4, r0
	ldr	r0, .LCPI79_3
.LPC79_2:
	add	r7, pc, r7
	str	r1, [r11, #-36]
.LPC79_3:
	add	r0, pc, r0
	ldr	r2, [r7, #28]
	ldrb	r5, [r0, #2868]
	ldr	r0, [r2]
	cmp	r0, #0
	blne	mono_aot_Mono_Android_icall_cold_wrapper_265
	cmp	r5, #0
	beq	.LBB79_9
.LBB79_1:
	mov	r0, sp
	sub	r6, r0, #8
	mov	sp, r6
	mov	r5, #0
	str	r5, [r0, #-8]
	ldr	r0, [r11, #-36]
	bl	Android_Runtime_CharSequence_ToLocalJniHandle_Java_Lang_ICharSequence
	str	r0, [r11, #-32]
.Ltmp1014:
	mov	r0, #1
	mov	r1, #8
	bl	p_26_plt__jit_icall___emul_op_imul_ovf_un_llvm
.Ltmp1015:
	cmp	r0, #0
	beq	.LBB79_4
	add	r0, r0, #7
	bic	r2, r0, #7
	sub	r5, sp, r2
	mov	sp, r5
	mov	r0, r5
	mov	r1, #0
	bl	memset
.LBB79_4:
	ldr	r2, [r7, #352]
	mov	r1, #0
	ldr	r0, [r11, #-32]
	str	r1, [r5, #4]
	str	r0, [r5]
	ldr	r0, [r2]
	cmp	r0, #0
	beq	.LBB79_10
.Ltmp1016:
	bl	p_27_plt_Java_Interop_JniPeerMembers_get_InstanceMethods_llvm
.Ltmp1017:
	cmp	r0, #0
	beq	.LBB79_12
	ldr	r1, [r7, #404]
.Ltmp1018:
	mov	r2, r4
	mov	r3, r5
	bl	p_50_plt_Java_Interop_JniPeerMembers_JniInstanceMethods_InvokeNonvirtualVoidMethod_string_Java_Interop_IJavaPeerable_Java_Interop_JniArgumentValue__llvm
.Ltmp1019:
	mov	r4, #1
	mov	r0, #0
	str	r0, [r11, #-28]
	str	r4, [r6]
	b	.LBB79_14
.LBB79_9:
	movw	r0, #2868
	bl	mono_aot_Mono_Android_init_method
	b	.LBB79_1
.Ltmp1036:
.LBB79_10:
	ldr	r0, .LCPI79_1
.Ltmp1022:
.LPC79_1:
	add	r1, pc, r0
	mov	r0, #225
	bl	p_1_plt__jit_icall_llvm_throw_corlib_exception_abs_trampoline_llvm
.Ltmp1023:
.Ltmp1037:
.LBB79_12:
	ldr	r0, .LCPI79_0
.Ltmp1020:
.LPC79_0:
	add	r1, pc, r0
	mov	r0, #225
	bl	p_1_plt__jit_icall_llvm_throw_corlib_exception_abs_trampoline_llvm
.Ltmp1021:
.LBB79_14:
	ldr	r0, [r11, #-32]
	bl	Android_Runtime_JNIEnv_DeleteLocalRef_intptr
	ldr	r0, [r11, #-36]
	bl	p_32_plt_System_GC_KeepAlive_object_llvm
	mov	r0, #0
	cmp	r4, #1
	str	r0, [r6]
	bne	.LBB79_18
	ldr	r0, [r11, #-28]
	cmp	r0, #0
	beq	.LBB79_17
.Ltmp1025:
	bl	p_15_plt__jit_icall_ves_icall_thread_finish_async_abort_llvm
.Ltmp1026:
.LBB79_17:
	sub	sp, r11, #24
	pop	{r4, r5, r6, r7, r9, r10, r11, pc}
.LBB79_18:
	bl	p_17_plt__jit_icall_llvm_resume_unwind_trampoline_llvm
.LBB79_19:
.Ltmp1024:
	ldr	r4, [r6]
	b	.LBB79_14
	.p2align	2
.LCPI79_0:
	.long	.Ltmp1037-(.LPC79_0+8)
.LCPI79_1:
	.long	.Ltmp1036-(.LPC79_1+8)
.LCPI79_2:
	.long	mono_aot_Mono_Android_llvm_got-(.LPC79_2+8)
.LCPI79_3:
	.long	mono_inited-(.LPC79_3+8)
.Lfunc_end79:
	.size	Android_Widget_TextView_set_TextFormatted_Java_Lang_ICharSequence, .Lfunc_end79-Android_Widget_TextView_set_TextFormatted_Java_Lang_ICharSequence
.Lexception73:
	.fnend

	.hidden	Android_Widget_TextView_get_Text
	.globl	Android_Widget_TextView_get_Text
	.p2align	2
	.type	Android_Widget_TextView_get_Text,%function
	.code	32
Android_Widget_TextView_get_Text:
.Lfunc_begin80:
	.fnstart
	.save	{r4, r5, r6, r8, r11, lr}
	push	{r4, r5, r6, r8, r11, lr}
.Ltmp1038:
.Ltmp1039:
.Ltmp1040:
.Ltmp1041:
.Ltmp1042:
.Ltmp1043:
.Ltmp1044:
	.pad	#8
	sub	sp, sp, #8
.Ltmp1045:
	ldr	r5, .LCPI80_1
	mov	r4, r0
	ldr	r0, .LCPI80_2
.LPC80_1:
	add	r5, pc, r5
.LPC80_2:
	add	r0, pc, r0
	ldr	r1, [r5, #28]
	ldrb	r6, [r0, #2869]
	ldr	r0, [r1]
	cmp	r0, #0
	blne	mono_aot_Mono_Android_icall_cold_wrapper_265
	cmp	r6, #0
	beq	.LBB80_5
.LBB80_1:
	mov	r0, r4
	bl	Android_Widget_TextView_get_TextFormatted
	cmp	r0, #0
	beq	.LBB80_4
	mov	r0, r4
	bl	Android_Widget_TextView_get_TextFormatted
	cmp	r0, #0
	beq	.LBB80_6
	ldr	r1, [r0]
	ldr	r2, [r5, #376]
	ldr	r1, [r1, #-60]
	str	r2, [sp, #4]
	ldr	r8, [sp, #4]
	blx	r1
	add	sp, sp, #8
	pop	{r4, r5, r6, r8, r11, pc}
.LBB80_4:
	mov	r0, #0
	add	sp, sp, #8
	pop	{r4, r5, r6, r8, r11, pc}
.LBB80_5:
	movw	r0, #2869
	bl	mono_aot_Mono_Android_init_method
	b	.LBB80_1
.Ltmp1046:
.LBB80_6:
	ldr	r0, .LCPI80_0
.LPC80_0:
	add	r1, pc, r0
	mov	r0, #225
	bl	p_1_plt__jit_icall_llvm_throw_corlib_exception_abs_trampoline_llvm
	.p2align	2
.LCPI80_0:
	.long	.Ltmp1046-(.LPC80_0+8)
.LCPI80_1:
	.long	mono_aot_Mono_Android_llvm_got-(.LPC80_1+8)
.LCPI80_2:
	.long	mono_inited-(.LPC80_2+8)
.Lfunc_end80:
	.size	Android_Widget_TextView_get_Text, .Lfunc_end80-Android_Widget_TextView_get_Text
.Lexception74:
	.fnend

	.hidden	Android_Widget_TextView_set_Text_string
	.globl	Android_Widget_TextView_set_Text_string
	.p2align	2
	.type	Android_Widget_TextView_set_Text_string,%function
	.code	32
Android_Widget_TextView_set_Text_string:
.Lfunc_begin81:
	.fnstart
	.save	{r4, r5, r6, r7, r11, lr}
	push	{r4, r5, r6, r7, r11, lr}
.Ltmp1047:
.Ltmp1048:
.Ltmp1049:
.Ltmp1050:
.Ltmp1051:
.Ltmp1052:
.Ltmp1053:
	ldr	r6, .LCPI81_0
	mov	r4, r0
	ldr	r0, .LCPI81_1
	mov	r5, r1
.LPC81_0:
	add	r6, pc, r6
.LPC81_1:
	add	r0, pc, r0
	ldr	r1, [r6, #28]
	ldrb	r7, [r0, #2870]
	ldr	r0, [r1]
	cmp	r0, #0
	blne	mono_aot_Mono_Android_icall_cold_wrapper_265
	cmp	r7, #0
	beq	.LBB81_3
	cmp	r5, #0
	beq	.LBB81_4
.LBB81_2:
	ldr	r0, [r6, #380]
	bl	p_55_plt__jit_icall_ves_icall_object_new_specific_llvm
	mov	r1, r5
	mov	r6, r0
	bl	Java_Lang_String__ctor_string
	mov	r0, r4
	mov	r1, r6
	bl	Android_Widget_TextView_set_TextFormatted_Java_Lang_ICharSequence
	cmp	r6, #0
	movne	r0, r6
	blne	Java_Lang_Object_Dispose
	pop	{r4, r5, r6, r7, r11, pc}
.LBB81_3:
	movw	r0, #2870
	bl	mono_aot_Mono_Android_init_method
	cmp	r5, #0
	bne	.LBB81_2
.LBB81_4:
	mov	r0, r4
	mov	r1, #0
	bl	Android_Widget_TextView_set_TextFormatted_Java_Lang_ICharSequence
	pop	{r4, r5, r6, r7, r11, pc}
	.p2align	2
.LCPI81_0:
	.long	mono_aot_Mono_Android_llvm_got-(.LPC81_0+8)
.LCPI81_1:
	.long	mono_inited-(.LPC81_1+8)
.Lfunc_end81:
	.size	Android_Widget_TextView_set_Text_string, .Lfunc_end81-Android_Widget_TextView_set_Text_string
.Lexception75:
	.fnend

	.hidden	Android_Widget_TextView_get_TextColors
	.globl	Android_Widget_TextView_get_TextColors
	.p2align	2
	.type	Android_Widget_TextView_get_TextColors,%function
	.code	32
Android_Widget_TextView_get_TextColors:
.Lfunc_begin82:
	.fnstart
	.save	{r4, r5, r6, r8, r11, lr}
	push	{r4, r5, r6, r8, r11, lr}
.Ltmp1054:
.Ltmp1055:
.Ltmp1056:
.Ltmp1057:
.Ltmp1058:
.Ltmp1059:
.Ltmp1060:
	.pad	#16
	sub	sp, sp, #16
.Ltmp1061:
	ldr	r5, .LCPI82_2
	mov	r4, r0
	ldr	r0, .LCPI82_3
.LPC82_2:
	add	r5, pc, r5
.LPC82_3:
	add	r0, pc, r0
	ldr	r1, [r5, #28]
	ldrb	r6, [r0, #2871]
	ldr	r0, [r1]
	cmp	r0, #0
	blne	mono_aot_Mono_Android_icall_cold_wrapper_265
	cmp	r6, #0
	beq	.LBB82_4
.LBB82_1:
	ldr	r0, [r5, #352]
	mov	r1, #0
	str	r1, [sp, #12]
	str	r1, [sp, #8]
	ldr	r0, [r0]
	cmp	r0, #0
	beq	.LBB82_5
	bl	p_27_plt_Java_Interop_JniPeerMembers_get_InstanceMethods_llvm
	cmp	r0, #0
	beq	.LBB82_6
	mov	r1, #0
	ldr	r2, [r5, #408]
	str	r1, [sp]
	add	r1, sp, #8
	mov	r3, r4
	bl	p_61_plt_Java_Interop_JniPeerMembers_JniInstanceMethods_InvokeNonvirtualObjectMethod_string_Java_Interop_IJavaPeerable_Java_Interop_JniArgumentValue__llvm
	ldr	r1, [r5, #412]
	str	r1, [sp, #4]
	mov	r1, #1
	ldr	r0, [sp, #8]
	ldr	r8, [sp, #4]
	bl	p_62_plt_Java_Lang_Object_GetObject_Android_Content_Res_ColorStateList_intptr_Android_Runtime_JniHandleOwnership_llvm
	add	sp, sp, #16
	pop	{r4, r5, r6, r8, r11, pc}
.LBB82_4:
	movw	r0, #2871
	bl	mono_aot_Mono_Android_init_method
	b	.LBB82_1
.Ltmp1062:
.LBB82_5:
	ldr	r0, .LCPI82_1
.LPC82_1:
	add	r1, pc, r0
	mov	r0, #225
	bl	p_1_plt__jit_icall_llvm_throw_corlib_exception_abs_trampoline_llvm
.Ltmp1063:
.LBB82_6:
	ldr	r0, .LCPI82_0
.LPC82_0:
	add	r1, pc, r0
	mov	r0, #225
	bl	p_1_plt__jit_icall_llvm_throw_corlib_exception_abs_trampoline_llvm
	.p2align	2
.LCPI82_0:
	.long	.Ltmp1063-(.LPC82_0+8)
.LCPI82_1:
	.long	.Ltmp1062-(.LPC82_1+8)
.LCPI82_2:
	.long	mono_aot_Mono_Android_llvm_got-(.LPC82_2+8)
.LCPI82_3:
	.long	mono_inited-(.LPC82_3+8)
.Lfunc_end82:
	.size	Android_Widget_TextView_get_TextColors, .Lfunc_end82-Android_Widget_TextView_get_TextColors
.Lexception76:
	.fnend

	.hidden	Android_Widget_TextView_set_Typeface_Android_Graphics_Typeface
	.globl	Android_Widget_TextView_set_Typeface_Android_Graphics_Typeface
	.p2align	2
	.type	Android_Widget_TextView_set_Typeface_Android_Graphics_Typeface,%function
	.code	32
Android_Widget_TextView_set_Typeface_Android_Graphics_Typeface:
.Lfunc_begin83:
	.fnstart
	.save	{r4, r5, r6, r7, r9, r10, r11, lr}
	push	{r4, r5, r6, r7, r9, r10, r11, lr}
.Ltmp1081:
.Ltmp1082:
.Ltmp1083:
.Ltmp1084:
.Ltmp1085:
.Ltmp1086:
.Ltmp1087:
.Ltmp1088:
	.setfp	r11, sp, #24
	add	r11, sp, #24
.Ltmp1089:
	.pad	#8
	sub	sp, sp, #8
	ldr	r7, .LCPI83_3
	mov	r4, r0
	ldr	r0, .LCPI83_4
.LPC83_3:
	add	r7, pc, r7
	str	r1, [r11, #-32]
.LPC83_4:
	add	r0, pc, r0
	ldr	r2, [r7, #28]
	ldrb	r5, [r0, #2882]
	ldr	r0, [r2]
	cmp	r0, #0
	blne	mono_aot_Mono_Android_icall_cold_wrapper_265
	cmp	r5, #0
	beq	.LBB83_13
.LBB83_1:
	mov	r0, sp
	sub	r6, r0, #8
	mov	sp, r6
	mov	r5, #0
	str	r5, [r0, #-8]
.Ltmp1064:
	mov	r0, #1
	mov	r1, #8
	bl	p_26_plt__jit_icall___emul_op_imul_ovf_un_llvm
.Ltmp1065:
	cmp	r0, #0
	beq	.LBB83_4
	add	r0, r0, #7
	bic	r2, r0, #7
	sub	r5, sp, r2
	mov	sp, r5
	mov	r0, r5
	mov	r1, #0
	bl	memset
.LBB83_4:
	ldr	r0, [r11, #-32]
	cmp	r0, #0
	beq	.LBB83_7
	ldr	r0, [r11, #-32]
	cmp	r0, #0
	beq	.LBB83_18
.Ltmp1066:
	bl	Java_Lang_Object_get_Handle
.Ltmp1067:
	b	.LBB83_8
.LBB83_7:
	ldr	r0, [r7, #148]
	ldr	r0, [r0]
.LBB83_8:
	ldr	r2, [r7, #352]
	mov	r1, #0
	str	r1, [r5, #4]
	str	r0, [r5]
	ldr	r0, [r2]
	cmp	r0, #0
	beq	.LBB83_14
.Ltmp1070:
	bl	p_27_plt_Java_Interop_JniPeerMembers_get_InstanceMethods_llvm
.Ltmp1071:
	cmp	r0, #0
	beq	.LBB83_16
	ldr	r1, [r7, #416]
.Ltmp1072:
	mov	r2, r4
	mov	r3, r5
	bl	p_28_plt_Java_Interop_JniPeerMembers_JniInstanceMethods_InvokeVirtualVoidMethod_string_Java_Interop_IJavaPeerable_Java_Interop_JniArgumentValue__llvm
.Ltmp1073:
	mov	r4, #1
	mov	r0, #0
	str	r0, [r11, #-28]
	str	r4, [r6]
	b	.LBB83_20
.LBB83_13:
	movw	r0, #2882
	bl	mono_aot_Mono_Android_init_method
	b	.LBB83_1
.Ltmp1090:
.LBB83_14:
	ldr	r0, .LCPI83_2
.Ltmp1076:
.LPC83_2:
	add	r1, pc, r0
	mov	r0, #225
	bl	p_1_plt__jit_icall_llvm_throw_corlib_exception_abs_trampoline_llvm
.Ltmp1077:
.Ltmp1091:
.LBB83_16:
	ldr	r0, .LCPI83_1
.Ltmp1074:
.LPC83_1:
	add	r1, pc, r0
	mov	r0, #225
	bl	p_1_plt__jit_icall_llvm_throw_corlib_exception_abs_trampoline_llvm
.Ltmp1075:
.Ltmp1092:
.LBB83_18:
	ldr	r0, .LCPI83_0
.Ltmp1068:
.LPC83_0:
	add	r1, pc, r0
	mov	r0, #225
	bl	p_1_plt__jit_icall_llvm_throw_corlib_exception_abs_trampoline_llvm
.Ltmp1069:
.LBB83_20:
	ldr	r0, [r11, #-32]
	bl	p_32_plt_System_GC_KeepAlive_object_llvm
	mov	r0, #0
	cmp	r4, #1
	str	r0, [r6]
	bne	.LBB83_24
	ldr	r0, [r11, #-28]
	cmp	r0, #0
	beq	.LBB83_23
.Ltmp1079:
	bl	p_15_plt__jit_icall_ves_icall_thread_finish_async_abort_llvm
.Ltmp1080:
.LBB83_23:
	sub	sp, r11, #24
	pop	{r4, r5, r6, r7, r9, r10, r11, pc}
.LBB83_24:
	bl	p_17_plt__jit_icall_llvm_resume_unwind_trampoline_llvm
.LBB83_25:
.Ltmp1078:
	ldr	r4, [r6]
	b	.LBB83_20
	.p2align	2
.LCPI83_0:
	.long	.Ltmp1092-(.LPC83_0+8)
.LCPI83_1:
	.long	.Ltmp1091-(.LPC83_1+8)
.LCPI83_2:
	.long	.Ltmp1090-(.LPC83_2+8)
.LCPI83_3:
	.long	mono_aot_Mono_Android_llvm_got-(.LPC83_3+8)
.LCPI83_4:
	.long	mono_inited-(.LPC83_4+8)
.Lfunc_end83:
	.size	Android_Widget_TextView_set_Typeface_Android_Graphics_Typeface, .Lfunc_end83-Android_Widget_TextView_set_Typeface_Android_Graphics_Typeface
.Lexception77:
	.fnend

	.hidden	Android_Widget_TextView_SetCompoundDrawablesWithIntrinsicBounds_Android_Graphics_Drawables_Drawable_Android_Graphics_Drawables_Drawable_Android_Graphics_Drawables_Drawable_Android_Graphics_Drawables_Drawable
	.globl	Android_Widget_TextView_SetCompoundDrawablesWithIntrinsicBounds_Android_Graphics_Drawables_Drawable_Android_Graphics_Drawables_Drawable_Android_Graphics_Drawables_Drawable_Android_Graphics_Drawables_Drawable
	.p2align	2
	.type	Android_Widget_TextView_SetCompoundDrawablesWithIntrinsicBounds_Android_Graphics_Drawables_Drawable_Android_Graphics_Drawables_Drawable_Android_Graphics_Drawables_Drawable_Android_Graphics_Drawables_Drawable,%function
	.code	32
Android_Widget_TextView_SetCompoundDrawablesWithIntrinsicBounds_Android_Graphics_Drawables_Drawable_Android_Graphics_Drawables_Drawable_Android_Graphics_Drawables_Drawable_Android_Graphics_Drawables_Drawable:
.Lfunc_begin84:
	.fnstart
	.save	{r4, r5, r6, r7, r9, r10, r11, lr}
	push	{r4, r5, r6, r7, r9, r10, r11, lr}
.Ltmp1122:
.Ltmp1123:
.Ltmp1124:
.Ltmp1125:
.Ltmp1126:
.Ltmp1127:
.Ltmp1128:
.Ltmp1129:
	.setfp	r11, sp, #24
	add	r11, sp, #24
.Ltmp1130:
	.pad	#16
	sub	sp, sp, #16
	ldr	r7, .LCPI84_6
	mov	r4, r0
	ldr	r0, .LCPI84_7
.LPC84_6:
	add	r7, pc, r7
	str	r2, [r11, #-36]
.LPC84_7:
	add	r0, pc, r0
	str	r1, [r11, #-40]
	ldr	r2, [r7, #28]
	str	r3, [r11, #-32]
	ldrb	r5, [r0, #2927]
	ldr	r0, [r2]
	cmp	r0, #0
	blne	mono_aot_Mono_Android_icall_cold_wrapper_265
	cmp	r5, #0
	beq	.LBB84_25
.LBB84_1:
	mov	r0, sp
	sub	r6, r0, #8
	mov	sp, r6
	mov	r5, #0
	str	r5, [r0, #-8]
.Ltmp1093:
	mov	r0, #4
	mov	r1, #8
	bl	p_26_plt__jit_icall___emul_op_imul_ovf_un_llvm
.Ltmp1094:
	cmp	r0, #0
	beq	.LBB84_4
	add	r0, r0, #7
	bic	r2, r0, #7
	sub	r5, sp, r2
	mov	sp, r5
	mov	r0, r5
	mov	r1, #0
	bl	memset
.LBB84_4:
	ldr	r0, [r11, #-40]
	cmp	r0, #0
	beq	.LBB84_7
	ldr	r0, [r11, #-40]
	cmp	r0, #0
	beq	.LBB84_30
.Ltmp1095:
	bl	Java_Lang_Object_get_Handle
.Ltmp1096:
	b	.LBB84_8
.LBB84_7:
	ldr	r0, [r7, #148]
	ldr	r0, [r0]
.LBB84_8:
	mov	r1, #0
	str	r1, [r5, #4]
	str	r0, [r5]
	ldr	r0, [r11, #-36]
	cmp	r0, #0
	beq	.LBB84_11
	ldr	r0, [r11, #-36]
	cmp	r0, #0
	beq	.LBB84_32
.Ltmp1099:
	bl	Java_Lang_Object_get_Handle
.Ltmp1100:
	b	.LBB84_12
.LBB84_11:
	ldr	r0, [r7, #148]
	ldr	r0, [r0]
.LBB84_12:
	mov	r1, #0
	str	r1, [r5, #12]
	str	r0, [r5, #8]
	ldr	r0, [r11, #-32]
	cmp	r0, #0
	beq	.LBB84_15
	ldr	r0, [r11, #-32]
	cmp	r0, #0
	beq	.LBB84_34
.Ltmp1103:
	bl	Java_Lang_Object_get_Handle
.Ltmp1104:
	b	.LBB84_16
.LBB84_15:
	ldr	r0, [r7, #148]
	ldr	r0, [r0]
.LBB84_16:
	mov	r1, #0
	str	r1, [r5, #20]
	str	r0, [r5, #16]
	ldr	r0, [r11, #8]
	cmp	r0, #0
	beq	.LBB84_19
	ldr	r0, [r11, #8]
	cmp	r0, #0
	beq	.LBB84_36
.Ltmp1107:
	bl	Java_Lang_Object_get_Handle
.Ltmp1108:
	b	.LBB84_20
.LBB84_19:
	ldr	r0, [r7, #148]
	ldr	r0, [r0]
.LBB84_20:
	ldr	r2, [r7, #352]
	mov	r1, #0
	str	r1, [r5, #28]
	str	r0, [r5, #24]
	ldr	r0, [r2]
	cmp	r0, #0
	beq	.LBB84_26
.Ltmp1111:
	bl	p_27_plt_Java_Interop_JniPeerMembers_get_InstanceMethods_llvm
.Ltmp1112:
	cmp	r0, #0
	beq	.LBB84_28
	ldr	r1, [r7, #420]
.Ltmp1113:
	mov	r2, r4
	mov	r3, r5
	bl	p_28_plt_Java_Interop_JniPeerMembers_JniInstanceMethods_InvokeVirtualVoidMethod_string_Java_Interop_IJavaPeerable_Java_Interop_JniArgumentValue__llvm
.Ltmp1114:
	mov	r4, #1
	mov	r0, #0
	str	r0, [r11, #-28]
	str	r4, [r6]
	b	.LBB84_38
.LBB84_25:
	movw	r0, #2927
	bl	mono_aot_Mono_Android_init_method
	b	.LBB84_1
.Ltmp1131:
.LBB84_26:
	ldr	r0, .LCPI84_5
.Ltmp1117:
.LPC84_5:
	add	r1, pc, r0
	mov	r0, #225
	bl	p_1_plt__jit_icall_llvm_throw_corlib_exception_abs_trampoline_llvm
.Ltmp1118:
.Ltmp1132:
.LBB84_28:
	ldr	r0, .LCPI84_4
.Ltmp1115:
.LPC84_4:
	add	r1, pc, r0
	mov	r0, #225
	bl	p_1_plt__jit_icall_llvm_throw_corlib_exception_abs_trampoline_llvm
.Ltmp1116:
.Ltmp1133:
.LBB84_30:
	ldr	r0, .LCPI84_0
.Ltmp1097:
.LPC84_0:
	add	r1, pc, r0
	mov	r0, #225
	bl	p_1_plt__jit_icall_llvm_throw_corlib_exception_abs_trampoline_llvm
.Ltmp1098:
.Ltmp1134:
.LBB84_32:
	ldr	r0, .LCPI84_1
.Ltmp1101:
.LPC84_1:
	add	r1, pc, r0
	mov	r0, #225
	bl	p_1_plt__jit_icall_llvm_throw_corlib_exception_abs_trampoline_llvm
.Ltmp1102:
.Ltmp1135:
.LBB84_34:
	ldr	r0, .LCPI84_2
.Ltmp1105:
.LPC84_2:
	add	r1, pc, r0
	mov	r0, #225
	bl	p_1_plt__jit_icall_llvm_throw_corlib_exception_abs_trampoline_llvm
.Ltmp1106:
.Ltmp1136:
.LBB84_36:
	ldr	r0, .LCPI84_3
.Ltmp1109:
.LPC84_3:
	add	r1, pc, r0
	mov	r0, #225
	bl	p_1_plt__jit_icall_llvm_throw_corlib_exception_abs_trampoline_llvm
.Ltmp1110:
.LBB84_38:
	ldr	r0, [r11, #-40]
	bl	p_32_plt_System_GC_KeepAlive_object_llvm
	ldr	r0, [r11, #-36]
	bl	p_32_plt_System_GC_KeepAlive_object_llvm
	ldr	r0, [r11, #-32]
	bl	p_32_plt_System_GC_KeepAlive_object_llvm
	ldr	r0, [r11, #8]
	bl	p_32_plt_System_GC_KeepAlive_object_llvm
	mov	r0, #0
	cmp	r4, #1
	str	r0, [r6]
	bne	.LBB84_42
	ldr	r0, [r11, #-28]
	cmp	r0, #0
	beq	.LBB84_41
.Ltmp1120:
	bl	p_15_plt__jit_icall_ves_icall_thread_finish_async_abort_llvm
.Ltmp1121:
.LBB84_41:
	sub	sp, r11, #24
	pop	{r4, r5, r6, r7, r9, r10, r11, pc}
.LBB84_42:
	bl	p_17_plt__jit_icall_llvm_resume_unwind_trampoline_llvm
.LBB84_43:
.Ltmp1119:
	ldr	r4, [r6]
	b	.LBB84_38
	.p2align	2
.LCPI84_0:
	.long	.Ltmp1133-(.LPC84_0+8)
.LCPI84_1:
	.long	.Ltmp1134-(.LPC84_1+8)
.LCPI84_2:
	.long	.Ltmp1135-(.LPC84_2+8)
.LCPI84_3:
	.long	.Ltmp1136-(.LPC84_3+8)
.LCPI84_4:
	.long	.Ltmp1132-(.LPC84_4+8)
.LCPI84_5:
	.long	.Ltmp1131-(.LPC84_5+8)
.LCPI84_6:
	.long	mono_aot_Mono_Android_llvm_got-(.LPC84_6+8)
.LCPI84_7:
	.long	mono_inited-(.LPC84_7+8)
.Lfunc_end84:
	.size	Android_Widget_TextView_SetCompoundDrawablesWithIntrinsicBounds_Android_Graphics_Drawables_Drawable_Android_Graphics_Drawables_Drawable_Android_Graphics_Drawables_Drawable_Android_Graphics_Drawables_Drawable, .Lfunc_end84-Android_Widget_TextView_SetCompoundDrawablesWithIntrinsicBounds_Android_Graphics_Drawables_Drawable_Android_Graphics_Drawables_Drawable_Android_Graphics_Drawables_Drawable_Android_Graphics_Drawables_Drawable
.Lexception78:
	.fnend

	.hidden	Android_Widget_TextView_SetMaxLines_int
	.globl	Android_Widget_TextView_SetMaxLines_int
	.p2align	2
	.type	Android_Widget_TextView_SetMaxLines_int,%function
	.code	32
Android_Widget_TextView_SetMaxLines_int:
.Lfunc_begin85:
	.fnstart
	.save	{r4, r5, r6, r7, r9, r10, r11, lr}
	push	{r4, r5, r6, r7, r9, r10, r11, lr}
.Ltmp1137:
.Ltmp1138:
.Ltmp1139:
.Ltmp1140:
.Ltmp1141:
.Ltmp1142:
.Ltmp1143:
.Ltmp1144:
	.setfp	r11, sp, #24
	add	r11, sp, #24
.Ltmp1145:
	ldr	r7, .LCPI85_2
	mov	r9, r0
	ldr	r0, .LCPI85_3
	mov	r5, r1
.LPC85_2:
	add	r7, pc, r7
.LPC85_3:
	add	r0, pc, r0
	ldr	r1, [r7, #28]
	ldrb	r4, [r0, #2947]
	ldr	r0, [r1]
	cmp	r0, #0
	blne	mono_aot_Mono_Android_icall_cold_wrapper_265
	cmp	r4, #0
	beq	.LBB85_6
.LBB85_1:
	mov	r0, #1
	mov	r1, #8
	bl	p_26_plt__jit_icall___emul_op_imul_ovf_un_llvm
	mov	r4, #0
	cmp	r0, #0
	mov	r6, #0
	beq	.LBB85_3
	add	r0, r0, #7
	bic	r2, r0, #7
	sub	r6, sp, r2
	mov	sp, r6
	mov	r0, r6
	mov	r1, #0
	bl	memset
.LBB85_3:
	ldr	r0, [r7, #352]
	str	r4, [r6, #4]
	str	r5, [r6]
	ldr	r0, [r0]
	cmp	r0, #0
	beq	.LBB85_7
	bl	p_27_plt_Java_Interop_JniPeerMembers_get_InstanceMethods_llvm
	cmp	r0, #0
	beq	.LBB85_8
	ldr	r1, [r7, #424]
	mov	r2, r9
	mov	r3, r6
	bl	p_28_plt_Java_Interop_JniPeerMembers_JniInstanceMethods_InvokeVirtualVoidMethod_string_Java_Interop_IJavaPeerable_Java_Interop_JniArgumentValue__llvm
	sub	sp, r11, #24
	pop	{r4, r5, r6, r7, r9, r10, r11, pc}
.LBB85_6:
	movw	r0, #2947
	bl	mono_aot_Mono_Android_init_method
	b	.LBB85_1
.Ltmp1146:
.LBB85_7:
	ldr	r0, .LCPI85_1
.LPC85_1:
	add	r1, pc, r0
	mov	r0, #225
	bl	p_1_plt__jit_icall_llvm_throw_corlib_exception_abs_trampoline_llvm
.Ltmp1147:
.LBB85_8:
	ldr	r0, .LCPI85_0
.LPC85_0:
	add	r1, pc, r0
	mov	r0, #225
	bl	p_1_plt__jit_icall_llvm_throw_corlib_exception_abs_trampoline_llvm
	.p2align	2
.LCPI85_0:
	.long	.Ltmp1147-(.LPC85_0+8)
.LCPI85_1:
	.long	.Ltmp1146-(.LPC85_1+8)
.LCPI85_2:
	.long	mono_aot_Mono_Android_llvm_got-(.LPC85_2+8)
.LCPI85_3:
	.long	mono_inited-(.LPC85_3+8)
.Lfunc_end85:
	.size	Android_Widget_TextView_SetMaxLines_int, .Lfunc_end85-Android_Widget_TextView_SetMaxLines_int
.Lexception79:
	.fnend

	.hidden	Android_Widget_TextView_SetSingleLine_bool
	.globl	Android_Widget_TextView_SetSingleLine_bool
	.p2align	2
	.type	Android_Widget_TextView_SetSingleLine_bool,%function
	.code	32
Android_Widget_TextView_SetSingleLine_bool:
.Lfunc_begin86:
	.fnstart
	.save	{r4, r5, r6, r7, r9, r10, r11, lr}
	push	{r4, r5, r6, r7, r9, r10, r11, lr}
.Ltmp1148:
.Ltmp1149:
.Ltmp1150:
.Ltmp1151:
.Ltmp1152:
.Ltmp1153:
.Ltmp1154:
.Ltmp1155:
	.setfp	r11, sp, #24
	add	r11, sp, #24
.Ltmp1156:
	ldr	r7, .LCPI86_2
	mov	r9, r0
	ldr	r0, .LCPI86_3
	mov	r5, r1
.LPC86_2:
	add	r7, pc, r7
.LPC86_3:
	add	r0, pc, r0
	ldr	r1, [r7, #28]
	ldrb	r4, [r0, #2959]
	ldr	r0, [r1]
	cmp	r0, #0
	blne	mono_aot_Mono_Android_icall_cold_wrapper_265
	cmp	r4, #0
	beq	.LBB86_6
.LBB86_1:
	mov	r0, #1
	mov	r1, #8
	bl	p_26_plt__jit_icall___emul_op_imul_ovf_un_llvm
	mov	r4, #0
	cmp	r0, #0
	mov	r6, #0
	beq	.LBB86_3
	add	r0, r0, #7
	bic	r2, r0, #7
	sub	r6, sp, r2
	mov	sp, r6
	mov	r0, r6
	mov	r1, #0
	bl	memset
.LBB86_3:
	ldr	r0, [r7, #352]
	uxtb	r1, r5
	str	r4, [r6, #4]
	str	r1, [r6]
	ldr	r0, [r0]
	cmp	r0, #0
	beq	.LBB86_7
	bl	p_27_plt_Java_Interop_JniPeerMembers_get_InstanceMethods_llvm
	cmp	r0, #0
	beq	.LBB86_8
	ldr	r1, [r7, #428]
	mov	r2, r9
	mov	r3, r6
	bl	p_28_plt_Java_Interop_JniPeerMembers_JniInstanceMethods_InvokeVirtualVoidMethod_string_Java_Interop_IJavaPeerable_Java_Interop_JniArgumentValue__llvm
	sub	sp, r11, #24
	pop	{r4, r5, r6, r7, r9, r10, r11, pc}
.LBB86_6:
	movw	r0, #2959
	bl	mono_aot_Mono_Android_init_method
	b	.LBB86_1
.Ltmp1157:
.LBB86_7:
	ldr	r0, .LCPI86_1
.LPC86_1:
	add	r1, pc, r0
	mov	r0, #225
	bl	p_1_plt__jit_icall_llvm_throw_corlib_exception_abs_trampoline_llvm
.Ltmp1158:
.LBB86_8:
	ldr	r0, .LCPI86_0
.LPC86_0:
	add	r1, pc, r0
	mov	r0, #225
	bl	p_1_plt__jit_icall_llvm_throw_corlib_exception_abs_trampoline_llvm
	.p2align	2
.LCPI86_0:
	.long	.Ltmp1158-(.LPC86_0+8)
.LCPI86_1:
	.long	.Ltmp1157-(.LPC86_1+8)
.LCPI86_2:
	.long	mono_aot_Mono_Android_llvm_got-(.LPC86_2+8)
.LCPI86_3:
	.long	mono_inited-(.LPC86_3+8)
.Lfunc_end86:
	.size	Android_Widget_TextView_SetSingleLine_bool, .Lfunc_end86-Android_Widget_TextView_SetSingleLine_bool
.Lexception80:
	.fnend

	.hidden	Android_Widget_TextView_SetTextColor_Android_Content_Res_ColorStateList
	.globl	Android_Widget_TextView_SetTextColor_Android_Content_Res_ColorStateList
	.p2align	2
	.type	Android_Widget_TextView_SetTextColor_Android_Content_Res_ColorStateList,%function
	.code	32
Android_Widget_TextView_SetTextColor_Android_Content_Res_ColorStateList:
.Lfunc_begin87:
	.fnstart
	.save	{r4, r5, r6, r7, r9, r10, r11, lr}
	push	{r4, r5, r6, r7, r9, r10, r11, lr}
.Ltmp1176:
.Ltmp1177:
.Ltmp1178:
.Ltmp1179:
.Ltmp1180:
.Ltmp1181:
.Ltmp1182:
.Ltmp1183:
	.setfp	r11, sp, #24
	add	r11, sp, #24
.Ltmp1184:
	.pad	#8
	sub	sp, sp, #8
	ldr	r7, .LCPI87_3
	mov	r4, r0
	ldr	r0, .LCPI87_4
.LPC87_3:
	add	r7, pc, r7
	str	r1, [r11, #-32]
.LPC87_4:
	add	r0, pc, r0
	ldr	r2, [r7, #28]
	ldrb	r5, [r0, #2965]
	ldr	r0, [r2]
	cmp	r0, #0
	blne	mono_aot_Mono_Android_icall_cold_wrapper_265
	cmp	r5, #0
	beq	.LBB87_13
.LBB87_1:
	mov	r0, sp
	sub	r6, r0, #8
	mov	sp, r6
	mov	r5, #0
	str	r5, [r0, #-8]
.Ltmp1159:
	mov	r0, #1
	mov	r1, #8
	bl	p_26_plt__jit_icall___emul_op_imul_ovf_un_llvm
.Ltmp1160:
	cmp	r0, #0
	beq	.LBB87_4
	add	r0, r0, #7
	bic	r2, r0, #7
	sub	r5, sp, r2
	mov	sp, r5
	mov	r0, r5
	mov	r1, #0
	bl	memset
.LBB87_4:
	ldr	r0, [r11, #-32]
	cmp	r0, #0
	beq	.LBB87_7
	ldr	r0, [r11, #-32]
	cmp	r0, #0
	beq	.LBB87_18
.Ltmp1161:
	bl	Java_Lang_Object_get_Handle
.Ltmp1162:
	b	.LBB87_8
.LBB87_7:
	ldr	r0, [r7, #148]
	ldr	r0, [r0]
.LBB87_8:
	ldr	r2, [r7, #352]
	mov	r1, #0
	str	r1, [r5, #4]
	str	r0, [r5]
	ldr	r0, [r2]
	cmp	r0, #0
	beq	.LBB87_14
.Ltmp1165:
	bl	p_27_plt_Java_Interop_JniPeerMembers_get_InstanceMethods_llvm
.Ltmp1166:
	cmp	r0, #0
	beq	.LBB87_16
	ldr	r1, [r7, #432]
.Ltmp1167:
	mov	r2, r4
	mov	r3, r5
	bl	p_28_plt_Java_Interop_JniPeerMembers_JniInstanceMethods_InvokeVirtualVoidMethod_string_Java_Interop_IJavaPeerable_Java_Interop_JniArgumentValue__llvm
.Ltmp1168:
	mov	r4, #1
	mov	r0, #0
	str	r0, [r11, #-28]
	str	r4, [r6]
	b	.LBB87_20
.LBB87_13:
	movw	r0, #2965
	bl	mono_aot_Mono_Android_init_method
	b	.LBB87_1
.Ltmp1185:
.LBB87_14:
	ldr	r0, .LCPI87_2
.Ltmp1171:
.LPC87_2:
	add	r1, pc, r0
	mov	r0, #225
	bl	p_1_plt__jit_icall_llvm_throw_corlib_exception_abs_trampoline_llvm
.Ltmp1172:
.Ltmp1186:
.LBB87_16:
	ldr	r0, .LCPI87_1
.Ltmp1169:
.LPC87_1:
	add	r1, pc, r0
	mov	r0, #225
	bl	p_1_plt__jit_icall_llvm_throw_corlib_exception_abs_trampoline_llvm
.Ltmp1170:
.Ltmp1187:
.LBB87_18:
	ldr	r0, .LCPI87_0
.Ltmp1163:
.LPC87_0:
	add	r1, pc, r0
	mov	r0, #225
	bl	p_1_plt__jit_icall_llvm_throw_corlib_exception_abs_trampoline_llvm
.Ltmp1164:
.LBB87_20:
	ldr	r0, [r11, #-32]
	bl	p_32_plt_System_GC_KeepAlive_object_llvm
	mov	r0, #0
	cmp	r4, #1
	str	r0, [r6]
	bne	.LBB87_24
	ldr	r0, [r11, #-28]
	cmp	r0, #0
	beq	.LBB87_23
.Ltmp1174:
	bl	p_15_plt__jit_icall_ves_icall_thread_finish_async_abort_llvm
.Ltmp1175:
.LBB87_23:
	sub	sp, r11, #24
	pop	{r4, r5, r6, r7, r9, r10, r11, pc}
.LBB87_24:
	bl	p_17_plt__jit_icall_llvm_resume_unwind_trampoline_llvm
.LBB87_25:
.Ltmp1173:
	ldr	r4, [r6]
	b	.LBB87_20
	.p2align	2
.LCPI87_0:
	.long	.Ltmp1187-(.LPC87_0+8)
.LCPI87_1:
	.long	.Ltmp1186-(.LPC87_1+8)
.LCPI87_2:
	.long	.Ltmp1185-(.LPC87_2+8)
.LCPI87_3:
	.long	mono_aot_Mono_Android_llvm_got-(.LPC87_3+8)
.LCPI87_4:
	.long	mono_inited-(.LPC87_4+8)
.Lfunc_end87:
	.size	Android_Widget_TextView_SetTextColor_Android_Content_Res_ColorStateList, .Lfunc_end87-Android_Widget_TextView_SetTextColor_Android_Content_Res_ColorStateList
.Lexception81:
	.fnend

	.hidden	Android_Widget_TextView_SetTextSize_Android_Util_ComplexUnitType_single
	.globl	Android_Widget_TextView_SetTextSize_Android_Util_ComplexUnitType_single
	.p2align	2
	.type	Android_Widget_TextView_SetTextSize_Android_Util_ComplexUnitType_single,%function
	.code	32
Android_Widget_TextView_SetTextSize_Android_Util_ComplexUnitType_single:
.Lfunc_begin88:
	.fnstart
	.save	{r4, r5, r6, r7, r9, r10, r11, lr}
	push	{r4, r5, r6, r7, r9, r10, r11, lr}
.Ltmp1188:
.Ltmp1189:
.Ltmp1190:
.Ltmp1191:
.Ltmp1192:
.Ltmp1193:
.Ltmp1194:
.Ltmp1195:
	.setfp	r11, sp, #24
	add	r11, sp, #24
.Ltmp1196:
	.pad	#8
	sub	sp, sp, #8
	ldr	r10, .LCPI88_2
	mov	r9, r0
	ldr	r0, .LCPI88_3
	mov	r6, r1
.LPC88_2:
	add	r10, pc, r10
	mov	r5, r2
.LPC88_3:
	add	r0, pc, r0
	ldr	r1, [r10, #28]
	ldrb	r4, [r0, #2971]
	ldr	r0, [r1]
	cmp	r0, #0
	blne	mono_aot_Mono_Android_icall_cold_wrapper_265
	cmp	r4, #0
	beq	.LBB88_6
.LBB88_1:
	mov	r0, #2
	mov	r1, #8
	bl	p_26_plt__jit_icall___emul_op_imul_ovf_un_llvm
	mov	r4, #0
	cmp	r0, #0
	mov	r7, #0
	beq	.LBB88_3
	add	r0, r0, #7
	bic	r2, r0, #7
	sub	r7, sp, r2
	mov	sp, r7
	mov	r0, r7
	mov	r1, #0
	bl	memset
.LBB88_3:
	ldr	r0, [r10, #352]
	str	r4, [r7, #4]
	str	r6, [r7]
	str	r4, [r7, #12]
	str	r5, [r7, #8]
	ldr	r0, [r0]
	cmp	r0, #0
	beq	.LBB88_7
	bl	p_27_plt_Java_Interop_JniPeerMembers_get_InstanceMethods_llvm
	cmp	r0, #0
	beq	.LBB88_8
	ldr	r1, [r10, #436]
	mov	r2, r9
	mov	r3, r7
	bl	p_28_plt_Java_Interop_JniPeerMembers_JniInstanceMethods_InvokeVirtualVoidMethod_string_Java_Interop_IJavaPeerable_Java_Interop_JniArgumentValue__llvm
	sub	sp, r11, #24
	pop	{r4, r5, r6, r7, r9, r10, r11, pc}
.LBB88_6:
	movw	r0, #2971
	bl	mono_aot_Mono_Android_init_method
	b	.LBB88_1
.Ltmp1197:
.LBB88_7:
	ldr	r0, .LCPI88_1
.LPC88_1:
	add	r1, pc, r0
	mov	r0, #225
	bl	p_1_plt__jit_icall_llvm_throw_corlib_exception_abs_trampoline_llvm
.Ltmp1198:
.LBB88_8:
	ldr	r0, .LCPI88_0
.LPC88_0:
	add	r1, pc, r0
	mov	r0, #225
	bl	p_1_plt__jit_icall_llvm_throw_corlib_exception_abs_trampoline_llvm
	.p2align	2
.LCPI88_0:
	.long	.Ltmp1198-(.LPC88_0+8)
.LCPI88_1:
	.long	.Ltmp1197-(.LPC88_1+8)
.LCPI88_2:
	.long	mono_aot_Mono_Android_llvm_got-(.LPC88_2+8)
.LCPI88_3:
	.long	mono_inited-(.LPC88_3+8)
.Lfunc_end88:
	.size	Android_Widget_TextView_SetTextSize_Android_Util_ComplexUnitType_single, .Lfunc_end88-Android_Widget_TextView_SetTextSize_Android_Util_ComplexUnitType_single
.Lexception82:
	.fnend

	.hidden	Android_Widget_TextView__cctor
	.globl	Android_Widget_TextView__cctor
	.p2align	2
	.type	Android_Widget_TextView__cctor,%function
	.code	32
Android_Widget_TextView__cctor:
.Lfunc_begin89:
	.fnstart
	.save	{r4, r5, r6, r7, r11, lr}
	push	{r4, r5, r6, r7, r11, lr}
.Ltmp1199:
.Ltmp1200:
.Ltmp1201:
.Ltmp1202:
.Ltmp1203:
.Ltmp1204:
.Ltmp1205:
	ldr	r7, .LCPI89_0
	ldr	r0, .LCPI89_1
.LPC89_0:
	add	r7, pc, r7
.LPC89_1:
	add	r0, pc, r0
	ldr	r1, [r7, #28]
	ldrb	r4, [r0, #2975]
	ldr	r0, [r1]
	cmp	r0, #0
	blne	mono_aot_Mono_Android_icall_cold_wrapper_265
	cmp	r4, #0
	beq	.LBB89_2
.LBB89_1:
	ldr	r0, [r7, #144]
	mov	r1, #40
	ldr	r4, [r7, #440]
	ldr	r5, [r7, #444]
	bl	p_13_plt_wrapper_alloc_object_AllocSmall_intptr_intptr_llvm
	mov	r1, r4
	mov	r2, r5
	mov	r6, r0
	bl	Android_Runtime_XAPeerMembers__ctor_string_System_Type
	ldr	r0, [r7, #352]
	dmb	ish
	str	r6, [r0]
	pop	{r4, r5, r6, r7, r11, pc}
.LBB89_2:
	movw	r0, #2975
	bl	mono_aot_Mono_Android_init_method
	b	.LBB89_1
	.p2align	2
.LCPI89_0:
	.long	mono_aot_Mono_Android_llvm_got-(.LPC89_0+8)
.LCPI89_1:
	.long	mono_inited-(.LPC89_1+8)
.Lfunc_end89:
	.size	Android_Widget_TextView__cctor, .Lfunc_end89-Android_Widget_TextView__cctor
.Lexception83:
	.fnend

	.hidden	Android_Widget_AdapterView_1_T_REF__ctor_intptr_Android_Runtime_JniHandleOwnership
	.globl	Android_Widget_AdapterView_1_T_REF__ctor_intptr_Android_Runtime_JniHandleOwnership
	.p2align	2
	.type	Android_Widget_AdapterView_1_T_REF__ctor_intptr_Android_Runtime_JniHandleOwnership,%function
	.code	32
Android_Widget_AdapterView_1_T_REF__ctor_intptr_Android_Runtime_JniHandleOwnership:
.Lfunc_begin90:
	.fnstart
	.save	{r4, r5, r6, lr}
	push	{r4, r5, r6, lr}
.Ltmp1206:
.Ltmp1207:
.Ltmp1208:
.Ltmp1209:
.Ltmp1210:
	.pad	#8
	sub	sp, sp, #8
.Ltmp1211:
	mov	r5, r1
	ldr	r1, .LCPI90_0
	mov	r4, r2
.LPC90_0:
	add	r1, pc, r1
	ldr	r1, [r1, #28]
	str	r0, [sp]
	str	r0, [sp, #4]
	ldr	r6, [sp, #4]
	ldr	r0, [r1]
	cmp	r0, #0
	blne	mono_aot_Mono_Android_icall_cold_wrapper_265
	mov	r0, r6
	mov	r1, r5
	mov	r2, r4
	bl	Android_Widget_AdapterView__ctor_intptr_Android_Runtime_JniHandleOwnership
	add	sp, sp, #8
	pop	{r4, r5, r6, pc}
	.p2align	2
.LCPI90_0:
	.long	mono_aot_Mono_Android_llvm_got-(.LPC90_0+8)
.Lfunc_end90:
	.size	Android_Widget_AdapterView_1_T_REF__ctor_intptr_Android_Runtime_JniHandleOwnership, .Lfunc_end90-Android_Widget_AdapterView_1_T_REF__ctor_intptr_Android_Runtime_JniHandleOwnership
.Lexception84:
	.fnend

	.hidden	Android_Widget_AdapterView_1_T_REF__ctor_Android_Content_Context_Android_Util_IAttributeSet
	.globl	Android_Widget_AdapterView_1_T_REF__ctor_Android_Content_Context_Android_Util_IAttributeSet
	.p2align	2
	.type	Android_Widget_AdapterView_1_T_REF__ctor_Android_Content_Context_Android_Util_IAttributeSet,%function
	.code	32
Android_Widget_AdapterView_1_T_REF__ctor_Android_Content_Context_Android_Util_IAttributeSet:
.Lfunc_begin91:
	.fnstart
	.save	{r4, r5, r6, r7, r9, r10, r11, lr}
	push	{r4, r5, r6, r7, r9, r10, r11, lr}
.Ltmp1212:
.Ltmp1213:
.Ltmp1214:
.Ltmp1215:
.Ltmp1216:
.Ltmp1217:
.Ltmp1218:
.Ltmp1219:
.Ltmp1220:
	.pad	#80
	sub	sp, sp, #80
.Ltmp1221:
	mov	r4, r0
	ldr	r0, .LCPI91_2
	ldr	r5, .LCPI91_3
	mov	r10, r2
.LPC91_2:
	add	r0, pc, r0
	mov	r11, r1
.LPC91_3:
	add	r5, pc, r5
	ldrb	r6, [r0, #3082]
	ldr	r0, [r5, #28]
	str	r4, [sp, #8]
	str	r4, [sp, #12]
	ldr	r0, [r0]
	cmp	r0, #0
	blne	mono_aot_Mono_Android_icall_cold_wrapper_265
	cmp	r6, #0
	beq	.LBB91_10
.LBB91_1:
	ldr	r4, [r5, #148]
	mov	r2, #0
	ldr	r0, [sp, #12]
	ldr	r1, [r4]
	bl	Android_Widget_AdapterView__ctor_intptr_Android_Runtime_JniHandleOwnership
	ldr	r0, [sp, #12]
	bl	Java_Lang_Object_get_Handle
	ldr	r1, [r4]
	bl	p_37_plt_intptr_op_Inequality_intptr_intptr_llvm
	tst	r0, #255
	beq	.LBB91_3
	add	sp, sp, #80
	pop	{r4, r5, r6, r7, r9, r10, r11, pc}
.LBB91_3:
	ldr	r0, [sp, #12]
	cmp	r0, #0
	beq	.LBB91_11
	ldr	r0, [r0]
	ldr	r6, [r0, #12]
	ldr	r0, [sp, #12]
	ldr	r0, [r0]
	bl	p_64_plt__rgctx_fetch_7_llvm
	ldr	r7, [sp, #12]
	cmp	r6, r0
	bne	.LBB91_8
	ldr	r0, [r7]
	bl	p_68_plt__rgctx_fetch_8_llvm
	ldr	r1, [r4]
	ldr	r0, [r0]
	cmp	r0, r1
	bne	.LBB91_7
	bl	p_69_plt_Android_Widget_AdapterView_get_class_ref_llvm
	ldr	r2, [r5, #448]
	ldr	r1, [r5, #456]
	bl	Android_Runtime_JNIEnv_GetMethodID_intptr_string_string
	mov	r4, r0
	ldr	r0, [sp, #12]
	ldr	r0, [r0]
	bl	p_68_plt__rgctx_fetch_8_llvm
	str	r4, [r0]
.LBB91_7:
	ldr	r0, [sp, #12]
	str	r0, [sp, #4]
	bl	p_69_plt_Android_Widget_AdapterView_get_class_ref_llvm
	mov	r7, r0
	ldr	r0, [sp, #12]
	ldr	r0, [r0]
	bl	p_68_plt__rgctx_fetch_8_llvm
	ldr	r6, [r5, #452]
	mov	r1, #2
	ldr	r4, [r0]
	mov	r0, r6
	bl	p_10_plt_wrapper_alloc_object_AllocVector_intptr_intptr_llvm
	mov	r5, r0
	add	r0, sp, #16
	mov	r9, #0
	mov	r1, r11
	str	r9, [sp, #20]
	str	r9, [sp, #16]
	bl	p_65_plt_Android_Runtime_JValue__ctor_Android_Runtime_IJavaObject_llvm
	ldr	r1, [sp, #20]
	ldr	r0, [sp, #16]
	str	r9, [sp, #28]
	strd	r0, r1, [r5, #16]
	add	r0, sp, #24
	mov	r1, r10
	str	r9, [sp, #24]
	bl	p_65_plt_Android_Runtime_JValue__ctor_Android_Runtime_IJavaObject_llvm
	ldr	r1, [sp, #28]
	mov	r2, r5
	ldr	r0, [sp, #24]
	strd	r0, r1, [r5, #24]
	mov	r0, r7
	mov	r1, r4
	bl	p_70_plt_Android_Runtime_JNIEnv_StartCreateInstance_intptr_intptr_Android_Runtime_JValue___llvm
	mov	r1, r0
	ldr	r0, [sp, #4]
	mov	r2, #1
	bl	Java_Lang_Object_SetHandle_intptr_Android_Runtime_JniHandleOwnership
	ldr	r0, [sp, #12]
	bl	Java_Lang_Object_get_Handle
	mov	r7, r0
	bl	p_69_plt_Android_Widget_AdapterView_get_class_ref_llvm
	mov	r4, r0
	ldr	r0, [sp, #12]
	ldr	r0, [r0]
	bl	p_68_plt__rgctx_fetch_8_llvm
	ldr	r5, [r0]
	mov	r0, r6
	mov	r1, #2
	bl	p_10_plt_wrapper_alloc_object_AllocVector_intptr_intptr_llvm
	mov	r6, r0
	add	r0, sp, #32
	mov	r1, r11
	str	r9, [sp, #36]
	str	r9, [sp, #32]
	bl	p_65_plt_Android_Runtime_JValue__ctor_Android_Runtime_IJavaObject_llvm
	ldr	r1, [sp, #36]
	ldr	r0, [sp, #32]
	str	r9, [sp, #44]
	strd	r0, r1, [r6, #16]
	add	r0, sp, #40
	mov	r1, r10
	str	r9, [sp, #40]
	bl	p_65_plt_Android_Runtime_JValue__ctor_Android_Runtime_IJavaObject_llvm
	ldr	r1, [sp, #44]
	mov	r2, r5
	ldr	r0, [sp, #40]
	mov	r3, r6
	strd	r0, r1, [r6, #24]
	mov	r0, r7
	mov	r1, r4
	bl	p_71_plt_Android_Runtime_JNIEnv_FinishCreateInstance_intptr_intptr_intptr_Android_Runtime_JValue___llvm
	add	sp, sp, #80
	pop	{r4, r5, r6, r7, r9, r10, r11, pc}
.LBB91_8:
	ldr	r0, [sp, #12]
	mov	r4, r11
	mov	r11, r10
	cmp	r0, #0
	beq	.LBB91_12
	ldr	r0, [r0]
	mov	r1, #2
	ldr	r6, [r5, #452]
	ldr	r10, [r5, #448]
	ldr	r0, [r0, #12]
	str	r0, [sp, #4]
	mov	r0, r6
	bl	p_10_plt_wrapper_alloc_object_AllocVector_intptr_intptr_llvm
	mov	r5, r0
	add	r0, sp, #48
	mov	r9, #0
	mov	r1, r4
	str	r9, [sp, #52]
	str	r9, [sp, #48]
	bl	p_65_plt_Android_Runtime_JValue__ctor_Android_Runtime_IJavaObject_llvm
	ldr	r1, [sp, #52]
	ldr	r0, [sp, #48]
	str	r9, [sp, #60]
	strd	r0, r1, [r5, #16]
	add	r0, sp, #56
	mov	r1, r11
	str	r9, [sp, #56]
	bl	p_65_plt_Android_Runtime_JValue__ctor_Android_Runtime_IJavaObject_llvm
	ldr	r1, [sp, #60]
	mov	r2, r5
	ldr	r0, [sp, #56]
	strd	r0, r1, [r5, #24]
	mov	r1, r10
	ldr	r0, [sp, #4]
	bl	Android_Runtime_JNIEnv_StartCreateInstance_System_Type_string_Android_Runtime_JValue__
	mov	r1, r0
	mov	r0, r7
	mov	r2, #1
	bl	Java_Lang_Object_SetHandle_intptr_Android_Runtime_JniHandleOwnership
	ldr	r0, [sp, #12]
	bl	Java_Lang_Object_get_Handle
	mov	r7, r0
	mov	r0, r6
	mov	r1, #2
	bl	p_10_plt_wrapper_alloc_object_AllocVector_intptr_intptr_llvm
	mov	r5, r0
	add	r0, sp, #64
	mov	r1, r4
	str	r9, [sp, #68]
	str	r9, [sp, #64]
	bl	p_65_plt_Android_Runtime_JValue__ctor_Android_Runtime_IJavaObject_llvm
	ldr	r1, [sp, #68]
	ldr	r0, [sp, #64]
	str	r9, [sp, #76]
	strd	r0, r1, [r5, #16]
	add	r0, sp, #72
	mov	r1, r11
	str	r9, [sp, #72]
	bl	p_65_plt_Android_Runtime_JValue__ctor_Android_Runtime_IJavaObject_llvm
	ldr	r1, [sp, #76]
	mov	r2, r5
	ldr	r0, [sp, #72]
	strd	r0, r1, [r5, #24]
	mov	r0, r7
	mov	r1, r10
	bl	Android_Runtime_JNIEnv_FinishCreateInstance_intptr_string_Android_Runtime_JValue__
	add	sp, sp, #80
	pop	{r4, r5, r6, r7, r9, r10, r11, pc}
.LBB91_10:
	movw	r0, #3082
	mov	r1, r4
	bl	mono_aot_Mono_Android_init_method_gshared_this
	b	.LBB91_1
.Ltmp1222:
.LBB91_11:
	ldr	r0, .LCPI91_1
.LPC91_1:
	add	r1, pc, r0
	mov	r0, #225
	bl	p_1_plt__jit_icall_llvm_throw_corlib_exception_abs_trampoline_llvm
.Ltmp1223:
.LBB91_12:
	ldr	r0, .LCPI91_0
.LPC91_0:
	add	r1, pc, r0
	mov	r0, #225
	bl	p_1_plt__jit_icall_llvm_throw_corlib_exception_abs_trampoline_llvm
	.p2align	2
.LCPI91_0:
	.long	.Ltmp1223-(.LPC91_0+8)
.LCPI91_1:
	.long	.Ltmp1222-(.LPC91_1+8)
.LCPI91_2:
	.long	mono_inited-(.LPC91_2+8)
.LCPI91_3:
	.long	mono_aot_Mono_Android_llvm_got-(.LPC91_3+8)
.Lfunc_end91:
	.size	Android_Widget_AdapterView_1_T_REF__ctor_Android_Content_Context_Android_Util_IAttributeSet, .Lfunc_end91-Android_Widget_AdapterView_1_T_REF__ctor_Android_Content_Context_Android_Util_IAttributeSet
.Lexception85:
	.fnend

	.hidden	Android_Widget_AdapterView_1_T_REF__ctor_Android_Content_Context_Android_Util_IAttributeSet_int
	.globl	Android_Widget_AdapterView_1_T_REF__ctor_Android_Content_Context_Android_Util_IAttributeSet_int
	.p2align	2
	.type	Android_Widget_AdapterView_1_T_REF__ctor_Android_Content_Context_Android_Util_IAttributeSet_int,%function
	.code	32
Android_Widget_AdapterView_1_T_REF__ctor_Android_Content_Context_Android_Util_IAttributeSet_int:
.Lfunc_begin92:
	.fnstart
	.save	{r4, r5, r6, r7, r9, r10, r11, lr}
	push	{r4, r5, r6, r7, r9, r10, r11, lr}
.Ltmp1224:
.Ltmp1225:
.Ltmp1226:
.Ltmp1227:
.Ltmp1228:
.Ltmp1229:
.Ltmp1230:
.Ltmp1231:
.Ltmp1232:
	.pad	#88
	sub	sp, sp, #88
.Ltmp1233:
	mov	r4, r0
	ldr	r0, .LCPI92_2
	ldr	r11, .LCPI92_3
	mov	r7, r3
.LPC92_2:
	add	r0, pc, r0
	mov	r6, r2
.LPC92_3:
	add	r11, pc, r11
	mov	r9, r1
	ldrb	r5, [r0, #3083]
	ldr	r0, [r11, #28]
	str	r4, [sp, #16]
	str	r4, [sp, #20]
	ldr	r0, [r0]
	cmp	r0, #0
	blne	mono_aot_Mono_Android_icall_cold_wrapper_265
	cmp	r5, #0
	beq	.LBB92_10
.LBB92_1:
	ldr	r4, [r11, #148]
	mov	r2, #0
	ldr	r0, [sp, #20]
	ldr	r1, [r4]
	bl	Android_Widget_AdapterView__ctor_intptr_Android_Runtime_JniHandleOwnership
	ldr	r0, [sp, #20]
	bl	Java_Lang_Object_get_Handle
	ldr	r1, [r4]
	bl	p_37_plt_intptr_op_Inequality_intptr_intptr_llvm
	tst	r0, #255
	beq	.LBB92_3
	add	sp, sp, #88
	pop	{r4, r5, r6, r7, r9, r10, r11, pc}
.LBB92_3:
	ldr	r0, [sp, #20]
	cmp	r0, #0
	beq	.LBB92_11
	ldr	r0, [r0]
	ldr	r5, [r0, #12]
	ldr	r0, [sp, #20]
	ldr	r0, [r0]
	bl	p_64_plt__rgctx_fetch_7_llvm
	ldr	r10, [sp, #20]
	cmp	r5, r0
	str	r6, [sp, #12]
	bne	.LBB92_8
	ldr	r0, [r10]
	str	r7, [sp, #8]
	bl	p_68_plt__rgctx_fetch_8_llvm
	ldr	r1, [r4]
	ldr	r0, [r0, #4]
	cmp	r0, r1
	bne	.LBB92_7
	bl	p_69_plt_Android_Widget_AdapterView_get_class_ref_llvm
	ldr	r1, [r11, #456]
	ldr	r2, [r11, #460]
	bl	Android_Runtime_JNIEnv_GetMethodID_intptr_string_string
	mov	r4, r0
	ldr	r0, [sp, #20]
	ldr	r0, [r0]
	bl	p_68_plt__rgctx_fetch_8_llvm
	str	r4, [r0, #4]
.LBB92_7:
	ldr	r0, [sp, #20]
	str	r0, [sp, #4]
	bl	p_69_plt_Android_Widget_AdapterView_get_class_ref_llvm
	str	r0, [sp]
	ldr	r0, [sp, #20]
	ldr	r0, [r0]
	bl	p_68_plt__rgctx_fetch_8_llvm
	ldr	r7, [r11, #452]
	mov	r1, #3
	ldr	r5, [r0, #4]
	mov	r0, r7
	bl	p_10_plt_wrapper_alloc_object_AllocVector_intptr_intptr_llvm
	mov	r6, r0
	add	r0, sp, #24
	mov	r11, #0
	mov	r1, r9
	str	r11, [sp, #28]
	str	r11, [sp, #24]
	bl	p_65_plt_Android_Runtime_JValue__ctor_Android_Runtime_IJavaObject_llvm
	ldr	r1, [sp, #28]
	ldr	r10, [sp, #12]
	ldr	r0, [sp, #24]
	strd	r0, r1, [r6, #16]
	add	r0, sp, #32
	mov	r1, r10
	str	r11, [sp, #36]
	str	r11, [sp, #32]
	bl	p_65_plt_Android_Runtime_JValue__ctor_Android_Runtime_IJavaObject_llvm
	ldr	r0, [sp, #32]
	mov	r2, r6
	str	r0, [r6, #24]
	ldr	r0, [sp]
	ldr	r1, [sp, #36]
	str	r1, [r6, #28]
	mov	r1, r5
	ldr	r4, [sp, #8]
	str	r4, [r6, #32]
	str	r11, [r6, #36]
	bl	p_70_plt_Android_Runtime_JNIEnv_StartCreateInstance_intptr_intptr_Android_Runtime_JValue___llvm
	mov	r1, r0
	ldr	r0, [sp, #4]
	mov	r2, #1
	bl	Java_Lang_Object_SetHandle_intptr_Android_Runtime_JniHandleOwnership
	ldr	r0, [sp, #20]
	bl	Java_Lang_Object_get_Handle
	str	r0, [sp, #4]
	bl	p_69_plt_Android_Widget_AdapterView_get_class_ref_llvm
	mov	r6, r0
	ldr	r0, [sp, #20]
	ldr	r0, [r0]
	bl	p_68_plt__rgctx_fetch_8_llvm
	ldr	r5, [r0, #4]
	mov	r0, r7
	mov	r1, #3
	bl	p_10_plt_wrapper_alloc_object_AllocVector_intptr_intptr_llvm
	mov	r7, r0
	add	r0, sp, #40
	mov	r1, r9
	str	r11, [sp, #44]
	str	r11, [sp, #40]
	bl	p_65_plt_Android_Runtime_JValue__ctor_Android_Runtime_IJavaObject_llvm
	ldr	r1, [sp, #44]
	ldr	r0, [sp, #40]
	str	r11, [sp, #52]
	strd	r0, r1, [r7, #16]
	add	r0, sp, #48
	mov	r1, r10
	str	r11, [sp, #48]
	bl	p_65_plt_Android_Runtime_JValue__ctor_Android_Runtime_IJavaObject_llvm
	ldr	r1, [sp, #52]
	add	r2, r7, #24
	ldr	r0, [sp, #48]
	mov	r3, r7
	stm	r2, {r0, r1, r4, r11}
	mov	r1, r6
	mov	r2, r5
	ldr	r0, [sp, #4]
	bl	p_71_plt_Android_Runtime_JNIEnv_FinishCreateInstance_intptr_intptr_intptr_Android_Runtime_JValue___llvm
	add	sp, sp, #88
	pop	{r4, r5, r6, r7, r9, r10, r11, pc}
.LBB92_8:
	ldr	r0, [sp, #20]
	cmp	r0, #0
	beq	.LBB92_12
	ldr	r0, [r0]
	mov	r1, #3
	ldr	r4, [r11, #452]
	ldr	r5, [r11, #460]
	ldr	r0, [r0, #12]
	str	r0, [sp]
	mov	r0, r4
	str	r5, [sp, #8]
	bl	p_10_plt_wrapper_alloc_object_AllocVector_intptr_intptr_llvm
	mov	r6, r0
	add	r0, sp, #56
	mov	r11, #0
	mov	r1, r9
	str	r11, [sp, #60]
	str	r11, [sp, #56]
	bl	p_65_plt_Android_Runtime_JValue__ctor_Android_Runtime_IJavaObject_llvm
	ldr	r1, [sp, #60]
	str	r9, [sp, #4]
	ldr	r9, [sp, #12]
	ldr	r0, [sp, #56]
	strd	r0, r1, [r6, #16]
	add	r0, sp, #64
	mov	r1, r9
	str	r11, [sp, #68]
	str	r11, [sp, #64]
	bl	p_65_plt_Android_Runtime_JValue__ctor_Android_Runtime_IJavaObject_llvm
	ldr	r1, [sp, #68]
	add	r2, r6, #24
	ldr	r0, [sp, #64]
	stm	r2, {r0, r1, r7, r11}
	mov	r1, r5
	mov	r2, r6
	ldr	r0, [sp]
	bl	Android_Runtime_JNIEnv_StartCreateInstance_System_Type_string_Android_Runtime_JValue__
	mov	r1, r0
	mov	r0, r10
	mov	r2, #1
	bl	Java_Lang_Object_SetHandle_intptr_Android_Runtime_JniHandleOwnership
	ldr	r0, [sp, #20]
	bl	Java_Lang_Object_get_Handle
	mov	r5, r0
	mov	r0, r4
	mov	r1, #3
	bl	p_10_plt_wrapper_alloc_object_AllocVector_intptr_intptr_llvm
	ldr	r1, [sp, #4]
	mov	r4, r0
	add	r0, sp, #72
	str	r11, [sp, #76]
	str	r11, [sp, #72]
	bl	p_65_plt_Android_Runtime_JValue__ctor_Android_Runtime_IJavaObject_llvm
	ldr	r1, [sp, #76]
	ldr	r0, [sp, #72]
	str	r11, [sp, #84]
	strd	r0, r1, [r4, #16]
	add	r0, sp, #80
	mov	r1, r9
	str	r11, [sp, #80]
	bl	p_65_plt_Android_Runtime_JValue__ctor_Android_Runtime_IJavaObject_llvm
	ldr	r1, [sp, #84]
	add	r2, r4, #24
	ldr	r0, [sp, #80]
	stm	r2, {r0, r1, r7, r11}
	mov	r0, r5
	mov	r2, r4
	ldr	r1, [sp, #8]
	bl	Android_Runtime_JNIEnv_FinishCreateInstance_intptr_string_Android_Runtime_JValue__
	add	sp, sp, #88
	pop	{r4, r5, r6, r7, r9, r10, r11, pc}
.LBB92_10:
	movw	r0, #3083
	mov	r1, r4
	bl	mono_aot_Mono_Android_init_method_gshared_this
	b	.LBB92_1
.Ltmp1234:
.LBB92_11:
	ldr	r0, .LCPI92_1
.LPC92_1:
	add	r1, pc, r0
	mov	r0, #225
	bl	p_1_plt__jit_icall_llvm_throw_corlib_exception_abs_trampoline_llvm
.Ltmp1235:
.LBB92_12:
	ldr	r0, .LCPI92_0
.LPC92_0:
	add	r1, pc, r0
	mov	r0, #225
	bl	p_1_plt__jit_icall_llvm_throw_corlib_exception_abs_trampoline_llvm
	.p2align	2
.LCPI92_0:
	.long	.Ltmp1235-(.LPC92_0+8)
.LCPI92_1:
	.long	.Ltmp1234-(.LPC92_1+8)
.LCPI92_2:
	.long	mono_inited-(.LPC92_2+8)
.LCPI92_3:
	.long	mono_aot_Mono_Android_llvm_got-(.LPC92_3+8)
.Lfunc_end92:
	.size	Android_Widget_AdapterView_1_T_REF__ctor_Android_Content_Context_Android_Util_IAttributeSet_int, .Lfunc_end92-Android_Widget_AdapterView_1_T_REF__ctor_Android_Content_Context_Android_Util_IAttributeSet_int
.Lexception86:
	.fnend

	.hidden	Android_Widget_AdapterView_1_T_REF_get_RawAdapter
	.globl	Android_Widget_AdapterView_1_T_REF_get_RawAdapter
	.p2align	2
	.type	Android_Widget_AdapterView_1_T_REF_get_RawAdapter,%function
	.code	32
Android_Widget_AdapterView_1_T_REF_get_RawAdapter:
.Lfunc_begin93:
	.fnstart
	.save	{r4, r5, r6, r8, r11, lr}
	push	{r4, r5, r6, r8, r11, lr}
.Ltmp1236:
.Ltmp1237:
.Ltmp1238:
.Ltmp1239:
.Ltmp1240:
.Ltmp1241:
.Ltmp1242:
	.pad	#16
	sub	sp, sp, #16
.Ltmp1243:
	mov	r4, r0
	ldr	r0, .LCPI93_1
	ldr	r5, .LCPI93_2
.LPC93_1:
	add	r0, pc, r0
.LPC93_2:
	add	r5, pc, r5
	ldrb	r6, [r0, #3084]
	ldr	r0, [r5, #28]
	str	r4, [sp, #8]
	str	r4, [sp, #12]
	ldr	r0, [r0]
	cmp	r0, #0
	blne	mono_aot_Mono_Android_icall_cold_wrapper_265
	cmp	r6, #0
	beq	.LBB93_3
.LBB93_1:
	ldr	r0, [sp, #12]
	cmp	r0, #0
	beq	.LBB93_4
	ldr	r1, [r0]
	ldr	r1, [r1, #1372]
	blx	r1
	mov	r4, r0
	ldr	r0, [sp, #12]
	ldr	r0, [r0]
	bl	p_73_plt__rgctx_fetch_9_llvm
	str	r0, [sp, #4]
	mov	r0, r4
	ldr	r8, [sp, #4]
	bl	p_74_plt_Java_Interop_JavaConvert_ToJavaObject_T_REF_T_REF_llvm
	ldr	r1, [r5, #464]
	str	r1, [sp, #4]
	ldr	r8, [sp, #4]
	bl	p_75_plt_Java_Interop_JavaObjectExtensions_JavaCast_Java_Lang_Object_Android_Runtime_IJavaObject_llvm
	add	sp, sp, #16
	pop	{r4, r5, r6, r8, r11, pc}
.LBB93_3:
	movw	r0, #3084
	mov	r1, r4
	bl	mono_aot_Mono_Android_init_method_gshared_this
	b	.LBB93_1
.Ltmp1244:
.LBB93_4:
	ldr	r0, .LCPI93_0
.LPC93_0:
	add	r1, pc, r0
	mov	r0, #225
	bl	p_1_plt__jit_icall_llvm_throw_corlib_exception_abs_trampoline_llvm
	.p2align	2
.LCPI93_0:
	.long	.Ltmp1244-(.LPC93_0+8)
.LCPI93_1:
	.long	mono_inited-(.LPC93_1+8)
.LCPI93_2:
	.long	mono_aot_Mono_Android_llvm_got-(.LPC93_2+8)
.Lfunc_end93:
	.size	Android_Widget_AdapterView_1_T_REF_get_RawAdapter, .Lfunc_end93-Android_Widget_AdapterView_1_T_REF_get_RawAdapter
.Lexception87:
	.fnend

	.hidden	Android_Widget_AdapterView_1_T_REF_set_RawAdapter_Java_Lang_Object
	.globl	Android_Widget_AdapterView_1_T_REF_set_RawAdapter_Java_Lang_Object
	.p2align	2
	.type	Android_Widget_AdapterView_1_T_REF_set_RawAdapter_Java_Lang_Object,%function
	.code	32
Android_Widget_AdapterView_1_T_REF_set_RawAdapter_Java_Lang_Object:
.Lfunc_begin94:
	.fnstart
	.save	{r4, r5, r6, r8, r11, lr}
	push	{r4, r5, r6, r8, r11, lr}
.Ltmp1245:
.Ltmp1246:
.Ltmp1247:
.Ltmp1248:
.Ltmp1249:
.Ltmp1250:
.Ltmp1251:
	.pad	#16
	sub	sp, sp, #16
.Ltmp1252:
	mov	r5, r1
	ldr	r1, .LCPI94_1
	str	r0, [sp, #8]
.LPC94_1:
	add	r1, pc, r1
	str	r0, [sp, #12]
	ldr	r4, [sp, #12]
	ldr	r0, [sp, #12]
	ldr	r1, [r1, #28]
	ldr	r6, [r0]
	ldr	r0, [r1]
	cmp	r0, #0
	blne	mono_aot_Mono_Android_icall_cold_wrapper_265
	mov	r0, r6
	bl	p_76_plt__rgctx_fetch_10_llvm
	str	r0, [sp, #4]
	mov	r0, r5
	ldr	r8, [sp, #4]
	bl	p_77_plt_Java_Interop_JavaConvert_FromJavaObject_T_REF_Android_Runtime_IJavaObject_llvm
	mov	r1, r0
	cmp	r4, #0
	beq	.LBB94_2
	ldr	r0, [r4]
	ldr	r2, [r0, #1368]
	mov	r0, r4
	blx	r2
	add	sp, sp, #16
	pop	{r4, r5, r6, r8, r11, pc}
.Ltmp1253:
.LBB94_2:
	ldr	r0, .LCPI94_0
.LPC94_0:
	add	r1, pc, r0
	mov	r0, #225
	bl	p_1_plt__jit_icall_llvm_throw_corlib_exception_abs_trampoline_llvm
	.p2align	2
.LCPI94_0:
	.long	.Ltmp1253-(.LPC94_0+8)
.LCPI94_1:
	.long	mono_aot_Mono_Android_llvm_got-(.LPC94_1+8)
.Lfunc_end94:
	.size	Android_Widget_AdapterView_1_T_REF_set_RawAdapter_Java_Lang_Object, .Lfunc_end94-Android_Widget_AdapterView_1_T_REF_set_RawAdapter_Java_Lang_Object
.Lexception88:
	.fnend

	.hidden	Android_Widget_BaseAdapter_1_T_REF_get_class_ref
	.globl	Android_Widget_BaseAdapter_1_T_REF_get_class_ref
	.p2align	2
	.type	Android_Widget_BaseAdapter_1_T_REF_get_class_ref,%function
	.code	32
Android_Widget_BaseAdapter_1_T_REF_get_class_ref:
.Lfunc_begin95:
	.fnstart
	.save	{r4, r5, r11, lr}
	push	{r4, r5, r11, lr}
.Ltmp1254:
.Ltmp1255:
.Ltmp1256:
.Ltmp1257:
.Ltmp1258:
	.pad	#8
	sub	sp, sp, #8
.Ltmp1259:
	ldr	r4, .LCPI95_0
	ldr	r0, .LCPI95_1
.LPC95_0:
	add	r4, pc, r4
.LPC95_1:
	add	r0, pc, r0
	ldr	r1, [r4, #28]
	ldrb	r5, [r0, #3088]
	str	r8, [sp, #4]
	ldr	r0, [r1]
	cmp	r0, #0
	blne	mono_aot_Mono_Android_icall_cold_wrapper_265
	cmp	r5, #0
	beq	.LBB95_2
.LBB95_1:
	ldr	r0, [sp, #4]
	ldr	r4, [r4, #176]
	bl	p_78_plt__rgctx_fetch_11_llvm
	mov	r1, r0
	mov	r0, r4
	bl	p_79_plt_Android_Runtime_JNIEnv_FindClass_string_intptr__llvm
	add	sp, sp, #8
	pop	{r4, r5, r11, pc}
.LBB95_2:
	mov	r0, #3088
	mov	r1, r8
	bl	mono_aot_Mono_Android_init_method_gshared_vtable
	b	.LBB95_1
	.p2align	2
.LCPI95_0:
	.long	mono_aot_Mono_Android_llvm_got-(.LPC95_0+8)
.LCPI95_1:
	.long	mono_inited-(.LPC95_1+8)
.Lfunc_end95:
	.size	Android_Widget_BaseAdapter_1_T_REF_get_class_ref, .Lfunc_end95-Android_Widget_BaseAdapter_1_T_REF_get_class_ref
.Lexception89:
	.fnend

	.hidden	Android_Widget_BaseAdapter_1_T_REF__ctor_intptr_Android_Runtime_JniHandleOwnership
	.globl	Android_Widget_BaseAdapter_1_T_REF__ctor_intptr_Android_Runtime_JniHandleOwnership
	.p2align	2
	.type	Android_Widget_BaseAdapter_1_T_REF__ctor_intptr_Android_Runtime_JniHandleOwnership,%function
	.code	32
Android_Widget_BaseAdapter_1_T_REF__ctor_intptr_Android_Runtime_JniHandleOwnership:
.Lfunc_begin96:
	.fnstart
	.save	{r4, r5, r6, lr}
	push	{r4, r5, r6, lr}
.Ltmp1260:
.Ltmp1261:
.Ltmp1262:
.Ltmp1263:
.Ltmp1264:
	.pad	#8
	sub	sp, sp, #8
.Ltmp1265:
	mov	r5, r1
	ldr	r1, .LCPI96_0
	mov	r4, r2
.LPC96_0:
	add	r1, pc, r1
	ldr	r1, [r1, #28]
	str	r0, [sp]
	str	r0, [sp, #4]
	ldr	r6, [sp, #4]
	ldr	r0, [r1]
	cmp	r0, #0
	blne	mono_aot_Mono_Android_icall_cold_wrapper_265
	mov	r0, r6
	mov	r1, r5
	mov	r2, r4
	bl	Android_Widget_BaseAdapter__ctor_intptr_Android_Runtime_JniHandleOwnership
	add	sp, sp, #8
	pop	{r4, r5, r6, pc}
	.p2align	2
.LCPI96_0:
	.long	mono_aot_Mono_Android_llvm_got-(.LPC96_0+8)
.Lfunc_end96:
	.size	Android_Widget_BaseAdapter_1_T_REF__ctor_intptr_Android_Runtime_JniHandleOwnership, .Lfunc_end96-Android_Widget_BaseAdapter_1_T_REF__ctor_intptr_Android_Runtime_JniHandleOwnership
.Lexception90:
	.fnend

	.hidden	Android_Widget_BaseAdapter_1_T_REF__ctor
	.globl	Android_Widget_BaseAdapter_1_T_REF__ctor
	.p2align	2
	.type	Android_Widget_BaseAdapter_1_T_REF__ctor,%function
	.code	32
Android_Widget_BaseAdapter_1_T_REF__ctor:
.Lfunc_begin97:
	.fnstart
	.save	{r4, r5, r6, r7, r8, r9, r11, lr}
	push	{r4, r5, r6, r7, r8, r9, r11, lr}
.Ltmp1266:
.Ltmp1267:
.Ltmp1268:
.Ltmp1269:
.Ltmp1270:
.Ltmp1271:
.Ltmp1272:
.Ltmp1273:
.Ltmp1274:
	.pad	#16
	sub	sp, sp, #16
.Ltmp1275:
	mov	r4, r0
	ldr	r0, .LCPI97_2
	ldr	r5, .LCPI97_3
.LPC97_2:
	add	r0, pc, r0
.LPC97_3:
	add	r5, pc, r5
	ldrb	r6, [r0, #3090]
	ldr	r0, [r5, #28]
	str	r4, [sp, #8]
	str	r4, [sp, #12]
	ldr	r0, [r0]
	cmp	r0, #0
	blne	mono_aot_Mono_Android_icall_cold_wrapper_265
	cmp	r6, #0
	beq	.LBB97_14
.LBB97_1:
	ldr	r4, [r5, #148]
	mov	r2, #0
	ldr	r0, [sp, #12]
	ldr	r1, [r4]
	bl	Android_Widget_BaseAdapter__ctor_intptr_Android_Runtime_JniHandleOwnership
	ldr	r0, [sp, #12]
	bl	Java_Lang_Object_get_Handle
	ldr	r1, [r4]
	bl	p_37_plt_intptr_op_Inequality_intptr_intptr_llvm
	tst	r0, #255
	beq	.LBB97_3
	add	sp, sp, #16
	pop	{r4, r5, r6, r7, r8, r9, r11, pc}
.LBB97_3:
	ldr	r0, [sp, #12]
	cmp	r0, #0
	beq	.LBB97_19
	ldr	r0, [r0]
	ldr	r1, [r5, #468]
	ldr	r0, [r0, #12]
	ldr	r6, [sp, #12]
	cmp	r0, r1
	bne	.LBB97_10
	ldr	r0, [r6]
	bl	p_78_plt__rgctx_fetch_11_llvm
	ldr	r1, [r4]
	ldr	r0, [r0, #4]
	cmp	r0, r1
	bne	.LBB97_7
	ldr	r0, [sp, #12]
	ldr	r0, [r0]
	bl	p_81_plt__rgctx_fetch_12_llvm
	str	r0, [sp, #4]
	ldr	r8, [sp, #4]
	bl	p_82_plt_Android_Widget_BaseAdapter_1_T_REF_get_class_ref_llvm
	ldr	r1, [r5, #456]
	ldr	r2, [r5, #480]
	bl	Android_Runtime_JNIEnv_GetMethodID_intptr_string_string
	mov	r4, r0
	ldr	r0, [sp, #12]
	ldr	r0, [r0]
	bl	p_78_plt__rgctx_fetch_11_llvm
	str	r4, [r0, #4]
.LBB97_7:
	ldr	r9, [sp, #12]
	ldr	r0, [sp, #12]
	ldr	r0, [r0]
	bl	p_81_plt__rgctx_fetch_12_llvm
	str	r0, [sp, #4]
	ldr	r8, [sp, #4]
	bl	p_82_plt_Android_Widget_BaseAdapter_1_T_REF_get_class_ref_llvm
	mov	r6, r0
	ldr	r0, [sp, #12]
	ldr	r0, [r0]
	bl	p_78_plt__rgctx_fetch_11_llvm
	ldr	r4, [r5, #472]
	ldr	r7, [r0, #4]
	ldrb	r0, [r4, #25]
	cmp	r0, #0
	beq	.LBB97_15
.LBB97_8:
	ldr	r5, [r5, #476]
	mov	r0, r6
	mov	r1, r7
	ldr	r2, [r5]
	bl	p_70_plt_Android_Runtime_JNIEnv_StartCreateInstance_intptr_intptr_Android_Runtime_JValue___llvm
	mov	r1, r0
	mov	r0, r9
	mov	r2, #1
	bl	Java_Lang_Object_SetHandle_intptr_Android_Runtime_JniHandleOwnership
	ldr	r0, [sp, #12]
	bl	Java_Lang_Object_get_Handle
	mov	r9, r0
	ldr	r0, [sp, #12]
	ldr	r0, [r0]
	bl	p_81_plt__rgctx_fetch_12_llvm
	str	r0, [sp, #4]
	ldr	r8, [sp, #4]
	bl	p_82_plt_Android_Widget_BaseAdapter_1_T_REF_get_class_ref_llvm
	mov	r6, r0
	ldr	r0, [sp, #12]
	ldr	r0, [r0]
	bl	p_78_plt__rgctx_fetch_11_llvm
	ldr	r7, [r0, #4]
	ldrb	r0, [r4, #25]
	cmp	r0, #0
	beq	.LBB97_16
.LBB97_9:
	ldr	r3, [r5]
	mov	r0, r9
	mov	r1, r6
	mov	r2, r7
	bl	p_71_plt_Android_Runtime_JNIEnv_FinishCreateInstance_intptr_intptr_intptr_Android_Runtime_JValue___llvm
	add	sp, sp, #16
	pop	{r4, r5, r6, r7, r8, r9, r11, pc}
.LBB97_10:
	ldr	r0, [sp, #12]
	cmp	r0, #0
	beq	.LBB97_20
	ldr	r0, [r0]
	ldr	r4, [r5, #472]
	ldr	r9, [r5, #480]
	ldr	r7, [r0, #12]
	ldrb	r0, [r4, #25]
	cmp	r0, #0
	beq	.LBB97_17
.LBB97_12:
	ldr	r5, [r5, #476]
	mov	r0, r7
	mov	r1, r9
	ldr	r2, [r5]
	bl	Android_Runtime_JNIEnv_StartCreateInstance_System_Type_string_Android_Runtime_JValue__
	mov	r1, r0
	mov	r0, r6
	mov	r2, #1
	bl	Java_Lang_Object_SetHandle_intptr_Android_Runtime_JniHandleOwnership
	ldr	r0, [sp, #12]
	bl	Java_Lang_Object_get_Handle
	mov	r6, r0
	ldrb	r0, [r4, #25]
	cmp	r0, #0
	beq	.LBB97_18
.LBB97_13:
	ldr	r2, [r5]
	mov	r0, r6
	mov	r1, r9
	bl	Android_Runtime_JNIEnv_FinishCreateInstance_intptr_string_Android_Runtime_JValue__
	add	sp, sp, #16
	pop	{r4, r5, r6, r7, r8, r9, r11, pc}
.LBB97_14:
	movw	r0, #3090
	mov	r1, r4
	bl	mono_aot_Mono_Android_init_method_gshared_this
	b	.LBB97_1
.LBB97_15:
	mov	r0, r4
	bl	p_21_plt__jit_icall_mono_generic_class_init_llvm
	b	.LBB97_8
.LBB97_16:
	mov	r0, r4
	bl	p_21_plt__jit_icall_mono_generic_class_init_llvm
	b	.LBB97_9
.LBB97_17:
	mov	r0, r4
	bl	p_21_plt__jit_icall_mono_generic_class_init_llvm
	b	.LBB97_12
.LBB97_18:
	mov	r0, r4
	bl	p_21_plt__jit_icall_mono_generic_class_init_llvm
	b	.LBB97_13
.Ltmp1276:
.LBB97_19:
	ldr	r0, .LCPI97_1
.LPC97_1:
	add	r1, pc, r0
	mov	r0, #225
	bl	p_1_plt__jit_icall_llvm_throw_corlib_exception_abs_trampoline_llvm
.Ltmp1277:
.LBB97_20:
	ldr	r0, .LCPI97_0
.LPC97_0:
	add	r1, pc, r0
	mov	r0, #225
	bl	p_1_plt__jit_icall_llvm_throw_corlib_exception_abs_trampoline_llvm
	.p2align	2
.LCPI97_0:
	.long	.Ltmp1277-(.LPC97_0+8)
.LCPI97_1:
	.long	.Ltmp1276-(.LPC97_1+8)
.LCPI97_2:
	.long	mono_inited-(.LPC97_2+8)
.LCPI97_3:
	.long	mono_aot_Mono_Android_llvm_got-(.LPC97_3+8)
.Lfunc_end97:
	.size	Android_Widget_BaseAdapter_1_T_REF__ctor, .Lfunc_end97-Android_Widget_BaseAdapter_1_T_REF__ctor
.Lexception91:
	.fnend

	.hidden	Android_Widget_BaseAdapter_1_T_REF_GetItem_int
	.globl	Android_Widget_BaseAdapter_1_T_REF_GetItem_int
	.p2align	2
	.type	Android_Widget_BaseAdapter_1_T_REF_GetItem_int,%function
	.code	32
Android_Widget_BaseAdapter_1_T_REF_GetItem_int:
.Lfunc_begin98:
	.fnstart
	.save	{r4, r5, r6, r7, r8, lr}
	push	{r4, r5, r6, r7, r8, lr}
.Ltmp1278:
.Ltmp1279:
.Ltmp1280:
.Ltmp1281:
.Ltmp1282:
.Ltmp1283:
.Ltmp1284:
	.pad	#16
	sub	sp, sp, #16
.Ltmp1285:
	mov	r5, r0
	ldr	r0, .LCPI98_1
	ldr	r6, .LCPI98_2
	mov	r4, r1
.LPC98_1:
	add	r0, pc, r0
.LPC98_2:
	add	r6, pc, r6
	ldrb	r7, [r0, #3091]
	ldr	r0, [r6, #28]
	str	r5, [sp, #8]
	str	r5, [sp, #12]
	ldr	r0, [r0]
	cmp	r0, #0
	blne	mono_aot_Mono_Android_icall_cold_wrapper_265
	cmp	r7, #0
	beq	.LBB98_3
.LBB98_1:
	ldr	r0, [sp, #12]
	cmp	r0, #0
	beq	.LBB98_4
	ldr	r1, [r0]
	ldr	r2, [r1, #276]
	mov	r1, r4
	blx	r2
	mov	r4, r0
	ldr	r0, [sp, #12]
	ldr	r0, [r0]
	bl	p_83_plt__rgctx_fetch_13_llvm
	str	r0, [sp, #4]
	mov	r0, r4
	ldr	r8, [sp, #4]
	bl	p_84_plt_Java_Interop_JavaConvert_ToJavaObject_T_REF_T_REF_0_llvm
	ldr	r1, [r6, #464]
	str	r1, [sp, #4]
	ldr	r8, [sp, #4]
	bl	p_75_plt_Java_Interop_JavaObjectExtensions_JavaCast_Java_Lang_Object_Android_Runtime_IJavaObject_llvm
	add	sp, sp, #16
	pop	{r4, r5, r6, r7, r8, pc}
.LBB98_3:
	movw	r0, #3091
	mov	r1, r5
	bl	mono_aot_Mono_Android_init_method_gshared_this
	b	.LBB98_1
.Ltmp1286:
.LBB98_4:
	ldr	r0, .LCPI98_0
.LPC98_0:
	add	r1, pc, r0
	mov	r0, #225
	bl	p_1_plt__jit_icall_llvm_throw_corlib_exception_abs_trampoline_llvm
	.p2align	2
.LCPI98_0:
	.long	.Ltmp1286-(.LPC98_0+8)
.LCPI98_1:
	.long	mono_inited-(.LPC98_1+8)
.LCPI98_2:
	.long	mono_aot_Mono_Android_llvm_got-(.LPC98_2+8)
.Lfunc_end98:
	.size	Android_Widget_BaseAdapter_1_T_REF_GetItem_int, .Lfunc_end98-Android_Widget_BaseAdapter_1_T_REF_GetItem_int
.Lexception92:
	.fnend

	.hidden	Android_Views_ContextThemeWrapper__ctor_intptr_Android_Runtime_JniHandleOwnership
	.globl	Android_Views_ContextThemeWrapper__ctor_intptr_Android_Runtime_JniHandleOwnership
	.p2align	2
	.type	Android_Views_ContextThemeWrapper__ctor_intptr_Android_Runtime_JniHandleOwnership,%function
	.code	32
Android_Views_ContextThemeWrapper__ctor_intptr_Android_Runtime_JniHandleOwnership:
.Lfunc_begin99:
	.fnstart
	.save	{r4, r5, r6, r7, r11, lr}
	push	{r4, r5, r6, r7, r11, lr}
.Ltmp1287:
.Ltmp1288:
.Ltmp1289:
.Ltmp1290:
.Ltmp1291:
.Ltmp1292:
.Ltmp1293:
	mov	r6, r0
	ldr	r0, .LCPI99_0
	mov	r5, r1
	ldr	r1, .LCPI99_1
.LPC99_0:
	add	r0, pc, r0
	mov	r4, r2
.LPC99_1:
	add	r1, pc, r1
	ldr	r0, [r0, #28]
	ldrb	r7, [r1, #3374]
	ldr	r0, [r0]
	cmp	r0, #0
	blne	mono_aot_Mono_Android_icall_cold_wrapper_265
	cmp	r7, #0
	beq	.LBB99_2
.LBB99_1:
	mov	r0, r6
	mov	r1, r5
	mov	r2, r4
	bl	Android_Content_ContextWrapper__ctor_intptr_Android_Runtime_JniHandleOwnership
	pop	{r4, r5, r6, r7, r11, pc}
.LBB99_2:
	movw	r0, #3374
	bl	mono_aot_Mono_Android_init_method
	b	.LBB99_1
	.p2align	2
.LCPI99_0:
	.long	mono_aot_Mono_Android_llvm_got-(.LPC99_0+8)
.LCPI99_1:
	.long	mono_inited-(.LPC99_1+8)
.Lfunc_end99:
	.size	Android_Views_ContextThemeWrapper__ctor_intptr_Android_Runtime_JniHandleOwnership, .Lfunc_end99-Android_Views_ContextThemeWrapper__ctor_intptr_Android_Runtime_JniHandleOwnership
.Lexception93:
	.fnend

	.hidden	Android_Views_ContextThemeWrapper__cctor
	.globl	Android_Views_ContextThemeWrapper__cctor
	.p2align	2
	.type	Android_Views_ContextThemeWrapper__cctor,%function
	.code	32
Android_Views_ContextThemeWrapper__cctor:
.Lfunc_begin100:
	.fnstart
	.save	{r4, r5, r6, r7, r11, lr}
	push	{r4, r5, r6, r7, r11, lr}
.Ltmp1294:
.Ltmp1295:
.Ltmp1296:
.Ltmp1297:
.Ltmp1298:
.Ltmp1299:
.Ltmp1300:
	ldr	r7, .LCPI100_0
	ldr	r0, .LCPI100_1
.LPC100_0:
	add	r7, pc, r7
.LPC100_1:
	add	r0, pc, r0
	ldr	r1, [r7, #28]
	ldrb	r4, [r0, #3376]
	ldr	r0, [r1]
	cmp	r0, #0
	blne	mono_aot_Mono_Android_icall_cold_wrapper_265
	cmp	r4, #0
	beq	.LBB100_2
.LBB100_1:
	ldr	r0, [r7, #144]
	mov	r1, #40
	ldr	r4, [r7, #484]
	ldr	r5, [r7, #488]
	bl	p_13_plt_wrapper_alloc_object_AllocSmall_intptr_intptr_llvm
	mov	r1, r4
	mov	r2, r5
	mov	r6, r0
	bl	Android_Runtime_XAPeerMembers__ctor_string_System_Type
	ldr	r0, [r7, #492]
	dmb	ish
	str	r6, [r0]
	pop	{r4, r5, r6, r7, r11, pc}
.LBB100_2:
	mov	r0, #3376
	bl	mono_aot_Mono_Android_init_method
	b	.LBB100_1
	.p2align	2
.LCPI100_0:
	.long	mono_aot_Mono_Android_llvm_got-(.LPC100_0+8)
.LCPI100_1:
	.long	mono_inited-(.LPC100_1+8)
.Lfunc_end100:
	.size	Android_Views_ContextThemeWrapper__cctor, .Lfunc_end100-Android_Views_ContextThemeWrapper__cctor
.Lexception94:
	.fnend

	.hidden	Android_Views_IMenuExtensions_Add_Android_Views_IMenu_string
	.globl	Android_Views_IMenuExtensions_Add_Android_Views_IMenu_string
	.p2align	2
	.type	Android_Views_IMenuExtensions_Add_Android_Views_IMenu_string,%function
	.code	32
Android_Views_IMenuExtensions_Add_Android_Views_IMenu_string:
.Lfunc_begin101:
	.fnstart
	.save	{r4, r5, r6, r7, r8, lr}
	push	{r4, r5, r6, r7, r8, lr}
.Ltmp1301:
.Ltmp1302:
.Ltmp1303:
.Ltmp1304:
.Ltmp1305:
.Ltmp1306:
.Ltmp1307:
	.pad	#8
	sub	sp, sp, #8
.Ltmp1308:
	ldr	r7, .LCPI101_1
	mov	r4, r0
	ldr	r0, .LCPI101_2
	mov	r5, r1
.LPC101_1:
	add	r7, pc, r7
.LPC101_2:
	add	r0, pc, r0
	ldr	r1, [r7, #28]
	ldrb	r6, [r0, #3587]
	ldr	r0, [r1]
	cmp	r0, #0
	blne	mono_aot_Mono_Android_icall_cold_wrapper_265
	cmp	r6, #0
	beq	.LBB101_4
	cmp	r5, #0
	beq	.LBB101_5
.LBB101_2:
	ldr	r0, [r7, #380]
	bl	p_55_plt__jit_icall_ves_icall_object_new_specific_llvm
	mov	r1, r5
	mov	r6, r0
	bl	Java_Lang_String__ctor_string
	cmp	r4, #0
	beq	.LBB101_6
.LBB101_3:
	ldr	r0, [r4]
	mov	r1, r6
	ldr	r2, [r0, #-28]
	ldr	r0, [r7, #496]
	str	r0, [sp, #4]
	mov	r0, r4
	ldr	r8, [sp, #4]
	blx	r2
	cmp	r6, #0
	mov	r4, r0
	movne	r0, r6
	blne	Java_Lang_Object_Dispose
	mov	r0, r4
	add	sp, sp, #8
	pop	{r4, r5, r6, r7, r8, pc}
.LBB101_4:
	movw	r0, #3587
	bl	mono_aot_Mono_Android_init_method
	cmp	r5, #0
	bne	.LBB101_2
.LBB101_5:
	mov	r6, #0
	cmp	r4, #0
	bne	.LBB101_3
.Ltmp1309:
.LBB101_6:
	ldr	r0, .LCPI101_0
.LPC101_0:
	add	r1, pc, r0
	mov	r0, #225
	bl	p_1_plt__jit_icall_llvm_throw_corlib_exception_abs_trampoline_llvm
	.p2align	2
.LCPI101_0:
	.long	.Ltmp1309-(.LPC101_0+8)
.LCPI101_1:
	.long	mono_aot_Mono_Android_llvm_got-(.LPC101_1+8)
.LCPI101_2:
	.long	mono_inited-(.LPC101_2+8)
.Lfunc_end101:
	.size	Android_Views_IMenuExtensions_Add_Android_Views_IMenu_string, .Lfunc_end101-Android_Views_IMenuExtensions_Add_Android_Views_IMenu_string
.Lexception95:
	.fnend

	.hidden	Android_Views_WindowManagerLayoutParams_get_Flags
	.globl	Android_Views_WindowManagerLayoutParams_get_Flags
	.p2align	2
	.type	Android_Views_WindowManagerLayoutParams_get_Flags,%function
	.code	32
Android_Views_WindowManagerLayoutParams_get_Flags:
.Lfunc_begin102:
	.fnstart
	.save	{r4, r5, r6, lr}
	push	{r4, r5, r6, lr}
.Ltmp1310:
.Ltmp1311:
.Ltmp1312:
.Ltmp1313:
.Ltmp1314:
	ldr	r5, .LCPI102_2
	mov	r4, r0
	ldr	r0, .LCPI102_3
	movw	r2, #4320
.LPC102_2:
	add	r5, pc, r5
.LPC102_3:
	add	r0, pc, r0
	ldr	r1, [r5, #28]
	ldrb	r6, [r0, r2]
	ldr	r0, [r1]
	cmp	r0, #0
	blne	mono_aot_Mono_Android_icall_cold_wrapper_265
	cmp	r6, #0
	beq	.LBB102_4
.LBB102_1:
	ldr	r0, [r5, #500]
	ldr	r0, [r0]
	cmp	r0, #0
	beq	.LBB102_5
	bl	p_86_plt_Java_Interop_JniPeerMembers_get_InstanceFields_llvm
	cmp	r0, #0
	beq	.LBB102_6
	ldr	r1, [r5, #504]
	mov	r2, r4
	bl	p_87_plt_Java_Interop_JniPeerMembers_JniInstanceFields_GetInt32Value_string_Java_Interop_IJavaPeerable_llvm
	pop	{r4, r5, r6, pc}
.LBB102_4:
	movw	r0, #4320
	bl	mono_aot_Mono_Android_init_method
	b	.LBB102_1
.Ltmp1315:
.LBB102_5:
	ldr	r0, .LCPI102_1
.LPC102_1:
	add	r1, pc, r0
	mov	r0, #225
	bl	p_1_plt__jit_icall_llvm_throw_corlib_exception_abs_trampoline_llvm
.Ltmp1316:
.LBB102_6:
	ldr	r0, .LCPI102_0
.LPC102_0:
	add	r1, pc, r0
	mov	r0, #225
	bl	p_1_plt__jit_icall_llvm_throw_corlib_exception_abs_trampoline_llvm
	.p2align	2
.LCPI102_0:
	.long	.Ltmp1316-(.LPC102_0+8)
.LCPI102_1:
	.long	.Ltmp1315-(.LPC102_1+8)
.LCPI102_2:
	.long	mono_aot_Mono_Android_llvm_got-(.LPC102_2+8)
.LCPI102_3:
	.long	mono_inited-(.LPC102_3+8)
.Lfunc_end102:
	.size	Android_Views_WindowManagerLayoutParams_get_Flags, .Lfunc_end102-Android_Views_WindowManagerLayoutParams_get_Flags
.Lexception96:
	.fnend

	.hidden	Android_Views_WindowManagerLayoutParams__ctor_intptr_Android_Runtime_JniHandleOwnership
	.globl	Android_Views_WindowManagerLayoutParams__ctor_intptr_Android_Runtime_JniHandleOwnership
	.p2align	2
	.type	Android_Views_WindowManagerLayoutParams__ctor_intptr_Android_Runtime_JniHandleOwnership,%function
	.code	32
Android_Views_WindowManagerLayoutParams__ctor_intptr_Android_Runtime_JniHandleOwnership:
.Lfunc_begin103:
	.fnstart
	.save	{r4, r5, r6, r7, r11, lr}
	push	{r4, r5, r6, r7, r11, lr}
.Ltmp1317:
.Ltmp1318:
.Ltmp1319:
.Ltmp1320:
.Ltmp1321:
.Ltmp1322:
.Ltmp1323:
	mov	r6, r0
	ldr	r0, .LCPI103_0
	mov	r5, r1
	ldr	r1, .LCPI103_1
.LPC103_0:
	add	r0, pc, r0
	mov	r4, r2
.LPC103_1:
	add	r1, pc, r1
	movw	r2, #4327
	ldr	r0, [r0, #28]
	ldrb	r7, [r1, r2]
	ldr	r0, [r0]
	cmp	r0, #0
	blne	mono_aot_Mono_Android_icall_cold_wrapper_265
	cmp	r7, #0
	beq	.LBB103_2
.LBB103_1:
	mov	r0, r6
	mov	r1, r5
	mov	r2, r4
	bl	Android_Views_ViewGroup_LayoutParams__ctor_intptr_Android_Runtime_JniHandleOwnership
	pop	{r4, r5, r6, r7, r11, pc}
.LBB103_2:
	movw	r0, #4327
	bl	mono_aot_Mono_Android_init_method
	b	.LBB103_1
	.p2align	2
.LCPI103_0:
	.long	mono_aot_Mono_Android_llvm_got-(.LPC103_0+8)
.LCPI103_1:
	.long	mono_inited-(.LPC103_1+8)
.Lfunc_end103:
	.size	Android_Views_WindowManagerLayoutParams__ctor_intptr_Android_Runtime_JniHandleOwnership, .Lfunc_end103-Android_Views_WindowManagerLayoutParams__ctor_intptr_Android_Runtime_JniHandleOwnership
.Lexception97:
	.fnend

	.hidden	Android_Views_WindowManagerLayoutParams__cctor
	.globl	Android_Views_WindowManagerLayoutParams__cctor
	.p2align	2
	.type	Android_Views_WindowManagerLayoutParams__cctor,%function
	.code	32
Android_Views_WindowManagerLayoutParams__cctor:
.Lfunc_begin104:
	.fnstart
	.save	{r4, r5, r6, r7, r11, lr}
	push	{r4, r5, r6, r7, r11, lr}
.Ltmp1324:
.Ltmp1325:
.Ltmp1326:
.Ltmp1327:
.Ltmp1328:
.Ltmp1329:
.Ltmp1330:
	ldr	r7, .LCPI104_0
	movw	r2, #4334
	ldr	r0, .LCPI104_1
.LPC104_0:
	add	r7, pc, r7
.LPC104_1:
	add	r0, pc, r0
	ldr	r1, [r7, #28]
	ldrb	r4, [r0, r2]
	ldr	r0, [r1]
	cmp	r0, #0
	blne	mono_aot_Mono_Android_icall_cold_wrapper_265
	cmp	r4, #0
	beq	.LBB104_2
.LBB104_1:
	ldr	r0, [r7, #144]
	mov	r1, #40
	ldr	r4, [r7, #508]
	ldr	r5, [r7, #512]
	bl	p_13_plt_wrapper_alloc_object_AllocSmall_intptr_intptr_llvm
	mov	r1, r4
	mov	r2, r5
	mov	r6, r0
	bl	Android_Runtime_XAPeerMembers__ctor_string_System_Type
	ldr	r0, [r7, #500]
	dmb	ish
	str	r6, [r0]
	pop	{r4, r5, r6, r7, r11, pc}
.LBB104_2:
	movw	r0, #4334
	bl	mono_aot_Mono_Android_init_method
	b	.LBB104_1
	.p2align	2
.LCPI104_0:
	.long	mono_aot_Mono_Android_llvm_got-(.LPC104_0+8)
.LCPI104_1:
	.long	mono_inited-(.LPC104_1+8)
.Lfunc_end104:
	.size	Android_Views_WindowManagerLayoutParams__cctor, .Lfunc_end104-Android_Views_WindowManagerLayoutParams__cctor
.Lexception98:
	.fnend

	.hidden	Android_Views_LayoutInflater__ctor_intptr_Android_Runtime_JniHandleOwnership
	.globl	Android_Views_LayoutInflater__ctor_intptr_Android_Runtime_JniHandleOwnership
	.p2align	2
	.type	Android_Views_LayoutInflater__ctor_intptr_Android_Runtime_JniHandleOwnership,%function
	.code	32
Android_Views_LayoutInflater__ctor_intptr_Android_Runtime_JniHandleOwnership:
.Lfunc_begin105:
	.fnstart
	.save	{r4, r5, r6, r7, r11, lr}
	push	{r4, r5, r6, r7, r11, lr}
.Ltmp1331:
.Ltmp1332:
.Ltmp1333:
.Ltmp1334:
.Ltmp1335:
.Ltmp1336:
.Ltmp1337:
	mov	r6, r0
	ldr	r0, .LCPI105_0
	mov	r5, r1
	ldr	r1, .LCPI105_1
.LPC105_0:
	add	r0, pc, r0
	mov	r4, r2
.LPC105_1:
	add	r1, pc, r1
	movw	r2, #4405
	ldr	r0, [r0, #28]
	ldrb	r7, [r1, r2]
	ldr	r0, [r0]
	cmp	r0, #0
	blne	mono_aot_Mono_Android_icall_cold_wrapper_265
	cmp	r7, #0
	beq	.LBB105_2
.LBB105_1:
	mov	r0, r6
	mov	r1, r5
	mov	r2, r4
	bl	Java_Lang_Object__ctor_intptr_Android_Runtime_JniHandleOwnership
	pop	{r4, r5, r6, r7, r11, pc}
.LBB105_2:
	movw	r0, #4405
	bl	mono_aot_Mono_Android_init_method
	b	.LBB105_1
	.p2align	2
.LCPI105_0:
	.long	mono_aot_Mono_Android_llvm_got-(.LPC105_0+8)
.LCPI105_1:
	.long	mono_inited-(.LPC105_1+8)
.Lfunc_end105:
	.size	Android_Views_LayoutInflater__ctor_intptr_Android_Runtime_JniHandleOwnership, .Lfunc_end105-Android_Views_LayoutInflater__ctor_intptr_Android_Runtime_JniHandleOwnership
.Lexception99:
	.fnend

	.hidden	Android_Views_LayoutInflater_get_Context
	.globl	Android_Views_LayoutInflater_get_Context
	.p2align	2
	.type	Android_Views_LayoutInflater_get_Context,%function
	.code	32
Android_Views_LayoutInflater_get_Context:
.Lfunc_begin106:
	.fnstart
	.save	{r4, r5, r6, r8, r11, lr}
	push	{r4, r5, r6, r8, r11, lr}
.Ltmp1338:
.Ltmp1339:
.Ltmp1340:
.Ltmp1341:
.Ltmp1342:
.Ltmp1343:
.Ltmp1344:
	.pad	#16
	sub	sp, sp, #16
.Ltmp1345:
	ldr	r5, .LCPI106_2
	mov	r4, r0
	ldr	r0, .LCPI106_3
	movw	r2, #4408
.LPC106_2:
	add	r5, pc, r5
.LPC106_3:
	add	r0, pc, r0
	ldr	r1, [r5, #28]
	ldrb	r6, [r0, r2]
	ldr	r0, [r1]
	cmp	r0, #0
	blne	mono_aot_Mono_Android_icall_cold_wrapper_265
	cmp	r6, #0
	beq	.LBB106_4
.LBB106_1:
	ldr	r0, [r5, #516]
	mov	r1, #0
	str	r1, [sp, #12]
	str	r1, [sp, #8]
	ldr	r0, [r0]
	cmp	r0, #0
	beq	.LBB106_5
	bl	p_27_plt_Java_Interop_JniPeerMembers_get_InstanceMethods_llvm
	cmp	r0, #0
	beq	.LBB106_6
	mov	r1, #0
	ldr	r2, [r5, #520]
	str	r1, [sp]
	add	r1, sp, #8
	mov	r3, r4
	bl	p_47_plt_Java_Interop_JniPeerMembers_JniInstanceMethods_InvokeVirtualObjectMethod_string_Java_Interop_IJavaPeerable_Java_Interop_JniArgumentValue__llvm
	ldr	r1, [r5, #524]
	str	r1, [sp, #4]
	mov	r1, #1
	ldr	r0, [sp, #8]
	ldr	r8, [sp, #4]
	bl	p_89_plt_Java_Lang_Object_GetObject_Android_Content_Context_intptr_Android_Runtime_JniHandleOwnership_llvm
	add	sp, sp, #16
	pop	{r4, r5, r6, r8, r11, pc}
.LBB106_4:
	movw	r0, #4408
	bl	mono_aot_Mono_Android_init_method
	b	.LBB106_1
.Ltmp1346:
.LBB106_5:
	ldr	r0, .LCPI106_1
.LPC106_1:
	add	r1, pc, r0
	mov	r0, #225
	bl	p_1_plt__jit_icall_llvm_throw_corlib_exception_abs_trampoline_llvm
.Ltmp1347:
.LBB106_6:
	ldr	r0, .LCPI106_0
.LPC106_0:
	add	r1, pc, r0
	mov	r0, #225
	bl	p_1_plt__jit_icall_llvm_throw_corlib_exception_abs_trampoline_llvm
	.p2align	2
.LCPI106_0:
	.long	.Ltmp1347-(.LPC106_0+8)
.LCPI106_1:
	.long	.Ltmp1346-(.LPC106_1+8)
.LCPI106_2:
	.long	mono_aot_Mono_Android_llvm_got-(.LPC106_2+8)
.LCPI106_3:
	.long	mono_inited-(.LPC106_3+8)
.Lfunc_end106:
	.size	Android_Views_LayoutInflater_get_Context, .Lfunc_end106-Android_Views_LayoutInflater_get_Context
.Lexception100:
	.fnend

	.hidden	Android_Views_LayoutInflater_Inflate_int_Android_Views_ViewGroup
	.globl	Android_Views_LayoutInflater_Inflate_int_Android_Views_ViewGroup
	.p2align	2
	.type	Android_Views_LayoutInflater_Inflate_int_Android_Views_ViewGroup,%function
	.code	32
Android_Views_LayoutInflater_Inflate_int_Android_Views_ViewGroup:
.Lfunc_begin107:
	.fnstart
	.save	{r4, r5, r6, r7, r8, r9, r11, lr}
	push	{r4, r5, r6, r7, r8, r9, r11, lr}
.Ltmp1367:
.Ltmp1368:
.Ltmp1369:
.Ltmp1370:
.Ltmp1371:
.Ltmp1372:
.Ltmp1373:
.Ltmp1374:
	.setfp	r11, sp, #24
	add	r11, sp, #24
.Ltmp1375:
	.pad	#40
	sub	sp, sp, #40
	ldr	r4, .LCPI107_3
	mov	r9, r0
	ldr	r0, .LCPI107_4
	mov	r6, r1
.LPC107_3:
	add	r4, pc, r4
	movw	r3, #4411
.LPC107_4:
	add	r0, pc, r0
	str	r2, [r11, #-52]
	ldr	r1, [r4, #28]
	ldrb	r5, [r0, r3]
	ldr	r0, [r1]
	cmp	r0, #0
	blne	mono_aot_Mono_Android_icall_cold_wrapper_265
	cmp	r5, #0
	beq	.LBB107_14
.LBB107_1:
	mov	r0, sp
	sub	r7, r0, #8
	mov	sp, r7
	mov	r5, #0
	str	r5, [r0, #-8]
	str	r5, [r11, #-44]
	str	r5, [r11, #-48]
	str	r5, [r11, #-36]
.Ltmp1348:
	mov	r0, #2
	mov	r1, #8
	bl	p_26_plt__jit_icall___emul_op_imul_ovf_un_llvm
.Ltmp1349:
	cmp	r0, #0
	beq	.LBB107_4
	add	r0, r0, #7
	bic	r2, r0, #7
	sub	r5, sp, r2
	mov	sp, r5
	mov	r0, r5
	mov	r1, #0
	bl	memset
.LBB107_4:
	mov	r0, #0
	str	r0, [r5, #4]
	str	r6, [r5]
	ldr	r0, [r11, #-52]
	cmp	r0, #0
	beq	.LBB107_7
	ldr	r0, [r11, #-52]
	cmp	r0, #0
	beq	.LBB107_19
.Ltmp1350:
	bl	Java_Lang_Object_get_Handle
.Ltmp1351:
	b	.LBB107_8
.LBB107_7:
	ldr	r0, [r4, #148]
	ldr	r0, [r0]
.LBB107_8:
	ldr	r2, [r4, #516]
	mov	r1, #0
	str	r1, [r5, #12]
	str	r0, [r5, #8]
	ldr	r0, [r2]
	cmp	r0, #0
	beq	.LBB107_15
.Ltmp1354:
	bl	p_27_plt_Java_Interop_JniPeerMembers_get_InstanceMethods_llvm
.Ltmp1355:
	cmp	r0, #0
	beq	.LBB107_17
	ldr	r2, [r4, #528]
.Ltmp1356:
	sub	sp, sp, #8
	sub	r1, r11, #48
	mov	r3, r9
	str	r5, [sp]
	bl	p_47_plt_Java_Interop_JniPeerMembers_JniInstanceMethods_InvokeVirtualObjectMethod_string_Java_Interop_IJavaPeerable_Java_Interop_JniArgumentValue__llvm
	add	sp, sp, #8
.Ltmp1357:
	ldr	r1, [r4, #532]
	ldr	r0, [r11, #-48]
	str	r1, [r11, #-60]
	ldr	r8, [r11, #-60]
.Ltmp1358:
	mov	r1, #1
	mov	r4, #1
	bl	p_90_plt_Java_Lang_Object_GetObject_Android_Views_View_intptr_Android_Runtime_JniHandleOwnership_llvm
.Ltmp1359:
	mov	r1, #0
	str	r0, [r11, #-36]
	str	r1, [r11, #-32]
	str	r4, [r7]
	b	.LBB107_21
.LBB107_14:
	movw	r0, #4411
	bl	mono_aot_Mono_Android_init_method
	b	.LBB107_1
.Ltmp1376:
.LBB107_15:
	ldr	r0, .LCPI107_2
.Ltmp1362:
.LPC107_2:
	add	r1, pc, r0
	mov	r0, #225
	bl	p_1_plt__jit_icall_llvm_throw_corlib_exception_abs_trampoline_llvm
.Ltmp1363:
.Ltmp1377:
.LBB107_17:
	ldr	r0, .LCPI107_1
.Ltmp1360:
.LPC107_1:
	add	r1, pc, r0
	mov	r0, #225
	bl	p_1_plt__jit_icall_llvm_throw_corlib_exception_abs_trampoline_llvm
.Ltmp1361:
.Ltmp1378:
.LBB107_19:
	ldr	r0, .LCPI107_0
.Ltmp1352:
.LPC107_0:
	add	r1, pc, r0
	mov	r0, #225
	bl	p_1_plt__jit_icall_llvm_throw_corlib_exception_abs_trampoline_llvm
.Ltmp1353:
.LBB107_21:
	ldr	r0, [r11, #-52]
	bl	p_32_plt_System_GC_KeepAlive_object_llvm
	mov	r0, #0
	cmp	r4, #1
	str	r0, [r7]
	bne	.LBB107_25
	ldr	r0, [r11, #-32]
	cmp	r0, #0
	beq	.LBB107_24
.Ltmp1365:
	bl	p_15_plt__jit_icall_ves_icall_thread_finish_async_abort_llvm
.Ltmp1366:
.LBB107_24:
	ldr	r0, [r11, #-36]
	str	r0, [r11, #-56]
	ldr	r0, [r11, #-56]
	sub	sp, r11, #24
	pop	{r4, r5, r6, r7, r8, r9, r11, pc}
.LBB107_25:
	bl	p_17_plt__jit_icall_llvm_resume_unwind_trampoline_llvm
.LBB107_26:
.Ltmp1364:
	ldr	r4, [r7]
	b	.LBB107_21
	.p2align	2
.LCPI107_0:
	.long	.Ltmp1378-(.LPC107_0+8)
.LCPI107_1:
	.long	.Ltmp1377-(.LPC107_1+8)
.LCPI107_2:
	.long	.Ltmp1376-(.LPC107_2+8)
.LCPI107_3:
	.long	mono_aot_Mono_Android_llvm_got-(.LPC107_3+8)
.LCPI107_4:
	.long	mono_inited-(.LPC107_4+8)
.Lfunc_end107:
	.size	Android_Views_LayoutInflater_Inflate_int_Android_Views_ViewGroup, .Lfunc_end107-Android_Views_LayoutInflater_Inflate_int_Android_Views_ViewGroup
.Lexception101:
	.fnend

	.hidden	Android_Views_LayoutInflater__cctor
	.globl	Android_Views_LayoutInflater__cctor
	.p2align	2
	.type	Android_Views_LayoutInflater__cctor,%function
	.code	32
Android_Views_LayoutInflater__cctor:
.Lfunc_begin108:
	.fnstart
	.save	{r4, r5, r6, r7, r11, lr}
	push	{r4, r5, r6, r7, r11, lr}
.Ltmp1379:
.Ltmp1380:
.Ltmp1381:
.Ltmp1382:
.Ltmp1383:
.Ltmp1384:
.Ltmp1385:
	ldr	r7, .LCPI108_0
	movw	r2, #4413
	ldr	r0, .LCPI108_1
.LPC108_0:
	add	r7, pc, r7
.LPC108_1:
	add	r0, pc, r0
	ldr	r1, [r7, #28]
	ldrb	r4, [r0, r2]
	ldr	r0, [r1]
	cmp	r0, #0
	blne	mono_aot_Mono_Android_icall_cold_wrapper_265
	cmp	r4, #0
	beq	.LBB108_2
.LBB108_1:
	ldr	r0, [r7, #144]
	mov	r1, #40
	ldr	r4, [r7, #536]
	ldr	r5, [r7, #540]
	bl	p_13_plt_wrapper_alloc_object_AllocSmall_intptr_intptr_llvm
	mov	r1, r4
	mov	r2, r5
	mov	r6, r0
	bl	Android_Runtime_XAPeerMembers__ctor_string_System_Type
	ldr	r0, [r7, #516]
	dmb	ish
	str	r6, [r0]
	pop	{r4, r5, r6, r7, r11, pc}
.LBB108_2:
	movw	r0, #4413
	bl	mono_aot_Mono_Android_init_method
	b	.LBB108_1
	.p2align	2
.LCPI108_0:
	.long	mono_aot_Mono_Android_llvm_got-(.LPC108_0+8)
.LCPI108_1:
	.long	mono_inited-(.LPC108_1+8)
.Lfunc_end108:
	.size	Android_Views_LayoutInflater__cctor, .Lfunc_end108-Android_Views_LayoutInflater__cctor
.Lexception102:
	.fnend

	.hidden	Android_Views_LayoutInflaterInvoker__ctor_intptr_Android_Runtime_JniHandleOwnership
	.globl	Android_Views_LayoutInflaterInvoker__ctor_intptr_Android_Runtime_JniHandleOwnership
	.p2align	2
	.type	Android_Views_LayoutInflaterInvoker__ctor_intptr_Android_Runtime_JniHandleOwnership,%function
	.code	32
Android_Views_LayoutInflaterInvoker__ctor_intptr_Android_Runtime_JniHandleOwnership:
.Lfunc_begin109:
	.fnstart
	.save	{r4, r5, r6, r7, r11, lr}
	push	{r4, r5, r6, r7, r11, lr}
.Ltmp1386:
.Ltmp1387:
.Ltmp1388:
.Ltmp1389:
.Ltmp1390:
.Ltmp1391:
.Ltmp1392:
	mov	r6, r0
	ldr	r0, .LCPI109_0
	mov	r5, r1
	ldr	r1, .LCPI109_1
.LPC109_0:
	add	r0, pc, r0
	mov	r4, r2
.LPC109_1:
	add	r1, pc, r1
	movw	r2, #4439
	ldr	r0, [r0, #28]
	ldrb	r7, [r1, r2]
	ldr	r0, [r0]
	cmp	r0, #0
	blne	mono_aot_Mono_Android_icall_cold_wrapper_265
	cmp	r7, #0
	beq	.LBB109_2
.LBB109_1:
	mov	r0, r6
	mov	r1, r5
	mov	r2, r4
	bl	Android_Views_LayoutInflater__ctor_intptr_Android_Runtime_JniHandleOwnership
	pop	{r4, r5, r6, r7, r11, pc}
.LBB109_2:
	movw	r0, #4439
	bl	mono_aot_Mono_Android_init_method
	b	.LBB109_1
	.p2align	2
.LCPI109_0:
	.long	mono_aot_Mono_Android_llvm_got-(.LPC109_0+8)
.LCPI109_1:
	.long	mono_inited-(.LPC109_1+8)
.Lfunc_end109:
	.size	Android_Views_LayoutInflaterInvoker__ctor_intptr_Android_Runtime_JniHandleOwnership, .Lfunc_end109-Android_Views_LayoutInflaterInvoker__ctor_intptr_Android_Runtime_JniHandleOwnership
.Lexception103:
	.fnend

	.hidden	Android_Views_LayoutInflaterInvoker_get_ThresholdType
	.globl	Android_Views_LayoutInflaterInvoker_get_ThresholdType
	.p2align	2
	.type	Android_Views_LayoutInflaterInvoker_get_ThresholdType,%function
	.code	32
Android_Views_LayoutInflaterInvoker_get_ThresholdType:
.Lfunc_begin110:
	.fnstart
	.save	{r11, lr}
	push	{r11, lr}
.Ltmp1393:
.Ltmp1394:
.Ltmp1395:
	ldr	r0, .LCPI110_1
	movw	r1, #4441
.LPC110_1:
	add	r0, pc, r0
	ldrb	r0, [r0, r1]
	cmp	r0, #0
	beq	.LBB110_3
.LBB110_1:
	ldr	r0, .LCPI110_2
.LPC110_2:
	add	r0, pc, r0
	ldr	r0, [r0, #544]
	ldr	r0, [r0]
	cmp	r0, #0
	ldrne	r0, [r0, #28]
	popne	{r11, pc}
.Ltmp1396:
.LBB110_2:
	ldr	r0, .LCPI110_0
.LPC110_0:
	add	r1, pc, r0
	mov	r0, #225
	bl	p_1_plt__jit_icall_llvm_throw_corlib_exception_abs_trampoline_llvm
.LBB110_3:
	movw	r0, #4441
	bl	mono_aot_Mono_Android_init_method
	b	.LBB110_1
	.p2align	2
.LCPI110_0:
	.long	.Ltmp1396-(.LPC110_0+8)
.LCPI110_1:
	.long	mono_inited-(.LPC110_1+8)
.LCPI110_2:
	.long	mono_aot_Mono_Android_llvm_got-(.LPC110_2+8)
.Lfunc_end110:
	.size	Android_Views_LayoutInflaterInvoker_get_ThresholdType, .Lfunc_end110-Android_Views_LayoutInflaterInvoker_get_ThresholdType
.Lexception104:
	.fnend

	.hidden	Android_Views_LayoutInflaterInvoker__cctor
	.globl	Android_Views_LayoutInflaterInvoker__cctor
	.p2align	2
	.type	Android_Views_LayoutInflaterInvoker__cctor,%function
	.code	32
Android_Views_LayoutInflaterInvoker__cctor:
.Lfunc_begin111:
	.fnstart
	.save	{r4, r5, r6, r7, r11, lr}
	push	{r4, r5, r6, r7, r11, lr}
.Ltmp1397:
.Ltmp1398:
.Ltmp1399:
.Ltmp1400:
.Ltmp1401:
.Ltmp1402:
.Ltmp1403:
	ldr	r7, .LCPI111_0
	movw	r2, #4442
	ldr	r0, .LCPI111_1
.LPC111_0:
	add	r7, pc, r7
.LPC111_1:
	add	r0, pc, r0
	ldr	r1, [r7, #28]
	ldrb	r4, [r0, r2]
	ldr	r0, [r1]
	cmp	r0, #0
	blne	mono_aot_Mono_Android_icall_cold_wrapper_265
	cmp	r4, #0
	beq	.LBB111_2
.LBB111_1:
	ldr	r0, [r7, #144]
	mov	r1, #40
	ldr	r4, [r7, #536]
	ldr	r5, [r7, #548]
	bl	p_13_plt_wrapper_alloc_object_AllocSmall_intptr_intptr_llvm
	mov	r1, r4
	mov	r2, r5
	mov	r6, r0
	bl	Android_Runtime_XAPeerMembers__ctor_string_System_Type
	ldr	r0, [r7, #544]
	dmb	ish
	str	r6, [r0]
	pop	{r4, r5, r6, r7, r11, pc}
.LBB111_2:
	movw	r0, #4442
	bl	mono_aot_Mono_Android_init_method
	b	.LBB111_1
	.p2align	2
.LCPI111_0:
	.long	mono_aot_Mono_Android_llvm_got-(.LPC111_0+8)
.LCPI111_1:
	.long	mono_inited-(.LPC111_1+8)
.Lfunc_end111:
	.size	Android_Views_LayoutInflaterInvoker__cctor, .Lfunc_end111-Android_Views_LayoutInflaterInvoker__cctor
.Lexception105:
	.fnend

	.hidden	Android_Views_View_get_ThresholdType
	.globl	Android_Views_View_get_ThresholdType
	.p2align	2
	.type	Android_Views_View_get_ThresholdType,%function
	.code	32
Android_Views_View_get_ThresholdType:
.Lfunc_begin112:
	.fnstart
	.save	{r11, lr}
	push	{r11, lr}
.Ltmp1404:
.Ltmp1405:
.Ltmp1406:
	ldr	r0, .LCPI112_1
	movw	r1, #4600
.LPC112_1:
	add	r0, pc, r0
	ldrb	r0, [r0, r1]
	cmp	r0, #0
	beq	.LBB112_3
.LBB112_1:
	ldr	r0, .LCPI112_2
.LPC112_2:
	add	r0, pc, r0
	ldr	r0, [r0, #552]
	ldr	r0, [r0]
	cmp	r0, #0
	ldrne	r0, [r0, #28]
	popne	{r11, pc}
.Ltmp1407:
.LBB112_2:
	ldr	r0, .LCPI112_0
.LPC112_0:
	add	r1, pc, r0
	mov	r0, #225
	bl	p_1_plt__jit_icall_llvm_throw_corlib_exception_abs_trampoline_llvm
.LBB112_3:
	movw	r0, #4600
	bl	mono_aot_Mono_Android_init_method
	b	.LBB112_1
	.p2align	2
.LCPI112_0:
	.long	.Ltmp1407-(.LPC112_0+8)
.LCPI112_1:
	.long	mono_inited-(.LPC112_1+8)
.LCPI112_2:
	.long	mono_aot_Mono_Android_llvm_got-(.LPC112_2+8)
.Lfunc_end112:
	.size	Android_Views_View_get_ThresholdType, .Lfunc_end112-Android_Views_View_get_ThresholdType
.Lexception106:
	.fnend

	.hidden	Android_Views_View__ctor_intptr_Android_Runtime_JniHandleOwnership
	.globl	Android_Views_View__ctor_intptr_Android_Runtime_JniHandleOwnership
	.p2align	2
	.type	Android_Views_View__ctor_intptr_Android_Runtime_JniHandleOwnership,%function
	.code	32
Android_Views_View__ctor_intptr_Android_Runtime_JniHandleOwnership:
.Lfunc_begin113:
	.fnstart
	.save	{r4, r5, r6, r7, r11, lr}
	push	{r4, r5, r6, r7, r11, lr}
.Ltmp1408:
.Ltmp1409:
.Ltmp1410:
.Ltmp1411:
.Ltmp1412:
.Ltmp1413:
.Ltmp1414:
	mov	r6, r0
	ldr	r0, .LCPI113_0
	mov	r5, r1
	ldr	r1, .LCPI113_1
.LPC113_0:
	add	r0, pc, r0
	mov	r4, r2
.LPC113_1:
	add	r1, pc, r1
	movw	r2, #4601
	ldr	r0, [r0, #28]
	ldrb	r7, [r1, r2]
	ldr	r0, [r0]
	cmp	r0, #0
	blne	mono_aot_Mono_Android_icall_cold_wrapper_265
	cmp	r7, #0
	beq	.LBB113_2
.LBB113_1:
	mov	r0, r6
	mov	r1, r5
	mov	r2, r4
	bl	Java_Lang_Object__ctor_intptr_Android_Runtime_JniHandleOwnership
	pop	{r4, r5, r6, r7, r11, pc}
.LBB113_2:
	movw	r0, #4601
	bl	mono_aot_Mono_Android_init_method
	b	.LBB113_1
	.p2align	2
.LCPI113_0:
	.long	mono_aot_Mono_Android_llvm_got-(.LPC113_0+8)
.LCPI113_1:
	.long	mono_inited-(.LPC113_1+8)
.Lfunc_end113:
	.size	Android_Views_View__ctor_intptr_Android_Runtime_JniHandleOwnership, .Lfunc_end113-Android_Views_View__ctor_intptr_Android_Runtime_JniHandleOwnership
.Lexception107:
	.fnend

	.hidden	Android_Views_View__ctor_Android_Content_Context
	.globl	Android_Views_View__ctor_Android_Content_Context
	.p2align	2
	.type	Android_Views_View__ctor_Android_Content_Context,%function
	.code	32
Android_Views_View__ctor_Android_Content_Context:
.Lfunc_begin114:
	.fnstart
	.save	{r4, r5, r6, r7, r9, r10, r11, lr}
	push	{r4, r5, r6, r7, r9, r10, r11, lr}
.Ltmp1444:
.Ltmp1445:
.Ltmp1446:
.Ltmp1447:
.Ltmp1448:
.Ltmp1449:
.Ltmp1450:
.Ltmp1451:
	.setfp	r11, sp, #24
	add	r11, sp, #24
.Ltmp1452:
	.pad	#24
	sub	sp, sp, #24
	ldr	r9, .LCPI114_6
	mov	r4, r0
	ldr	r0, .LCPI114_7
	movw	r3, #4602
.LPC114_6:
	add	r9, pc, r9
	str	r1, [r11, #-44]
.LPC114_7:
	add	r0, pc, r0
	ldr	r2, [r9, #28]
	ldrb	r5, [r0, r3]
	ldr	r0, [r2]
	cmp	r0, #0
	blne	mono_aot_Mono_Android_icall_cold_wrapper_265
	cmp	r5, #0
	beq	.LBB114_21
.LBB114_1:
	mov	r0, sp
	sub	r7, r0, #8
	mov	sp, r7
	ldr	r6, [r9, #148]
	mov	r1, #0
	str	r1, [r0, #-8]
	mov	r0, r4
	str	r1, [r11, #-36]
	mov	r2, #0
	str	r1, [r11, #-40]
	ldr	r1, [r6]
	bl	Java_Lang_Object__ctor_intptr_Android_Runtime_JniHandleOwnership
	mov	r0, r4
	bl	Java_Lang_Object_get_Handle
	ldr	r1, [r6]
	bl	p_37_plt_intptr_op_Inequality_intptr_intptr_llvm
	tst	r0, #255
	bne	.LBB114_37
.Ltmp1415:
	mov	r0, #1
	mov	r1, #8
	bl	p_26_plt__jit_icall___emul_op_imul_ovf_un_llvm
.Ltmp1416:
	cmp	r0, #0
	beq	.LBB114_5
	add	r0, r0, #7
	bic	r2, r0, #7
	sub	r5, sp, r2
	mov	sp, r5
	mov	r0, r5
	mov	r1, #0
	bl	memset
	b	.LBB114_6
.LBB114_5:
	mov	r5, #0
.LBB114_6:
	ldr	r0, [r11, #-44]
	cmp	r0, #0
	beq	.LBB114_9
	ldr	r0, [r11, #-44]
	cmp	r0, #0
	beq	.LBB114_32
.Ltmp1417:
	bl	Java_Lang_Object_get_Handle
.Ltmp1418:
	b	.LBB114_10
.LBB114_9:
	ldr	r0, [r6]
.LBB114_10:
	ldr	r10, [r9, #552]
	mov	r1, #0
	str	r1, [r5, #4]
	str	r0, [r5]
	ldr	r0, [r10]
	cmp	r0, #0
	beq	.LBB114_22
.Ltmp1421:
	bl	p_27_plt_Java_Interop_JniPeerMembers_get_InstanceMethods_llvm
.Ltmp1422:
	cmp	r4, #0
	beq	.LBB114_24
	cmp	r0, #0
	beq	.LBB114_26
	ldr	r1, [r4]
	ldr	r6, [r9, #232]
	ldr	r3, [r1, #12]
.Ltmp1423:
	sub	sp, sp, #8
	sub	r1, r11, #40
	mov	r2, r6
	str	r5, [sp]
	bl	p_38_plt_Java_Interop_JniPeerMembers_JniInstanceMethods_StartCreateInstance_string_System_Type_Java_Interop_JniArgumentValue__llvm
	add	sp, sp, #8
.Ltmp1424:
	ldr	r1, [r11, #-40]
.Ltmp1425:
	mov	r0, r4
	mov	r2, #1
	bl	Java_Lang_Object_SetHandle_intptr_Android_Runtime_JniHandleOwnership
.Ltmp1426:
	ldr	r0, [r10]
	cmp	r0, #0
	beq	.LBB114_28
.Ltmp1427:
	bl	p_27_plt_Java_Interop_JniPeerMembers_get_InstanceMethods_llvm
.Ltmp1428:
	cmp	r0, #0
	beq	.LBB114_30
.Ltmp1429:
	mov	r1, r6
	mov	r2, r4
	mov	r3, r5
	bl	p_40_plt_Java_Interop_JniPeerMembers_JniInstanceMethods_FinishCreateInstance_string_Java_Interop_IJavaPeerable_Java_Interop_JniArgumentValue__llvm
.Ltmp1430:
	mov	r4, #1
	mov	r0, #0
	str	r0, [r11, #-32]
	str	r4, [r7]
	b	.LBB114_34
.LBB114_21:
	movw	r0, #4602
	bl	mono_aot_Mono_Android_init_method
	b	.LBB114_1
.Ltmp1453:
.LBB114_22:
	ldr	r0, .LCPI114_5
.Ltmp1439:
.LPC114_5:
	add	r1, pc, r0
	mov	r0, #225
	bl	p_1_plt__jit_icall_llvm_throw_corlib_exception_abs_trampoline_llvm
.Ltmp1440:
.Ltmp1454:
.LBB114_24:
	ldr	r0, .LCPI114_4
.Ltmp1437:
.LPC114_4:
	add	r1, pc, r0
	mov	r0, #225
	bl	p_1_plt__jit_icall_llvm_throw_corlib_exception_abs_trampoline_llvm
.Ltmp1438:
.Ltmp1455:
.LBB114_26:
	ldr	r0, .LCPI114_3
.Ltmp1435:
.LPC114_3:
	add	r1, pc, r0
	mov	r0, #225
	bl	p_1_plt__jit_icall_llvm_throw_corlib_exception_abs_trampoline_llvm
.Ltmp1436:
.Ltmp1456:
.LBB114_28:
	ldr	r0, .LCPI114_2
.Ltmp1433:
.LPC114_2:
	add	r1, pc, r0
	mov	r0, #225
	bl	p_1_plt__jit_icall_llvm_throw_corlib_exception_abs_trampoline_llvm
.Ltmp1434:
.Ltmp1457:
.LBB114_30:
	ldr	r0, .LCPI114_1
.Ltmp1431:
.LPC114_1:
	add	r1, pc, r0
	mov	r0, #225
	bl	p_1_plt__jit_icall_llvm_throw_corlib_exception_abs_trampoline_llvm
.Ltmp1432:
.Ltmp1458:
.LBB114_32:
	ldr	r0, .LCPI114_0
.Ltmp1419:
.LPC114_0:
	add	r1, pc, r0
	mov	r0, #225
	bl	p_1_plt__jit_icall_llvm_throw_corlib_exception_abs_trampoline_llvm
.Ltmp1420:
.LBB114_34:
	ldr	r0, [r11, #-44]
	bl	p_32_plt_System_GC_KeepAlive_object_llvm
	mov	r0, #0
	cmp	r4, #1
	str	r0, [r7]
	bne	.LBB114_38
	ldr	r0, [r11, #-32]
	cmp	r0, #0
	beq	.LBB114_37
.Ltmp1442:
	bl	p_15_plt__jit_icall_ves_icall_thread_finish_async_abort_llvm
.Ltmp1443:
.LBB114_37:
	sub	sp, r11, #24
	pop	{r4, r5, r6, r7, r9, r10, r11, pc}
.LBB114_38:
	bl	p_17_plt__jit_icall_llvm_resume_unwind_trampoline_llvm
.LBB114_39:
.Ltmp1441:
	ldr	r4, [r7]
	b	.LBB114_34
	.p2align	2
.LCPI114_0:
	.long	.Ltmp1458-(.LPC114_0+8)
.LCPI114_1:
	.long	.Ltmp1457-(.LPC114_1+8)
.LCPI114_2:
	.long	.Ltmp1456-(.LPC114_2+8)
.LCPI114_3:
	.long	.Ltmp1455-(.LPC114_3+8)
.LCPI114_4:
	.long	.Ltmp1454-(.LPC114_4+8)
.LCPI114_5:
	.long	.Ltmp1453-(.LPC114_5+8)
.LCPI114_6:
	.long	mono_aot_Mono_Android_llvm_got-(.LPC114_6+8)
.LCPI114_7:
	.long	mono_inited-(.LPC114_7+8)
.Lfunc_end114:
	.size	Android_Views_View__ctor_Android_Content_Context, .Lfunc_end114-Android_Views_View__ctor_Android_Content_Context
.Lexception108:
	.fnend

	.hidden	Android_Views_View_get_Background
	.globl	Android_Views_View_get_Background
	.p2align	2
	.type	Android_Views_View_get_Background,%function
	.code	32
Android_Views_View_get_Background:
.Lfunc_begin115:
	.fnstart
	.save	{r4, r5, r6, r8, r11, lr}
	push	{r4, r5, r6, r8, r11, lr}
.Ltmp1459:
.Ltmp1460:
.Ltmp1461:
.Ltmp1462:
.Ltmp1463:
.Ltmp1464:
.Ltmp1465:
	.pad	#16
	sub	sp, sp, #16
.Ltmp1466:
	ldr	r5, .LCPI115_2
	mov	r4, r0
	ldr	r0, .LCPI115_3
	movw	r2, #4621
.LPC115_2:
	add	r5, pc, r5
.LPC115_3:
	add	r0, pc, r0
	ldr	r1, [r5, #28]
	ldrb	r6, [r0, r2]
	ldr	r0, [r1]
	cmp	r0, #0
	blne	mono_aot_Mono_Android_icall_cold_wrapper_265
	cmp	r6, #0
	beq	.LBB115_4
.LBB115_1:
	ldr	r0, [r5, #552]
	mov	r1, #0
	str	r1, [sp, #12]
	str	r1, [sp, #8]
	ldr	r0, [r0]
	cmp	r0, #0
	beq	.LBB115_5
	bl	p_27_plt_Java_Interop_JniPeerMembers_get_InstanceMethods_llvm
	cmp	r0, #0
	beq	.LBB115_6
	mov	r1, #0
	ldr	r2, [r5, #556]
	str	r1, [sp]
	add	r1, sp, #8
	mov	r3, r4
	bl	p_47_plt_Java_Interop_JniPeerMembers_JniInstanceMethods_InvokeVirtualObjectMethod_string_Java_Interop_IJavaPeerable_Java_Interop_JniArgumentValue__llvm
	ldr	r1, [r5, #560]
	str	r1, [sp, #4]
	mov	r1, #1
	ldr	r0, [sp, #8]
	ldr	r8, [sp, #4]
	bl	p_92_plt_Java_Lang_Object_GetObject_Android_Graphics_Drawables_Drawable_intptr_Android_Runtime_JniHandleOwnership_llvm
	add	sp, sp, #16
	pop	{r4, r5, r6, r8, r11, pc}
.LBB115_4:
	movw	r0, #4621
	bl	mono_aot_Mono_Android_init_method
	b	.LBB115_1
.Ltmp1467:
.LBB115_5:
	ldr	r0, .LCPI115_1
.LPC115_1:
	add	r1, pc, r0
	mov	r0, #225
	bl	p_1_plt__jit_icall_llvm_throw_corlib_exception_abs_trampoline_llvm
.Ltmp1468:
.LBB115_6:
	ldr	r0, .LCPI115_0
.LPC115_0:
	add	r1, pc, r0
	mov	r0, #225
	bl	p_1_plt__jit_icall_llvm_throw_corlib_exception_abs_trampoline_llvm
	.p2align	2
.LCPI115_0:
	.long	.Ltmp1468-(.LPC115_0+8)
.LCPI115_1:
	.long	.Ltmp1467-(.LPC115_1+8)
.LCPI115_2:
	.long	mono_aot_Mono_Android_llvm_got-(.LPC115_2+8)
.LCPI115_3:
	.long	mono_inited-(.LPC115_3+8)
.Lfunc_end115:
	.size	Android_Views_View_get_Background, .Lfunc_end115-Android_Views_View_get_Background
.Lexception109:
	.fnend

	.hidden	Android_Views_View_set_Background_Android_Graphics_Drawables_Drawable
	.globl	Android_Views_View_set_Background_Android_Graphics_Drawables_Drawable
	.p2align	2
	.type	Android_Views_View_set_Background_Android_Graphics_Drawables_Drawable,%function
	.code	32
Android_Views_View_set_Background_Android_Graphics_Drawables_Drawable:
.Lfunc_begin116:
	.fnstart
	.save	{r4, r5, r6, r7, r9, r10, r11, lr}
	push	{r4, r5, r6, r7, r9, r10, r11, lr}
.Ltmp1486:
.Ltmp1487:
.Ltmp1488:
.Ltmp1489:
.Ltmp1490:
.Ltmp1491:
.Ltmp1492:
.Ltmp1493:
	.setfp	r11, sp, #24
	add	r11, sp, #24
.Ltmp1494:
	.pad	#8
	sub	sp, sp, #8
	ldr	r7, .LCPI116_3
	mov	r4, r0
	ldr	r0, .LCPI116_4
	movw	r3, #4622
.LPC116_3:
	add	r7, pc, r7
	str	r1, [r11, #-32]
.LPC116_4:
	add	r0, pc, r0
	ldr	r2, [r7, #28]
	ldrb	r5, [r0, r3]
	ldr	r0, [r2]
	cmp	r0, #0
	blne	mono_aot_Mono_Android_icall_cold_wrapper_265
	cmp	r5, #0
	beq	.LBB116_13
.LBB116_1:
	mov	r0, sp
	sub	r6, r0, #8
	mov	sp, r6
	mov	r5, #0
	str	r5, [r0, #-8]
.Ltmp1469:
	mov	r0, #1
	mov	r1, #8
	bl	p_26_plt__jit_icall___emul_op_imul_ovf_un_llvm
.Ltmp1470:
	cmp	r0, #0
	beq	.LBB116_4
	add	r0, r0, #7
	bic	r2, r0, #7
	sub	r5, sp, r2
	mov	sp, r5
	mov	r0, r5
	mov	r1, #0
	bl	memset
.LBB116_4:
	ldr	r0, [r11, #-32]
	cmp	r0, #0
	beq	.LBB116_7
	ldr	r0, [r11, #-32]
	cmp	r0, #0
	beq	.LBB116_18
.Ltmp1471:
	bl	Java_Lang_Object_get_Handle
.Ltmp1472:
	b	.LBB116_8
.LBB116_7:
	ldr	r0, [r7, #148]
	ldr	r0, [r0]
.LBB116_8:
	ldr	r2, [r7, #552]
	mov	r1, #0
	str	r1, [r5, #4]
	str	r0, [r5]
	ldr	r0, [r2]
	cmp	r0, #0
	beq	.LBB116_14
.Ltmp1475:
	bl	p_27_plt_Java_Interop_JniPeerMembers_get_InstanceMethods_llvm
.Ltmp1476:
	cmp	r0, #0
	beq	.LBB116_16
	ldr	r1, [r7, #564]
.Ltmp1477:
	mov	r2, r4
	mov	r3, r5
	bl	p_28_plt_Java_Interop_JniPeerMembers_JniInstanceMethods_InvokeVirtualVoidMethod_string_Java_Interop_IJavaPeerable_Java_Interop_JniArgumentValue__llvm
.Ltmp1478:
	mov	r4, #1
	mov	r0, #0
	str	r0, [r11, #-28]
	str	r4, [r6]
	b	.LBB116_20
.LBB116_13:
	movw	r0, #4622
	bl	mono_aot_Mono_Android_init_method
	b	.LBB116_1
.Ltmp1495:
.LBB116_14:
	ldr	r0, .LCPI116_2
.Ltmp1481:
.LPC116_2:
	add	r1, pc, r0
	mov	r0, #225
