	.text
	.syntax unified
	.eabi_attribute	67, "2.09"
	.eabi_attribute	6, 10
	.eabi_attribute	7, 65
	.eabi_attribute	8, 1
	.eabi_attribute	9, 2
	.fpu	vfpv3-d16
	.eabi_attribute	34, 1
	.eabi_attribute	15, 1
	.eabi_attribute	16, 1
	.eabi_attribute	17, 2
	.eabi_attribute	20, 1
	.eabi_attribute	21, 1
	.eabi_attribute	23, 3
	.eabi_attribute	24, 1
	.eabi_attribute	25, 1
	.eabi_attribute	38, 1
	.eabi_attribute	14, 0
	.file	"aot"
	.weak	gc.safepoint_poll
	.p2align	2
	.type	gc.safepoint_poll,%function
	.code	32
gc.safepoint_poll:
.Lfunc_begin0:
	.fnstart
	ldr	r0, .LCPI0_0
.LPC0_0:
	add	r0, pc, r0
	ldr	r0, [r0, #28]
	ldr	r0, [r0]
	cmp	r0, #0
	bxeq	lr
	.save	{r11, lr}
	push	{r11, lr}
.Ltmp0:
.Ltmp1:
.Ltmp2:
	bl	mono_aot_System_Runtime_Serialization_icall_cold_wrapper_265
	pop	{r11, lr}
	bx	lr
	.p2align	2
.LCPI0_0:
	.long	mono_aot_System_Runtime_Serialization_llvm_got-(.LPC0_0+8)
.Lfunc_end0:
	.size	gc.safepoint_poll, .Lfunc_end0-gc.safepoint_poll
	.fnend

	.p2align	2
	.type	mono_aot_System_Runtime_Serialization_icall_cold_wrapper_265,%function
	.code	32
mono_aot_System_Runtime_Serialization_icall_cold_wrapper_265:
.Lfunc_begin1:
	.fnstart
	.save	{r11, lr}
	push	{r11, lr}
.Ltmp3:
.Ltmp4:
.Ltmp5:
	ldr	r0, .LCPI1_0
.LPC1_0:
	add	r0, pc, r0
	ldr	r0, [r0, #80]
	blx	r0
	pop	{r11, pc}
	.p2align	2
.LCPI1_0:
	.long	mono_aot_System_Runtime_Serialization_llvm_got-(.LPC1_0+8)
.Lfunc_end1:
	.size	mono_aot_System_Runtime_Serialization_icall_cold_wrapper_265, .Lfunc_end1-mono_aot_System_Runtime_Serialization_icall_cold_wrapper_265
	.fnend

	.p2align	2
	.type	mono_aot_System_Runtime_Serialization_init_method_gshared_mrgctx,%function
	.code	32
mono_aot_System_Runtime_Serialization_init_method_gshared_mrgctx:
.Lfunc_begin2:
	.fnstart
	.save	{r4, lr}
	push	{r4, lr}
.Ltmp6:
.Ltmp7:
.Ltmp8:
	ldr	r4, .LCPI2_0
	mov	r3, r0
.LPC2_0:
	add	r4, pc, r4
	ldrb	r0, [r4, #2414]
	cmp	r0, #0
	popne	{r4, pc}
	ldr	r0, .LCPI2_1
	movw	r2, #2414
.LPC2_1:
	add	r0, pc, r0
	ldr	r1, [r0, #16]
	ldr	r12, [r0, #64]
	ldr	r0, .LCPI2_2
.LPC2_2:
	ldr	r0, [pc, r0]
	blx	r12
	mov	r0, #1
	strb	r0, [r4, #2414]
	pop	{r4, pc}
	.p2align	2
.LCPI2_0:
	.long	mono_inited-(.LPC2_0+8)
.LCPI2_1:
	.long	mono_aot_System_Runtime_Serialization_llvm_got-(.LPC2_1+8)
.LCPI2_2:
.Ltmp9:
	.long	mono_aot_file_info(GOT_PREL)-((.LPC2_2+8)-.Ltmp9)
.Lfunc_end2:
	.size	mono_aot_System_Runtime_Serialization_init_method_gshared_mrgctx, .Lfunc_end2-mono_aot_System_Runtime_Serialization_init_method_gshared_mrgctx
	.fnend

	.p2align	2
	.type	mono_aot_System_Runtime_Serialization_init_method_gshared_this,%function
	.code	32
mono_aot_System_Runtime_Serialization_init_method_gshared_this:
.Lfunc_begin3:
	.fnstart
	.save	{r4, r5, r11, lr}
	push	{r4, r5, r11, lr}
.Ltmp10:
.Ltmp11:
.Ltmp12:
.Ltmp13:
.Ltmp14:
	ldr	r5, .LCPI3_0
	mov	r4, r0
	mov	r3, r1
.LPC3_0:
	add	r5, pc, r5
	ldrb	r0, [r5, r4]
	cmp	r0, #0
	popne	{r4, r5, r11, pc}
	ldr	r0, .LCPI3_1
	mov	r2, r4
.LPC3_1:
	add	r0, pc, r0
	ldr	r1, [r0, #16]
	ldr	r12, [r0, #60]
	ldr	r0, .LCPI3_2
.LPC3_2:
	ldr	r0, [pc, r0]
	blx	r12
	mov	r0, #1
	strb	r0, [r5, r4]
	pop	{r4, r5, r11, pc}
	.p2align	2
.LCPI3_0:
	.long	mono_inited-(.LPC3_0+8)
.LCPI3_1:
	.long	mono_aot_System_Runtime_Serialization_llvm_got-(.LPC3_1+8)
.LCPI3_2:
.Ltmp15:
	.long	mono_aot_file_info(GOT_PREL)-((.LPC3_2+8)-.Ltmp15)
.Lfunc_end3:
	.size	mono_aot_System_Runtime_Serialization_init_method_gshared_this, .Lfunc_end3-mono_aot_System_Runtime_Serialization_init_method_gshared_this
	.fnend

	.hidden	System_Xml_ArrayHelper_2_TArgument_REF_TArray_REF_ReadArray_System_Xml_XmlDictionaryReader_TArgument_REF_TArgument_REF_int
	.globl	System_Xml_ArrayHelper_2_TArgument_REF_TArray_REF_ReadArray_System_Xml_XmlDictionaryReader_TArgument_REF_TArgument_REF_int
	.p2align	2
	.type	System_Xml_ArrayHelper_2_TArgument_REF_TArray_REF_ReadArray_System_Xml_XmlDictionaryReader_TArgument_REF_TArgument_REF_int,%function
	.code	32
System_Xml_ArrayHelper_2_TArgument_REF_TArray_REF_ReadArray_System_Xml_XmlDictionaryReader_TArgument_REF_TArgument_REF_int:
.Lfunc_begin4:
	.fnstart
	.save	{r4, r5, r6, r7, r9, r10, r11, lr}
	push	{r4, r5, r6, r7, r9, r10, r11, lr}
.Ltmp16:
.Ltmp17:
.Ltmp18:
.Ltmp19:
.Ltmp20:
.Ltmp21:
.Ltmp22:
.Ltmp23:
.Ltmp24:
	.pad	#40
	sub	sp, sp, #40
.Ltmp25:
	mov	r5, r2
	ldr	r2, .LCPI4_5
	mov	r6, r1
	mov	r1, #0
.LPC4_5:
	add	r2, pc, r2
	str	r1, [sp, #36]
	mov	r11, r3
	ldr	r1, [r2, #28]
	str	r0, [sp, #28]
	str	r0, [sp, #32]
	ldr	r0, [r1]
	cmp	r0, #0
	blne	mono_aot_System_Runtime_Serialization_icall_cold_wrapper_265
	cmp	r6, #0
	beq	.LBB4_42
	ldr	r0, [r6]
	add	r1, sp, #36
	ldr	r4, [sp, #72]
	ldr	r2, [r0, #380]
	mov	r0, r6
	blx	r2
	tst	r0, #255
	beq	.LBB4_6
	ldr	r0, [sp, #36]
	cmp	r0, r4
	ble	.LBB4_4
	mov	r0, r6
	mov	r1, r4
	bl	p_6_plt_System_Xml_XmlExceptionHelper_ThrowMaxArrayLengthOrMaxItemsQuotaExceeded_System_Xml_XmlDictionaryReader_int_llvm
.LBB4_4:
	ldr	r0, [sp, #36]
	cmp	r0, #65536
	blt	.LBB4_8
	movw	r0, #65535
	b	.LBB4_7
.LBB4_6:
	mov	r0, #32
.LBB4_7:
	str	r0, [sp, #36]
.LBB4_8:
	mov	r0, #0
	str	r0, [sp, #16]
	mov	r0, #0
	str	r0, [sp, #24]
	mov	r0, #0
	str	r0, [sp, #20]
	b	.LBB4_10
.LBB4_9:
	bl	mono_aot_System_Runtime_Serialization_icall_cold_wrapper_265
.LBB4_10:
	ldr	r4, [sp, #36]
	ldr	r0, [sp, #32]
	ldr	r0, [r0]
	bl	p_2_plt__rgctx_fetch_0_llvm
	mov	r1, r4
	bl	p_3_plt_wrapper_alloc_object_AllocVector_intptr_intptr_llvm
	mov	r4, r0
	mov	r10, #0
	ldr	r9, [r4, #12]
	cmp	r9, #1
	blt	.LBB4_15
	mov	r10, #0
.LBB4_12:
	ldr	r0, [sp, #32]
	cmp	r0, #0
	beq	.LBB4_38
	ldr	r1, [r0]
	mov	r2, r5
	mov	r3, r11
	ldr	r7, [r1, #56]
	sub	r1, r9, r10
	stm	sp, {r4, r10}
	str	r1, [sp, #8]
	mov	r1, r6
	blx	r7
	cmp	r0, #0
	beq	.LBB4_15
	add	r10, r0, r10
	ldr	r0, .LCPI4_6
	ldr	r9, [r4, #12]
.LPC4_6:
	add	r0, pc, r0
	ldr	r0, [r0, #28]
	ldr	r0, [r0]
	cmp	r0, #0
	blne	mono_aot_System_Runtime_Serialization_icall_cold_wrapper_265
	cmp	r9, r10
	bgt	.LBB4_12
.LBB4_15:
	ldr	r1, [sp, #72]
	ldr	r7, [sp, #16]
	sub	r0, r1, r10
	cmp	r7, r0
	ble	.LBB4_17
	mov	r0, r6
	bl	p_6_plt_System_Xml_XmlExceptionHelper_ThrowMaxArrayLengthOrMaxItemsQuotaExceeded_System_Xml_XmlDictionaryReader_int_llvm
.LBB4_17:
	ldr	r0, [r4, #12]
	add	r7, r10, r7
	cmp	r10, r0
	blt	.LBB4_23
	ldr	r0, [r6]
	ldr	r1, [r0, #316]
	mov	r0, r6
	blx	r1
	cmp	r0, #15
	beq	.LBB4_22
	ldr	r0, [sp, #20]
	cmp	r0, #0
	bne	.LBB4_21
	ldr	r0, [sp, #32]
	ldr	r0, [r0]
	bl	p_5_plt__rgctx_fetch_1_llvm
	mov	r1, #32
	bl	p_3_plt_wrapper_alloc_object_AllocVector_intptr_intptr_llvm
.LBB4_21:
	ldr	r1, [r0]
	mov	r2, r4
	str	r7, [sp, #16]
	ldr	r7, [sp, #24]
	ldr	r3, [r1, #136]
	str	r0, [sp, #20]
	mov	r1, r7
	blx	r3
	ldr	r0, [sp, #36]
	add	r7, r7, #1
	ldr	r1, .LCPI4_8
	str	r7, [sp, #24]
.LPC4_8:
	add	r1, pc, r1
	lsl	r0, r0, #1
	str	r0, [sp, #36]
	ldr	r1, [r1, #28]
	ldr	r0, [r1]
	cmp	r0, #0
	beq	.LBB4_10
	b	.LBB4_9
.LBB4_22:
	ldr	r0, [r4, #12]
.LBB4_23:
	ldr	r1, [sp, #24]
	cmp	r1, #0
	bgt	.LBB4_26
	cmp	r7, r0
	bne	.LBB4_26
	mov	r10, r4
	b	.LBB4_37
.LBB4_26:
	ldr	r0, [sp, #32]
	ldr	r0, [r0]
	bl	p_2_plt__rgctx_fetch_0_llvm
	mov	r1, r7
	bl	p_3_plt_wrapper_alloc_object_AllocVector_intptr_intptr_llvm
	mov	r10, r0
	ldr	r0, [sp, #24]
	mov	r11, r7
	cmp	r0, #1
	blt	.LBB4_29
	ldr	r1, [sp, #20]
	cmp	r1, #0
	beq	.LBB4_43
	add	r7, r1, #16
	mov	r6, #0
	mov	r9, #0
	b	.LBB4_31
.LBB4_29:
	mov	r6, #0
	b	.LBB4_36
.LBB4_30:
	bl	mono_aot_System_Runtime_Serialization_icall_cold_wrapper_265
	ldr	r1, [sp, #20]
	b	.LBB4_35
.LBB4_31:
	ldr	r0, [r1, #12]
	cmp	r0, r9
	bls	.LBB4_39
	ldr	r0, [r7]
	cmp	r0, #0
	beq	.LBB4_40
	ldr	r1, [r0, #12]
	mov	r2, r10
	str	r1, [sp]
	mov	r1, #0
	mov	r3, r6
	bl	p_4_plt_System_Array_Copy_System_Array_int_System_Array_int_int_llvm
	ldr	r0, [r7]
	cmp	r0, #0
	beq	.LBB4_41
	ldr	r5, [r0, #12]
	add	r9, r9, #1
	ldr	r0, .LCPI4_7
	ldr	r1, [sp, #20]
.LPC4_7:
	add	r0, pc, r0
	ldr	r0, [r0, #28]
	ldr	r0, [r0]
	cmp	r0, #0
	bne	.LBB4_30
.LBB4_35:
	ldr	r0, [sp, #24]
	add	r6, r5, r6
	add	r7, r7, #4
	cmp	r9, r0
	blt	.LBB4_31
.LBB4_36:
	sub	r0, r11, r6
	str	r0, [sp]
	mov	r0, r4
	mov	r1, #0
	mov	r2, r10
	mov	r3, r6
	bl	p_4_plt_System_Array_Copy_System_Array_int_System_Array_int_int_llvm
.LBB4_37:
	mov	r0, r10
	add	sp, sp, #40
	pop	{r4, r5, r6, r7, r9, r10, r11, pc}
.Ltmp26:
.LBB4_38:
	ldr	r0, .LCPI4_3
.LPC4_3:
	add	r1, pc, r0
	mov	r0, #225
	bl	p_1_plt__jit_icall_llvm_throw_corlib_exception_abs_trampoline_llvm
.Ltmp27:
.LBB4_39:
	ldr	r0, .LCPI4_0
.LPC4_0:
	add	r1, pc, r0
	mov	r0, #198
	bl	p_1_plt__jit_icall_llvm_throw_corlib_exception_abs_trampoline_llvm
.Ltmp28:
.LBB4_40:
	ldr	r0, .LCPI4_2
.LPC4_2:
	add	r1, pc, r0
	mov	r0, #225
	bl	p_1_plt__jit_icall_llvm_throw_corlib_exception_abs_trampoline_llvm
.Ltmp29:
.LBB4_41:
	ldr	r0, .LCPI4_1
.LPC4_1:
	add	r1, pc, r0
	mov	r0, #225
	bl	p_1_plt__jit_icall_llvm_throw_corlib_exception_abs_trampoline_llvm
.Ltmp30:
.LBB4_42:
	ldr	r0, .LCPI4_4
.LPC4_4:
	add	r1, pc, r0
	mov	r0, #225
	bl	p_1_plt__jit_icall_llvm_throw_corlib_exception_abs_trampoline_llvm
.LBB4_43:
	mov	r0, #225
	mov	r1, #1
	bl	p_1_plt__jit_icall_llvm_throw_corlib_exception_abs_trampoline_llvm
	.p2align	2
.LCPI4_0:
	.long	.Ltmp27-(.LPC4_0+8)
.LCPI4_1:
	.long	.Ltmp29-(.LPC4_1+8)
.LCPI4_2:
	.long	.Ltmp28-(.LPC4_2+8)
.LCPI4_3:
	.long	.Ltmp26-(.LPC4_3+8)
.LCPI4_4:
	.long	.Ltmp30-(.LPC4_4+8)
.LCPI4_5:
	.long	mono_aot_System_Runtime_Serialization_llvm_got-(.LPC4_5+8)
.LCPI4_6:
	.long	mono_aot_System_Runtime_Serialization_llvm_got-(.LPC4_6+8)
.LCPI4_7:
	.long	mono_aot_System_Runtime_Serialization_llvm_got-(.LPC4_7+8)
.LCPI4_8:
	.long	mono_aot_System_Runtime_Serialization_llvm_got-(.LPC4_8+8)
.Lfunc_end4:
	.size	System_Xml_ArrayHelper_2_TArgument_REF_TArray_REF_ReadArray_System_Xml_XmlDictionaryReader_TArgument_REF_TArgument_REF_int, .Lfunc_end4-System_Xml_ArrayHelper_2_TArgument_REF_TArray_REF_ReadArray_System_Xml_XmlDictionaryReader_TArgument_REF_TArgument_REF_int
.Lexception0:
	.fnend

	.hidden	System_Xml_ArrayHelper_2_TArgument_REF_TArray_REF__ctor
	.globl	System_Xml_ArrayHelper_2_TArgument_REF_TArray_REF__ctor
	.p2align	2
	.type	System_Xml_ArrayHelper_2_TArgument_REF_TArray_REF__ctor,%function
	.code	32
System_Xml_ArrayHelper_2_TArgument_REF_TArray_REF__ctor:
.Lfunc_begin5:
	.fnstart
	.pad	#4
	sub	sp, sp, #4
.Ltmp31:
	str	r0, [sp]
	add	sp, sp, #4
	bx	lr
.Lfunc_end5:
	.size	System_Xml_ArrayHelper_2_TArgument_REF_TArray_REF__ctor, .Lfunc_end5-System_Xml_ArrayHelper_2_TArgument_REF_TArray_REF__ctor
.Lexception1:
	.fnend

	.hidden	System_Xml_XmlBinaryWriterSession_PriorityDictionary_2_K_REF_V_REF_TryGetValue_K_REF_V_REF_
	.globl	System_Xml_XmlBinaryWriterSession_PriorityDictionary_2_K_REF_V_REF_TryGetValue_K_REF_V_REF_
	.p2align	2
	.type	System_Xml_XmlBinaryWriterSession_PriorityDictionary_2_K_REF_V_REF_TryGetValue_K_REF_V_REF_,%function
	.code	32
System_Xml_XmlBinaryWriterSession_PriorityDictionary_2_K_REF_V_REF_TryGetValue_K_REF_V_REF_:
.Lfunc_begin6:
	.fnstart
	.save	{r4, r5, r6, r7, r9, r10, r11, lr}
	push	{r4, r5, r6, r7, r9, r10, r11, lr}
.Ltmp32:
.Ltmp33:
.Ltmp34:
.Ltmp35:
.Ltmp36:
.Ltmp37:
.Ltmp38:
.Ltmp39:
.Ltmp40:
	.pad	#16
	sub	sp, sp, #16
.Ltmp41:
	ldr	r11, .LCPI6_55
	mov	r5, r1
	mov	r9, r2
.LPC6_55:
	add	r11, pc, r11
	ldr	r1, [r11, #28]
	str	r0, [sp, #8]
	str	r0, [sp, #12]
	ldr	r6, [sp, #12]
	ldr	r0, [r1]
	cmp	r0, #0
	blne	mono_aot_System_Runtime_Serialization_icall_cold_wrapper_265
	cmp	r6, #0
	beq	.LBB6_9
	mov	r7, #0
	mov	r4, #16
.LBB6_2:
	ldr	r0, [r6, #16]
	ldr	r6, [sp, #12]
	cmp	r7, r0
	bge	.LBB6_10
	cmp	r6, #0
	beq	.LBB6_78
	ldr	r0, [r6, #12]
	cmp	r0, #0
	beq	.LBB6_79
	ldr	r1, [r0, #12]
	cmp	r1, r7
	bls	.LBB6_80
	adds	r0, r4, r0
	beq	.LBB6_81
	ldr	r0, [r0]
	cmp	r0, r5
	beq	.LBB6_21
	ldr	r0, [r11, #28]
	ldr	r6, [sp, #12]
	ldr	r0, [r0]
	cmp	r0, #0
	blne	mono_aot_System_Runtime_Serialization_icall_cold_wrapper_265
	add	r7, r7, #1
	add	r4, r4, #12
	cmp	r6, #0
	bne	.LBB6_2
.Ltmp42:
.LBB6_9:
	ldr	r0, .LCPI6_54
.LPC6_54:
	add	r1, pc, r0
	mov	r0, #225
	bl	p_1_plt__jit_icall_llvm_throw_corlib_exception_abs_trampoline_llvm
.LBB6_10:
	cmp	r6, #0
	beq	.LBB6_20
	mov	r4, #0
	mov	r7, #16
.LBB6_12:
	ldr	r1, [r6, #16]
	ldr	r0, [sp, #12]
	cmp	r4, r1
	bge	.LBB6_30
	cmp	r0, #0
	beq	.LBB6_82
	ldr	r0, [r0, #12]
	cmp	r0, #0
	beq	.LBB6_84
	ldr	r1, [r0, #12]
	cmp	r1, r4
	bls	.LBB6_83
	adds	r0, r7, r0
	beq	.LBB6_85
	ldr	r0, [r0]
	cmp	r0, #0
	beq	.LBB6_86
	ldr	r1, [r0]
	ldr	r2, [r1, #52]
	mov	r1, r5
	blx	r2
	tst	r0, #255
	bne	.LBB6_54
	ldr	r0, [r11, #28]
	ldr	r6, [sp, #12]
	ldr	r0, [r0]
	cmp	r0, #0
	blne	mono_aot_System_Runtime_Serialization_icall_cold_wrapper_265
	add	r4, r4, #1
	add	r7, r7, #12
	cmp	r6, #0
	bne	.LBB6_12
.Ltmp43:
.LBB6_20:
	ldr	r0, .LCPI6_41
.LPC6_41:
	add	r1, pc, r0
	mov	r0, #225
	bl	p_1_plt__jit_icall_llvm_throw_corlib_exception_abs_trampoline_llvm
.LBB6_21:
	ldr	r0, [sp, #12]
	cmp	r0, #0
	beq	.LBB6_95
	ldr	r0, [r0, #12]
	cmp	r0, #0
	beq	.LBB6_96
	ldr	r1, [r0, #12]
	cmp	r1, r7
	bls	.LBB6_97
	adds	r0, r0, r4
	beq	.LBB6_98
	ldr	r1, [r11, #8]
	ldr	r0, [r0, #4]
	dmb	ish
	str	r0, [r9]
	mov	r0, #1
	strb	r0, [r1, r9, lsr #9]
	ldr	r0, [sp, #12]
	cmp	r0, #0
	beq	.LBB6_99
	ldr	r1, [r0, #12]
	cmp	r1, #0
	beq	.LBB6_100
	ldr	r0, [r1, #12]
	cmp	r0, r7
	bls	.LBB6_101
	ldr	r0, [sp, #12]
	add	r4, r1, r4
	bl	p_7_plt_System_Xml_XmlBinaryWriterSession_PriorityDictionary_2_K_REF_V_REF_get_Now_llvm
	cmp	r4, #0
	bne	.LBB6_75
.Ltmp44:
	ldr	r0, .LCPI6_45
.LPC6_45:
	add	r1, pc, r0
	mov	r0, #225
	bl	p_1_plt__jit_icall_llvm_throw_corlib_exception_abs_trampoline_llvm
.LBB6_30:
	cmp	r0, #0
	beq	.LBB6_102
	ldr	r0, [r0, #8]
	cmp	r0, #0
	beq	.LBB6_76
	ldr	r0, [sp, #12]
	cmp	r0, #0
	beq	.LBB6_110
	ldr	r0, [r0, #8]
	cmp	r0, #0
	beq	.LBB6_111
	mov	r1, r5
	mov	r2, r9
	bl	p_8_plt_System_Collections_Generic_Dictionary_2_K_REF_V_REF_TryGetValue_K_REF_V_REF__llvm
	tst	r0, #255
	beq	.LBB6_77
	ldr	r0, [sp, #12]
	cmp	r0, #0
	beq	.LBB6_112
	ldr	r0, [r0, #12]
	cmp	r0, #0
	beq	.LBB6_113
	ldr	r1, [r0, #12]
	cmp	r1, #0
	beq	.LBB6_114
	adds	r0, r0, #16
	str	r9, [sp, #4]
	beq	.LBB6_115
	ldr	r6, [r0, #8]
	ldr	r9, [sp, #12]
	cmp	r9, #0
	beq	.LBB6_53
	mov	r4, #1
	mov	r10, #0
	mov	r7, #28
.LBB6_41:
	ldr	r1, [r9, #16]
	ldr	r0, [sp, #12]
	cmp	r4, r1
	bge	.LBB6_63
	cmp	r0, #0
	beq	.LBB6_87
	ldr	r0, [r0, #12]
	cmp	r0, #0
	beq	.LBB6_88
	ldr	r1, [r0, #12]
	cmp	r1, r4
	bls	.LBB6_89
	adds	r0, r7, r0
	beq	.LBB6_90
	ldr	r0, [r0, #8]
	cmp	r0, r6
	bge	.LBB6_52
	ldr	r0, [sp, #12]
	cmp	r0, #0
	beq	.LBB6_91
	ldr	r0, [r0, #12]
	cmp	r0, #0
	beq	.LBB6_92
	ldr	r1, [r0, #12]
	cmp	r1, r4
	bls	.LBB6_93
	adds	r0, r7, r0
	beq	.LBB6_94
	ldr	r6, [r0, #8]
	mov	r10, r4
.LBB6_52:
	ldr	r0, [r11, #28]
	ldr	r9, [sp, #12]
	ldr	r0, [r0]
	cmp	r0, #0
	blne	mono_aot_System_Runtime_Serialization_icall_cold_wrapper_265
	add	r4, r4, #1
	add	r7, r7, #12
	cmp	r9, #0
	bne	.LBB6_41
.Ltmp45:
.LBB6_53:
	ldr	r0, .LCPI6_20
.LPC6_20:
	add	r1, pc, r0
	mov	r0, #225
	bl	p_1_plt__jit_icall_llvm_throw_corlib_exception_abs_trampoline_llvm
.LBB6_54:
	ldr	r0, [sp, #12]
	cmp	r0, #0
	beq	.LBB6_103
	ldr	r0, [r0, #12]
	cmp	r0, #0
	beq	.LBB6_104
	ldr	r1, [r0, #12]
	cmp	r1, r4
	bls	.LBB6_105
	adds	r0, r0, r7
	beq	.LBB6_106
	ldr	r1, [r11, #8]
	ldr	r0, [r0, #4]
	dmb	ish
	str	r0, [r9]
	mov	r0, #1
	strb	r0, [r1, r9, lsr #9]
	ldr	r0, [sp, #12]
	cmp	r0, #0
	beq	.LBB6_107
	ldr	r1, [r0, #12]
	cmp	r1, #0
	beq	.LBB6_108
	ldr	r0, [r1, #12]
	cmp	r0, r4
	bls	.LBB6_109
	ldr	r0, [sp, #12]
	add	r4, r1, r7
	bl	p_7_plt_System_Xml_XmlBinaryWriterSession_PriorityDictionary_2_K_REF_V_REF_get_Now_llvm
	cmp	r4, #0
	bne	.LBB6_75
.Ltmp46:
	ldr	r0, .LCPI6_31
.LPC6_31:
	add	r1, pc, r0
	mov	r0, #225
	bl	p_1_plt__jit_icall_llvm_throw_corlib_exception_abs_trampoline_llvm
.LBB6_63:
	cmp	r0, #0
	beq	.LBB6_116
	ldr	r0, [r0, #12]
	cmp	r0, #0
	beq	.LBB6_117
	ldr	r1, [r0, #12]
	cmp	r1, r10
	bls	.LBB6_118
	add	r2, r10, r10, lsl #1
	mov	r1, #16
	add	r1, r1, r2, lsl #2
	adds	r3, r1, r0
	beq	.LBB6_119
	ldr	r0, [r11, #8]
	mov	r7, #1
	dmb	ish
	str	r5, [r3]
	strb	r7, [r0, r3, lsr #9]
	ldr	r3, [sp, #12]
	cmp	r3, #0
	beq	.LBB6_120
	ldr	r3, [r3, #12]
	cmp	r3, #0
	beq	.LBB6_121
	ldr	r7, [r3, #12]
	cmp	r7, r10
	bls	.LBB6_122
	lsl	r2, r2, #2
	add	r2, r3, r2
	cmn	r2, #16
	beq	.LBB6_123
	ldr	r3, [sp, #4]
	ldr	r3, [r3]
	dmb	ish
	str	r3, [r2, #20]!
	mov	r3, #1
	lsr	r2, r2, #9
	strb	r3, [r2, r0]
	ldr	r0, [sp, #12]
	cmp	r0, #0
	beq	.LBB6_124
	ldr	r2, [r0, #12]
	cmp	r2, #0
	beq	.LBB6_125
	ldr	r0, [r2, #12]
	cmp	r0, r10
	bls	.LBB6_126
	ldr	r0, [sp, #12]
	add	r4, r1, r2
	bl	p_7_plt_System_Xml_XmlBinaryWriterSession_PriorityDictionary_2_K_REF_V_REF_get_Now_llvm
	cmp	r4, #0
	beq	.LBB6_127
.LBB6_75:
	str	r0, [r4, #8]
	mov	r0, #1
	add	sp, sp, #16
	pop	{r4, r5, r6, r7, r9, r10, r11, pc}
.LBB6_76:
	mov	r0, #0
	str	r0, [r9]
	add	sp, sp, #16
	pop	{r4, r5, r6, r7, r9, r10, r11, pc}
.LBB6_77:
	mov	r0, #0
	add	sp, sp, #16
	pop	{r4, r5, r6, r7, r9, r10, r11, pc}
.Ltmp47:
.LBB6_78:
	ldr	r0, .LCPI6_53
.LPC6_53:
	add	r1, pc, r0
	mov	r0, #225
	bl	p_1_plt__jit_icall_llvm_throw_corlib_exception_abs_trampoline_llvm
.Ltmp48:
.LBB6_79:
	ldr	r0, .LCPI6_52
.LPC6_52:
	add	r1, pc, r0
	mov	r0, #225
	bl	p_1_plt__jit_icall_llvm_throw_corlib_exception_abs_trampoline_llvm
.Ltmp49:
.LBB6_80:
	ldr	r0, .LCPI6_42
.LPC6_42:
	add	r1, pc, r0
	mov	r0, #198
	bl	p_1_plt__jit_icall_llvm_throw_corlib_exception_abs_trampoline_llvm
.Ltmp50:
.LBB6_81:
	ldr	r0, .LCPI6_51
.LPC6_51:
	add	r1, pc, r0
	mov	r0, #225
	bl	p_1_plt__jit_icall_llvm_throw_corlib_exception_abs_trampoline_llvm
.Ltmp51:
.LBB6_82:
	ldr	r0, .LCPI6_40
.LPC6_40:
	add	r1, pc, r0
	mov	r0, #225
	bl	p_1_plt__jit_icall_llvm_throw_corlib_exception_abs_trampoline_llvm
.Ltmp52:
.LBB6_83:
	ldr	r0, .LCPI6_28
.LPC6_28:
	add	r1, pc, r0
	mov	r0, #198
	bl	p_1_plt__jit_icall_llvm_throw_corlib_exception_abs_trampoline_llvm
.Ltmp53:
.LBB6_84:
	ldr	r0, .LCPI6_39
.LPC6_39:
	add	r1, pc, r0
	mov	r0, #225
	bl	p_1_plt__jit_icall_llvm_throw_corlib_exception_abs_trampoline_llvm
.Ltmp54:
.LBB6_85:
	ldr	r0, .LCPI6_38
.LPC6_38:
	add	r1, pc, r0
	mov	r0, #225
	bl	p_1_plt__jit_icall_llvm_throw_corlib_exception_abs_trampoline_llvm
.Ltmp55:
.LBB6_86:
	ldr	r0, .LCPI6_37
.LPC6_37:
	add	r1, pc, r0
	mov	r0, #225
	bl	p_1_plt__jit_icall_llvm_throw_corlib_exception_abs_trampoline_llvm
.Ltmp56:
.LBB6_87:
	ldr	r0, .LCPI6_19
.LPC6_19:
	add	r1, pc, r0
	mov	r0, #225
	bl	p_1_plt__jit_icall_llvm_throw_corlib_exception_abs_trampoline_llvm
.Ltmp57:
.LBB6_88:
	ldr	r0, .LCPI6_18
.LPC6_18:
	add	r1, pc, r0
	mov	r0, #225
	bl	p_1_plt__jit_icall_llvm_throw_corlib_exception_abs_trampoline_llvm
.Ltmp58:
.LBB6_89:
	ldr	r0, .LCPI6_12
.LPC6_12:
	add	r1, pc, r0
	mov	r0, #198
	bl	p_1_plt__jit_icall_llvm_throw_corlib_exception_abs_trampoline_llvm
.Ltmp59:
.LBB6_90:
	ldr	r0, .LCPI6_17
.LPC6_17:
	add	r1, pc, r0
	mov	r0, #225
	bl	p_1_plt__jit_icall_llvm_throw_corlib_exception_abs_trampoline_llvm
.Ltmp60:
.LBB6_91:
	ldr	r0, .LCPI6_16
.LPC6_16:
	add	r1, pc, r0
	mov	r0, #225
	bl	p_1_plt__jit_icall_llvm_throw_corlib_exception_abs_trampoline_llvm
.Ltmp61:
.LBB6_92:
	ldr	r0, .LCPI6_15
.LPC6_15:
	add	r1, pc, r0
	mov	r0, #225
	bl	p_1_plt__jit_icall_llvm_throw_corlib_exception_abs_trampoline_llvm
.Ltmp62:
.LBB6_93:
	ldr	r0, .LCPI6_13
.LPC6_13:
	add	r1, pc, r0
	mov	r0, #198
	bl	p_1_plt__jit_icall_llvm_throw_corlib_exception_abs_trampoline_llvm
.Ltmp63:
.LBB6_94:
	ldr	r0, .LCPI6_14
.LPC6_14:
	add	r1, pc, r0
	mov	r0, #225
	bl	p_1_plt__jit_icall_llvm_throw_corlib_exception_abs_trampoline_llvm
.Ltmp64:
.LBB6_95:
	ldr	r0, .LCPI6_50
.LPC6_50:
	add	r1, pc, r0
	mov	r0, #225
	bl	p_1_plt__jit_icall_llvm_throw_corlib_exception_abs_trampoline_llvm
.Ltmp65:
.LBB6_96:
	ldr	r0, .LCPI6_49
.LPC6_49:
	add	r1, pc, r0
	mov	r0, #225
	bl	p_1_plt__jit_icall_llvm_throw_corlib_exception_abs_trampoline_llvm
.Ltmp66:
.LBB6_97:
	ldr	r0, .LCPI6_43
.LPC6_43:
	add	r1, pc, r0
	mov	r0, #198
	bl	p_1_plt__jit_icall_llvm_throw_corlib_exception_abs_trampoline_llvm
.Ltmp67:
.LBB6_98:
	ldr	r0, .LCPI6_48
.LPC6_48:
	add	r1, pc, r0
	mov	r0, #225
	bl	p_1_plt__jit_icall_llvm_throw_corlib_exception_abs_trampoline_llvm
.Ltmp68:
.LBB6_99:
	ldr	r0, .LCPI6_47
.LPC6_47:
	add	r1, pc, r0
	mov	r0, #225
	bl	p_1_plt__jit_icall_llvm_throw_corlib_exception_abs_trampoline_llvm
.Ltmp69:
.LBB6_100:
	ldr	r0, .LCPI6_46
.LPC6_46:
	add	r1, pc, r0
	mov	r0, #225
	bl	p_1_plt__jit_icall_llvm_throw_corlib_exception_abs_trampoline_llvm
.Ltmp70:
.LBB6_101:
	ldr	r0, .LCPI6_44
.LPC6_44:
	add	r1, pc, r0
	mov	r0, #198
	bl	p_1_plt__jit_icall_llvm_throw_corlib_exception_abs_trampoline_llvm
.Ltmp71:
.LBB6_102:
	ldr	r0, .LCPI6_27
.LPC6_27:
	add	r1, pc, r0
	mov	r0, #225
	bl	p_1_plt__jit_icall_llvm_throw_corlib_exception_abs_trampoline_llvm
.Ltmp72:
.LBB6_103:
	ldr	r0, .LCPI6_36
.LPC6_36:
	add	r1, pc, r0
	mov	r0, #225
	bl	p_1_plt__jit_icall_llvm_throw_corlib_exception_abs_trampoline_llvm
.Ltmp73:
.LBB6_104:
	ldr	r0, .LCPI6_35
.LPC6_35:
	add	r1, pc, r0
	mov	r0, #225
	bl	p_1_plt__jit_icall_llvm_throw_corlib_exception_abs_trampoline_llvm
.Ltmp74:
.LBB6_105:
	ldr	r0, .LCPI6_29
.LPC6_29:
	add	r1, pc, r0
	mov	r0, #198
	bl	p_1_plt__jit_icall_llvm_throw_corlib_exception_abs_trampoline_llvm
.Ltmp75:
.LBB6_106:
	ldr	r0, .LCPI6_34
.LPC6_34:
	add	r1, pc, r0
	mov	r0, #225
	bl	p_1_plt__jit_icall_llvm_throw_corlib_exception_abs_trampoline_llvm
.Ltmp76:
.LBB6_107:
	ldr	r0, .LCPI6_33
.LPC6_33:
	add	r1, pc, r0
	mov	r0, #225
	bl	p_1_plt__jit_icall_llvm_throw_corlib_exception_abs_trampoline_llvm
.Ltmp77:
.LBB6_108:
	ldr	r0, .LCPI6_32
.LPC6_32:
	add	r1, pc, r0
	mov	r0, #225
	bl	p_1_plt__jit_icall_llvm_throw_corlib_exception_abs_trampoline_llvm
.Ltmp78:
.LBB6_109:
	ldr	r0, .LCPI6_30
.LPC6_30:
	add	r1, pc, r0
	mov	r0, #198
	bl	p_1_plt__jit_icall_llvm_throw_corlib_exception_abs_trampoline_llvm
.Ltmp79:
.LBB6_110:
	ldr	r0, .LCPI6_26
.LPC6_26:
	add	r1, pc, r0
	mov	r0, #225
	bl	p_1_plt__jit_icall_llvm_throw_corlib_exception_abs_trampoline_llvm
.Ltmp80:
.LBB6_111:
	ldr	r0, .LCPI6_25
.LPC6_25:
	add	r1, pc, r0
	mov	r0, #225
	bl	p_1_plt__jit_icall_llvm_throw_corlib_exception_abs_trampoline_llvm
.Ltmp81:
.LBB6_112:
	ldr	r0, .LCPI6_24
.LPC6_24:
	add	r1, pc, r0
	mov	r0, #225
	bl	p_1_plt__jit_icall_llvm_throw_corlib_exception_abs_trampoline_llvm
.Ltmp82:
.LBB6_113:
	ldr	r0, .LCPI6_23
.LPC6_23:
	add	r1, pc, r0
	mov	r0, #225
	bl	p_1_plt__jit_icall_llvm_throw_corlib_exception_abs_trampoline_llvm
.Ltmp83:
.LBB6_114:
	ldr	r0, .LCPI6_22
.LPC6_22:
	add	r1, pc, r0
	mov	r0, #198
	bl	p_1_plt__jit_icall_llvm_throw_corlib_exception_abs_trampoline_llvm
.Ltmp84:
.LBB6_115:
	ldr	r0, .LCPI6_21
.LPC6_21:
	add	r1, pc, r0
	mov	r0, #225
	bl	p_1_plt__jit_icall_llvm_throw_corlib_exception_abs_trampoline_llvm
.Ltmp85:
.LBB6_116:
	ldr	r0, .LCPI6_11
.LPC6_11:
	add	r1, pc, r0
	mov	r0, #225
	bl	p_1_plt__jit_icall_llvm_throw_corlib_exception_abs_trampoline_llvm
.Ltmp86:
.LBB6_117:
	ldr	r0, .LCPI6_10
.LPC6_10:
	add	r1, pc, r0
	mov	r0, #225
	bl	p_1_plt__jit_icall_llvm_throw_corlib_exception_abs_trampoline_llvm
.Ltmp87:
.LBB6_118:
	ldr	r0, .LCPI6_0
.LPC6_0:
	add	r1, pc, r0
	mov	r0, #198
	bl	p_1_plt__jit_icall_llvm_throw_corlib_exception_abs_trampoline_llvm
.Ltmp88:
.LBB6_119:
	ldr	r0, .LCPI6_9
.LPC6_9:
	add	r1, pc, r0
	mov	r0, #225
	bl	p_1_plt__jit_icall_llvm_throw_corlib_exception_abs_trampoline_llvm
.Ltmp89:
.LBB6_120:
	ldr	r0, .LCPI6_8
.LPC6_8:
	add	r1, pc, r0
	mov	r0, #225
	bl	p_1_plt__jit_icall_llvm_throw_corlib_exception_abs_trampoline_llvm
.Ltmp90:
.LBB6_121:
	ldr	r0, .LCPI6_7
.LPC6_7:
	add	r1, pc, r0
	mov	r0, #225
	bl	p_1_plt__jit_icall_llvm_throw_corlib_exception_abs_trampoline_llvm
.Ltmp91:
.LBB6_122:
	ldr	r0, .LCPI6_1
.LPC6_1:
	add	r1, pc, r0
	mov	r0, #198
	bl	p_1_plt__jit_icall_llvm_throw_corlib_exception_abs_trampoline_llvm
.Ltmp92:
.LBB6_123:
	ldr	r0, .LCPI6_6
.LPC6_6:
	add	r1, pc, r0
	mov	r0, #225
	bl	p_1_plt__jit_icall_llvm_throw_corlib_exception_abs_trampoline_llvm
.Ltmp93:
.LBB6_124:
	ldr	r0, .LCPI6_5
.LPC6_5:
	add	r1, pc, r0
	mov	r0, #225
	bl	p_1_plt__jit_icall_llvm_throw_corlib_exception_abs_trampoline_llvm
.Ltmp94:
.LBB6_125:
	ldr	r0, .LCPI6_4
.LPC6_4:
	add	r1, pc, r0
	mov	r0, #225
	bl	p_1_plt__jit_icall_llvm_throw_corlib_exception_abs_trampoline_llvm
.Ltmp95:
.LBB6_126:
	ldr	r0, .LCPI6_2
.LPC6_2:
	add	r1, pc, r0
	mov	r0, #198
	bl	p_1_plt__jit_icall_llvm_throw_corlib_exception_abs_trampoline_llvm
.Ltmp96:
.LBB6_127:
	ldr	r0, .LCPI6_3
.LPC6_3:
	add	r1, pc, r0
	mov	r0, #225
	bl	p_1_plt__jit_icall_llvm_throw_corlib_exception_abs_trampoline_llvm
	.p2align	2
.LCPI6_0:
	.long	.Ltmp87-(.LPC6_0+8)
.LCPI6_1:
	.long	.Ltmp91-(.LPC6_1+8)
.LCPI6_2:
	.long	.Ltmp95-(.LPC6_2+8)
.LCPI6_3:
	.long	.Ltmp96-(.LPC6_3+8)
.LCPI6_4:
	.long	.Ltmp94-(.LPC6_4+8)
.LCPI6_5:
	.long	.Ltmp93-(.LPC6_5+8)
.LCPI6_6:
	.long	.Ltmp92-(.LPC6_6+8)
.LCPI6_7:
	.long	.Ltmp90-(.LPC6_7+8)
.LCPI6_8:
	.long	.Ltmp89-(.LPC6_8+8)
.LCPI6_9:
	.long	.Ltmp88-(.LPC6_9+8)
.LCPI6_10:
	.long	.Ltmp86-(.LPC6_10+8)
.LCPI6_11:
	.long	.Ltmp85-(.LPC6_11+8)
.LCPI6_12:
	.long	.Ltmp58-(.LPC6_12+8)
.LCPI6_13:
	.long	.Ltmp62-(.LPC6_13+8)
.LCPI6_14:
	.long	.Ltmp63-(.LPC6_14+8)
.LCPI6_15:
	.long	.Ltmp61-(.LPC6_15+8)
.LCPI6_16:
	.long	.Ltmp60-(.LPC6_16+8)
.LCPI6_17:
	.long	.Ltmp59-(.LPC6_17+8)
.LCPI6_18:
	.long	.Ltmp57-(.LPC6_18+8)
.LCPI6_19:
	.long	.Ltmp56-(.LPC6_19+8)
.LCPI6_20:
	.long	.Ltmp45-(.LPC6_20+8)
.LCPI6_21:
	.long	.Ltmp84-(.LPC6_21+8)
.LCPI6_22:
	.long	.Ltmp83-(.LPC6_22+8)
.LCPI6_23:
	.long	.Ltmp82-(.LPC6_23+8)
.LCPI6_24:
	.long	.Ltmp81-(.LPC6_24+8)
.LCPI6_25:
	.long	.Ltmp80-(.LPC6_25+8)
.LCPI6_26:
	.long	.Ltmp79-(.LPC6_26+8)
.LCPI6_27:
	.long	.Ltmp71-(.LPC6_27+8)
.LCPI6_28:
	.long	.Ltmp52-(.LPC6_28+8)
.LCPI6_29:
	.long	.Ltmp74-(.LPC6_29+8)
.LCPI6_30:
	.long	.Ltmp78-(.LPC6_30+8)
.LCPI6_31:
	.long	.Ltmp46-(.LPC6_31+8)
.LCPI6_32:
	.long	.Ltmp77-(.LPC6_32+8)
.LCPI6_33:
	.long	.Ltmp76-(.LPC6_33+8)
.LCPI6_34:
	.long	.Ltmp75-(.LPC6_34+8)
.LCPI6_35:
	.long	.Ltmp73-(.LPC6_35+8)
.LCPI6_36:
	.long	.Ltmp72-(.LPC6_36+8)
.LCPI6_37:
	.long	.Ltmp55-(.LPC6_37+8)
.LCPI6_38:
	.long	.Ltmp54-(.LPC6_38+8)
.LCPI6_39:
	.long	.Ltmp53-(.LPC6_39+8)
.LCPI6_40:
	.long	.Ltmp51-(.LPC6_40+8)
.LCPI6_41:
	.long	.Ltmp43-(.LPC6_41+8)
.LCPI6_42:
	.long	.Ltmp49-(.LPC6_42+8)
.LCPI6_43:
	.long	.Ltmp66-(.LPC6_43+8)
.LCPI6_44:
	.long	.Ltmp70-(.LPC6_44+8)
.LCPI6_45:
	.long	.Ltmp44-(.LPC6_45+8)
.LCPI6_46:
	.long	.Ltmp69-(.LPC6_46+8)
.LCPI6_47:
	.long	.Ltmp68-(.LPC6_47+8)
.LCPI6_48:
	.long	.Ltmp67-(.LPC6_48+8)
.LCPI6_49:
	.long	.Ltmp65-(.LPC6_49+8)
.LCPI6_50:
	.long	.Ltmp64-(.LPC6_50+8)
.LCPI6_51:
	.long	.Ltmp50-(.LPC6_51+8)
.LCPI6_52:
	.long	.Ltmp48-(.LPC6_52+8)
.LCPI6_53:
	.long	.Ltmp47-(.LPC6_53+8)
.LCPI6_54:
	.long	.Ltmp42-(.LPC6_54+8)
.LCPI6_55:
	.long	mono_aot_System_Runtime_Serialization_llvm_got-(.LPC6_55+8)
.Lfunc_end6:
	.size	System_Xml_XmlBinaryWriterSession_PriorityDictionary_2_K_REF_V_REF_TryGetValue_K_REF_V_REF_, .Lfunc_end6-System_Xml_XmlBinaryWriterSession_PriorityDictionary_2_K_REF_V_REF_TryGetValue_K_REF_V_REF_
.Lexception2:
	.fnend

	.hidden	System_Xml_XmlBinaryWriterSession_PriorityDictionary_2_K_REF_V_REF_Add_K_REF_V_REF
	.globl	System_Xml_XmlBinaryWriterSession_PriorityDictionary_2_K_REF_V_REF_Add_K_REF_V_REF
	.p2align	2
	.type	System_Xml_XmlBinaryWriterSession_PriorityDictionary_2_K_REF_V_REF_Add_K_REF_V_REF,%function
	.code	32
System_Xml_XmlBinaryWriterSession_PriorityDictionary_2_K_REF_V_REF_Add_K_REF_V_REF:
.Lfunc_begin7:
	.fnstart
	.save	{r4, r5, r6, r7, r9, r10, r11, lr}
	push	{r4, r5, r6, r7, r9, r10, r11, lr}
.Ltmp97:
.Ltmp98:
.Ltmp99:
.Ltmp100:
.Ltmp101:
.Ltmp102:
.Ltmp103:
.Ltmp104:
.Ltmp105:
	.pad	#8
	sub	sp, sp, #8
.Ltmp106:
	ldr	r7, .LCPI7_30
	mov	r10, r1
	mov	r9, r2
.LPC7_30:
	add	r7, pc, r7
	ldr	r1, [r7, #28]
	str	r0, [sp]
	str	r0, [sp, #4]
	ldr	r4, [sp, #4]
	ldr	r0, [r1]
	cmp	r0, #0
	blne	mono_aot_System_Runtime_Serialization_icall_cold_wrapper_265
	cmp	r4, #0
	beq	.LBB7_48
	ldr	r1, [r4, #16]
	ldr	r0, [sp, #4]
	cmp	r0, #0
	beq	.LBB7_49
	ldr	r0, [r0, #12]
	cmp	r0, #0
	beq	.LBB7_50
	ldr	r2, [r0, #12]
	ldr	r0, [sp, #4]
	cmp	r1, r2
	bge	.LBB7_17
	cmp	r0, #0
	beq	.LBB7_51
	ldr	r0, [r0, #12]
	ldr	r1, [sp, #4]
	cmp	r1, #0
	beq	.LBB7_52
	cmp	r0, #0
	beq	.LBB7_53
	ldr	r1, [r1, #16]
	ldr	r2, [r0, #12]
	cmp	r2, r1
	bls	.LBB7_54
	add	r1, r1, r1, lsl #1
	add	r0, r0, r1, lsl #2
	adds	r1, r0, #16
	beq	.LBB7_55
	ldr	r0, [r7, #8]
	mov	r2, #1
	dmb	ish
	str	r10, [r1]
	strb	r2, [r0, r1, lsr #9]
	ldr	r1, [sp, #4]
	cmp	r1, #0
	beq	.LBB7_56
	ldr	r1, [r1, #12]
	ldr	r2, [sp, #4]
	cmp	r2, #0
	beq	.LBB7_57
	cmp	r1, #0
	beq	.LBB7_58
	ldr	r2, [r2, #16]
	ldr	r3, [r1, #12]
	cmp	r3, r2
	bls	.LBB7_59
	add	r2, r2, r2, lsl #1
	add	r1, r1, r2, lsl #2
	cmn	r1, #16
	beq	.LBB7_60
	dmb	ish
	str	r9, [r1, #20]!
	mov	r2, #1
	lsr	r1, r1, #9
	strb	r2, [r1, r0]
	ldr	r0, [sp, #4]
	ldr	r1, [sp, #4]
	cmp	r1, #0
	beq	.LBB7_61
	cmp	r0, #0
	ldrne	r1, [r1, #16]
	addne	r1, r1, #1
	strne	r1, [r0, #16]
	addne	sp, sp, #8
	popne	{r4, r5, r6, r7, r9, r10, r11, pc}
.Ltmp107:
.LBB7_16:
	ldr	r0, .LCPI7_17
.LPC7_17:
	add	r1, pc, r0
	mov	r0, #225
	bl	p_1_plt__jit_icall_llvm_throw_corlib_exception_abs_trampoline_llvm
.LBB7_17:
	cmp	r0, #0
	beq	.LBB7_62
	ldr	r0, [r0, #8]
	cmp	r0, #0
	bne	.LBB7_35
	ldr	r4, [sp, #4]
	ldr	r0, [sp, #4]
	ldr	r0, [r0]
	bl	p_10_plt__rgctx_fetch_2_llvm
	mov	r1, #48
	bl	p_11_plt_wrapper_alloc_object_AllocSmall_intptr_intptr_llvm
	mov	r6, r0
	bl	p_12_plt_System_Collections_Generic_Dictionary_2_K_REF_V_REF__ctor_llvm
	cmp	r4, #0
	beq	.LBB7_65
	ldr	r0, [r7, #8]
	dmb	ish
	str	r6, [r4, #8]!
	mov	r1, #1
	strb	r1, [r0, r4, lsr #9]
	ldr	r5, [sp, #4]
	cmp	r5, #0
	beq	.LBB7_34
	mov	r6, #0
	mov	r4, #16
.LBB7_22:
	ldr	r0, [r5, #16]
	cmp	r6, r0
	bge	.LBB7_35
	ldr	r0, [sp, #4]
	cmp	r0, #0
	beq	.LBB7_38
	ldr	r0, [r0, #8]
	ldr	r1, [sp, #4]
	cmp	r1, #0
	beq	.LBB7_39
	ldr	r1, [r1, #12]
	cmp	r1, #0
	beq	.LBB7_40
	ldr	r2, [r1, #12]
	cmp	r2, r6
	bls	.LBB7_41
	adds	r1, r4, r1
	beq	.LBB7_42
	ldr	r1, [r1]
	ldr	r2, [sp, #4]
	cmp	r2, #0
	beq	.LBB7_43
	ldr	r2, [r2, #12]
	cmp	r2, #0
	beq	.LBB7_44
	ldr	r3, [r2, #12]
	cmp	r3, r6
	bls	.LBB7_45
	adds	r2, r4, r2
	beq	.LBB7_46
	cmp	r0, #0
	beq	.LBB7_47
	ldr	r2, [r2, #4]
	bl	p_9_plt_System_Collections_Generic_Dictionary_2_K_REF_V_REF_Add_K_REF_V_REF_llvm
	ldr	r0, [r7, #28]
	ldr	r5, [sp, #4]
	ldr	r0, [r0]
	cmp	r0, #0
	blne	mono_aot_System_Runtime_Serialization_icall_cold_wrapper_265
	add	r4, r4, #12
	add	r6, r6, #1
	cmp	r5, #0
	bne	.LBB7_22
.Ltmp108:
.LBB7_34:
	ldr	r0, .LCPI7_12
.LPC7_12:
	add	r1, pc, r0
	mov	r0, #225
	bl	p_1_plt__jit_icall_llvm_throw_corlib_exception_abs_trampoline_llvm
.LBB7_35:
	ldr	r0, [sp, #4]
	cmp	r0, #0
	beq	.LBB7_63
	ldr	r0, [r0, #8]
	cmp	r0, #0
	beq	.LBB7_64
	mov	r1, r10
	mov	r2, r9
	bl	p_9_plt_System_Collections_Generic_Dictionary_2_K_REF_V_REF_Add_K_REF_V_REF_llvm
	add	sp, sp, #8
	pop	{r4, r5, r6, r7, r9, r10, r11, pc}
.Ltmp109:
.LBB7_38:
	ldr	r0, .LCPI7_11
.LPC7_11:
	add	r1, pc, r0
	mov	r0, #225
	bl	p_1_plt__jit_icall_llvm_throw_corlib_exception_abs_trampoline_llvm
.Ltmp110:
.LBB7_39:
	ldr	r0, .LCPI7_10
.LPC7_10:
	add	r1, pc, r0
	mov	r0, #225
	bl	p_1_plt__jit_icall_llvm_throw_corlib_exception_abs_trampoline_llvm
.Ltmp111:
.LBB7_40:
	ldr	r0, .LCPI7_9
.LPC7_9:
	add	r1, pc, r0
	mov	r0, #225
	bl	p_1_plt__jit_icall_llvm_throw_corlib_exception_abs_trampoline_llvm
.Ltmp112:
.LBB7_41:
	ldr	r0, .LCPI7_2
.LPC7_2:
	add	r1, pc, r0
	mov	r0, #198
	bl	p_1_plt__jit_icall_llvm_throw_corlib_exception_abs_trampoline_llvm
.Ltmp113:
.LBB7_42:
	ldr	r0, .LCPI7_8
.LPC7_8:
	add	r1, pc, r0
	mov	r0, #225
	bl	p_1_plt__jit_icall_llvm_throw_corlib_exception_abs_trampoline_llvm
.Ltmp114:
.LBB7_43:
	ldr	r0, .LCPI7_7
.LPC7_7:
	add	r1, pc, r0
	mov	r0, #225
	bl	p_1_plt__jit_icall_llvm_throw_corlib_exception_abs_trampoline_llvm
.Ltmp115:
.LBB7_44:
	ldr	r0, .LCPI7_6
.LPC7_6:
	add	r1, pc, r0
	mov	r0, #225
	bl	p_1_plt__jit_icall_llvm_throw_corlib_exception_abs_trampoline_llvm
.Ltmp116:
.LBB7_45:
	ldr	r0, .LCPI7_3
.LPC7_3:
	add	r1, pc, r0
	mov	r0, #198
	bl	p_1_plt__jit_icall_llvm_throw_corlib_exception_abs_trampoline_llvm
.Ltmp117:
.LBB7_46:
	ldr	r0, .LCPI7_5
.LPC7_5:
	add	r1, pc, r0
	mov	r0, #225
	bl	p_1_plt__jit_icall_llvm_throw_corlib_exception_abs_trampoline_llvm
.Ltmp118:
.LBB7_47:
	ldr	r0, .LCPI7_4
.LPC7_4:
	add	r1, pc, r0
	mov	r0, #225
	bl	p_1_plt__jit_icall_llvm_throw_corlib_exception_abs_trampoline_llvm
.Ltmp119:
.LBB7_48:
	ldr	r0, .LCPI7_29
.LPC7_29:
	add	r1, pc, r0
	mov	r0, #225
	bl	p_1_plt__jit_icall_llvm_throw_corlib_exception_abs_trampoline_llvm
.Ltmp120:
.LBB7_49:
	ldr	r0, .LCPI7_28
.LPC7_28:
	add	r1, pc, r0
	mov	r0, #225
	bl	p_1_plt__jit_icall_llvm_throw_corlib_exception_abs_trampoline_llvm
.Ltmp121:
.LBB7_50:
	ldr	r0, .LCPI7_27
.LPC7_27:
	add	r1, pc, r0
	mov	r0, #225
	bl	p_1_plt__jit_icall_llvm_throw_corlib_exception_abs_trampoline_llvm
.Ltmp122:
.LBB7_51:
	ldr	r0, .LCPI7_26
.LPC7_26:
	add	r1, pc, r0
	mov	r0, #225
	bl	p_1_plt__jit_icall_llvm_throw_corlib_exception_abs_trampoline_llvm
.Ltmp123:
.LBB7_52:
	ldr	r0, .LCPI7_25
.LPC7_25:
	add	r1, pc, r0
	mov	r0, #225
	bl	p_1_plt__jit_icall_llvm_throw_corlib_exception_abs_trampoline_llvm
.Ltmp124:
.LBB7_53:
	ldr	r0, .LCPI7_24
.LPC7_24:
	add	r1, pc, r0
	mov	r0, #225
	bl	p_1_plt__jit_icall_llvm_throw_corlib_exception_abs_trampoline_llvm
.Ltmp125:
.LBB7_54:
	ldr	r0, .LCPI7_15
.LPC7_15:
	add	r1, pc, r0
	mov	r0, #198
	bl	p_1_plt__jit_icall_llvm_throw_corlib_exception_abs_trampoline_llvm
.Ltmp126:
.LBB7_55:
	ldr	r0, .LCPI7_23
.LPC7_23:
	add	r1, pc, r0
	mov	r0, #225
	bl	p_1_plt__jit_icall_llvm_throw_corlib_exception_abs_trampoline_llvm
.Ltmp127:
.LBB7_56:
	ldr	r0, .LCPI7_22
.LPC7_22:
	add	r1, pc, r0
	mov	r0, #225
	bl	p_1_plt__jit_icall_llvm_throw_corlib_exception_abs_trampoline_llvm
.Ltmp128:
.LBB7_57:
	ldr	r0, .LCPI7_21
.LPC7_21:
	add	r1, pc, r0
	mov	r0, #225
	bl	p_1_plt__jit_icall_llvm_throw_corlib_exception_abs_trampoline_llvm
.Ltmp129:
.LBB7_58:
	ldr	r0, .LCPI7_20
.LPC7_20:
	add	r1, pc, r0
	mov	r0, #225
	bl	p_1_plt__jit_icall_llvm_throw_corlib_exception_abs_trampoline_llvm
.Ltmp130:
.LBB7_59:
	ldr	r0, .LCPI7_16
.LPC7_16:
	add	r1, pc, r0
	mov	r0, #198
	bl	p_1_plt__jit_icall_llvm_throw_corlib_exception_abs_trampoline_llvm
.Ltmp131:
.LBB7_60:
	ldr	r0, .LCPI7_19
.LPC7_19:
	add	r1, pc, r0
	mov	r0, #225
	bl	p_1_plt__jit_icall_llvm_throw_corlib_exception_abs_trampoline_llvm
.Ltmp132:
.LBB7_61:
	ldr	r0, .LCPI7_18
.LPC7_18:
	add	r1, pc, r0
	mov	r0, #225
	bl	p_1_plt__jit_icall_llvm_throw_corlib_exception_abs_trampoline_llvm
.Ltmp133:
.LBB7_62:
	ldr	r0, .LCPI7_14
.LPC7_14:
	add	r1, pc, r0
	mov	r0, #225
	bl	p_1_plt__jit_icall_llvm_throw_corlib_exception_abs_trampoline_llvm
.Ltmp134:
.LBB7_63:
	ldr	r0, .LCPI7_1
.LPC7_1:
	add	r1, pc, r0
	mov	r0, #225
	bl	p_1_plt__jit_icall_llvm_throw_corlib_exception_abs_trampoline_llvm
.Ltmp135:
.LBB7_64:
	ldr	r0, .LCPI7_0
.LPC7_0:
	add	r1, pc, r0
	mov	r0, #225
	bl	p_1_plt__jit_icall_llvm_throw_corlib_exception_abs_trampoline_llvm
.Ltmp136:
.LBB7_65:
	ldr	r0, .LCPI7_13
.LPC7_13:
	add	r1, pc, r0
	mov	r0, #225
	bl	p_1_plt__jit_icall_llvm_throw_corlib_exception_abs_trampoline_llvm
	.p2align	2
.LCPI7_0:
	.long	.Ltmp135-(.LPC7_0+8)
.LCPI7_1:
	.long	.Ltmp134-(.LPC7_1+8)
.LCPI7_2:
	.long	.Ltmp112-(.LPC7_2+8)
.LCPI7_3:
	.long	.Ltmp116-(.LPC7_3+8)
.LCPI7_4:
	.long	.Ltmp118-(.LPC7_4+8)
.LCPI7_5:
	.long	.Ltmp117-(.LPC7_5+8)
.LCPI7_6:
	.long	.Ltmp115-(.LPC7_6+8)
.LCPI7_7:
	.long	.Ltmp114-(.LPC7_7+8)
.LCPI7_8:
	.long	.Ltmp113-(.LPC7_8+8)
.LCPI7_9:
	.long	.Ltmp111-(.LPC7_9+8)
.LCPI7_10:
	.long	.Ltmp110-(.LPC7_10+8)
.LCPI7_11:
	.long	.Ltmp109-(.LPC7_11+8)
.LCPI7_12:
	.long	.Ltmp108-(.LPC7_12+8)
.LCPI7_13:
	.long	.Ltmp136-(.LPC7_13+8)
.LCPI7_14:
	.long	.Ltmp133-(.LPC7_14+8)
.LCPI7_15:
	.long	.Ltmp125-(.LPC7_15+8)
.LCPI7_16:
	.long	.Ltmp130-(.LPC7_16+8)
.LCPI7_17:
	.long	.Ltmp107-(.LPC7_17+8)
.LCPI7_18:
	.long	.Ltmp132-(.LPC7_18+8)
.LCPI7_19:
	.long	.Ltmp131-(.LPC7_19+8)
.LCPI7_20:
	.long	.Ltmp129-(.LPC7_20+8)
.LCPI7_21:
	.long	.Ltmp128-(.LPC7_21+8)
.LCPI7_22:
	.long	.Ltmp127-(.LPC7_22+8)
.LCPI7_23:
	.long	.Ltmp126-(.LPC7_23+8)
.LCPI7_24:
	.long	.Ltmp124-(.LPC7_24+8)
.LCPI7_25:
	.long	.Ltmp123-(.LPC7_25+8)
.LCPI7_26:
	.long	.Ltmp122-(.LPC7_26+8)
.LCPI7_27:
	.long	.Ltmp121-(.LPC7_27+8)
.LCPI7_28:
	.long	.Ltmp120-(.LPC7_28+8)
.LCPI7_29:
	.long	.Ltmp119-(.LPC7_29+8)
.LCPI7_30:
	.long	mono_aot_System_Runtime_Serialization_llvm_got-(.LPC7_30+8)
.Lfunc_end7:
	.size	System_Xml_XmlBinaryWriterSession_PriorityDictionary_2_K_REF_V_REF_Add_K_REF_V_REF, .Lfunc_end7-System_Xml_XmlBinaryWriterSession_PriorityDictionary_2_K_REF_V_REF_Add_K_REF_V_REF
.Lexception3:
	.fnend

	.hidden	System_Xml_XmlBinaryWriterSession_PriorityDictionary_2_K_REF_V_REF_get_Now
	.globl	System_Xml_XmlBinaryWriterSession_PriorityDictionary_2_K_REF_V_REF_get_Now
	.p2align	2
	.type	System_Xml_XmlBinaryWriterSession_PriorityDictionary_2_K_REF_V_REF_get_Now,%function
	.code	32
System_Xml_XmlBinaryWriterSession_PriorityDictionary_2_K_REF_V_REF_get_Now:
.Lfunc_begin8:
	.fnstart
	.save	{r4, r5, r11, lr}
	push	{r4, r5, r11, lr}
.Ltmp137:
.Ltmp138:
.Ltmp139:
.Ltmp140:
.Ltmp141:
	.pad	#8
	sub	sp, sp, #8
.Ltmp142:
	ldr	r1, .LCPI8_3
.LPC8_3:
	add	r1, pc, r1
	ldr	r1, [r1, #28]
	str	r0, [sp]
	str	r0, [sp, #4]
	ldr	r4, [sp, #4]
	ldr	r5, [sp, #4]
	ldr	r0, [r1]
	cmp	r0, #0
	blne	mono_aot_System_Runtime_Serialization_icall_cold_wrapper_265
	cmp	r5, #0
	beq	.LBB8_6
	cmp	r4, #0
	beq	.LBB8_7
	ldr	r0, [r5, #20]
	add	r0, r0, #1
	str	r0, [r4, #20]
	cmn	r0, #-2147483647
	bne	.LBB8_4
	ldr	r0, [sp, #4]
	bl	p_13_plt_System_Xml_XmlBinaryWriterSession_PriorityDictionary_2_K_REF_V_REF_DecreaseAll_llvm
.LBB8_4:
	ldr	r0, [sp, #4]
	cmp	r0, #0
	ldrne	r0, [r0, #20]
	addne	sp, sp, #8
	popne	{r4, r5, r11, pc}
.Ltmp143:
.LBB8_5:
	ldr	r0, .LCPI8_0
.LPC8_0:
	add	r1, pc, r0
	mov	r0, #225
	bl	p_1_plt__jit_icall_llvm_throw_corlib_exception_abs_trampoline_llvm
.Ltmp144:
.LBB8_6:
	ldr	r0, .LCPI8_2
.LPC8_2:
	add	r1, pc, r0
	mov	r0, #225
	bl	p_1_plt__jit_icall_llvm_throw_corlib_exception_abs_trampoline_llvm
.Ltmp145:
.LBB8_7:
	ldr	r0, .LCPI8_1
.LPC8_1:
	add	r1, pc, r0
	mov	r0, #225
	bl	p_1_plt__jit_icall_llvm_throw_corlib_exception_abs_trampoline_llvm
	.p2align	2
.LCPI8_0:
	.long	.Ltmp143-(.LPC8_0+8)
.LCPI8_1:
	.long	.Ltmp145-(.LPC8_1+8)
.LCPI8_2:
	.long	.Ltmp144-(.LPC8_2+8)
.LCPI8_3:
	.long	mono_aot_System_Runtime_Serialization_llvm_got-(.LPC8_3+8)
.Lfunc_end8:
	.size	System_Xml_XmlBinaryWriterSession_PriorityDictionary_2_K_REF_V_REF_get_Now, .Lfunc_end8-System_Xml_XmlBinaryWriterSession_PriorityDictionary_2_K_REF_V_REF_get_Now
.Lexception4:
	.fnend

	.hidden	System_Xml_XmlBinaryWriterSession_PriorityDictionary_2_K_REF_V_REF_DecreaseAll
	.globl	System_Xml_XmlBinaryWriterSession_PriorityDictionary_2_K_REF_V_REF_DecreaseAll
	.p2align	2
	.type	System_Xml_XmlBinaryWriterSession_PriorityDictionary_2_K_REF_V_REF_DecreaseAll,%function
	.code	32
System_Xml_XmlBinaryWriterSession_PriorityDictionary_2_K_REF_V_REF_DecreaseAll:
.Lfunc_begin9:
	.fnstart
	.save	{r4, r5, r6, r7, r11, lr}
	push	{r4, r5, r6, r7, r11, lr}
.Ltmp146:
.Ltmp147:
.Ltmp148:
.Ltmp149:
.Ltmp150:
.Ltmp151:
.Ltmp152:
	.pad	#8
	sub	sp, sp, #8
.Ltmp153:
	ldr	r4, .LCPI9_6
.LPC9_6:
	add	r4, pc, r4
	ldr	r1, [r4, #28]
	str	r0, [sp]
	str	r0, [sp, #4]
	ldr	r7, [sp, #4]
	ldr	r0, [r1]
	cmp	r0, #0
	blne	mono_aot_System_Runtime_Serialization_icall_cold_wrapper_265
	cmp	r7, #0
	beq	.LBB9_7
	mov	r5, #0
	mov	r6, #24
.LBB9_2:
	ldr	r0, [r7, #16]
	ldr	r7, [sp, #4]
	cmp	r5, r0
	bge	.LBB9_8
	cmp	r7, #0
	beq	.LBB9_11
	ldr	r7, [r7, #12]
	cmp	r7, #0
	beq	.LBB9_12
	ldr	r0, [r7, #12]
	cmp	r0, r5
	bls	.LBB9_13
	ldr	r0, [r6, r7]
	mov	r1, #2
	bl	p_14_plt__jit_icall___emul_op_idiv_llvm
	str	r0, [r6, r7]
	ldr	r0, [r4, #28]
	ldr	r7, [sp, #4]
	ldr	r0, [r0]
	cmp	r0, #0
	blne	mono_aot_System_Runtime_Serialization_icall_cold_wrapper_265
	add	r6, r6, #12
	add	r5, r5, #1
	cmp	r7, #0
	bne	.LBB9_2
.Ltmp154:
.LBB9_7:
	ldr	r0, .LCPI9_5
.LPC9_5:
	add	r1, pc, r0
	mov	r0, #225
	bl	p_1_plt__jit_icall_llvm_throw_corlib_exception_abs_trampoline_llvm
.LBB9_8:
	ldr	r0, [sp, #4]
	cmp	r0, #0
	beq	.LBB9_14
	ldr	r0, [r0, #20]
	mov	r1, #2
	bl	p_14_plt__jit_icall___emul_op_idiv_llvm
	cmp	r7, #0
	strne	r0, [r7, #20]
	addne	sp, sp, #8
	popne	{r4, r5, r6, r7, r11, pc}
.Ltmp155:
.LBB9_10:
	ldr	r0, .LCPI9_0
.LPC9_0:
	add	r1, pc, r0
	mov	r0, #225
	bl	p_1_plt__jit_icall_llvm_throw_corlib_exception_abs_trampoline_llvm
.Ltmp156:
.LBB9_11:
	ldr	r0, .LCPI9_4
.LPC9_4:
	add	r1, pc, r0
	mov	r0, #225
	bl	p_1_plt__jit_icall_llvm_throw_corlib_exception_abs_trampoline_llvm
.Ltmp157:
.LBB9_12:
	ldr	r0, .LCPI9_3
.LPC9_3:
	add	r1, pc, r0
	mov	r0, #225
	bl	p_1_plt__jit_icall_llvm_throw_corlib_exception_abs_trampoline_llvm
.Ltmp158:
.LBB9_13:
	ldr	r0, .LCPI9_2
.LPC9_2:
	add	r1, pc, r0
	mov	r0, #198
	bl	p_1_plt__jit_icall_llvm_throw_corlib_exception_abs_trampoline_llvm
.Ltmp159:
.LBB9_14:
	ldr	r0, .LCPI9_1
.LPC9_1:
	add	r1, pc, r0
	mov	r0, #225
	bl	p_1_plt__jit_icall_llvm_throw_corlib_exception_abs_trampoline_llvm
	.p2align	2
.LCPI9_0:
	.long	.Ltmp155-(.LPC9_0+8)
.LCPI9_1:
	.long	.Ltmp159-(.LPC9_1+8)
.LCPI9_2:
	.long	.Ltmp158-(.LPC9_2+8)
.LCPI9_3:
	.long	.Ltmp157-(.LPC9_3+8)
.LCPI9_4:
	.long	.Ltmp156-(.LPC9_4+8)
.LCPI9_5:
	.long	.Ltmp154-(.LPC9_5+8)
.LCPI9_6:
	.long	mono_aot_System_Runtime_Serialization_llvm_got-(.LPC9_6+8)
.Lfunc_end9:
	.size	System_Xml_XmlBinaryWriterSession_PriorityDictionary_2_K_REF_V_REF_DecreaseAll, .Lfunc_end9-System_Xml_XmlBinaryWriterSession_PriorityDictionary_2_K_REF_V_REF_DecreaseAll
.Lexception5:
	.fnend

	.hidden	System_Runtime_Serialization_KeyValue_2_K_REF_V_REF__ctor_K_REF_V_REF
	.globl	System_Runtime_Serialization_KeyValue_2_K_REF_V_REF__ctor_K_REF_V_REF
	.p2align	2
	.type	System_Runtime_Serialization_KeyValue_2_K_REF_V_REF__ctor_K_REF_V_REF,%function
	.code	32
System_Runtime_Serialization_KeyValue_2_K_REF_V_REF__ctor_K_REF_V_REF:
.Lfunc_begin10:
	.fnstart
	.save	{r11, lr}
	push	{r11, lr}
.Ltmp160:
.Ltmp161:
.Ltmp162:
	.pad	#8
	sub	sp, sp, #8
.Ltmp163:
	cmp	r0, #0
	str	r8, [sp, #4]
	beq	.LBB10_2
	ldr	r3, .LCPI10_1
	dmb	ish
	str	r1, [r0]
	mov	r1, #1
.LPC10_1:
	add	r3, pc, r3
	ldr	r3, [r3, #8]
	strb	r1, [r3, r0, lsr #9]
	dmb	ish
	str	r2, [r0, #4]!
	strb	r1, [r3, r0, lsr #9]
	add	sp, sp, #8
	pop	{r11, pc}
.Ltmp164:
.LBB10_2:
	ldr	r0, .LCPI10_0
.LPC10_0:
	add	r1, pc, r0
	mov	r0, #225
	bl	p_1_plt__jit_icall_llvm_throw_corlib_exception_abs_trampoline_llvm
	.p2align	2
.LCPI10_0:
	.long	.Ltmp164-(.LPC10_0+8)
.LCPI10_1:
	.long	mono_aot_System_Runtime_Serialization_llvm_got-(.LPC10_1+8)
.Lfunc_end10:
	.size	System_Runtime_Serialization_KeyValue_2_K_REF_V_REF__ctor_K_REF_V_REF, .Lfunc_end10-System_Runtime_Serialization_KeyValue_2_K_REF_V_REF__ctor_K_REF_V_REF
.Lexception6:
	.fnend

	.hidden	System_Runtime_Serialization_KeyValue_2_K_REF_V_REF_get_Key
	.globl	System_Runtime_Serialization_KeyValue_2_K_REF_V_REF_get_Key
	.p2align	2
	.type	System_Runtime_Serialization_KeyValue_2_K_REF_V_REF_get_Key,%function
	.code	32
System_Runtime_Serialization_KeyValue_2_K_REF_V_REF_get_Key:
.Lfunc_begin11:
	.fnstart
	.save	{r11, lr}
	push	{r11, lr}
.Ltmp165:
.Ltmp166:
.Ltmp167:
	.pad	#8
	sub	sp, sp, #8
.Ltmp168:
	cmp	r0, #0
	str	r8, [sp, #4]
	ldrne	r0, [r0]
	addne	sp, sp, #8
	popne	{r11, pc}
.Ltmp169:
.LBB11_1:
	ldr	r0, .LCPI11_0
.LPC11_0:
	add	r1, pc, r0
	mov	r0, #225
	bl	p_1_plt__jit_icall_llvm_throw_corlib_exception_abs_trampoline_llvm
	.p2align	2
.LCPI11_0:
	.long	.Ltmp169-(.LPC11_0+8)
.Lfunc_end11:
	.size	System_Runtime_Serialization_KeyValue_2_K_REF_V_REF_get_Key, .Lfunc_end11-System_Runtime_Serialization_KeyValue_2_K_REF_V_REF_get_Key
.Lexception7:
	.fnend

	.hidden	System_Runtime_Serialization_KeyValue_2_K_REF_V_REF_set_Key_K_REF
	.globl	System_Runtime_Serialization_KeyValue_2_K_REF_V_REF_set_Key_K_REF
	.p2align	2
	.type	System_Runtime_Serialization_KeyValue_2_K_REF_V_REF_set_Key_K_REF,%function
	.code	32
System_Runtime_Serialization_KeyValue_2_K_REF_V_REF_set_Key_K_REF:
.Lfunc_begin12:
	.fnstart
	.save	{r11, lr}
	push	{r11, lr}
.Ltmp170:
.Ltmp171:
.Ltmp172:
	.pad	#8
	sub	sp, sp, #8
.Ltmp173:
	cmp	r0, #0
	str	r8, [sp, #4]
	beq	.LBB12_2
	ldr	r2, .LCPI12_1
	dmb	ish
	str	r1, [r0]
	mov	r1, #1
.LPC12_1:
	add	r2, pc, r2
	ldr	r2, [r2, #8]
	strb	r1, [r2, r0, lsr #9]
	add	sp, sp, #8
	pop	{r11, pc}
.Ltmp174:
.LBB12_2:
	ldr	r0, .LCPI12_0
.LPC12_0:
	add	r1, pc, r0
	mov	r0, #225
	bl	p_1_plt__jit_icall_llvm_throw_corlib_exception_abs_trampoline_llvm
	.p2align	2
.LCPI12_0:
	.long	.Ltmp174-(.LPC12_0+8)
.LCPI12_1:
	.long	mono_aot_System_Runtime_Serialization_llvm_got-(.LPC12_1+8)
.Lfunc_end12:
	.size	System_Runtime_Serialization_KeyValue_2_K_REF_V_REF_set_Key_K_REF, .Lfunc_end12-System_Runtime_Serialization_KeyValue_2_K_REF_V_REF_set_Key_K_REF
.Lexception8:
	.fnend

	.hidden	System_Runtime_Serialization_KeyValue_2_K_REF_V_REF_get_Value
	.globl	System_Runtime_Serialization_KeyValue_2_K_REF_V_REF_get_Value
	.p2align	2
	.type	System_Runtime_Serialization_KeyValue_2_K_REF_V_REF_get_Value,%function
	.code	32
System_Runtime_Serialization_KeyValue_2_K_REF_V_REF_get_Value:
.Lfunc_begin13:
	.fnstart
	.save	{r11, lr}
	push	{r11, lr}
.Ltmp175:
.Ltmp176:
.Ltmp177:
	.pad	#8
	sub	sp, sp, #8
.Ltmp178:
	cmp	r0, #0
	str	r8, [sp, #4]
	ldrne	r0, [r0, #4]
	addne	sp, sp, #8
	popne	{r11, pc}
.Ltmp179:
.LBB13_1:
	ldr	r0, .LCPI13_0
.LPC13_0:
	add	r1, pc, r0
	mov	r0, #225
	bl	p_1_plt__jit_icall_llvm_throw_corlib_exception_abs_trampoline_llvm
	.p2align	2
.LCPI13_0:
	.long	.Ltmp179-(.LPC13_0+8)
.Lfunc_end13:
	.size	System_Runtime_Serialization_KeyValue_2_K_REF_V_REF_get_Value, .Lfunc_end13-System_Runtime_Serialization_KeyValue_2_K_REF_V_REF_get_Value
.Lexception9:
	.fnend

	.hidden	System_Runtime_Serialization_KeyValue_2_K_REF_V_REF_set_Value_V_REF
	.globl	System_Runtime_Serialization_KeyValue_2_K_REF_V_REF_set_Value_V_REF
	.p2align	2
	.type	System_Runtime_Serialization_KeyValue_2_K_REF_V_REF_set_Value_V_REF,%function
	.code	32
System_Runtime_Serialization_KeyValue_2_K_REF_V_REF_set_Value_V_REF:
.Lfunc_begin14:
	.fnstart
	.save	{r11, lr}
	push	{r11, lr}
.Ltmp180:
.Ltmp181:
.Ltmp182:
	.pad	#8
	sub	sp, sp, #8
.Ltmp183:
	cmp	r0, #0
	str	r8, [sp, #4]
	beq	.LBB14_2
	ldr	r2, .LCPI14_1
	dmb	ish
	str	r1, [r0, #4]!
	mov	r1, #1
.LPC14_1:
	add	r2, pc, r2
	ldr	r2, [r2, #8]
	strb	r1, [r2, r0, lsr #9]
	add	sp, sp, #8
	pop	{r11, pc}
.Ltmp184:
.LBB14_2:
	ldr	r0, .LCPI14_0
.LPC14_0:
	add	r1, pc, r0
	mov	r0, #225
	bl	p_1_plt__jit_icall_llvm_throw_corlib_exception_abs_trampoline_llvm
	.p2align	2
.LCPI14_0:
	.long	.Ltmp184-(.LPC14_0+8)
.LCPI14_1:
	.long	mono_aot_System_Runtime_Serialization_llvm_got-(.LPC14_1+8)
.Lfunc_end14:
	.size	System_Runtime_Serialization_KeyValue_2_K_REF_V_REF_set_Value_V_REF, .Lfunc_end14-System_Runtime_Serialization_KeyValue_2_K_REF_V_REF_set_Value_V_REF
.Lexception10:
	.fnend

	.hidden	System_Runtime_Serialization_CollectionDataContract_GenericDictionaryEnumerator_2_K_REF_V_REF__ctor_System_Collections_Generic_IEnumerator_1_System_Collections_Generic_KeyValuePair_2_K_REF_V_REF
	.globl	System_Runtime_Serialization_CollectionDataContract_GenericDictionaryEnumerator_2_K_REF_V_REF__ctor_System_Collections_Generic_IEnumerator_1_System_Collections_Generic_KeyValuePair_2_K_REF_V_REF
	.p2align	2
	.type	System_Runtime_Serialization_CollectionDataContract_GenericDictionaryEnumerator_2_K_REF_V_REF__ctor_System_Collections_Generic_IEnumerator_1_System_Collections_Generic_KeyValuePair_2_K_REF_V_REF,%function
	.code	32
System_Runtime_Serialization_CollectionDataContract_GenericDictionaryEnumerator_2_K_REF_V_REF__ctor_System_Collections_Generic_IEnumerator_1_System_Collections_Generic_KeyValuePair_2_K_REF_V_REF:
.Lfunc_begin15:
	.fnstart
	.save	{r11, lr}
	push	{r11, lr}
.Ltmp185:
.Ltmp186:
.Ltmp187:
	.pad	#8
	sub	sp, sp, #8
.Ltmp188:
	str	r0, [sp]
	str	r0, [sp, #4]
	ldr	r0, [sp, #4]
	cmp	r0, #0
	beq	.LBB15_2
	ldr	r2, .LCPI15_1
	dmb	ish
	str	r1, [r0, #8]!
	mov	r1, #1
.LPC15_1:
	add	r2, pc, r2
	ldr	r2, [r2, #8]
	strb	r1, [r2, r0, lsr #9]
	add	sp, sp, #8
	pop	{r11, pc}
.Ltmp189:
.LBB15_2:
	ldr	r0, .LCPI15_0
.LPC15_0:
	add	r1, pc, r0
	mov	r0, #225
	bl	p_1_plt__jit_icall_llvm_throw_corlib_exception_abs_trampoline_llvm
	.p2align	2
.LCPI15_0:
	.long	.Ltmp189-(.LPC15_0+8)
.LCPI15_1:
	.long	mono_aot_System_Runtime_Serialization_llvm_got-(.LPC15_1+8)
.Lfunc_end15:
	.size	System_Runtime_Serialization_CollectionDataContract_GenericDictionaryEnumerator_2_K_REF_V_REF__ctor_System_Collections_Generic_IEnumerator_1_System_Collections_Generic_KeyValuePair_2_K_REF_V_REF, .Lfunc_end15-System_Runtime_Serialization_CollectionDataContract_GenericDictionaryEnumerator_2_K_REF_V_REF__ctor_System_Collections_Generic_IEnumerator_1_System_Collections_Generic_KeyValuePair_2_K_REF_V_REF
.Lexception11:
	.fnend

	.hidden	System_Runtime_Serialization_CollectionDataContract_GenericDictionaryEnumerator_2_K_REF_V_REF_Dispose
	.globl	System_Runtime_Serialization_CollectionDataContract_GenericDictionaryEnumerator_2_K_REF_V_REF_Dispose
	.p2align	2
	.type	System_Runtime_Serialization_CollectionDataContract_GenericDictionaryEnumerator_2_K_REF_V_REF_Dispose,%function
	.code	32
System_Runtime_Serialization_CollectionDataContract_GenericDictionaryEnumerator_2_K_REF_V_REF_Dispose:
.Lfunc_begin16:
	.fnstart
	.pad	#4
	sub	sp, sp, #4
.Ltmp190:
	str	r0, [sp]
	add	sp, sp, #4
	bx	lr
.Lfunc_end16:
	.size	System_Runtime_Serialization_CollectionDataContract_GenericDictionaryEnumerator_2_K_REF_V_REF_Dispose, .Lfunc_end16-System_Runtime_Serialization_CollectionDataContract_GenericDictionaryEnumerator_2_K_REF_V_REF_Dispose
.Lexception12:
	.fnend

	.hidden	System_Runtime_Serialization_CollectionDataContract_GenericDictionaryEnumerator_2_K_REF_V_REF_MoveNext
	.globl	System_Runtime_Serialization_CollectionDataContract_GenericDictionaryEnumerator_2_K_REF_V_REF_MoveNext
	.p2align	2
	.type	System_Runtime_Serialization_CollectionDataContract_GenericDictionaryEnumerator_2_K_REF_V_REF_MoveNext,%function
	.code	32
System_Runtime_Serialization_CollectionDataContract_GenericDictionaryEnumerator_2_K_REF_V_REF_MoveNext:
.Lfunc_begin17:
	.fnstart
	.save	{r4, r5, r6, r8, r11, lr}
	push	{r4, r5, r6, r8, r11, lr}
.Ltmp191:
.Ltmp192:
.Ltmp193:
.Ltmp194:
.Ltmp195:
.Ltmp196:
.Ltmp197:
	.pad	#16
	sub	sp, sp, #16
.Ltmp198:
	mov	r4, r0
	ldr	r0, .LCPI17_2
	ldr	r5, .LCPI17_3
.LPC17_2:
	add	r0, pc, r0
.LPC17_3:
	add	r5, pc, r5
	ldrb	r6, [r0, #1431]
	ldr	r0, [r5, #28]
	str	r4, [sp, #8]
	str	r4, [sp, #12]
	ldr	r0, [r0]
	cmp	r0, #0
	blne	mono_aot_System_Runtime_Serialization_icall_cold_wrapper_265
	cmp	r6, #0
	beq	.LBB17_4
.LBB17_1:
	ldr	r0, [sp, #12]
	cmp	r0, #0
	beq	.LBB17_5
	ldr	r0, [r0, #8]
	cmp	r0, #0
	beq	.LBB17_6
	ldr	r1, [r0]
	ldr	r2, [r5, #100]
	ldr	r1, [r1, #-60]
	str	r2, [sp, #4]
	ldr	r8, [sp, #4]
	blx	r1
	add	sp, sp, #16
	pop	{r4, r5, r6, r8, r11, pc}
.LBB17_4:
	movw	r0, #1431
	mov	r1, r4
	bl	mono_aot_System_Runtime_Serialization_init_method_gshared_this
	b	.LBB17_1
.Ltmp199:
.LBB17_5:
	ldr	r0, .LCPI17_1
.LPC17_1:
	add	r1, pc, r0
	mov	r0, #225
	bl	p_1_plt__jit_icall_llvm_throw_corlib_exception_abs_trampoline_llvm
.Ltmp200:
.LBB17_6:
	ldr	r0, .LCPI17_0
.LPC17_0:
	add	r1, pc, r0
	mov	r0, #225
	bl	p_1_plt__jit_icall_llvm_throw_corlib_exception_abs_trampoline_llvm
	.p2align	2
.LCPI17_0:
	.long	.Ltmp200-(.LPC17_0+8)
.LCPI17_1:
	.long	.Ltmp199-(.LPC17_1+8)
.LCPI17_2:
	.long	mono_inited-(.LPC17_2+8)
.LCPI17_3:
	.long	mono_aot_System_Runtime_Serialization_llvm_got-(.LPC17_3+8)
.Lfunc_end17:
	.size	System_Runtime_Serialization_CollectionDataContract_GenericDictionaryEnumerator_2_K_REF_V_REF_MoveNext, .Lfunc_end17-System_Runtime_Serialization_CollectionDataContract_GenericDictionaryEnumerator_2_K_REF_V_REF_MoveNext
.Lexception13:
	.fnend

	.hidden	System_Runtime_Serialization_CollectionDataContract_GenericDictionaryEnumerator_2_K_REF_V_REF_get_Current
	.globl	System_Runtime_Serialization_CollectionDataContract_GenericDictionaryEnumerator_2_K_REF_V_REF_get_Current
	.p2align	2
	.type	System_Runtime_Serialization_CollectionDataContract_GenericDictionaryEnumerator_2_K_REF_V_REF_get_Current,%function
	.code	32
System_Runtime_Serialization_CollectionDataContract_GenericDictionaryEnumerator_2_K_REF_V_REF_get_Current:
.Lfunc_begin18:
	.fnstart
	.save	{r4, r5, r6, r7, r8, lr}
	push	{r4, r5, r6, r7, r8, lr}
.Ltmp201:
.Ltmp202:
.Ltmp203:
.Ltmp204:
.Ltmp205:
.Ltmp206:
.Ltmp207:
	.pad	#32
	sub	sp, sp, #32
.Ltmp208:
	ldr	r7, .LCPI18_2
	mov	r4, r1
	str	r0, [sp, #8]
	mov	r1, #0
.LPC18_2:
	add	r7, pc, r7
	str	r0, [sp, #12]
	ldr	r5, [sp, #12]
	ldr	r0, [r7, #28]
	str	r1, [sp, #20]
	str	r1, [sp, #16]
	ldr	r0, [r0]
	cmp	r0, #0
	blne	mono_aot_System_Runtime_Serialization_icall_cold_wrapper_265
	cmp	r5, #0
	beq	.LBB18_3
	ldr	r5, [r5, #8]
	ldr	r0, [sp, #12]
	ldr	r0, [r0]
	bl	p_15_plt__rgctx_fetch_3_llvm
	cmp	r5, #0
	beq	.LBB18_4
	ldr	r1, [r5]
	ldr	r2, [r1, #-8]
	add	r1, sp, #16
	str	r0, [sp, #4]
	mov	r0, r5
	ldr	r8, [sp, #4]
	blx	r2
	ldr	r0, [sp, #12]
	ldr	r0, [r0]
	bl	p_16_plt__rgctx_fetch_4_llvm
	ldr	r0, [sp, #12]
	ldr	r5, [sp, #16]
	ldr	r0, [r0]
	bl	p_16_plt__rgctx_fetch_4_llvm
	ldr	r6, [sp, #20]
	mov	r1, #0
	ldr	r0, [sp, #12]
	str	r1, [sp, #28]
	str	r1, [sp, #24]
	ldr	r0, [r0]
	bl	p_17_plt__rgctx_fetch_5_llvm
	str	r0, [sp, #4]
	add	r0, sp, #24
	ldr	r8, [sp, #4]
	mov	r1, r5
	mov	r2, r6
	bl	p_18_plt_System_Runtime_Serialization_KeyValue_2_K_REF_V_REF__ctor_K_REF_V_REF_llvm
	ldr	r2, [r7, #8]
	ldr	r0, [sp, #24]
	ldr	r1, [sp, #28]
	dmb	ish
	str	r0, [r4]
	mov	r0, #1
	strb	r0, [r2, r4, lsr #9]
	str	r1, [r4, #4]!
	strb	r0, [r2, r4, lsr #9]
	add	sp, sp, #32
	pop	{r4, r5, r6, r7, r8, pc}
.Ltmp209:
.LBB18_3:
	ldr	r0, .LCPI18_1
.LPC18_1:
	add	r1, pc, r0
	mov	r0, #225
	bl	p_1_plt__jit_icall_llvm_throw_corlib_exception_abs_trampoline_llvm
.Ltmp210:
.LBB18_4:
	ldr	r0, .LCPI18_0
.LPC18_0:
	add	r1, pc, r0
	mov	r0, #225
	bl	p_1_plt__jit_icall_llvm_throw_corlib_exception_abs_trampoline_llvm
	.p2align	2
.LCPI18_0:
	.long	.Ltmp210-(.LPC18_0+8)
.LCPI18_1:
	.long	.Ltmp209-(.LPC18_1+8)
.LCPI18_2:
	.long	mono_aot_System_Runtime_Serialization_llvm_got-(.LPC18_2+8)
.Lfunc_end18:
	.size	System_Runtime_Serialization_CollectionDataContract_GenericDictionaryEnumerator_2_K_REF_V_REF_get_Current, .Lfunc_end18-System_Runtime_Serialization_CollectionDataContract_GenericDictionaryEnumerator_2_K_REF_V_REF_get_Current
.Lexception14:
	.fnend

	.hidden	System_Runtime_Serialization_CollectionDataContract_GenericDictionaryEnumerator_2_K_REF_V_REF_System_Collections_IEnumerator_get_Current
	.globl	System_Runtime_Serialization_CollectionDataContract_GenericDictionaryEnumerator_2_K_REF_V_REF_System_Collections_IEnumerator_get_Current
	.p2align	2
	.type	System_Runtime_Serialization_CollectionDataContract_GenericDictionaryEnumerator_2_K_REF_V_REF_System_Collections_IEnumerator_get_Current,%function
	.code	32
System_Runtime_Serialization_CollectionDataContract_GenericDictionaryEnumerator_2_K_REF_V_REF_System_Collections_IEnumerator_get_Current:
.Lfunc_begin19:
	.fnstart
	.save	{r4, r5, r11, lr}
	push	{r4, r5, r11, lr}
.Ltmp211:
.Ltmp212:
.Ltmp213:
.Ltmp214:
.Ltmp215:
	.pad	#16
	sub	sp, sp, #16
.Ltmp216:
	ldr	r5, .LCPI19_0
.LPC19_0:
	add	r5, pc, r5
	ldr	r1, [r5, #28]
	str	r0, [sp]
	str	r0, [sp, #4]
	ldr	r4, [sp, #4]
	ldr	r0, [r1]
	cmp	r0, #0
	blne	mono_aot_System_Runtime_Serialization_icall_cold_wrapper_265
	add	r1, sp, #8
	mov	r0, r4
	bl	p_19_plt_System_Runtime_Serialization_CollectionDataContract_GenericDictionaryEnumerator_2_K_REF_V_REF_get_Current_llvm
	ldr	r0, [sp, #4]
	ldr	r0, [r0]
	bl	p_17_plt__rgctx_fetch_5_llvm
	mov	r1, #16
	bl	p_11_plt_wrapper_alloc_object_AllocSmall_intptr_intptr_llvm
	dmb	ish
	ldr	r1, [r5, #8]
	ldr	r2, [sp, #8]
	mov	r3, #1
	str	r2, [r0, #8]
	add	r2, r0, #8
	strb	r3, [r1, r2, lsr #9]
	ldr	r2, [sp, #12]
	str	r2, [r0, #12]
	add	r2, r0, #12
	strb	r3, [r1, r2, lsr #9]
	add	sp, sp, #16
	pop	{r4, r5, r11, pc}
	.p2align	2
.LCPI19_0:
	.long	mono_aot_System_Runtime_Serialization_llvm_got-(.LPC19_0+8)
.Lfunc_end19:
	.size	System_Runtime_Serialization_CollectionDataContract_GenericDictionaryEnumerator_2_K_REF_V_REF_System_Collections_IEnumerator_get_Current, .Lfunc_end19-System_Runtime_Serialization_CollectionDataContract_GenericDictionaryEnumerator_2_K_REF_V_REF_System_Collections_IEnumerator_get_Current
.Lexception15:
	.fnend

	.hidden	System_Runtime_Serialization_CollectionDataContract_GenericDictionaryEnumerator_2_K_REF_V_REF_Reset
	.globl	System_Runtime_Serialization_CollectionDataContract_GenericDictionaryEnumerator_2_K_REF_V_REF_Reset
	.p2align	2
	.type	System_Runtime_Serialization_CollectionDataContract_GenericDictionaryEnumerator_2_K_REF_V_REF_Reset,%function
	.code	32
System_Runtime_Serialization_CollectionDataContract_GenericDictionaryEnumerator_2_K_REF_V_REF_Reset:
.Lfunc_begin20:
	.fnstart
	.save	{r4, r5, r6, r8, r11, lr}
	push	{r4, r5, r6, r8, r11, lr}
.Ltmp217:
.Ltmp218:
.Ltmp219:
.Ltmp220:
.Ltmp221:
.Ltmp222:
.Ltmp223:
	.pad	#16
	sub	sp, sp, #16
.Ltmp224:
	mov	r4, r0
	ldr	r0, .LCPI20_2
	ldr	r5, .LCPI20_3
.LPC20_2:
	add	r0, pc, r0
.LPC20_3:
	add	r5, pc, r5
	ldrb	r6, [r0, #1434]
	ldr	r0, [r5, #28]
	str	r4, [sp, #8]
	str	r4, [sp, #12]
	ldr	r0, [r0]
	cmp	r0, #0
	blne	mono_aot_System_Runtime_Serialization_icall_cold_wrapper_265
	cmp	r6, #0
	beq	.LBB20_4
.LBB20_1:
	ldr	r0, [sp, #12]
	cmp	r0, #0
	beq	.LBB20_5
	ldr	r0, [r0, #8]
	cmp	r0, #0
	beq	.LBB20_6
	ldr	r1, [r0]
	ldr	r2, [r5, #104]
	ldr	r1, [r1, #-48]
	str	r2, [sp, #4]
	ldr	r8, [sp, #4]
	blx	r1
	add	sp, sp, #16
	pop	{r4, r5, r6, r8, r11, pc}
.LBB20_4:
	movw	r0, #1434
	mov	r1, r4
	bl	mono_aot_System_Runtime_Serialization_init_method_gshared_this
	b	.LBB20_1
.Ltmp225:
.LBB20_5:
	ldr	r0, .LCPI20_1
.LPC20_1:
	add	r1, pc, r0
	mov	r0, #225
	bl	p_1_plt__jit_icall_llvm_throw_corlib_exception_abs_trampoline_llvm
.Ltmp226:
.LBB20_6:
	ldr	r0, .LCPI20_0
.LPC20_0:
	add	r1, pc, r0
	mov	r0, #225
	bl	p_1_plt__jit_icall_llvm_throw_corlib_exception_abs_trampoline_llvm
	.p2align	2
.LCPI20_0:
	.long	.Ltmp226-(.LPC20_0+8)
.LCPI20_1:
	.long	.Ltmp225-(.LPC20_1+8)
.LCPI20_2:
	.long	mono_inited-(.LPC20_2+8)
.LCPI20_3:
	.long	mono_aot_System_Runtime_Serialization_llvm_got-(.LPC20_3+8)
.Lfunc_end20:
	.size	System_Runtime_Serialization_CollectionDataContract_GenericDictionaryEnumerator_2_K_REF_V_REF_Reset, .Lfunc_end20-System_Runtime_Serialization_CollectionDataContract_GenericDictionaryEnumerator_2_K_REF_V_REF_Reset
.Lexception16:
	.fnend

	.hidden	System_Runtime_Serialization_DataNode_1_T_REF__ctor
	.globl	System_Runtime_Serialization_DataNode_1_T_REF__ctor
	.p2align	2
	.type	System_Runtime_Serialization_DataNode_1_T_REF__ctor,%function
	.code	32
System_Runtime_Serialization_DataNode_1_T_REF__ctor:
.Lfunc_begin21:
	.fnstart
	.save	{r4, r5, r6, lr}
	push	{r4, r5, r6, lr}
.Ltmp227:
.Ltmp228:
.Ltmp229:
.Ltmp230:
.Ltmp231:
	.pad	#8
	sub	sp, sp, #8
.Ltmp232:
	mov	r4, r0
	ldr	r0, .LCPI21_3
	ldr	r5, .LCPI21_4
.LPC21_3:
	add	r0, pc, r0
.LPC21_4:
	add	r5, pc, r5
	ldrb	r6, [r0, #1778]
	ldr	r0, [r5, #28]
	str	r4, [sp]
	str	r4, [sp, #4]
	ldr	r0, [r0]
	cmp	r0, #0
	blne	mono_aot_System_Runtime_Serialization_icall_cold_wrapper_265
	cmp	r6, #0
	beq	.LBB21_5
.LBB21_1:
	ldr	r0, [sp, #4]
	cmp	r0, #0
	beq	.LBB21_6
	ldr	r1, [r5, #108]
	ldr	r4, [r5, #8]
	mov	r5, #1
	ldr	r1, [r1]
	dmb	ish
	str	r1, [r0, #32]!
	strb	r5, [r4, r0, lsr #9]
	ldr	r6, [sp, #4]
	ldr	r0, [sp, #4]
	ldr	r0, [r0]
	bl	p_20_plt__rgctx_fetch_6_llvm
	cmp	r6, #0
	beq	.LBB21_7
	dmb	ish
	str	r0, [r6, #8]!
	lsr	r0, r6, #9
	strb	r5, [r0, r4]
	ldr	r0, [sp, #4]
	cmp	r0, #0
	movne	r1, #1
	strbne	r1, [r0, #36]
	addne	sp, sp, #8
	popne	{r4, r5, r6, pc}
.Ltmp233:
.LBB21_4:
	ldr	r0, .LCPI21_0
.LPC21_0:
	add	r1, pc, r0
	mov	r0, #225
	bl	p_1_plt__jit_icall_llvm_throw_corlib_exception_abs_trampoline_llvm
.LBB21_5:
	movw	r0, #1778
	mov	r1, r4
	bl	mono_aot_System_Runtime_Serialization_init_method_gshared_this
	b	.LBB21_1
.Ltmp234:
.LBB21_6:
	ldr	r0, .LCPI21_2
.LPC21_2:
	add	r1, pc, r0
	mov	r0, #225
	bl	p_1_plt__jit_icall_llvm_throw_corlib_exception_abs_trampoline_llvm
.Ltmp235:
.LBB21_7:
	ldr	r0, .LCPI21_1
.LPC21_1:
	add	r1, pc, r0
	mov	r0, #225
	bl	p_1_plt__jit_icall_llvm_throw_corlib_exception_abs_trampoline_llvm
	.p2align	2
.LCPI21_0:
	.long	.Ltmp233-(.LPC21_0+8)
.LCPI21_1:
	.long	.Ltmp235-(.LPC21_1+8)
.LCPI21_2:
	.long	.Ltmp234-(.LPC21_2+8)
.LCPI21_3:
	.long	mono_inited-(.LPC21_3+8)
.LCPI21_4:
	.long	mono_aot_System_Runtime_Serialization_llvm_got-(.LPC21_4+8)
.Lfunc_end21:
	.size	System_Runtime_Serialization_DataNode_1_T_REF__ctor, .Lfunc_end21-System_Runtime_Serialization_DataNode_1_T_REF__ctor
.Lexception17:
	.fnend

	.hidden	System_Runtime_Serialization_DataNode_1_T_REF__ctor_T_REF
	.globl	System_Runtime_Serialization_DataNode_1_T_REF__ctor_T_REF
	.p2align	2
	.type	System_Runtime_Serialization_DataNode_1_T_REF__ctor_T_REF,%function
	.code	32
System_Runtime_Serialization_DataNode_1_T_REF__ctor_T_REF:
.Lfunc_begin22:
	.fnstart
	.save	{r4, r5, r6, lr}
	push	{r4, r5, r6, lr}
.Ltmp236:
.Ltmp237:
.Ltmp238:
.Ltmp239:
.Ltmp240:
	.pad	#8
	sub	sp, sp, #8
.Ltmp241:
	ldr	r6, .LCPI22_1
	mov	r4, r1
.LPC22_1:
	add	r6, pc, r6
	ldr	r1, [r6, #28]
	str	r0, [sp]
	str	r0, [sp, #4]
	ldr	r5, [sp, #4]
	ldr	r0, [r1]
	cmp	r0, #0
	blne	mono_aot_System_Runtime_Serialization_icall_cold_wrapper_265
	mov	r0, r5
	bl	p_21_plt_System_Runtime_Serialization_DataNode_1_T_REF__ctor_llvm
	ldr	r0, [sp, #4]
	cmp	r0, #0
	beq	.LBB22_2
	ldr	r1, [r6, #8]
	dmb	ish
	str	r4, [r0, #12]!
	mov	r2, #1
	strb	r2, [r1, r0, lsr #9]
	add	sp, sp, #8
	pop	{r4, r5, r6, pc}
.Ltmp242:
.LBB22_2:
	ldr	r0, .LCPI22_0
.LPC22_0:
	add	r1, pc, r0
	mov	r0, #225
	bl	p_1_plt__jit_icall_llvm_throw_corlib_exception_abs_trampoline_llvm
	.p2align	2
.LCPI22_0:
	.long	.Ltmp242-(.LPC22_0+8)
.LCPI22_1:
	.long	mono_aot_System_Runtime_Serialization_llvm_got-(.LPC22_1+8)
.Lfunc_end22:
	.size	System_Runtime_Serialization_DataNode_1_T_REF__ctor_T_REF, .Lfunc_end22-System_Runtime_Serialization_DataNode_1_T_REF__ctor_T_REF
.Lexception18:
	.fnend

	.hidden	System_Runtime_Serialization_DataNode_1_T_REF_get_DataType
	.globl	System_Runtime_Serialization_DataNode_1_T_REF_get_DataType
	.p2align	2
	.type	System_Runtime_Serialization_DataNode_1_T_REF_get_DataType,%function
	.code	32
System_Runtime_Serialization_DataNode_1_T_REF_get_DataType:
.Lfunc_begin23:
	.fnstart
	.save	{r11, lr}
	push	{r11, lr}
.Ltmp243:
.Ltmp244:
.Ltmp245:
	.pad	#8
	sub	sp, sp, #8
.Ltmp246:
	str	r0, [sp]
	str	r0, [sp, #4]
	ldr	r0, [sp, #4]
	cmp	r0, #0
	ldrne	r0, [r0, #8]
	addne	sp, sp, #8
	popne	{r11, pc}
.Ltmp247:
.LBB23_1:
	ldr	r0, .LCPI23_0
.LPC23_0:
	add	r1, pc, r0
	mov	r0, #225
	bl	p_1_plt__jit_icall_llvm_throw_corlib_exception_abs_trampoline_llvm
	.p2align	2
.LCPI23_0:
	.long	.Ltmp247-(.LPC23_0+8)
.Lfunc_end23:
	.size	System_Runtime_Serialization_DataNode_1_T_REF_get_DataType, .Lfunc_end23-System_Runtime_Serialization_DataNode_1_T_REF_get_DataType
.Lexception19:
	.fnend

	.hidden	System_Runtime_Serialization_DataNode_1_T_REF_get_Value
	.globl	System_Runtime_Serialization_DataNode_1_T_REF_get_Value
	.p2align	2
	.type	System_Runtime_Serialization_DataNode_1_T_REF_get_Value,%function
	.code	32
System_Runtime_Serialization_DataNode_1_T_REF_get_Value:
.Lfunc_begin24:
	.fnstart
	.save	{r11, lr}
	push	{r11, lr}
.Ltmp248:
.Ltmp249:
.Ltmp250:
	.pad	#8
	sub	sp, sp, #8
.Ltmp251:
	str	r0, [sp]
	str	r0, [sp, #4]
	ldr	r0, [sp, #4]
	cmp	r0, #0
	ldrne	r0, [r0, #12]
	addne	sp, sp, #8
	popne	{r11, pc}
.Ltmp252:
.LBB24_1:
	ldr	r0, .LCPI24_0
.LPC24_0:
	add	r1, pc, r0
	mov	r0, #225
	bl	p_1_plt__jit_icall_llvm_throw_corlib_exception_abs_trampoline_llvm
	.p2align	2
.LCPI24_0:
	.long	.Ltmp252-(.LPC24_0+8)
.Lfunc_end24:
	.size	System_Runtime_Serialization_DataNode_1_T_REF_get_Value, .Lfunc_end24-System_Runtime_Serialization_DataNode_1_T_REF_get_Value
.Lexception20:
	.fnend

	.hidden	System_Runtime_Serialization_DataNode_1_T_REF_set_Value_object
	.globl	System_Runtime_Serialization_DataNode_1_T_REF_set_Value_object
	.p2align	2
	.type	System_Runtime_Serialization_DataNode_1_T_REF_set_Value_object,%function
	.code	32
System_Runtime_Serialization_DataNode_1_T_REF_set_Value_object:
.Lfunc_begin25:
	.fnstart
	.save	{r4, r5, r6, r7, r11, lr}
	push	{r4, r5, r6, r7, r11, lr}
.Ltmp253:
.Ltmp254:
.Ltmp255:
.Ltmp256:
.Ltmp257:
.Ltmp258:
.Ltmp259:
	.pad	#8
	sub	sp, sp, #8
.Ltmp260:
	ldr	r7, .LCPI25_1
	mov	r4, r1
	str	r0, [sp]
.LPC25_1:
	add	r7, pc, r7
	str	r0, [sp, #4]
	ldr	r6, [sp, #4]
	ldr	r0, [sp, #4]
	ldr	r1, [r7, #28]
	ldr	r5, [r0]
	ldr	r0, [r1]
	cmp	r0, #0
	blne	mono_aot_System_Runtime_Serialization_icall_cold_wrapper_265
	mov	r0, r5
	bl	p_22_plt__rgctx_fetch_7_llvm
	mov	r2, r0
	mov	r0, r4
	ldr	r1, [r2, #4]
	bl	p_23_plt_wrapper_castclass_object___castclass_with_cache_object_intptr_intptr_llvm
	cmp	r6, #0
	beq	.LBB25_2
	ldr	r1, [r7, #8]
	dmb	ish
	str	r0, [r6, #12]!
	mov	r0, #1
	strb	r0, [r1, r6, lsr #9]
	add	sp, sp, #8
	pop	{r4, r5, r6, r7, r11, pc}
.Ltmp261:
.LBB25_2:
	ldr	r0, .LCPI25_0
.LPC25_0:
	add	r1, pc, r0
	mov	r0, #225
	bl	p_1_plt__jit_icall_llvm_throw_corlib_exception_abs_trampoline_llvm
	.p2align	2
.LCPI25_0:
	.long	.Ltmp261-(.LPC25_0+8)
.LCPI25_1:
	.long	mono_aot_System_Runtime_Serialization_llvm_got-(.LPC25_1+8)
.Lfunc_end25:
	.size	System_Runtime_Serialization_DataNode_1_T_REF_set_Value_object, .Lfunc_end25-System_Runtime_Serialization_DataNode_1_T_REF_set_Value_object
.Lexception21:
	.fnend

	.hidden	System_Runtime_Serialization_DataNode_1_T_REF_System_Runtime_Serialization_IDataNode_get_IsFinalValue
	.globl	System_Runtime_Serialization_DataNode_1_T_REF_System_Runtime_Serialization_IDataNode_get_IsFinalValue
	.p2align	2
	.type	System_Runtime_Serialization_DataNode_1_T_REF_System_Runtime_Serialization_IDataNode_get_IsFinalValue,%function
	.code	32
System_Runtime_Serialization_DataNode_1_T_REF_System_Runtime_Serialization_IDataNode_get_IsFinalValue:
.Lfunc_begin26:
	.fnstart
	.save	{r11, lr}
	push	{r11, lr}
.Ltmp262:
.Ltmp263:
.Ltmp264:
	.pad	#8
	sub	sp, sp, #8
.Ltmp265:
	str	r0, [sp]
	str	r0, [sp, #4]
	ldr	r0, [sp, #4]
	cmp	r0, #0
	ldrbne	r0, [r0, #36]
	addne	sp, sp, #8
	popne	{r11, pc}
.Ltmp266:
.LBB26_1:
	ldr	r0, .LCPI26_0
.LPC26_0:
	add	r1, pc, r0
	mov	r0, #225
	bl	p_1_plt__jit_icall_llvm_throw_corlib_exception_abs_trampoline_llvm
	.p2align	2
.LCPI26_0:
	.long	.Ltmp266-(.LPC26_0+8)
.Lfunc_end26:
	.size	System_Runtime_Serialization_DataNode_1_T_REF_System_Runtime_Serialization_IDataNode_get_IsFinalValue, .Lfunc_end26-System_Runtime_Serialization_DataNode_1_T_REF_System_Runtime_Serialization_IDataNode_get_IsFinalValue
.Lexception22:
	.fnend

	.hidden	System_Runtime_Serialization_DataNode_1_T_REF_System_Runtime_Serialization_IDataNode_set_IsFinalValue_bool
	.globl	System_Runtime_Serialization_DataNode_1_T_REF_System_Runtime_Serialization_IDataNode_set_IsFinalValue_bool
	.p2align	2
	.type	System_Runtime_Serialization_DataNode_1_T_REF_System_Runtime_Serialization_IDataNode_set_IsFinalValue_bool,%function
	.code	32
System_Runtime_Serialization_DataNode_1_T_REF_System_Runtime_Serialization_IDataNode_set_IsFinalValue_bool:
.Lfunc_begin27:
	.fnstart
	.save	{r11, lr}
	push	{r11, lr}
.Ltmp267:
.Ltmp268:
.Ltmp269:
	.pad	#8
	sub	sp, sp, #8
.Ltmp270:
	str	r0, [sp]
	str	r0, [sp, #4]
	ldr	r0, [sp, #4]
	cmp	r0, #0
	strbne	r1, [r0, #36]
	addne	sp, sp, #8
	popne	{r11, pc}
.Ltmp271:
.LBB27_1:
	ldr	r0, .LCPI27_0
.LPC27_0:
	add	r1, pc, r0
	mov	r0, #225
	bl	p_1_plt__jit_icall_llvm_throw_corlib_exception_abs_trampoline_llvm
	.p2align	2
.LCPI27_0:
	.long	.Ltmp271-(.LPC27_0+8)
.Lfunc_end27:
	.size	System_Runtime_Serialization_DataNode_1_T_REF_System_Runtime_Serialization_IDataNode_set_IsFinalValue_bool, .Lfunc_end27-System_Runtime_Serialization_DataNode_1_T_REF_System_Runtime_Serialization_IDataNode_set_IsFinalValue_bool
.Lexception23:
	.fnend

	.hidden	System_Runtime_Serialization_DataNode_1_T_REF_GetValue
	.globl	System_Runtime_Serialization_DataNode_1_T_REF_GetValue
	.p2align	2
	.type	System_Runtime_Serialization_DataNode_1_T_REF_GetValue,%function
	.code	32
System_Runtime_Serialization_DataNode_1_T_REF_GetValue:
.Lfunc_begin28:
	.fnstart
	.save	{r11, lr}
	push	{r11, lr}
.Ltmp272:
.Ltmp273:
.Ltmp274:
	.pad	#8
	sub	sp, sp, #8
.Ltmp275:
	str	r0, [sp]
	str	r0, [sp, #4]
	ldr	r0, [sp, #4]
	cmp	r0, #0
	ldrne	r0, [r0, #12]
	addne	sp, sp, #8
	popne	{r11, pc}
.Ltmp276:
.LBB28_1:
	ldr	r0, .LCPI28_0
.LPC28_0:
	add	r1, pc, r0
	mov	r0, #225
	bl	p_1_plt__jit_icall_llvm_throw_corlib_exception_abs_trampoline_llvm
	.p2align	2
.LCPI28_0:
	.long	.Ltmp276-(.LPC28_0+8)
.Lfunc_end28:
	.size	System_Runtime_Serialization_DataNode_1_T_REF_GetValue, .Lfunc_end28-System_Runtime_Serialization_DataNode_1_T_REF_GetValue
.Lexception24:
	.fnend

	.hidden	System_Runtime_Serialization_DataNode_1_T_REF_get_DataContractName
	.globl	System_Runtime_Serialization_DataNode_1_T_REF_get_DataContractName
	.p2align	2
	.type	System_Runtime_Serialization_DataNode_1_T_REF_get_DataContractName,%function
	.code	32
System_Runtime_Serialization_DataNode_1_T_REF_get_DataContractName:
.Lfunc_begin29:
	.fnstart
	.save	{r11, lr}
	push	{r11, lr}
.Ltmp277:
.Ltmp278:
.Ltmp279:
	.pad	#8
	sub	sp, sp, #8
.Ltmp280:
	str	r0, [sp]
	str	r0, [sp, #4]
	ldr	r0, [sp, #4]
	cmp	r0, #0
	ldrne	r0, [r0, #16]
	addne	sp, sp, #8
	popne	{r11, pc}
.Ltmp281:
.LBB29_1:
	ldr	r0, .LCPI29_0
.LPC29_0:
	add	r1, pc, r0
	mov	r0, #225
	bl	p_1_plt__jit_icall_llvm_throw_corlib_exception_abs_trampoline_llvm
	.p2align	2
.LCPI29_0:
	.long	.Ltmp281-(.LPC29_0+8)
.Lfunc_end29:
	.size	System_Runtime_Serialization_DataNode_1_T_REF_get_DataContractName, .Lfunc_end29-System_Runtime_Serialization_DataNode_1_T_REF_get_DataContractName
.Lexception25:
	.fnend

	.hidden	System_Runtime_Serialization_DataNode_1_T_REF_set_DataContractName_string
	.globl	System_Runtime_Serialization_DataNode_1_T_REF_set_DataContractName_string
	.p2align	2
	.type	System_Runtime_Serialization_DataNode_1_T_REF_set_DataContractName_string,%function
	.code	32
System_Runtime_Serialization_DataNode_1_T_REF_set_DataContractName_string:
.Lfunc_begin30:
	.fnstart
	.save	{r11, lr}
	push	{r11, lr}
.Ltmp282:
.Ltmp283:
.Ltmp284:
	.pad	#8
	sub	sp, sp, #8
.Ltmp285:
	str	r0, [sp]
	str	r0, [sp, #4]
	ldr	r0, [sp, #4]
	cmp	r0, #0
	beq	.LBB30_2
	ldr	r2, .LCPI30_1
	dmb	ish
	str	r1, [r0, #16]!
	mov	r1, #1
.LPC30_1:
	add	r2, pc, r2
	ldr	r2, [r2, #8]
	strb	r1, [r2, r0, lsr #9]
	add	sp, sp, #8
	pop	{r11, pc}
.Ltmp286:
.LBB30_2:
	ldr	r0, .LCPI30_0
.LPC30_0:
	add	r1, pc, r0
	mov	r0, #225
	bl	p_1_plt__jit_icall_llvm_throw_corlib_exception_abs_trampoline_llvm
	.p2align	2
.LCPI30_0:
	.long	.Ltmp286-(.LPC30_0+8)
.LCPI30_1:
	.long	mono_aot_System_Runtime_Serialization_llvm_got-(.LPC30_1+8)
.Lfunc_end30:
	.size	System_Runtime_Serialization_DataNode_1_T_REF_set_DataContractName_string, .Lfunc_end30-System_Runtime_Serialization_DataNode_1_T_REF_set_DataContractName_string
.Lexception26:
	.fnend

	.hidden	System_Runtime_Serialization_DataNode_1_T_REF_get_DataContractNamespace
	.globl	System_Runtime_Serialization_DataNode_1_T_REF_get_DataContractNamespace
	.p2align	2
	.type	System_Runtime_Serialization_DataNode_1_T_REF_get_DataContractNamespace,%function
	.code	32
System_Runtime_Serialization_DataNode_1_T_REF_get_DataContractNamespace:
.Lfunc_begin31:
	.fnstart
	.save	{r11, lr}
	push	{r11, lr}
.Ltmp287:
.Ltmp288:
.Ltmp289:
	.pad	#8
	sub	sp, sp, #8
.Ltmp290:
	str	r0, [sp]
	str	r0, [sp, #4]
	ldr	r0, [sp, #4]
	cmp	r0, #0
	ldrne	r0, [r0, #20]
	addne	sp, sp, #8
	popne	{r11, pc}
.Ltmp291:
.LBB31_1:
	ldr	r0, .LCPI31_0
.LPC31_0:
	add	r1, pc, r0
	mov	r0, #225
	bl	p_1_plt__jit_icall_llvm_throw_corlib_exception_abs_trampoline_llvm
	.p2align	2
.LCPI31_0:
	.long	.Ltmp291-(.LPC31_0+8)
.Lfunc_end31:
	.size	System_Runtime_Serialization_DataNode_1_T_REF_get_DataContractNamespace, .Lfunc_end31-System_Runtime_Serialization_DataNode_1_T_REF_get_DataContractNamespace
.Lexception27:
	.fnend

	.hidden	System_Runtime_Serialization_DataNode_1_T_REF_set_DataContractNamespace_string
	.globl	System_Runtime_Serialization_DataNode_1_T_REF_set_DataContractNamespace_string
	.p2align	2
	.type	System_Runtime_Serialization_DataNode_1_T_REF_set_DataContractNamespace_string,%function
	.code	32
System_Runtime_Serialization_DataNode_1_T_REF_set_DataContractNamespace_string:
.Lfunc_begin32:
	.fnstart
	.save	{r11, lr}
	push	{r11, lr}
.Ltmp292:
.Ltmp293:
.Ltmp294:
	.pad	#8
	sub	sp, sp, #8
.Ltmp295:
	str	r0, [sp]
	str	r0, [sp, #4]
	ldr	r0, [sp, #4]
	cmp	r0, #0
	beq	.LBB32_2
	ldr	r2, .LCPI32_1
	dmb	ish
	str	r1, [r0, #20]!
	mov	r1, #1
.LPC32_1:
	add	r2, pc, r2
	ldr	r2, [r2, #8]
	strb	r1, [r2, r0, lsr #9]
	add	sp, sp, #8
	pop	{r11, pc}
.Ltmp296:
.LBB32_2:
	ldr	r0, .LCPI32_0
.LPC32_0:
	add	r1, pc, r0
	mov	r0, #225
	bl	p_1_plt__jit_icall_llvm_throw_corlib_exception_abs_trampoline_llvm
	.p2align	2
.LCPI32_0:
	.long	.Ltmp296-(.LPC32_0+8)
.LCPI32_1:
	.long	mono_aot_System_Runtime_Serialization_llvm_got-(.LPC32_1+8)
.Lfunc_end32:
	.size	System_Runtime_Serialization_DataNode_1_T_REF_set_DataContractNamespace_string, .Lfunc_end32-System_Runtime_Serialization_DataNode_1_T_REF_set_DataContractNamespace_string
.Lexception28:
	.fnend

	.hidden	System_Runtime_Serialization_DataNode_1_T_REF_get_ClrTypeName
	.globl	System_Runtime_Serialization_DataNode_1_T_REF_get_ClrTypeName
	.p2align	2
	.type	System_Runtime_Serialization_DataNode_1_T_REF_get_ClrTypeName,%function
	.code	32
System_Runtime_Serialization_DataNode_1_T_REF_get_ClrTypeName:
.Lfunc_begin33:
	.fnstart
	.save	{r11, lr}
	push	{r11, lr}
.Ltmp297:
.Ltmp298:
.Ltmp299:
	.pad	#8
	sub	sp, sp, #8
.Ltmp300:
	str	r0, [sp]
	str	r0, [sp, #4]
	ldr	r0, [sp, #4]
	cmp	r0, #0
	ldrne	r0, [r0, #24]
	addne	sp, sp, #8
	popne	{r11, pc}
.Ltmp301:
.LBB33_1:
	ldr	r0, .LCPI33_0
.LPC33_0:
	add	r1, pc, r0
	mov	r0, #225
	bl	p_1_plt__jit_icall_llvm_throw_corlib_exception_abs_trampoline_llvm
	.p2align	2
.LCPI33_0:
	.long	.Ltmp301-(.LPC33_0+8)
.Lfunc_end33:
	.size	System_Runtime_Serialization_DataNode_1_T_REF_get_ClrTypeName, .Lfunc_end33-System_Runtime_Serialization_DataNode_1_T_REF_get_ClrTypeName
.Lexception29:
	.fnend

	.hidden	System_Runtime_Serialization_DataNode_1_T_REF_set_ClrTypeName_string
	.globl	System_Runtime_Serialization_DataNode_1_T_REF_set_ClrTypeName_string
	.p2align	2
	.type	System_Runtime_Serialization_DataNode_1_T_REF_set_ClrTypeName_string,%function
	.code	32
System_Runtime_Serialization_DataNode_1_T_REF_set_ClrTypeName_string:
.Lfunc_begin34:
	.fnstart
	.save	{r11, lr}
	push	{r11, lr}
.Ltmp302:
.Ltmp303:
.Ltmp304:
	.pad	#8
	sub	sp, sp, #8
.Ltmp305:
	str	r0, [sp]
	str	r0, [sp, #4]
	ldr	r0, [sp, #4]
	cmp	r0, #0
	beq	.LBB34_2
	ldr	r2, .LCPI34_1
	dmb	ish
	str	r1, [r0, #24]!
	mov	r1, #1
.LPC34_1:
	add	r2, pc, r2
	ldr	r2, [r2, #8]
	strb	r1, [r2, r0, lsr #9]
	add	sp, sp, #8
	pop	{r11, pc}
.Ltmp306:
.LBB34_2:
	ldr	r0, .LCPI34_0
.LPC34_0:
	add	r1, pc, r0
	mov	r0, #225
	bl	p_1_plt__jit_icall_llvm_throw_corlib_exception_abs_trampoline_llvm
	.p2align	2
.LCPI34_0:
	.long	.Ltmp306-(.LPC34_0+8)
.LCPI34_1:
	.long	mono_aot_System_Runtime_Serialization_llvm_got-(.LPC34_1+8)
.Lfunc_end34:
	.size	System_Runtime_Serialization_DataNode_1_T_REF_set_ClrTypeName_string, .Lfunc_end34-System_Runtime_Serialization_DataNode_1_T_REF_set_ClrTypeName_string
.Lexception30:
	.fnend

	.hidden	System_Runtime_Serialization_DataNode_1_T_REF_get_ClrAssemblyName
	.globl	System_Runtime_Serialization_DataNode_1_T_REF_get_ClrAssemblyName
	.p2align	2
	.type	System_Runtime_Serialization_DataNode_1_T_REF_get_ClrAssemblyName,%function
	.code	32
System_Runtime_Serialization_DataNode_1_T_REF_get_ClrAssemblyName:
.Lfunc_begin35:
	.fnstart
	.save	{r11, lr}
	push	{r11, lr}
.Ltmp307:
.Ltmp308:
.Ltmp309:
	.pad	#8
	sub	sp, sp, #8
.Ltmp310:
	str	r0, [sp]
	str	r0, [sp, #4]
	ldr	r0, [sp, #4]
	cmp	r0, #0
	ldrne	r0, [r0, #28]
	addne	sp, sp, #8
	popne	{r11, pc}
.Ltmp311:
.LBB35_1:
	ldr	r0, .LCPI35_0
.LPC35_0:
	add	r1, pc, r0
	mov	r0, #225
	bl	p_1_plt__jit_icall_llvm_throw_corlib_exception_abs_trampoline_llvm
	.p2align	2
.LCPI35_0:
	.long	.Ltmp311-(.LPC35_0+8)
.Lfunc_end35:
	.size	System_Runtime_Serialization_DataNode_1_T_REF_get_ClrAssemblyName, .Lfunc_end35-System_Runtime_Serialization_DataNode_1_T_REF_get_ClrAssemblyName
.Lexception31:
	.fnend

	.hidden	System_Runtime_Serialization_DataNode_1_T_REF_set_ClrAssemblyName_string
	.globl	System_Runtime_Serialization_DataNode_1_T_REF_set_ClrAssemblyName_string
	.p2align	2
	.type	System_Runtime_Serialization_DataNode_1_T_REF_set_ClrAssemblyName_string,%function
	.code	32
System_Runtime_Serialization_DataNode_1_T_REF_set_ClrAssemblyName_string:
.Lfunc_begin36:
	.fnstart
	.save	{r11, lr}
	push	{r11, lr}
.Ltmp312:
.Ltmp313:
.Ltmp314:
	.pad	#8
	sub	sp, sp, #8
.Ltmp315:
	str	r0, [sp]
	str	r0, [sp, #4]
	ldr	r0, [sp, #4]
	cmp	r0, #0
	beq	.LBB36_2
	ldr	r2, .LCPI36_1
	dmb	ish
	str	r1, [r0, #28]!
	mov	r1, #1
.LPC36_1:
	add	r2, pc, r2
	ldr	r2, [r2, #8]
	strb	r1, [r2, r0, lsr #9]
	add	sp, sp, #8
	pop	{r11, pc}
.Ltmp316:
.LBB36_2:
	ldr	r0, .LCPI36_0
.LPC36_0:
	add	r1, pc, r0
	mov	r0, #225
	bl	p_1_plt__jit_icall_llvm_throw_corlib_exception_abs_trampoline_llvm
	.p2align	2
.LCPI36_0:
	.long	.Ltmp316-(.LPC36_0+8)
.LCPI36_1:
	.long	mono_aot_System_Runtime_Serialization_llvm_got-(.LPC36_1+8)
.Lfunc_end36:
	.size	System_Runtime_Serialization_DataNode_1_T_REF_set_ClrAssemblyName_string, .Lfunc_end36-System_Runtime_Serialization_DataNode_1_T_REF_set_ClrAssemblyName_string
.Lexception32:
	.fnend

	.hidden	System_Runtime_Serialization_DataNode_1_T_REF_get_PreservesReferences
	.globl	System_Runtime_Serialization_DataNode_1_T_REF_get_PreservesReferences
	.p2align	2
	.type	System_Runtime_Serialization_DataNode_1_T_REF_get_PreservesReferences,%function
	.code	32
System_Runtime_Serialization_DataNode_1_T_REF_get_PreservesReferences:
.Lfunc_begin37:
	.fnstart
	.save	{r4, r5, r6, lr}
	push	{r4, r5, r6, lr}
.Ltmp317:
.Ltmp318:
.Ltmp319:
.Ltmp320:
.Ltmp321:
	.pad	#8
	sub	sp, sp, #8
.Ltmp322:
	mov	r4, r0
	ldr	r0, .LCPI37_1
	ldr	r5, .LCPI37_2
.LPC37_1:
	add	r0, pc, r0
.LPC37_2:
	add	r5, pc, r5
	ldrb	r6, [r0, #1794]
	ldr	r0, [r5, #28]
	str	r4, [sp]
	str	r4, [sp, #4]
	ldr	r0, [r0]
	cmp	r0, #0
	blne	mono_aot_System_Runtime_Serialization_icall_cold_wrapper_265
	cmp	r6, #0
	beq	.LBB37_3
.LBB37_1:
	ldr	r0, [sp, #4]
	cmp	r0, #0
	beq	.LBB37_4
	ldr	r1, [r5, #108]
	ldr	r0, [r0, #32]
	ldr	r1, [r1]
	bl	p_24_plt_string_op_Inequality_string_string_llvm
	add	sp, sp, #8
	pop	{r4, r5, r6, pc}
.LBB37_3:
	movw	r0, #1794
	mov	r1, r4
	bl	mono_aot_System_Runtime_Serialization_init_method_gshared_this
	b	.LBB37_1
.Ltmp323:
.LBB37_4:
	ldr	r0, .LCPI37_0
.LPC37_0:
	add	r1, pc, r0
	mov	r0, #225
	bl	p_1_plt__jit_icall_llvm_throw_corlib_exception_abs_trampoline_llvm
	.p2align	2
.LCPI37_0:
	.long	.Ltmp323-(.LPC37_0+8)
.LCPI37_1:
	.long	mono_inited-(.LPC37_1+8)
.LCPI37_2:
	.long	mono_aot_System_Runtime_Serialization_llvm_got-(.LPC37_2+8)
.Lfunc_end37:
	.size	System_Runtime_Serialization_DataNode_1_T_REF_get_PreservesReferences, .Lfunc_end37-System_Runtime_Serialization_DataNode_1_T_REF_get_PreservesReferences
.Lexception33:
	.fnend

	.hidden	System_Runtime_Serialization_DataNode_1_T_REF_get_Id
	.globl	System_Runtime_Serialization_DataNode_1_T_REF_get_Id
	.p2align	2
	.type	System_Runtime_Serialization_DataNode_1_T_REF_get_Id,%function
	.code	32
System_Runtime_Serialization_DataNode_1_T_REF_get_Id:
.Lfunc_begin38:
	.fnstart
	.save	{r11, lr}
	push	{r11, lr}
.Ltmp324:
.Ltmp325:
.Ltmp326:
	.pad	#8
	sub	sp, sp, #8
.Ltmp327:
	str	r0, [sp]
	str	r0, [sp, #4]
	ldr	r0, [sp, #4]
	cmp	r0, #0
	ldrne	r0, [r0, #32]
	addne	sp, sp, #8
	popne	{r11, pc}
.Ltmp328:
.LBB38_1:
	ldr	r0, .LCPI38_0
.LPC38_0:
	add	r1, pc, r0
	mov	r0, #225
	bl	p_1_plt__jit_icall_llvm_throw_corlib_exception_abs_trampoline_llvm
	.p2align	2
.LCPI38_0:
	.long	.Ltmp328-(.LPC38_0+8)
.Lfunc_end38:
	.size	System_Runtime_Serialization_DataNode_1_T_REF_get_Id, .Lfunc_end38-System_Runtime_Serialization_DataNode_1_T_REF_get_Id
.Lexception34:
	.fnend

	.hidden	System_Runtime_Serialization_DataNode_1_T_REF_set_Id_string
	.globl	System_Runtime_Serialization_DataNode_1_T_REF_set_Id_string
	.p2align	2
	.type	System_Runtime_Serialization_DataNode_1_T_REF_set_Id_string,%function
	.code	32
System_Runtime_Serialization_DataNode_1_T_REF_set_Id_string:
.Lfunc_begin39:
	.fnstart
	.save	{r11, lr}
	push	{r11, lr}
.Ltmp329:
.Ltmp330:
.Ltmp331:
	.pad	#8
	sub	sp, sp, #8
.Ltmp332:
	str	r0, [sp]
	str	r0, [sp, #4]
	ldr	r0, [sp, #4]
	cmp	r0, #0
	beq	.LBB39_2
	ldr	r2, .LCPI39_1
	dmb	ish
	str	r1, [r0, #32]!
	mov	r1, #1
.LPC39_1:
	add	r2, pc, r2
	ldr	r2, [r2, #8]
	strb	r1, [r2, r0, lsr #9]
	add	sp, sp, #8
	pop	{r11, pc}
.Ltmp333:
.LBB39_2:
	ldr	r0, .LCPI39_0
.LPC39_0:
	add	r1, pc, r0
	mov	r0, #225
	bl	p_1_plt__jit_icall_llvm_throw_corlib_exception_abs_trampoline_llvm
	.p2align	2
.LCPI39_0:
	.long	.Ltmp333-(.LPC39_0+8)
.LCPI39_1:
	.long	mono_aot_System_Runtime_Serialization_llvm_got-(.LPC39_1+8)
.Lfunc_end39:
	.size	System_Runtime_Serialization_DataNode_1_T_REF_set_Id_string, .Lfunc_end39-System_Runtime_Serialization_DataNode_1_T_REF_set_Id_string
.Lexception35:
	.fnend

	.hidden	System_Runtime_Serialization_DataNode_1_T_REF_GetData_System_Runtime_Serialization_ElementData
	.globl	System_Runtime_Serialization_DataNode_1_T_REF_GetData_System_Runtime_Serialization_ElementData
	.p2align	2
	.type	System_Runtime_Serialization_DataNode_1_T_REF_GetData_System_Runtime_Serialization_ElementData,%function
	.code	32
System_Runtime_Serialization_DataNode_1_T_REF_GetData_System_Runtime_Serialization_ElementData:
.Lfunc_begin40:
	.fnstart
	.save	{r4, r5, r6, r7, r11, lr}
	push	{r4, r5, r6, r7, r11, lr}
.Ltmp334:
.Ltmp335:
.Ltmp336:
.Ltmp337:
.Ltmp338:
.Ltmp339:
.Ltmp340:
	.pad	#24
	sub	sp, sp, #24
.Ltmp341:
	mov	r5, r0
	ldr	r0, .LCPI40_8
	ldr	r6, .LCPI40_9
	mov	r4, r1
.LPC40_8:
	add	r0, pc, r0
.LPC40_9:
	add	r6, pc, r6
	ldrb	r7, [r0, #1797]
	ldr	r0, [r6, #28]
	str	r5, [sp, #16]
	str	r5, [sp, #20]
	ldr	r0, [r0]
	cmp	r0, #0
	blne	mono_aot_System_Runtime_Serialization_icall_cold_wrapper_265
	cmp	r7, #0
	beq	.LBB40_16
.LBB40_1:
	ldr	r0, [sp, #20]
	cmp	r4, #0
	beq	.LBB40_17
	ldr	r1, [r6, #8]
	mov	r2, r4
	dmb	ish
	str	r0, [r2, #24]!
	mov	r0, #1
	strb	r0, [r1, r2, lsr #9]
	mov	r0, #0
	str	r0, [r2, #4]
	str	r0, [r2, #8]
	ldr	r0, [sp, #20]
	cmp	r0, #0
	beq	.LBB40_18
	ldr	r0, [r0, #16]
	cmp	r0, #0
	beq	.LBB40_7
	ldr	r0, [sp, #20]
	ldr	r1, [sp, #20]
	cmp	r1, #0
	beq	.LBB40_21
	ldr	r1, [r1, #16]
	ldr	r7, [sp, #20]
	cmp	r7, #0
	beq	.LBB40_22
	add	r5, r6, #128
	ldm	r5, {r2, r3, r5}
	ldr	r7, [r7, #20]
	str	r5, [sp]
	stmib	sp, {r1, r7}
	mov	r1, r4
	bl	p_26_plt_System_Runtime_Serialization_DataNode_1_T_REF_AddQualifiedNameAttribute_System_Runtime_Serialization_ElementData_string_string_string_string_string_llvm
.LBB40_7:
	ldr	r0, [sp, #20]
	cmp	r0, #0
	beq	.LBB40_19
	ldr	r0, [r0, #24]
	cmp	r0, #0
	beq	.LBB40_11
	ldr	r0, [sp, #20]
	cmp	r0, #0
	beq	.LBB40_23
	ldr	r2, [r6, #112]
	ldr	r5, [r6, #116]
	ldr	r3, [r6, #124]
	ldr	r0, [r0, #24]
	mov	r1, r2
	str	r0, [sp]
	mov	r0, r4
	mov	r2, r5
	bl	p_25_plt_System_Runtime_Serialization_ElementData_AddAttribute_string_string_string_string_llvm
.LBB40_11:
	ldr	r0, [sp, #20]
	cmp	r0, #0
	beq	.LBB40_20
	ldr	r0, [r0, #28]
	cmp	r0, #0
	beq	.LBB40_15
	ldr	r0, [sp, #20]
	cmp	r0, #0
	beq	.LBB40_24
	add	r3, r6, #112
	ldm	r3, {r1, r2, r3}
	ldr	r0, [r0, #28]
	str	r0, [sp]
	mov	r0, r4
	bl	p_25_plt_System_Runtime_Serialization_ElementData_AddAttribute_string_string_string_string_llvm
.LBB40_15:
	add	sp, sp, #24
	pop	{r4, r5, r6, r7, r11, pc}
.LBB40_16:
	movw	r0, #1797
	mov	r1, r5
	bl	mono_aot_System_Runtime_Serialization_init_method_gshared_this
	b	.LBB40_1
.Ltmp342:
.LBB40_17:
	ldr	r0, .LCPI40_7
.LPC40_7:
	add	r1, pc, r0
	mov	r0, #225
	bl	p_1_plt__jit_icall_llvm_throw_corlib_exception_abs_trampoline_llvm
.Ltmp343:
.LBB40_18:
	ldr	r0, .LCPI40_6
.LPC40_6:
	add	r1, pc, r0
	mov	r0, #225
	bl	p_1_plt__jit_icall_llvm_throw_corlib_exception_abs_trampoline_llvm
.Ltmp344:
.LBB40_19:
	ldr	r0, .LCPI40_5
.LPC40_5:
	add	r1, pc, r0
	mov	r0, #225
	bl	p_1_plt__jit_icall_llvm_throw_corlib_exception_abs_trampoline_llvm
.Ltmp345:
.LBB40_20:
	ldr	r0, .LCPI40_4
.LPC40_4:
	add	r1, pc, r0
	mov	r0, #225
	bl	p_1_plt__jit_icall_llvm_throw_corlib_exception_abs_trampoline_llvm
.Ltmp346:
.LBB40_21:
	ldr	r0, .LCPI40_1
.LPC40_1:
	add	r1, pc, r0
	mov	r0, #225
	bl	p_1_plt__jit_icall_llvm_throw_corlib_exception_abs_trampoline_llvm
.Ltmp347:
.LBB40_22:
	ldr	r0, .LCPI40_0
.LPC40_0:
	add	r1, pc, r0
	mov	r0, #225
	bl	p_1_plt__jit_icall_llvm_throw_corlib_exception_abs_trampoline_llvm
.Ltmp348:
.LBB40_23:
	ldr	r0, .LCPI40_2
.LPC40_2:
	add	r1, pc, r0
	mov	r0, #225
	bl	p_1_plt__jit_icall_llvm_throw_corlib_exception_abs_trampoline_llvm
.Ltmp349:
.LBB40_24:
	ldr	r0, .LCPI40_3
.LPC40_3:
	add	r1, pc, r0
	mov	r0, #225
	bl	p_1_plt__jit_icall_llvm_throw_corlib_exception_abs_trampoline_llvm
	.p2align	2
.LCPI40_0:
	.long	.Ltmp347-(.LPC40_0+8)
.LCPI40_1:
	.long	.Ltmp346-(.LPC40_1+8)
.LCPI40_2:
	.long	.Ltmp348-(.LPC40_2+8)
.LCPI40_3:
	.long	.Ltmp349-(.LPC40_3+8)
.LCPI40_4:
	.long	.Ltmp345-(.LPC40_4+8)
.LCPI40_5:
	.long	.Ltmp344-(.LPC40_5+8)
.LCPI40_6:
	.long	.Ltmp343-(.LPC40_6+8)
.LCPI40_7:
	.long	.Ltmp342-(.LPC40_7+8)
.LCPI40_8:
	.long	mono_inited-(.LPC40_8+8)
.LCPI40_9:
	.long	mono_aot_System_Runtime_Serialization_llvm_got-(.LPC40_9+8)
.Lfunc_end40:
	.size	System_Runtime_Serialization_DataNode_1_T_REF_GetData_System_Runtime_Serialization_ElementData, .Lfunc_end40-System_Runtime_Serialization_DataNode_1_T_REF_GetData_System_Runtime_Serialization_ElementData
.Lexception36:
	.fnend

	.hidden	System_Runtime_Serialization_DataNode_1_T_REF_Clear
	.globl	System_Runtime_Serialization_DataNode_1_T_REF_Clear
	.p2align	2
	.type	System_Runtime_Serialization_DataNode_1_T_REF_Clear,%function
	.code	32
System_Runtime_Serialization_DataNode_1_T_REF_Clear:
.Lfunc_begin41:
	.fnstart
	.save	{r11, lr}
	push	{r11, lr}
.Ltmp350:
.Ltmp351:
.Ltmp352:
	.pad	#8
	sub	sp, sp, #8
.Ltmp353:
	str	r0, [sp]
	str	r0, [sp, #4]
	ldr	r0, [sp, #4]
	ldr	r3, [sp, #4]
	cmp	r3, #0
	beq	.LBB41_3
	ldr	r1, .LCPI41_2
	mov	r12, #0
	dmb	ish
	str	r12, [r3, #28]!
.LPC41_2:
	add	r1, pc, r1
	mov	r2, #1
	cmp	r0, #0
	ldr	r1, [r1, #8]
	strb	r2, [r1, r3, lsr #9]
	beq	.LBB41_4
	dmb	ish
	str	r12, [r0, #24]!
	strb	r2, [r1, r0, lsr #9]
	add	sp, sp, #8
	pop	{r11, pc}
.Ltmp354:
.LBB41_3:
	ldr	r0, .LCPI41_1
.LPC41_1:
	add	r1, pc, r0
	mov	r0, #225
	bl	p_1_plt__jit_icall_llvm_throw_corlib_exception_abs_trampoline_llvm
.Ltmp355:
.LBB41_4:
	ldr	r0, .LCPI41_0
.LPC41_0:
	add	r1, pc, r0
	mov	r0, #225
	bl	p_1_plt__jit_icall_llvm_throw_corlib_exception_abs_trampoline_llvm
	.p2align	2
.LCPI41_0:
	.long	.Ltmp355-(.LPC41_0+8)
.LCPI41_1:
	.long	.Ltmp354-(.LPC41_1+8)
.LCPI41_2:
	.long	mono_aot_System_Runtime_Serialization_llvm_got-(.LPC41_2+8)
.Lfunc_end41:
	.size	System_Runtime_Serialization_DataNode_1_T_REF_Clear, .Lfunc_end41-System_Runtime_Serialization_DataNode_1_T_REF_Clear
.Lexception37:
	.fnend

	.hidden	System_Runtime_Serialization_DataNode_1_T_REF_AddQualifiedNameAttribute_System_Runtime_Serialization_ElementData_string_string_string_string_string
	.globl	System_Runtime_Serialization_DataNode_1_T_REF_AddQualifiedNameAttribute_System_Runtime_Serialization_ElementData_string_string_string_string_string
	.p2align	2
	.type	System_Runtime_Serialization_DataNode_1_T_REF_AddQualifiedNameAttribute_System_Runtime_Serialization_ElementData_string_string_string_string_string,%function
	.code	32
System_Runtime_Serialization_DataNode_1_T_REF_AddQualifiedNameAttribute_System_Runtime_Serialization_ElementData_string_string_string_string_string:
.Lfunc_begin42:
	.fnstart
	.save	{r4, r5, r6, r7, r9, r10, r11, lr}
	push	{r4, r5, r6, r7, r9, r10, r11, lr}
.Ltmp356:
.Ltmp357:
.Ltmp358:
.Ltmp359:
.Ltmp360:
.Ltmp361:
.Ltmp362:
.Ltmp363:
.Ltmp364:
	.pad	#16
	sub	sp, sp, #16
.Ltmp365:
	str	r3, [sp, #8]
	mov	r6, r0
	ldr	r10, .LCPI42_3
	mov	r4, r1
	ldr	r0, .LCPI42_4
	mov	r11, r2
.LPC42_3:
	add	r10, pc, r10
.LPC42_4:
	add	r0, pc, r0
	ldr	r1, [r10, #28]
	ldrb	r5, [r0, #1799]
	str	r6, [sp, #12]
	ldr	r0, [r1]
	cmp	r0, #0
	blne	mono_aot_System_Runtime_Serialization_icall_cold_wrapper_265
	ldr	r7, [sp, #56]
	cmp	r5, #0
	beq	.LBB42_14
.LBB42_1:
	mov	r0, r7
	ldr	r5, [sp, #52]
	bl	p_27_plt_System_Runtime_Serialization_ExtensionDataReader_GetPrefix_string_llvm
	mov	r9, r0
	ldr	r0, [r10, #140]
	ldrb	r1, [r0, #25]
	cmp	r1, #0
	beq	.LBB42_15
.LBB42_2:
	ldr	r0, [r10, #144]
	mov	r2, r9
	ldr	r1, [r10, #148]
	mov	r3, r5
	ldr	r0, [r0]
	dmb	ish
	bl	p_28_plt_string_Format_System_IFormatProvider_string_object_object_llvm
	cmp	r4, #0
	beq	.LBB42_17
	ldr	r2, [sp, #48]
	mov	r1, r11
	ldr	r3, [sp, #8]
	str	r0, [sp]
	mov	r0, r4
	bl	p_25_plt_System_Runtime_Serialization_ElementData_AddAttribute_string_string_string_string_llvm
	ldr	r7, [r4, #20]
	ldr	r11, [r10, #152]
	cmp	r7, #0
	beq	.LBB42_12
	mov	r6, #0
	mov	r5, #16
.LBB42_5:
	ldr	r0, [r7, #12]
	cmp	r6, r0
	bge	.LBB42_12
	cmp	r0, r6
	bls	.LBB42_16
	ldr	r7, [r7, r5]
	cmp	r7, #0
	beq	.LBB42_10
	ldr	r0, [r7, #8]
	mov	r1, r11
	bl	p_29_plt_string_op_Equality_string_string_llvm
	tst	r0, #255
	beq	.LBB42_10
	ldr	r0, [r7, #16]
	mov	r1, r9
	bl	p_29_plt_string_op_Equality_string_string_llvm
	tst	r0, #255
	bne	.LBB42_13
.LBB42_10:
	ldr	r0, [r10, #28]
	ldr	r7, [r4, #20]
	ldr	r0, [r0]
	cmp	r0, #0
	blne	mono_aot_System_Runtime_Serialization_icall_cold_wrapper_265
	add	r6, r6, #1
	add	r5, r5, #4
	cmp	r7, #0
	bne	.LBB42_5
.Ltmp366:
	ldr	r0, .LCPI42_1
.LPC42_1:
	add	r1, pc, r0
	mov	r0, #225
	bl	p_1_plt__jit_icall_llvm_throw_corlib_exception_abs_trampoline_llvm
.LBB42_12:
	ldr	r2, [r10, #156]
	mov	r1, r11
	ldr	r0, [sp, #56]
	mov	r3, r9
	str	r0, [sp]
	mov	r0, r4
	bl	p_25_plt_System_Runtime_Serialization_ElementData_AddAttribute_string_string_string_string_llvm
.LBB42_13:
	add	sp, sp, #16
	pop	{r4, r5, r6, r7, r9, r10, r11, pc}
.LBB42_14:
	movw	r0, #1799
	mov	r1, r6
	bl	mono_aot_System_Runtime_Serialization_init_method_gshared_this
	b	.LBB42_1
.LBB42_15:
	bl	p_30_plt__jit_icall_mono_generic_class_init_llvm
	b	.LBB42_2
.Ltmp367:
.LBB42_16:
	ldr	r0, .LCPI42_0
.LPC42_0:
	add	r1, pc, r0
	mov	r0, #198
	bl	p_1_plt__jit_icall_llvm_throw_corlib_exception_abs_trampoline_llvm
.Ltmp368:
.LBB42_17:
	ldr	r0, .LCPI42_2
.LPC42_2:
	add	r1, pc, r0
	mov	r0, #225
	bl	p_1_plt__jit_icall_llvm_throw_corlib_exception_abs_trampoline_llvm
	.p2align	2
.LCPI42_0:
	.long	.Ltmp367-(.LPC42_0+8)
.LCPI42_1:
	.long	.Ltmp366-(.LPC42_1+8)
.LCPI42_2:
	.long	.Ltmp368-(.LPC42_2+8)
.LCPI42_3:
	.long	mono_aot_System_Runtime_Serialization_llvm_got-(.LPC42_3+8)
.LCPI42_4:
	.long	mono_inited-(.LPC42_4+8)
.Lfunc_end42:
	.size	System_Runtime_Serialization_DataNode_1_T_REF_AddQualifiedNameAttribute_System_Runtime_Serialization_ElementData_string_string_string_string_string, .Lfunc_end42-System_Runtime_Serialization_DataNode_1_T_REF_AddQualifiedNameAttribute_System_Runtime_Serialization_ElementData_string_string_string_string_string
.Lexception38:
	.fnend

	.hidden	System_Runtime_Serialization_XmlObjectSerializerReadContext_EnsureArraySize_T_REF_T_REF___int
	.globl	System_Runtime_Serialization_XmlObjectSerializerReadContext_EnsureArraySize_T_REF_T_REF___int
	.p2align	2
	.type	System_Runtime_Serialization_XmlObjectSerializerReadContext_EnsureArraySize_T_REF_T_REF___int,%function
	.code	32
System_Runtime_Serialization_XmlObjectSerializerReadContext_EnsureArraySize_T_REF_T_REF___int:
.Lfunc_begin43:
	.fnstart
	.save	{r4, r5, r6, r7, r11, lr}
	push	{r4, r5, r6, r7, r11, lr}
.Ltmp369:
.Ltmp370:
.Ltmp371:
.Ltmp372:
.Ltmp373:
.Ltmp374:
.Ltmp375:
	.pad	#8
	sub	sp, sp, #8
.Ltmp376:
	ldr	r6, .LCPI43_1
	mov	r4, r0
	ldr	r0, .LCPI43_2
	mov	r5, r1
.LPC43_1:
	add	r6, pc, r6
.LPC43_2:
	add	r0, pc, r0
	ldr	r1, [r6, #28]
	ldrb	r7, [r0, #2414]
	str	r8, [sp, #4]
	ldr	r0, [r1]
	cmp	r0, #0
	blne	mono_aot_System_Runtime_Serialization_icall_cold_wrapper_265
	cmp	r7, #0
	beq	.LBB43_7
	cmp	r4, #0
	beq	.LBB43_8
.LBB43_2:
	ldr	r0, [r4, #12]
	cmp	r0, r5
	ble	.LBB43_4
	mov	r5, r4
	b	.LBB43_6
.LBB43_4:
	cmn	r5, #-2147483647
	beq	.LBB43_9
	ldr	r0, [sp, #4]
	mvn	r6, #-2147483648
	cmn	r5, #-1073741823
	lsllt	r6, r5, #1
	bl	p_31_plt__rgctx_fetch_8_llvm
	mov	r1, r6
	bl	p_3_plt_wrapper_alloc_object_AllocVector_intptr_intptr_llvm
	mov	r5, r0
	ldr	r0, [r4, #12]
	str	r0, [sp]
	mov	r0, r4
	mov	r1, #0
	mov	r2, r5
	mov	r3, #0
	bl	p_4_plt_System_Array_Copy_System_Array_int_System_Array_int_int_llvm
.LBB43_6:
	mov	r0, r5
	add	sp, sp, #8
	pop	{r4, r5, r6, r7, r11, pc}
.LBB43_7:
	mov	r0, r8
	bl	mono_aot_System_Runtime_Serialization_init_method_gshared_mrgctx
	cmp	r4, #0
	bne	.LBB43_2
.Ltmp377:
.LBB43_8:
	ldr	r0, .LCPI43_0
.LPC43_0:
	add	r1, pc, r0
	mov	r0, #225
	bl	p_1_plt__jit_icall_llvm_throw_corlib_exception_abs_trampoline_llvm
.LBB43_9:
	ldr	r0, .LCPI43_3
	movw	r1, #42951
.LPC43_3:
	ldr	r0, [pc, r0]
	bl	p_32_plt__jit_icall_mono_helper_ldstr_llvm
	mov	r4, r0
	ldr	r0, [r6, #160]
	mov	r1, #2
	bl	p_3_plt_wrapper_alloc_object_AllocVector_intptr_intptr_llvm
	mov	r5, r0
	mov	r0, #201
	bl	p_33_plt__jit_icall_mono_helper_newobj_mscorlib_llvm
	mov	r2, r0
	mvn	r0, #-2147483648
	str	r0, [r2, #8]
	mov	r1, #0
	ldr	r0, [r5]
	ldr	r3, [r0, #136]
	mov	r0, r5
	blx	r3
	ldr	r0, [sp, #4]
	bl	p_34_plt__rgctx_fetch_9_llvm
	bl	p_35_plt_System_Runtime_Serialization_DataContract_GetClrTypeFullName_System_Type_llvm
	mov	r2, r0
	ldr	r0, [r5]
	mov	r1, #1
	ldr	r3, [r0, #136]
	mov	r0, r5
	blx	r3
	mov	r0, r4
	mov	r1, r5
	bl	p_36_plt_System_Runtime_Serialization_SR_GetString_string_object___llvm
	bl	p_37_plt_System_Runtime_Serialization_XmlObjectSerializer_CreateSerializationException_string_llvm
	bl	p_38_plt__jit_icall_mono_arch_throw_exception_llvm
	.p2align	2
.LCPI43_0:
	.long	.Ltmp377-(.LPC43_0+8)
.LCPI43_1:
	.long	mono_aot_System_Runtime_Serialization_llvm_got-(.LPC43_1+8)
.LCPI43_2:
	.long	mono_inited-(.LPC43_2+8)
.LCPI43_3:
	.long	mono_aot_System_Runtime_Serialization_llvm_got-(.LPC43_3+8)
.Lfunc_end43:
	.size	System_Runtime_Serialization_XmlObjectSerializerReadContext_EnsureArraySize_T_REF_T_REF___int, .Lfunc_end43-System_Runtime_Serialization_XmlObjectSerializerReadContext_EnsureArraySize_T_REF_T_REF___int
.Lexception39:
	.fnend

	.hidden	System_Runtime_Serialization_XmlObjectSerializerReadContext_TrimArraySize_T_REF_T_REF___int
	.globl	System_Runtime_Serialization_XmlObjectSerializerReadContext_TrimArraySize_T_REF_T_REF___int
	.p2align	2
	.type	System_Runtime_Serialization_XmlObjectSerializerReadContext_TrimArraySize_T_REF_T_REF___int,%function
	.code	32
System_Runtime_Serialization_XmlObjectSerializerReadContext_TrimArraySize_T_REF_T_REF___int:
.Lfunc_begin44:
	.fnstart
	.save	{r4, r5, r6, lr}
	push	{r4, r5, r6, lr}
.Ltmp378:
.Ltmp379:
.Ltmp380:
.Ltmp381:
.Ltmp382:
	.pad	#8
	sub	sp, sp, #8
.Ltmp383:
	mov	r4, r0
	ldr	r0, .LCPI44_1
	mov	r5, r1
.LPC44_1:
	add	r0, pc, r0
	ldr	r0, [r0, #28]
	str	r8, [sp, #4]
	ldr	r0, [r0]
	cmp	r0, #0
	blne	mono_aot_System_Runtime_Serialization_icall_cold_wrapper_265
	cmp	r4, #0
	beq	.LBB44_5
	ldr	r0, [r4, #12]
	cmp	r0, r5
	bne	.LBB44_3
	mov	r6, r4
	b	.LBB44_4
.LBB44_3:
	ldr	r0, [sp, #4]
	bl	p_39_plt__rgctx_fetch_10_llvm
	mov	r1, r5
	bl	p_3_plt_wrapper_alloc_object_AllocVector_intptr_intptr_llvm
	mov	r6, r0
	mov	r0, r4
	mov	r1, #0
	mov	r2, r6
	mov	r3, #0
	str	r5, [sp]
	bl	p_4_plt_System_Array_Copy_System_Array_int_System_Array_int_int_llvm
.LBB44_4:
	mov	r0, r6
	add	sp, sp, #8
	pop	{r4, r5, r6, pc}
.Ltmp384:
.LBB44_5:
	ldr	r0, .LCPI44_0
.LPC44_0:
	add	r1, pc, r0
	mov	r0, #225
	bl	p_1_plt__jit_icall_llvm_throw_corlib_exception_abs_trampoline_llvm
	.p2align	2
.LCPI44_0:
	.long	.Ltmp384-(.LPC44_0+8)
.LCPI44_1:
	.long	mono_aot_System_Runtime_Serialization_llvm_got-(.LPC44_1+8)
.Lfunc_end44:
	.size	System_Runtime_Serialization_XmlObjectSerializerReadContext_TrimArraySize_T_REF_T_REF___int, .Lfunc_end44-System_Runtime_Serialization_XmlObjectSerializerReadContext_TrimArraySize_T_REF_T_REF___int
.Lexception40:
	.fnend

	.hidden	System_Runtime_Serialization_XmlObjectSerializerWriteContext_IncrementCollectionCountGeneric_T_REF_System_Runtime_Serialization_XmlWriterDelegator_System_Collections_Generic_ICollection_1_T_REF
	.globl	System_Runtime_Serialization_XmlObjectSerializerWriteContext_IncrementCollectionCountGeneric_T_REF_System_Runtime_Serialization_XmlWriterDelegator_System_Collections_Generic_ICollection_1_T_REF
	.p2align	2
	.type	System_Runtime_Serialization_XmlObjectSerializerWriteContext_IncrementCollectionCountGeneric_T_REF_System_Runtime_Serialization_XmlWriterDelegator_System_Collections_Generic_ICollection_1_T_REF,%function
	.code	32
System_Runtime_Serialization_XmlObjectSerializerWriteContext_IncrementCollectionCountGeneric_T_REF_System_Runtime_Serialization_XmlWriterDelegator_System_Collections_Generic_ICollection_1_T_REF:
.Lfunc_begin45:
	.fnstart
	.save	{r4, r5, r6, r7, r8, lr}
	push	{r4, r5, r6, r7, r8, lr}
.Ltmp385:
.Ltmp386:
.Ltmp387:
.Ltmp388:
.Ltmp389:
.Ltmp390:
.Ltmp391:
	.pad	#8
	sub	sp, sp, #8
.Ltmp392:
	mov	r5, r0
	ldr	r0, .LCPI45_1
	mov	r6, r2
	mov	r4, r1
.LPC45_1:
	add	r0, pc, r0
	ldr	r0, [r0, #28]
	str	r8, [sp, #4]
	ldr	r7, [sp, #4]
	ldr	r0, [r0]
	cmp	r0, #0
	blne	mono_aot_System_Runtime_Serialization_icall_cold_wrapper_265
	mov	r0, r7
	bl	p_40_plt__rgctx_fetch_11_llvm
	cmp	r6, #0
	beq	.LBB45_2
	ldr	r1, [r6]
	ldr	r1, [r1, #-76]
	str	r0, [sp]
	mov	r0, r6
	ldr	r8, [sp]
	blx	r1
	mov	r2, r0
	mov	r0, r5
	mov	r1, r4
	bl	p_41_plt_System_Runtime_Serialization_XmlObjectSerializerWriteContext_IncrementCollectionCount_System_Runtime_Serialization_XmlWriterDelegator_int_llvm
	add	sp, sp, #8
	pop	{r4, r5, r6, r7, r8, pc}
.Ltmp393:
.LBB45_2:
	ldr	r0, .LCPI45_0
.LPC45_0:
	add	r1, pc, r0
	mov	r0, #225
	bl	p_1_plt__jit_icall_llvm_throw_corlib_exception_abs_trampoline_llvm
	.p2align	2
.LCPI45_0:
	.long	.Ltmp393-(.LPC45_0+8)
.LCPI45_1:
	.long	mono_aot_System_Runtime_Serialization_llvm_got-(.LPC45_1+8)
.Lfunc_end45:
	.size	System_Runtime_Serialization_XmlObjectSerializerWriteContext_IncrementCollectionCountGeneric_T_REF_System_Runtime_Serialization_XmlWriterDelegator_System_Collections_Generic_ICollection_1_T_REF, .Lfunc_end45-System_Runtime_Serialization_XmlObjectSerializerWriteContext_IncrementCollectionCountGeneric_T_REF_System_Runtime_Serialization_XmlWriterDelegator_System_Collections_Generic_ICollection_1_T_REF
.Lexception41:
	.fnend

	.hidden	System_Runtime_Serialization_XmlObjectSerializerWriteContext_GetDefaultValue_T_REF
	.globl	System_Runtime_Serialization_XmlObjectSerializerWriteContext_GetDefaultValue_T_REF
	.p2align	2
	.type	System_Runtime_Serialization_XmlObjectSerializerWriteContext_GetDefaultValue_T_REF,%function
	.code	32
System_Runtime_Serialization_XmlObjectSerializerWriteContext_GetDefaultValue_T_REF:
.Lfunc_begin46:
	.fnstart
	.pad	#4
	sub	sp, sp, #4
.Ltmp394:
	str	r8, [sp]
	mov	r0, #0
	add	sp, sp, #4
	bx	lr
.Lfunc_end46:
	.size	System_Runtime_Serialization_XmlObjectSerializerWriteContext_GetDefaultValue_T_REF, .Lfunc_end46-System_Runtime_Serialization_XmlObjectSerializerWriteContext_GetDefaultValue_T_REF
.Lexception42:
	.fnend

	.hidden	System_Runtime_Serialization_XmlObjectSerializerWriteContext_GetNullableValue_T_REF_System_Nullable_1_T_REF
	.globl	System_Runtime_Serialization_XmlObjectSerializerWriteContext_GetNullableValue_T_REF_System_Nullable_1_T_REF
	.p2align	2
	.type	System_Runtime_Serialization_XmlObjectSerializerWriteContext_GetNullableValue_T_REF_System_Nullable_1_T_REF,%function
	.code	32
System_Runtime_Serialization_XmlObjectSerializerWriteContext_GetNullableValue_T_REF_System_Nullable_1_T_REF:
.Lfunc_begin47:
	.fnstart
	.save	{r4, r8, r11, lr}
	push	{r4, r8, r11, lr}
.Ltmp395:
.Ltmp396:
.Ltmp397:
.Ltmp398:
.Ltmp399:
	.pad	#16
	sub	sp, sp, #16
.Ltmp400:
	ldr	r2, .LCPI47_0
	str	r8, [sp, #4]
.LPC47_0:
	add	r2, pc, r2
	str	r1, [sp, #12]
	ldr	r2, [r2, #28]
	ldr	r4, [sp, #4]
	str	r0, [sp, #8]
	ldr	r0, [r2]
	cmp	r0, #0
	blne	mono_aot_System_Runtime_Serialization_icall_cold_wrapper_265
	mov	r0, r4
	bl	p_42_plt__rgctx_fetch_12_llvm
	str	r0, [sp]
	add	r0, sp, #8
	ldr	r8, [sp]
	bl	p_43_plt_System_Nullable_1_T_REF_get_Value_llvm
	add	sp, sp, #16
	pop	{r4, r8, r11, pc}
	.p2align	2
.LCPI47_0:
	.long	mono_aot_System_Runtime_Serialization_llvm_got-(.LPC47_0+8)
.Lfunc_end47:
	.size	System_Runtime_Serialization_XmlObjectSerializerWriteContext_GetNullableValue_T_REF_System_Nullable_1_T_REF, .Lfunc_end47-System_Runtime_Serialization_XmlObjectSerializerWriteContext_GetNullableValue_T_REF_System_Nullable_1_T_REF
.Lexception43:
	.fnend

	.hidden	System_Runtime_Serialization_XmlObjectSerializerWriteContext_GetHasValue_T_REF_System_Nullable_1_T_REF
	.globl	System_Runtime_Serialization_XmlObjectSerializerWriteContext_GetHasValue_T_REF_System_Nullable_1_T_REF
	.p2align	2
	.type	System_Runtime_Serialization_XmlObjectSerializerWriteContext_GetHasValue_T_REF_System_Nullable_1_T_REF,%function
	.code	32
System_Runtime_Serialization_XmlObjectSerializerWriteContext_GetHasValue_T_REF_System_Nullable_1_T_REF:
.Lfunc_begin48:
	.fnstart
	.save	{r4, r5, r11, lr}
	push	{r4, r5, r11, lr}
.Ltmp401:
.Ltmp402:
.Ltmp403:
.Ltmp404:
.Ltmp405:
	.pad	#8
	sub	sp, sp, #8
.Ltmp406:
	mov	r4, r0
	ldr	r0, .LCPI48_0
.LPC48_0:
	add	r0, pc, r0
	ldr	r0, [r0, #28]
	str	r8, [sp, #4]
	ldr	r5, [sp, #4]
	ldr	r0, [r0]
	cmp	r0, #0
	blne	mono_aot_System_Runtime_Serialization_icall_cold_wrapper_265
	mov	r0, r5
	bl	p_44_plt__rgctx_fetch_13_llvm
	mov	r0, r4
	add	sp, sp, #8
	pop	{r4, r5, r11, pc}
	.p2align	2
.LCPI48_0:
	.long	mono_aot_System_Runtime_Serialization_llvm_got-(.LPC48_0+8)
.Lfunc_end48:
	.size	System_Runtime_Serialization_XmlObjectSerializerWriteContext_GetHasValue_T_REF_System_Nullable_1_T_REF, .Lfunc_end48-System_Runtime_Serialization_XmlObjectSerializerWriteContext_GetHasValue_T_REF_System_Nullable_1_T_REF
.Lexception44:
	.fnend

	.type	mono_aot_file_info,%object
	.data
	.globl	mono_aot_file_info
	.p2align	4
mono_aot_file_info:
	.long	172
	.long	0
	.long	mono_aot_System_Runtime_Serializationjit_got
	.long	mono_aot_System_Runtime_Serialization_llvm_got
	.long	mono_aot_System_Runtime_Serialization_eh_frame
	.long	0
	.long	0
	.long	0
	.long	0
	.long	mono_aot_System_Runtime_Serializationmethod_addresses
	.long	0
	.long	0
	.long	blob
	.long	class_name_table
	.long	class_info_offsets
	.long	method_info_offsets
	.long	ex_info_offsets
	.long	extra_method_info_offsets
	.long	extra_method_table
	.long	got_info_offsets
	.long	llvm_got_info_offsets
	.long	image_table
	.long	weak_field_indexes
	.long	0
	.long	assembly_guid
	.long	runtime_version
	.long	0
	.long	0
	.long	0
	.long	0
	.long	0
	.long	0
	.long	0
	.long	assembly_name
	.long	mono_aot_System_Runtime_Serializationplt
	.long	mono_aot_System_Runtime_Serializationplt_end
	.long	mono_aot_System_Runtime_Serializationunwind_info
	.long	mono_aot_System_Runtime_Serializationunbox_trampolines
	.long	mono_aot_System_Runtime_Serializationunbox_trampolines_end
	.long	mono_aot_System_Runtime_Serializationunbox_trampoline_addresses
	.long	25
	.long	280
	.long	45
	.long	2980
	.long	5
	.long	33
	.long	374417919
	.long	0
	.long	14282
	.long	128
	.long	8
	.long	8
	.long	8
	.long	9
	.long	0
	.long	0
	.long	8
	.long	25
	.long	0
	.long	0
	.long	0
	.zero	44
	.zero	24
	.zero	24
	.zero	24
	.zero	24
	.ascii	"\036R\023\354\263\375\321h\256\324\227\030\254\361\365&"
	.size	mono_aot_file_info, 400

	.type	method_info_offsets,%object
	.section	.rodata,"a",%progbits
	.p2align	3
method_info_offsets:
	.asciz	"\244\013\000\000\n\000\000\000*\001\000\000\002\000\000\000\000\000\022\000\034\000&\0000\000:\000D\000N\000X\000b\000l\000v\000\200\000\212\000\224\000\236\000\250\000\262\000\274\000\306\000\320\000\332\000\344\000\356\000\370\000\002\001\f\001\026\001 \001*\0014\001>\001H\001R\001\\\001f\001p\001z\001\204\001\216\001\230\001\242\001\254\001\266\001\300\001\312\001\324\001\336\001\350\001\362\001\374\001\006\002\020\002\032\002$\002.\0028\002B\002L\002V\002`\002j\002t\002~\002\210\002\222\002\234\002\246\002\260\002\272\002\304\002\316\002\330\002\342\002\354\002\366\002\000\003\n\003\024\003\036\003(\0032\003<\003F\003P\003Z\003d\003n\003x\003\202\003\214\003\226\003\240\003\252\003\264\003\276\003\310\003\322\003\334\003\346\003\360\003\372\003\004\004\016\004\030\004\"\004,\0046\004@\004J\004T\004^\004h\004r\004|\004\206\004\220\004\232\004\244\004\256\004\270\004\302\004\314\004\326\004\340\004\352\004\364\004\376\004\b\005\022\005\034\005&\0050\005>\005H\005R\005\\\005f\005p\005z\005\204\005\216\005\230\005\242\005\260\005\272\005\304\005\316\005\330\005\342\005\354\005\366\005\000\006\n\006\024\006\036\006(\0062\006<\006F\006P\006Z\006d\006n\006x\006\202\006\214\006\226\006\240\006\252\006\264\006\276\006\310\006\322\006\334\006\346\006\360\006\372\006\004\007\016\007\030\007\"\007,\0076\007@\007J\007T\007^\007h\007r\007|\007\206\007\220\007\232\007\244\007\256\007\270\007\302\007\314\007\326\007\340\007\352\007\364\007\376\007\b\b\022\b\034\b&\b0\b:\bD\bN\bX\bb\bl\bv\b\200\b\212\b\224\b\236\b\250\b\262\b\274\b\306\b\320\b\332\b\344\b\356\b\370\b\002\t\f\t\026\t \t*\t4\t>\tH\tR\t\\\tf\tp\tz\t\210\t\222\t\234\t\246\t\260\t\272\t\304\t\316\t\330\t\342\t\364\t\376\t\b\n\022\n\034\n&\n0\n:\nD\nN\nX\nb\nl\nv\n\200\n\212\n\224\n\236\n\250\n\262\n\274\n\306\n\320\n\332\n\344\n\356\n\370\n\002\013\f\013\026\013 \013*\0134\013>\013H\013R\013\\\013f\013p\013z\013\204\013\216\013\230\013\242\013\254\013\266\013\001\377\377\377\377\377\002\377\377\377\377\376\000\000\000\000\000\000\000\000\000\000\000\000\000\000\000\000\000\000\000\000\000\000\000\000\000\000\000\000\000\000\000\000\000\000\000\000\000\000\000\000\000\000\000\000\000\000\000\000\000\000\000\000\000\000\000\000\000\000\000\000\000\000\000\000\000\000\000\000\000\000\000\000\000\000\000\000\000\000\000\000\000\000\000\000\000\000\000\000\000\000\000\000\000\000\000\000\000\000\000\000\000\000\000\000\000\000\000\000\000\000\000\000\000\000\000\000\000\000\000\000\000\000\000\000\000\000\000\000\000\000\000\000\000\000\000\000\000\000\000\000\000\000\000\000\000\000\000\000\000\000\000\000\000\000\000\000\000\000\000\000\000\000\000\000\000\000\000\000\000\000\000\000\000\000\000\000\000\000\000\000\000\000\000\000\000\000\000\000\000\000\000\000\000\000\000\000\000\000\000\000\000\000\000\000\000\000\000\000\000\000\000\000\000\000\000\000\000\000\000\000\000\000\000\000\000\000\000\000\000\000\000\000\000\000\000\000\000\000\000\000\000\000\000\000\000\000\000\000\000\000\000\000\000\000\000\000\000\000\000\000\000\000\000\000\000\000\000\000\000\000\000\000\000\000\000\000\000\000\000\000\000\000\000\000\000\000\000\000\000\000\000\000\000\000\000\000\000\000\000\000\000\000\000\000\000\000\000\000\000\000\000\000\000\000\000\000\000\000\000\000\000\000\000\000\000\000\000\000\000\000\000\000\000\000\000\000\000\000\000\000\000\000\000\000\000\000\000\000\000\000\000\000\000\000\000\000\000\000\000\000\000\000\000\000\000\000\000\000\000\000\000\000\000\000\000\000\000\000\000\000\000\000\000\000\000\000\000\000\000\000\000\000\000\000\000\000\000\000\000\000\000\000\000\000\000\000\000\000\000\000\000\000\000\000\000\000\000\000\000\000\000\000\000\000\000\000\000\000\000\000\000\000\000\000\000\000\000\000\000\000\000\000\000\000\000\000\000\000\000\000\000\000\000\000\000\000\000\000\000\000\000\000\000\000\000\000\000\000\000\000\000\000\000\000\000\000\000\000\000\000\000\000\000\000\000\000\000\000\000\000\000\000\000\000\000\000\000\000\000\000\000\000\000\000\000\000\000\000\000\000\000\000\000\000\000\000\000\000\000\000\000\000\000\000\000\000\000\000\000\000\000\000\000\000\000\000\000\000\000\000\000\000\000\000\000\000\000\000\000\000\000\000\000\000\000\000\000\000\000\000\000\000\000\000\000\000\000\000\000\000\000\000\000\000\000\000\000\000\000\000\000\000\000\000\000\000\000\000\000\000\000\000\000\000\000\000\000\000\000\000\000\000\000\000\000\000\000\000\000\000\000\000\003\001\001\001\000\000\000\000\000\000\000\000\000\000\000\000\000\000\000\000\000\000\000\000\000\000\000\000\000\000\000\000\000\000\000\000\000\000\000\000\000\000\000\000\000\000\000\000\000\000\000\000\000\000\000\000\000\000\000\000\000\000\000\000\000\000\000\000\000\000\000\000\000\000\000\000\000\000\000\000\000\000\000\000\000\000\000\000\000\000\000\000\000\000\000\000\000\000\000\000\000\000\000\000\000\000\000\000\000\000\000\000\000\000\000\000\000\000\000\000\000\000\000\000\000\000\000\000\000\000\000\000\000\000\000\000\000\000\000\000\000\000\000\000\000\000\000\000\000\000\000\000\000\000\000\000\000\000\000\000\000\000\000\000\000\000\000\000\000\000\000\000\000\000\000\000\000\000\000\000\000\000\000\000\000\000\000\000\000\000\000\000\000\000\000\000\000\000\000\000\000\000\000\000\000\000\000\000\000\000\000\000\000\000\000\000\000\000\000\000\000\000\000\000\000\000\000\000\000\000\000\000\000\000\000\000\000\000\000\000\000\000\000\000\000\000\000\000\000\000\000\000\000\000\000\000\000\000\000\000\000\000\000\000\000\000\000\000\000\000\000\000\000\000\000\000\000\000\000\000\000\000\000\000\000\000\000\000\000\000\000\000\000\000\000\000\000\000\000\000\000\000\000\000\000\000\000\000\000\000\000\000\000\000\000\000\000\000\000\000\000\000\000\000\000\000\000\000\000\000\000\000\000\000\000\000\000\000\000\000\000\000\000\000\000\000\000\000\000\000\000\000\000\000\000\000\000\000\000\000\000\000\000\000\000\000\000\000\000\000\000\000\000\000\000\000\000\000\000\000\000\000\000\000\000\000\000\000\000\000\000\000\000\000\000\000\000\000\000\000\000\000\000\000\000\000\000\000\000\000\000\000\000\000\000\000\000\000\000\000\000\000\000\000\000\000\000\000\000\000\000\000\000\000\000\000\000\000\000\000\000\000\000\000\000\000\000\000\000\000\000\000\000\000\000\000\000\000\000\000\000\000\000\000\000\000\000\000\000\000\000\000\000\000\000\000\000\000\000\000\000\000\000\000\000\000\000\000\000\000\000\000\000\000\000\000\000\000\000\000\000\000\000\000\000\000\000\000\000\000\000\000\000\000\000\000\000\000\000\000\000\000\000\000\000\000\000\000\000\000\000\000\000\000\000\000\000\000\000\000\000\000\000\000\000\000\000\000\000\000\000\000\000\000\000\000\000\000\000\000\000\000\000\000\000\000\000\000\000\000\000\000\000\000\000\000\000\000\000\000\000\000\000\000\000\000\000\000\000\000\000\000\000\000\000\000\000\000\000\000\000\000\000\000\000\000\000\000\000\000\000\000\000\000\000\000\000\000\000\000\000\000\000\000\000\000\000\000\000\000\000\000\000\000\000\000\000\000\000\000\000\000\000\000\000\000\000\000\000\000\000\000\000\000\000\000\000\000\000\000\000\000\000\000\000\000\000\000\000\000\000\000\000\000\000\000\000\000\000\000\000\000\000\000\000\000\000\000\000\000\000\000\000\000\000\000\000\000\000\000\000\000\000\000\000\000\000\007\001\001\001\001\377\377\377\377\365\000\000\000\000\000\000\000\000\000\000\000\000\000\000\000\000\000\000\000\000\000\000\000\000\000\000\000\000\000\000\000\000\000\000\000\000\000\000\000\000\000\000\000\000\000\000\000\000\000\000\000\000\000\000\000\000\000\000\000\000\000\000\000\000\000\000\000\000\000\000\000\000\000\000\000\000\000\000\000\000\000\000\000\000\000\000\000\000\000\000\000\000\000\000\000\000\000\000\000\000\f\r\001\003\001\001\377\377\377\377\355\000\000\000\000\000\000\000\000\000\000\000\000\000\000\000\000\000\000\000\000\000\000\000\000\000\000\000\000\000\000\000\000\000\000\000\000\000\000\000\000\000\000\000\000\000\000\000\000\000\000\000\000\000\000\000\000\000\000\000\000\000\000\000\000\000\000\000\000\000\000\000\000\000\000\000\000\000\000\000\000\000\000\000\000\000\000\000\000\000\000\000\000\000\000\000\000\000\000\000\000\000\000\000\000\000\000\000\000\000\000\000\000\000\000\000\000\000\000\000\000\000\000\000\000\000\000\000\000\000\000\000\000\000\000\000\000\000\000\000\000\000\000\000\000\000\000\000\000\000\000\000\000\000\000\000\000\000\000\000\000\000\000\000\000\000\000\000\000\000\000\000\000\000\000\000\000\000\000\000\000\000\000\000\000\000\000\000\000\000\000\000\000\000\000\000\000\000\000\000\000\000\000\000\000\000\000\000\000\000\000\000\000\000\000\000\000\000\000\000\000\000\000\000\000\000\000\000\000\000\000\000\000\000\000\000\000\000\000\000\000\000\000\000\000\000\000\000\000\000\000\000\000\000\000\000\000\000\000\000\000\000\000\000\000\000\000\000\000\000\000\000\000\000\000\000\000\000\000\000\000\000\000\000\000\000\000\000\000\000\000\000\000\000\000\000\000\000\000\000\000\000\000\000\000\000\000\000\000\000\000\000\000\000\000\000\000\000\000\000\000\000\000\000\000\000\000\000\000\000\000\000\000\000\000\000\000\000\000\000\000\000\000\026\003\032\001\001\001\001\001\001\001\001\001$\001\001\001\001\003\001\001\013\001\000\000\000\000\000\000\000\000\000\000\000\000\000\000\000\000\000\000\000\000\000\000\000\000\000\000\000\000\000\000\000\000\000\000\000\000\000\000\000\000\000\000\000\000\000\000\000\000\000\000\000\000\000\000\000\000\000\000\000\000\000\000\000\000\000\000\000\000\000\000\000\000\000\000\000\000\000\000\000\000\000\000\000\000\000\000\000\000\000\000\000\000\000\000\000\000\000\000\000\000\000\000\000\000\000\000\000\000\000\000\000\000\000\000\000\000\000\000\000\000\000\000\000\000\000\000\000\000\000\000\000\000\000\000\000\000\000\000\000\000\000\000\000\000\000\000\000\000\000\000\000\000\000\000\000\000\000\000\000\000\000\000\000\000\000\000\000\000\000\000\000\000\000\000\000\000\000\000\000\000\000\000\000\000\000\000\000\000\000\000\000\000\000\000\000\000\000\000\000\000\000\000\000\000\000\000\000\000\000\000\000\000\000\000\000\000\000\000\000\000\000\000\000\000\000\000\000\000\000\000\000\000\000\000\000\000\000\000\000\000\000\000\000\000\000\000\000\000\000\000\000\000\000\000\000\000\000\000\000\000\000\000\000\000\000\000\000\000\000\000\000\000\000\000\000\000\000\000\000\000\000\000\000\000\000\000\000\000\000\000\000\000\000\000\000\000\000\000\000\000\000\000\000\000\000\000\000\000\000\000\000\000\000\000\000\000\000\000\000\000\000\000\000\000\000\000\000\000\000\000\000\000\000\000\000\000\000\000\000\000\000\000\000\000\000\000\000\000\000\000\000\000\000\000\000\000\000\000\000\000\000\000\000\000\000\000\000\000\000\000\000\000\000\000\000\000\000\000\000\000\000\000\000\000\000\000\000\000\000\000\000\000\000\000\000\000\000\000\000\000\000\000\000\000\000\000\000\000\000\000\000\000\000\000\000\000\000\000\000\000\000\000\000\000\000\000\000\000\000\000\000\000\000\000\000\000\000\000\000\000\000\000\000\000\000\000\000\000\000\000\000\000\000\000\000\000\000\000\000\000\000\000\000\000\000\000\000\000\000\000\000\000\000\000\000\000\000\000\000\000\000\000\000\000\000\000\000\000\000\000\000\000\000\000\000\000\000\000\000\000\000\000\000\000\000\000\000\000\000\000\000\000\000\000\000\000\000\000\000\000\000\000\000\000\000\000\000\000\000\000\000\000\000\000\000\000\000\000\000\000\000\000\000\000\000\000\000\000\000\000\000\000\000\000\000\000\000\000\000\000\000\000\000\000\000\000\000\000\000\000\000\000\000\000\000\000\000\000\000\000\000\000\000\000\000\000\000\000\000\000\000\000\000\000\000\000\000\000\000\000\000\000\000\000\000\000\000\000\000\000\000\000\000\000A\003\377\377\377\377\274\000\000\000\000\000\000\000\000\000\000\000\000\000\000\000\000\000\000\000\000\000\000\000\000\000\000\000\000\000\000\000\000\000\000\000\000\000\000\000\000\000\000\000\000\000\000\000\000\000\000\000\000\000\000\000\000\000\000\000\000\000\000\000\000\000\000\000\000\000\000\000\000\000\000\000\000\000\000\000\000\000\000\000\000\000\000\000\000\000\000\000\000E\000\000F\001\377\377\377\377\271H\377\377\377\377\270\000\000\000\000\000\000\000\000\000\000\000\000\000\000\000\000\000\000\000\000\000\000\000\000\000\000\000\000\000\000\000\000\000\000\000\000\000\000\000\000\000\000\000\000\000\000\000\000\000\000\000\000\000\000\000\000\000\000\000\000\000\000\000\000\000\000\000\000\000\000\000\000\000\000\000\000\000\000\000\000\000\000\000\000\000\000\000\000\000\000\000\000\000\000\000\000\000\000\000\000\000\000\000\000\000\000\000\000\000\000\000\000\000\000\000\000\000\000\000\000\000\000\000\000\000\000\000\000\000\000\000\000\000\000\000\000\000\000\000\000\000\000\000\000\000\000\000\000\000\000\000\000\000\000\000\000\000\000\000\000\000\000\000\000\000\000\000\000\000\000\000\000\000\000\000\000\000\000\000\000\000\000\000\000\000\000\000\000\000\000\000\000\000\000\000\000\000\000\000\000\000\000\000\000\000\000\000\000\000\000\000\000\000\000\000\000\000\000\000\000\000\000\000\000\000\000\000\000\000\000\000\000\000\000\000\000\000\000\000\000\000\000\000\000\000\000\000\000\000\000\000\000\000\000\000\000\000\000\000\000\000\000\000\000\000\000\000\000\000\000\000\000\000\000\000\000\000\000\000\000\000\000\000\000\000\000\000\000\000\000\000\000\000\000\000\000\000\000\000\000\000\000\000\000\000\000\000\000\000\000\000\000\000\000\000\000\000\000\000\000\000\000\000\000\000\000\000\000\000\000\000\000\000\000\000\000\000\000\000\000\000\000\000\000\000\000\000\000\000\000\000\000\000\000\000\000\000\000\000\000\000\000\000\000\000\000\000\000\000\000\000\000\000\000\000\000\000\000\000\000\000\000\000\000\000\000\000\000\000\000\000\000\000\000\000\000\000\000\000\000\000\000\000\000\000\000\000\000\000\000\000\000\000\000\000\000\000\000\000\000\000\000\000\000\000\000\000\000\000\000\000\000\000\000\000\000\000\000\000\000\000\000\000\000\000\000\000\000\000\000\000\000\000\000\000\000\000\000\000\000\000\000"
	.size	method_info_offsets, 3620

	.type	extra_method_table,%object
	.p2align	3
extra_method_table:
	.asciz	"\013\000\000\000\000\000\000\000\000\000\000\000\000\000\000\000\000\000\000\000\000\000\000\000\000\000\000\000\000\000\000\000\000\000\000\000\000\000\000\000\000\000\000\000\000\000\000\000\000\000\000\000\000\000\000\000\000\000\000\000\000\000\000\000\000\000\000\000\000\000\000\000\000\000\000\000\000\000\000\000\000\000\000\000\000\000\000\000\000\000\000\000\000\000\000\000\000\000\000\000\000\000\000\000\000\000\000\000\000\000\000\000\000\000\000\000\000\000\000\000\000\000\000\000\000\000\000\000\000\000\000\000\000\000\000"
	.size	extra_method_table, 136

	.type	extra_method_info_offsets,%object
	.p2align	3
extra_method_info_offsets:
	.asciz	"\005\000\000\000\237\013\000\000\000\000\000\000\240\013\000\000\000\000\000\000\241\013\000\000\000\000\000\000\242\013\000\000\000\000\000\000\243\013\000\000\000\000\000"
	.size	extra_method_info_offsets, 44

	.type	class_name_table,%object
	.p2align	3
class_name_table:
	.asciz	"-\002\000\000\000\000\027\000\000\000\000\000\000\000\000\000\000\000\013\000\000\000Y\000\000\000\270\000\000\000\030\000\000\000\000\000\000\000\000\000\000\000\000\000\000\000\000\000\000\000u\000\000\000^\000\000\000\000\000\000\000\024\000\000\000\353\000\000\000\000\000\000\000\000\000\000\000\000\000\000\000 \0003\002I\000\000\000\000\000\000\0007\000/\002\000\000\000\000\000\000\000\000r\000\000\000\364\000\000\000\000\000\000\000\000\000\000\000\000\000\000\000\000\000\000\000\000\000\000\000%\000:\002\000\000\000\000\000\000\000\000\000\000\000\000\213\000\000\000\224\000\000\000\000\000\000\000_\000\000\000\000\000\000\000\000\000\000\000\000\000\000\000\000\000\000\000\000\000\000\000\365\000\000\000\000\000\000\000\314\000W\002\246\000\000\000-\0005\002\000\000\000\000:\000\000\000\035\000<\002\000\000\000\000e\000F\002\000\000\000\0000\000\000\000\000\000\000\000\000\000\000\000\000\000\000\000\000\000\000\000\203\000\000\000U\000\000\000;\0004\002\000\000\000\000\325\000\000\000\000\000\000\000\000\000\000\000\000\000\000\000\250\000K\002\305\000\000\000\000\000\000\000\000\000\000\000\000\000\000\000\000\000\000\000\000\000\000\000\000\000\000\000\000\000\000\000\000\000\000\000\331\000\000\000\000\000\000\000\000\000\000\000\000\000\000\000\000\000\000\000\000\000\000\000\342\000\000\000\206\000\000\000/\000\000\000\233\000\000\000\000\000\000\000Z\000\000\000\000\000\000\000\261\000\000\000\000\000\000\000\000\000\000\000\000\000\000\000\212\000\000\000\000\000\000\000\000\000\000\000\000\000\000\000\000\000\000\000\000\000\000\000\303\000\000\000\000\000\000\000@\000\000\000\000\000\000\000\000\000\000\000$\000\000\000\000\000\000\000\000\000\000\000\253\000\000\000\000\000\000\000S\000\000\000\000\000\000\000\017\000\000\0002\000\000\000\000\000\000\000\023\000\000\000\000\000\000\000\000\000\000\000\000\000\000\000\000\000\000\000W\000\000\000\000\000\000\000\000\000\000\000\\\000\000\000\000\000\000\000\000\000\000\000~\000L\002\000\000\000\0006\000\000\000\000\000\000\000\222\000\000\000\000\000\000\000\000\000\000\000\000\000\000\000\037\000\000\000\000\000\000\000\237\000\000\000\000\000\000\000\352\000\000\000\000\000\000\000\000\000\000\000\000\000\000\000\000\000\000\000\000\000\000\000\025\000=\002>\000\000\000#\000\000\000\000\000\000\000\026\000I\002\000\000\000\000\000\000\000\000\260\000\000\000\000\000\000\000\000\000\000\000\000\000\000\000\000\000\000\000\032\000-\002\000\000\000\000\000\000\000\000\000\000\000\000\000\000\000\000z\000\000\000\216\000\000\000\000\000\000\000\000\000\000\000\000\000\000\000\000\000\000\000\000\000\000\000\000\000\000\000\311\000\000\000v\000\000\000\344\000\000\000g\000\000\000\230\000\000\000\000\000\000\000\346\000\000\000\000\000\000\000,\000G\002V\000\000\000\000\000\000\000\201\000E\0028\000\000\000\000\000\000\000\n\000\000\000J\000\000\000\000\000\000\000\000\000\000\000&\000\000\000\000\000\000\000\021\000\000\000\000\000\000\000E\000\000\000\000\000\000\000\000\000\000\000\000\000\000\000\267\000\000\0004\000\000\000\000\000\000\000\000\000\000\000\000\000\000\000\336\000\000\000K\0007\002\000\000\000\000\000\000\000\000\214\000\000\000\312\000\000\000\005\000\000\000\000\000\000\000\000\000\000\000\000\000\000\000|\000\000\000\000\000\000\000\000\000\000\000\000\000\000\000\000\000\000\000\310\000\000\000\036\0006\002\000\000\000\000\000\000\000\000\000\000\000\000\000\000\000\000\000\000\000\000\315\000Z\002\326\000\000\000G\000\000\000\243\000\000\000\000\000\000\000\000\000\000\000\327\000\000\000\000\000\000\000y\000N\002\000\000\000\000\226\000J\002\000\000\000\000{\000\000\000\223\000\000\000\000\000\000\000\000\000\000\000\000\000\000\000\000\000\000\000\t\000\000\000\000\000\000\000\000\000\000\000\000\000\000\000\006\000\000\000\000\000\000\000!\000\000\000\000\000\000\000\000\000\000\000\000\000\000\000\000\000\000\000\000\000\000\000\000\000\000\000\000\000\000\000\000\000\000\000\000\000\000\000\255\000\000\000\000\000\000\000\000\000\000\000\251\000\000\000\000\000\000\000\000\000\000\000[\000\000\000\000\000\000\000\000\000\000\000\000\000\000\000\000\000\000\000\000\000\000\000\000\000\000\000\000\000\000\000\000\000\000\000\000\000\000\000\211\000\000\000\000\000\000\000\000\000\000\000\000\000\000\000\000\000\000\000\000\000\000\000\000\000\000\000\000\000\000\000\000\000\000\000\274\000\000\000\000\000\000\000\000\000\000\000F\000\000\000\000\000\000\000\000\000\000\000n\000\000\000*\0002\002\210\000\000\000\000\000\000\000\000\000\000\000\000\000\000\000\232\000\000\000\000\000\000\000\266\000\000\000\204\000\000\000\000\000\000\000\000\000\000\000\000\000\000\000p\000\000\000\000\000\000\000\000\000\000\000\000\000\000\000\000\000\000\000\000\000\000\000\000\000\000\000\000\000\000\000\000\000\000\000\273\000R\002\301\000\000\000\000\000\000\000\337\000\000\000\320\000\000\000\000\000\000\000\000\000\000\000\000\000\000\000t\000\000\000\000\000\000\000\000\000\000\000\000\000\000\000\000\000\000\000\000\000\000\000Q\000\000\000\000\000\000\000\265\000\000\000\000\000\000\000\b\000V\002\000\000\000\000\000\000\000\000\372\000\000\000\316\000\000\000c\000?\002\177\000\000\000\000\000\000\000(\000A\002\217\000@\002\000\000\000\000\205\000H\002\000\000\000\000\000\000\000\000\000\000\000\000\000\000\000\000\215\000\000\000\000\000\000\000\000\000\000\000\000\000\000\000\000\000\000\000\241\000\000\000\000\000\000\000\000\000\000\000\000\000\000\000\000\000\000\000\002\001\000\000\000\000\000\000\361\000\000\000\000\000\000\000\000\000\000\000\231\000\000\000\000\000\000\000\000\000\000\000\200\000\\\002)\000\000\000\000\000\000\000\002\000\000\000\000\000\000\000\000\000\000\000\003\000\000\000\000\000\000\000\000\000\000\000\000\000\000\000\000\000\000\000\000\000\000\000\367\000\000\000\000\000\000\000\350\000\000\000\000\000\000\000R\000M\002\000\000\000\000\000\000\000\000\000\000\000\000\252\000\000\000\000\000\000\000d\000Q\002\271\000\000\000\000\000\000\000w\000]\002\000\000\000\000\031\000\000\000\000\000\000\000\000\000\000\000\000\000\000\000\000\000\000\000\234\000\000\000\375\000\000\000\376\000\000\000\000\000\000\000\000\000\000\000\351\000\000\000\302\000\000\000<\000\000\000\277\000\000\000\263\000X\002\000\000\000\000\000\000\000\000\333\000\000\000\360\000\000\000\001\000U\002\r\000\000\000\244\000\000\000\313\000\000\000\000\000\000\000\000\000\000\000\000\000\000\000\000\000\000\000\000\000\000\000\000\000\000\000\000\000\000\000\007\000\000\0005\000\000\000\000\000\000\000?\000\000\000.\000\000\000\000\000\000\000]\000\000\000\000\000\000\0003\0001\002\000\000\000\000`\000\000\000C\000\000\000\020\0000\002\000\000\000\000\000\000\000\000\000\000\000\000\000\000\000\000\000\000\000\000k\0008\002\000\000\000\000\247\000\000\000\000\000\000\000\000\000\000\000\000\000\000\000\000\000\000\000\324\000\000\000\220\000\000\000\221\000_\002\000\000\000\000\f\000\000\000\000\000\000\000O\000\000\000\000\000\000\000\000\000\000\000\356\000\000\000\000\000\000\000\000\000\000\000\000\000\000\000\000\000\000\000\000\000\000\000\000\000\000\000j\000D\002\000\000\000\000\000\000\000\000\000\000\000\000\000\000\000\000\000\000\000\000\000\000\000\000\000\000\000\000\000\000\000\000\245\000\000\000\000\000\000\000\272\000\000\000\000\000\000\000\000\000\000\000\000\000\000\000\000\000\000\000\"\000\000\000\000\000\000\000\000\000\000\000\000\000\000\000\000\000\000\000f\000;\002\235\000\000\000\000\000\000\000\377\000\000\000\000\000\000\000\000\000\000\000\317\000\000\000\000\000\000\000M\000\000\000\000\000\000\000X\000\000\000\004\000\000\000\000\000\000\000\000\000\000\000\000\000\000\000\000\000\000\000\000\000\000\000\000\000\000\000o\000\000\000\000\000\000\000\000\000\000\000\000\000\000\000\000\000\000\000\022\000>\002N\000\000\000\000\000\000\000\000\000\000\000'\000\000\000\000\000\000\000\000\000\000\000\000\000\000\000\000\000\000\000\000\000\000\000\340\000\000\000B\000\000\000\000\000\000\000\000\000\000\000\016\000\000\000H\000\000\000\000\000\000\000\000\000\000\000\000\000\000\000\000\000\000\000\000\000\000\000\347\000\000\000\000\000\000\000a\000\000\000\000\000\000\000A\000\000\000\000\000\000\000\322\000\000\000\000\000\000\000\242\000\000\000\000\000\000\000\000\000\000\000\000\000\000\000\000\000\000\000\000\000\000\0009\000\000\000\000\000\000\000\033\000\000\000\370\000[\002\000\000\000\000\000\000\000\000\000\000\000\000l\000\000\000\000\000\000\000\000\000\000\000\304\000\000\000\000\000\000\000\034\000\000\000\000\000\000\000\000\000\000\000\000\000\000\000+\000.\0021\000P\002=\000C\002D\0009\002L\000\000\000P\000\000\000T\000\000\000b\000\000\000h\000\000\000i\000\000\000m\000\000\000q\000\000\000s\000\000\000x\000B\002}\000\000\000\202\000\000\000\207\000\000\000\225\000\000\000\227\000\000\000\236\000\000\000\240\000\000\000\254\000\000\000\256\000\000\000\257\000\000\000\262\000\000\000\264\000\000\000\275\000Y\002\276\000O\002\300\000\000\000\306\000\000\000\307\000\000\000\321\000\000\000\323\000\000\000\330\000S\002\332\000\000\000\334\000\000\000\335\000\000\000\341\000\000\000\343\000T\002\345\000\000\000\354\000\000\000\355\000\000\000\357\000\000\000\362\000\000\000\363\000\000\000\366\000\000\000\371\000^\002\373\000\000\000\374\000\000\000\000\001\000\000\001\001\000"
	.size	class_name_table, 2434

	.type	got_info_offsets,%object
	.p2align	3
got_info_offsets:
	.ascii	"\031\000\000\000\n\000\000\000\003\000\000\000\002\000\000\000\000\000\n\000\024\000I\002\001\001\001\001\001\001\001\002V\002\002\002\003\002\002\002\002\002l\003\002\003\003"
	.size	got_info_offsets, 47

	.type	llvm_got_info_offsets,%object
	.p2align	3
llvm_got_info_offsets:
	.ascii	")\000\000\000\n\000\000\000\005\000\000\000\002\000\000\000\000\000\013\000\026\000!\000,\000\203f\002\001\001\001\001\001\001\001\002\203s\002\002\002\003\002\002\002\002\002\203\211\003\002\003\003\003\005\005\006\003\203\260\006\006\003\003\006\005\007\006\004\203\342"
	.size	llvm_got_info_offsets, 72

	.type	ex_info_offsets,%object
	.p2align	3
ex_info_offsets:
	.asciz	"\244\013\000\000\n\000\000\000*\001\000\000\002\000\000\000\000\000\024\000\036\000(\0002\000<\000F\000P\000Z\000d\000n\000x\000\202\000\214\000\226\000\240\000\252\000\264\000\276\000\310\000\322\000\334\000\346\000\360\000\372\000\004\001\016\001\030\001\"\001,\0016\001@\001J\001T\001^\001h\001r\001|\001\206\001\220\001\232\001\244\001\256\001\270\001\302\001\314\001\326\001\340\001\352\001\364\001\376\001\b\002\022\002\034\002&\0020\002:\002D\002N\002X\002b\002l\002w\002\201\002\213\002\225\002\237\002\251\002\263\002\275\002\307\002\321\002\333\002\345\002\357\002\371\002\003\003\r\003\027\003!\003+\0035\003?\003I\003S\003]\003g\003q\003{\003\205\003\217\003\231\003\243\003\255\003\267\003\301\003\313\003\325\003\337\003\351\003\363\003\375\003\007\004\021\004\033\004%\004/\0049\004C\004M\004W\004a\004k\004u\004\177\004\211\004\223\004\235\004\247\004\261\004\273\004\305\004\317\004\331\004\343\004\355\004\367\004\001\005\013\005\025\005\037\005)\0053\005B\005L\005V\005`\005j\005t\005~\005\210\005\222\005\234\005\247\005\266\005\300\005\312\005\324\005\336\005\350\005\362\005\374\005\006\006\020\006\032\006$\006.\0068\006B\006L\006V\006`\006j\006t\006~\006\210\006\222\006\234\006\246\006\260\006\272\006\304\006\316\006\330\006\342\006\354\006\366\006\000\007\013\007\026\007!\007+\0075\007?\007I\007S\007]\007g\007q\007{\007\205\007\217\007\231\007\243\007\255\007\267\007\301\007\313\007\325\007\337\007\351\007\363\007\375\007\007\b\021\b\033\b%\b/\b9\bC\bM\bW\ba\bk\bu\b\177\b\211\b\223\b\235\b\247\b\261\b\273\b\305\b\317\b\331\b\343\b\355\b\367\b\001\t\013\t\025\t\037\t)\t3\t=\tG\tQ\t[\te\to\ty\t\203\t\222\t\234\t\246\t\260\t\272\t\304\t\316\t\330\t\342\t\355\t\001\n\013\n\025\n\037\n)\n3\n=\nG\nQ\n[\ne\no\ny\n\203\n\215\n\227\n\241\n\253\n\265\n\277\n\311\n\323\n\335\n\347\n\361\n\373\n\005\013\017\013\031\013#\013-\0137\013A\013K\013U\013_\013i\013s\013}\013\207\013\221\013\233\013\245\013\257\013\271\013\303\013\203\351\377\377\377\374\027\203\376\377\377\377\374\002\000\000\000\000\000\000\000\000\000\000\000\000\000\000\000\000\000\000\000\000\000\000\000\000\000\000\000\000\000\000\000\000\000\000\000\000\000\000\000\000\000\000\000\000\000\000\000\000\000\000\000\000\000\000\000\000\000\000\000\000\000\000\000\000\000\000\000\000\000\000\000\000\000\000\000\000\000\000\000\000\000\000\000\000\000\000\000\000\000\000\000\000\000\000\000\000\000\000\000\000\000\000\000\000\000\000\000\000\000\000\000\000\000\000\000\000\000\000\000\000\000\000\000\000\000\000\000\000\000\000\000\000\000\000\000\000\000\000\000\000\000\000\000\000\000\000\000\000\000\000\000\000\000\000\000\000\000\000\000\000\000\000\000\000\000\000\000\000\000\000\000\000\000\000\000\000\000\000\000\000\000\000\000\000\000\000\000\000\000\000\000\000\000\000\000\000\000\000\000\000\000\000\000\000\000\000\000\000\000\000\000\000\000\000\000\000\000\000\000\000\000\000\000\000\000\000\000\000\000\000\000\000\000\000\000\000\000\000\000\000\000\000\000\000\000\000\000\000\000\000\000\000\000\000\000\000\000\000\000\000\000\000\000\000\000\000\000\000\000\000\000\000\000\000\000\000\000\000\000\000\000\000\000\000\000\000\000\000\000\000\000\000\000\000\000\000\000\000\000\000\000\000\000\000\000\000\000\000\000\000\000\000\000\000\000\000\000\000\000\000\000\000\000\000\000\000\000\000\000\000\000\000\000\000\000\000\000\000\000\000\000\000\000\000\000\000\000\000\000\000\000\000\000\000\000\000\000\000\000\000\000\000\000\000\000\000\000\000\000\000\000\000\000\000\000\000\000\000\000\000\000\000\000\000\000\000\000\000\000\000\000\000\000\000\000\000\000\000\000\000\000\000\000\000\000\000\000\000\000\000\000\000\000\000\000\000\000\000\000\000\000\000\000\000\000\000\000\000\000\000\000\000\000\000\000\000\000\000\000\000\000\000\000\000\000\000\000\000\000\000\000\000\000\000\000\000\000\000\000\000\000\000\000\000\000\000\000\000\000\000\000\000\000\000\000\000\000\000\000\000\000\000\000\000\000\000\000\000\000\000\000\000\000\000\000\000\000\000\000\000\000\000\000\000\000\000\000\000\000\000\000\000\000\000\000\000\000\000\000\000\000\000\000\000\000\000\000\000\000\000\000\000\000\000\000\000\000\000\000\000\000\000\000\000\000\000\000\000\000\000\000\000\000\000\000\000\000\000\000\000\000\000\000\000\000\000\000\000\000\000\000\000\000\000\000\000\000\000\000\000\000\000\000\000\000\000\000\000\000\000\000\000\000\000\000\000\000\000\000\000\000\000\000\000\000\000\000\000\000\000\000\000\204\023\026\026\026\000\000\000\000\000\000\000\000\000\000\000\000\000\000\000\000\000\000\000\000\000\000\000\000\000\000\000\000\000\000\000\000\000\000\000\000\000\000\000\000\000\000\000\000\000\000\000\000\000\000\000\000\000\000\000\000\000\000\000\000\000\000\000\000\000\000\000\000\000\000\000\000\000\000\000\000\000\000\000\000\000\000\000\000\000\000\000\000\000\000\000\000\000\000\000\000\000\000\000\000\000\000\000\000\000\000\000\000\000\000\000\000\000\000\000\000\000\000\000\000\000\000\000\000\000\000\000\000\000\000\000\000\000\000\000\000\000\000\000\000\000\000\000\000\000\000\000\000\000\000\000\000\000\000\000\000\000\000\000\000\000\000\000\000\000\000\000\000\000\000\000\000\000\000\000\000\000\000\000\000\000\000\000\000\000\000\000\000\000\000\000\000\000\000\000\000\000\000\000\000\000\000\000\000\000\000\000\000\000\000\000\000\000\000\000\000\000\000\000\000\000\000\000\000\000\000\000\000\000\000\000\000\000\000\000\000\000\000\000\000\000\000\000\000\000\000\000\000\000\000\000\000\000\000\000\000\000\000\000\000\000\000\000\000\000\000\000\000\000\000\000\000\000\000\000\000\000\000\000\000\000\000\000\000\000\000\000\000\000\000\000\000\000\000\000\000\000\000\000\000\000\000\000\000\000\000\000\000\000\000\000\000\000\000\000\000\000\000\000\000\000\000\000\000\000\000\000\000\000\000\000\000\000\000\000\000\000\000\000\000\000\000\000\000\000\000\000\000\000\000\000\000\000\000\000\000\000\000\000\000\000\000\000\000\000\000\000\000\000\000\000\000\000\000\000\000\000\000\000\000\000\000\000\000\000\000\000\000\000\000\000\000\000\000\000\000\000\000\000\000\000\000\000\000\000\000\000\000\000\000\000\000\000\000\000\000\000\000\000\000\000\000\000\000\000\000\000\000\000\000\000\000\000\000\000\000\000\000\000\000\000\000\000\000\000\000\000\000\000\000\000\000\000\000\000\000\000\000\000\000\000\000\000\000\000\000\000\000\000\000\000\000\000\000\000\000\000\000\000\000\000\000\000\000\000\000\000\000\000\000\000\000\000\000\000\000\000\000\000\000\000\000\000\000\000\000\000\000\000\000\000\000\000\000\000\000\000\000\000\000\000\000\000\000\000\000\000\000\000\000\000\000\000\000\000\000\000\000\000\000\000\000\000\000\000\000\000\000\000\000\000\000\000\000\000\000\000\000\000\000\000\000\000\000\000\000\000\000\000\000\000\000\000\000\000\000\000\000\000\000\000\000\000\000\000\000\000\000\000\000\000\000\000\000\000\000\000\000\000\000\000\000\000\000\000\000\000\000\000\000\000\000\000\000\000\000\000\000\000\000\000\000\000\000\000\000\000\000\000\000\000\000\000\000\000\000\000\000\000\000\000\000\000\000\000\000\000\000\000\000\000\000\000\000\000\000\000\000\000\000\000\000\000\000\000\000\000\000\000\000\000\000\000\000\000\000\000\000\000\000\000\000\000\000\000\000\000\000\000\000\000\000\000\000\000\000\000\000\000\000\000\000\000\204\223\026\026\026\026\377\377\377\373\025\000\000\000\000\000\000\000\000\000\000\000\000\000\000\000\000\000\000\000\000\000\000\000\000\000\000\000\000\000\000\000\000\000\000\000\000\000\000\000\000\000\000\000\000\000\000\000\000\000\000\000\000\000\000\000\000\000\000\000\000\000\000\000\000\000\000\000\000\000\000\000\000\000\000\000\000\000\000\000\000\000\000\000\000\000\000\000\000\000\000\000\000\000\000\000\000\000\000\000\000\205\001\205\027\026\026\026\026\377\377\377\372\221\000\000\000\000\000\000\000\000\000\000\000\000\000\000\000\000\000\000\000\000\000\000\000\000\000\000\000\000\000\000\000\000\000\000\000\000\000\000\000\000\000\000\000\000\000\000\000\000\000\000\000\000\000\000\000\000\000\000\000\000\000\000\000\000\000\000\000\000\000\000\000\000\000\000\000\000\000\000\000\000\000\000\000\000\000\000\000\000\000\000\000\000\000\000\000\000\000\000\000\000\000\000\000\000\000\000\000\000\000\000\000\000\000\000\000\000\000\000\000\000\000\000\000\000\000\000\000\000\000\000\000\000\000\000\000\000\000\000\000\000\000\000\000\000\000\000\000\000\000\000\000\000\000\000\000\000\000\000\000\000\000\000\000\000\000\000\000\000\000\000\000\000\000\000\000\000\000\000\000\000\000\000\000\000\000\000\000\000\000\000\000\000\000\000\000\000\000\000\000\000\000\000\000\000\000\000\000\000\000\000\000\000\000\000\000\000\000\000\000\000\000\000\000\000\000\000\000\000\000\000\000\000\000\000\000\000\000\000\000\000\000\000\000\000\000\000\000\000\000\000\000\000\000\000\000\000\000\000\000\000\000\000\000\000\000\000\000\000\000\000\000\000\000\000\000\000\000\000\000\000\000\000\000\000\000\000\000\000\000\000\000\000\000\000\000\000\000\000\000\000\000\000\000\000\000\000\000\000\000\000\000\000\000\000\000\000\000\000\000\000\000\000\000\000\000\000\000\000\000\000\000\000\000\000\000\000\000\000\000\000\000\000\205\205\026\205\261\026\026\026\026\026\026\026\026\026\206\215\026\026\026\026\026\026\026\026\026\000\000\000\000\000\000\000\000\000\000\000\000\000\000\000\000\000\000\000\000\000\000\000\000\000\000\000\000\000\000\000\000\000\000\000\000\000\000\000\000\000\000\000\000\000\000\000\000\000\000\000\000\000\000\000\000\000\000\000\000\000\000\000\000\000\000\000\000\000\000\000\000\000\000\000\000\000\000\000\000\000\000\000\000\000\000\000\000\000\000\000\000\000\000\000\000\000\000\000\000\000\000\000\000\000\000\000\000\000\000\000\000\000\000\000\000\000\000\000\000\000\000\000\000\000\000\000\000\000\000\000\000\000\000\000\000\000\000\000\000\000\000\000\000\000\000\000\000\000\000\000\000\000\000\000\000\000\000\000\000\000\000\000\000\000\000\000\000\000\000\000\000\000\000\000\000\000\000\000\000\000\000\000\000\000\000\000\000\000\000\000\000\000\000\000\000\000\000\000\000\000\000\000\000\000\000\000\000\000\000\000\000\000\000\000\000\000\000\000\000\000\000\000\000\000\000\000\000\000\000\000\000\000\000\000\000\000\000\000\000\000\000\000\000\000\000\000\000\000\000\000\000\000\000\000\000\000\000\000\000\000\000\000\000\000\000\000\000\000\000\000\000\000\000\000\000\000\000\000\000\000\000\000\000\000\000\000\000\000\000\000\000\000\000\000\000\000\000\000\000\000\000\000\000\000\000\000\000\000\000\000\000\000\000\000\000\000\000\000\000\000\000\000\000\000\000\000\000\000\000\000\000\000\000\000\000\000\000\000\000\000\000\000\000\000\000\000\000\000\000\000\000\000\000\000\000\000\000\000\000\000\000\000\000\000\000\000\000\000\000\000\000\000\000\000\000\000\000\000\000\000\000\000\000\000\000\000\000\000\000\000\000\000\000\000\000\000\000\000\000\000\000\000\000\000\000\000\000\000\000\000\000\000\000\000\000\000\000\000\000\000\000\000\000\000\000\000\000\000\000\000\000\000\000\000\000\000\000\000\000\000\000\000\000\000\000\000\000\000\000\000\000\000\000\000\000\000\000\000\000\000\000\000\000\000\000\000\000\000\000\000\000\000\000\000\000\000\000\000\000\000\000\000\000\000\000\000\000\000\000\000\000\000\000\000\000\000\000\000\000\000\000\000\000\000\000\000\000\000\000\000\000\000\000\000\000\000\000\000\000\000\000\000\000\000\000\000\000\000\000\000\000\000\000\000\000\000\000\000\000\000\000\000\000\000\000\000\000\000\000\000\000\000\000\000\000\000\000\000\000\000\000\000\000\000\000\000\000\000\000\000\000\000\000\000\000\000\000\000\000\000\000\000\000\000\000\000\000\000\000\000\000\000\000\000\000\000\000\000\000\000\000\000\000\000\000\000\000\000\000\000\000\000\000\207i\017\377\377\377\370\210\000\000\000\000\000\000\000\000\000\000\000\000\000\000\000\000\000\000\000\000\000\000\000\000\000\000\000\000\000\000\000\000\000\000\000\000\000\000\000\000\000\000\000\000\000\000\000\000\000\000\000\000\000\000\000\000\000\000\000\000\000\000\000\000\000\000\000\000\000\000\000\000\000\000\000\000\000\000\000\000\000\000\000\000\000\000\000\000\000\000\000\000\207\207\000\000\207\254\026\377\377\377\370>\207\321\377\377\377\370/\000\000\000\000\000\000\000\000\000\000\000\000\000\000\000\000\000\000\000\000\000\000\000\000\000\000\000\000\000\000\000\000\000\000\000\000\000\000\000\000\000\000\000\000\000\000\000\000\000\000\000\000\000\000\000\000\000\000\000\000\000\000\000\000\000\000\000\000\000\000\000\000\000\000\000\000\000\000\000\000\000\000\000\000\000\000\000\000\000\000\000\000\000\000\000\000\000\000\000\000\000\000\000\000\000\000\000\000\000\000\000\000\000\000\000\000\000\000\000\000\000\000\000\000\000\000\000\000\000\000\000\000\000\000\000\000\000\000\000\000\000\000\000\000\000\000\000\000\000\000\000\000\000\000\000\000\000\000\000\000\000\000\000\000\000\000\000\000\000\000\000\000\000\000\000\000\000\000\000\000\000\000\000\000\000\000\000\000\000\000\000\000\000\000\000\000\000\000\000\000\000\000\000\000\000\000\000\000\000\000\000\000\000\000\000\000\000\000\000\000\000\000\000\000\000\000\000\000\000\000\000\000\000\000\000\000\000\000\000\000\000\000\000\000\000\000\000\000\000\000\000\000\000\000\000\000\000\000\000\000\000\000\000\000\000\000\000\000\000\000\000\000\000\000\000\000\000\000\000\000\000\000\000\000\000\000\000\000\000\000\000\000\000\000\000\000\000\000\000\000\000\000\000\000\000\000\000\000\000\000\000\000\000\000\000\000\000\000\000\000\000\000\000\000\000\000\000\000\000\000\000\000\000\000\000\000\000\000\000\000\000\000\000\000\000\000\000\000\000\000\000\000\000\000\000\000\000\000\000\000\000\000\000\000\000\000\000\000\000\000\000\000\000\000\000\000\000\000\000\000\000\000\000\000\000\000\000\000\000\000\000\000\000\000\000\000\000\000\000\000\000\000\000\000\000\000\000\000\000\000\000\000\000\000\000\000\000\000\000\000\000\000\000\000\000\000\000\000\000\000\000\000\000\000\000\000\000\000\000\000\000\000\000\000\000\000\000\000\000\000\000\000\000\000\000\000\000\000\000\000\000\000"
	.size	ex_info_offsets, 3633

	.type	class_info_offsets,%object
	.p2align	3
class_info_offsets:
	.ascii	"\002\001\000\000\n\000\000\000\032\000\000\000\002\000\000\000\000\000\013\000\027\000\"\000.\000:\000F\000S\000a\000l\000w\000\202\000\215\000\231\000\244\000\257\000\272\000\305\000\320\000\333\000\346\000\361\000\374\000\b\001\023\001\036\001\207\340\007\005\031\031\031\031\031\031\031\210\242c\017\017c\017c\026\200\360c\213xc\027\027\027\027\027\027\027\027\214\252\027\027\027\031\031\027\027\037\200\343\216hc\027\027\027c\200\362c\033i\221c\200\343\031\005\005\027\031\031\031\027\222\371\027\027\031!=\200\377\200\375c\031\226-\033\200\343\200\345CgIk\027\200\237\232\301\027\0313%\027\033\033\005c\2341%!\005\027\0273'\007#\235A\033\027\027\027\031A\025\027\027\236U\0323'\027\027\027\007\005\005\237$\005\005\027\200\353c\027\0273%\2413\027\007\027\007\0277\027\033I\242O\0315%777777\244C777777777\246i777777777\250\217777777777\252\265777777777\254\3337\027\027c3%3%\027\256\2473%\027===\027\027\027\260)\027==\027\027\027\027=)\261\275C\027\027\023YY)\200\323\027\264\3179\027\031\027\027\031\027c\027\266'\027\027\027\027\027\027\031\030\027\267\020\027\027\027\027\027\027\030"
	.size	class_info_offsets, 363

	.type	image_table,%object
	.p2align	3
image_table:
	.asciz	"\003\000\000\000System.Runtime.Serialization\000A316576B-7669-47AF-94F1-82D5DDFB36A1\000\0007cec85d7bea7798e\000\001\000\000\000\002\000\000\000\000\000\000\000\005\000\000\000\000\000\000\000mscorlib\00033E0BEAA-3C4B-441F-9990-8656ABF84CD9\000\0007cec85d7bea7798e\000\000\000\000\000\001\000\000\000\002\000\000\000\000\000\000\000\005\000\000\000\000\000\000\000System.Xml\0007C3FE2CF-CF0A-4413-86F0-D9AC8EBCAFD0\000\0007cec85d7bea7798e\000\000\000\001\000\000\000\002\000\000\000\000\000\000\000\005\000\000\000\000\000\000"
	.size	image_table, 284

	.type	weak_field_indexes,%object
	.p2align	3
weak_field_indexes:
	.zero	4
	.size	weak_field_indexes, 4

	.type	blob,%object
	.p2align	3
blob:
	.asciz	"\000\000\000\000\000\000\000\000\000\000\000\000\000\000\004\001\031\000\000\004\001\032\004\001\033\000\000\000\000\000\000\000\000\000\000\000\000\000\000\000\004\001\033\000\000\004\t\"! \037\035\034\036\035\034\000\004\006&'&%$#\004\001(\000\000\000\000\000\013\000#%-13\037/6\t6\n6\0136\f6\r6\201\003\006]\006[\006Z\006\\\006e\006\200\274\006\201\t\006`\006\200\247\006\200\221\006\200\220\006\200\275\005\000\023\000\001\000\001\002\005\001\034\007}\005\000\023\001\001\000\001\002\005\001\034\007\200\212\002\007\200\205\007\200\222\004\001\002\200\230!\200\237\224\006\006\001\007\200\222\003\377\374\000\000\000\031\001\003\301\000\fI!\200\237\224\006\006\001\006\001\007\200\222\003\204\252\005\000\023\000\001\000\0015\005\001\034\007\200\312\005\000\023\001\001\000\0015\005\001\034\007\200\330\002\007\200\322\007\200\340\004\0015\200\346\003\377\375\000\000\000\007\200\355\000\202k\001\200\346\004\002\206\202\001\200\346\003\377\375\000\000\000\007\201\001\001\263\354\001\200\346\003\377\375\000\000\000\007\201\001\001\263\332\001\200\346!\200\355\224\006\007\201\001\003\377\374\000\000\000\031\002\003\377\375\000\000\000\007\201\001\001\263\307\001\200\346\003\377\375\000\000\000\007\200\355\000\202l\001\200\346\006A\005\000\023\000\001\000\001]\005\001\034\007\201V\005\000\023\001\001\000\001]\005\001\034\007\201d\002\007\201^\007\201l\004\001]\201r\004\002\206\231\001\201r\001\007\201~\004\002\206\221\001\201\205!\201y\212\f\377\375\000\000\000\007\201\211\001\264A\001\201\205!\201y\224\006\007\201~\004\001X\201r!\201y\224\006\007\201\253\003\377\375\000\000\000\007\201\253\000\205,\001\201r\003\377\375\000\000\000\007\201y\000\205\231\001\201r\005\000\023\000\001\000\001v\005\001\034\007\201\326\001\007\201\336\004\001v\201\344!\201\350\224\n\007\201\336\003\377\375\000\000\000\007\201\350\000\206\363\001\201\344!\201\350\224\034\007\201\336\003\377\374\000\000\000\020\t\003\301\000\b\250\003\207e\003\377\375\000\000\000\007\201\350\000\207\b\001\201\344\003\207b\003\301\000\b\273\003\301\000\b\247\006\200\236\005\000\036\000\001\377\377\377\377\377\211o\005\001\034\007\202;\001\007\202G\377\375\000\000\000\001\200\334\000\211o\002\202M!\202Q\224\007\006\001\007\202G\006\200\246\006\200\250!\202Q\224\013\007\202G\003\205\356\003\2132\003\211\"\006l\005\000\036\000\001\377\377\377\377\377\211p\005\001\034\007\202\202\001\007\202\216\377\375\000\000\000\001\200\334\000\211p\002\202\224!\202\230\224\007\006\001\007\202\216\005\000\036\000\001\377\377\377\377\377\211\316\005\001\034\007\202\260\001\007\202\274\377\375\000\000\000\001\200\341\000\211\316\002\202\302\004\002\206\211\001\202\302!\202\306\212\r\377\375\000\000\000\007\202\324\001\2640\001\202\302\003\211\317\005\000\036\000\001\377\377\377\377\377\211\322\005\001\034\007\202\361\001\007\202\375\377\375\000\000\000\001\200\341\000\211\322\002\203\003\004\002\200\342\001\203\003!\203\007\224\007\007\203\025\003\377\375\000\000\000\007\203\025\001\207W\001\203\003\005\000\036\000\001\377\377\377\377\377\211\324\005\001\034\007\2033\001\007\203?\377\375\000\000\000\001\200\341\000\211\324\002\203E\004\002\200\342\001\203E!\203I\224\007\007\203W\013\000#%-13\037/6\t6\n6\0136\f6\r6\201\003\006]\006[\006Z\006\\\006e\006\200\274\006\201\t\006`\006\200\247\006\200\221\006\200\220\005\301\0001\022\005\301\0001\024\016\001\200\202\203\267\017\000g\017\000\300\000W\361\017\000\300\000v|\017\000\300\000vr\017\000#\017\000k\017\000\300\000t\344\r\002\206\027\001\016\002\206\027\001\231\324\017\000\300\000~\374\017\000\206$\017\000\205\350\r\006\001\002\201\201\001\031\000\000\r\377\375\000\000\000\007\200\237\000\001\001\200\230\000\000\000\000\031\000\000\r\377\375\000\000\000\007\200\237\000\003\001\200\230\000\000\000\000\031\000\000\016\377\375\000\000\000\007\200\355\000\202i\001\200\346\000\000\000\000\031\000\000\016\377\375\000\000\000\007\200\355\000\202j\001\200\346\000\000\000\000\031\000\000\016\377\375\000\000\000\007\200\355\000\202k\001\200\346\000\000\000\000\031\000\000\016\377\375\000\000\000\007\200\355\000\202l\001\200\346\000\000\000\000\005\000\023\000\001\000\001X\005\001\034\007\204k\005\000\023\001\001\000\001X\005\001\034\007\204y\002\007\204s\007\204\201\004\001X\204\207\031\000\000\016\377\375\000\000\000\007\204\216\000\205,\001\204\207\000\000\000\000\031\000\000\016\377\375\000\000\000\007\204\216\000\205-\001\204\207\000\000\000\000\031\000\000\016\377\375\000\000\000\007\204\216\000\205.\001\204\207\000\000\000\000\031\000\000\016\377\375\000\000\000\007\204\216\000\205/\001\204\207\000\000\000\000\031\000\000\016\377\375\000\000\000\007\204\216\000\2050\001\204\207\000\000\000\000\031\000\000\016\377\375\000\000\000\007\201y\000\205\226\001\201r\000\000\000\000\031\000\000\016\377\375\000\000\000\007\201y\000\205\227\001\201r\000\000\000\000\031\000\000\016\377\375\000\000\000\007\201y\000\205\230\001\201r\000\000\000\000\031\000\000\016\377\375\000\000\000\007\201y\000\205\231\001\201r\000\000\000\000\031\000\000\016\377\375\000\000\000\007\201y\000\205\232\001\201r\000\000\000\000\031\000\000\016\377\375\000\000\000\007\201y\000\205\233\001\201r\000\000\000\000\031\000\000\016\377\375\000\000\000\007\201\350\000\206\363\001\201\344\000\000\000\000\031\000\000\016\377\375\000\000\000\007\201\350\000\206\364\001\201\344\000\000\000\000\031\000\000\016\377\375\000\000\000\007\201\350\000\206\365\001\201\344\000\000\000\000\031\000\000\016\377\375\000\000\000\007\201\350\000\206\366\001\201\344\000\000\000\000\031\000\000\016\377\375\000\000\000\007\201\350\000\206\367\001\201\344\000\000\000\000\031\000\000\016\377\375\000\000\000\007\201\350\000\206\370\001\201\344\000\000\000\000\031\000\000\016\377\375\000\000\000\007\201\350\000\206\371\001\201\344\000\000\000\000\031\000\000\016\377\375\000\000\000\007\201\350\000\206\372\001\201\344\000\000\000\000\031\000\000\016\377\375\000\000\000\007\201\350\000\206\373\001\201\344\000\000\000\000\031\000\000\016\377\375\000\000\000\007\201\350\000\206\374\001\201\344\000\000\000\000\031\000\000\016\377\375\000\000\000\007\201\350\000\206\375\001\201\344\000\000\000\000\031\000\000\016\377\375\000\000\000\007\201\350\000\206\376\001\201\344\000\000\000\000\031\000\000\016\377\375\000\000\000\007\201\350\000\206\377\001\201\344\000\000\000\000\031\000\000\016\377\375\000\000\000\007\201\350\000\207\000\001\201\344\000\000\000\000\031\000\000\016\377\375\000\000\000\007\201\350\000\207\001\001\201\344\000\000\000\000\031\000\000\016\377\375\000\000\000\007\201\350\000\207\002\001\201\344\000\000\000\000\031\000\000\016\377\375\000\000\000\007\201\350\000\207\003\001\201\344\000\000\000\000\031\000\000\016\377\375\000\000\000\007\201\350\000\207\004\001\201\344\000\000\000\000\031\000\000\016\377\375\000\000\000\007\201\350\000\207\005\001\201\344\000\000\000\000\031\000\000\016\377\375\000\000\000\007\201\350\000\207\006\001\201\344\000\000\000\000\031\000\000\016\377\375\000\000\000\007\201\350\000\207\007\001\201\344\000\000\000\000\031\000\000\016\377\375\000\000\000\007\201\350\000\207\b\001\201\344\000\000\000\000\031\000\000\007\377\377\000\000\000\202Q\000\000\000\000\031\000\000\007\377\377\000\000\000\202\230\000\000\000\000\031\000\000\007\377\377\000\000\000\202\306\000\000\000\000\005\000\036\000\001\377\377\377\377\377\211\321\005\001\034\007\207\226\001\007\207\242\031\000\000\016\377\375\000\000\000\001\200\341\000\211\321\002\207\250\000\000\000\000\031\000\000\007\377\377\000\000\000\203\007\000\000\000\000\031\000\000\007\377\377\000\000\000\203I\000\000\000\000\000\200\220\b\000\000\001\377\377\377\377\377\005\200\304\006\b\004\000\001\301\000\017\254\301\000\017\251\301\000\017\250\301\000\017\245\004\005\200\304\t\b\004\000\001\301\000\017\254\301\000\017\251\301\000\017\250\301\000\017\245\007\005\200\304\f\b\004\000\001\301\000\017\254\301\000\017\251\301\000\017\250\301\000\017\245\n\005\200\304\017\b\004\000\001\301\000\017\254\301\000\017\251\301\000\017\250\301\000\017\245\r\005\200\304\022\b\004\000\001\301\000\017\254\301\000\017\251\301\000\017\250\301\000\017\245\020\005\200\304\025\b\004\000\001\301\000\017\254\301\000\017\251\301\000\017\250\301\000\017\245\023\005\200\304\030\b\004\000\001\301\000\017\254\301\000\017\251\301\000\017\250\301\000\017\245\026\000\200\220\b\000\000\001\027\200\220\f\000\000\004\301\000\f\364\301\000\f\363\301\000\017\250\301\000\f\362\301\000\f\366\301\000\f\365\301\000\f\372\301\000\f\373\301\000\f\374\301\000\f\375\301\000\f\376\301\000\f\377\301\000\r\000\301\000\r\001\301\000\r\002\301\000\r\003\301\000\r\004\301\000\r\005\301\000\r\006\301\000\r\007\301\000\r\b\301\000\f\370\301\000\r\t\004\200\3442\030\b\000\00401\301\000\017\250/\004\200\354G\034\004\000\004:F\301\000\017\250E\027\200\220\f\000\000\004\301\000\f\364\301\000\f\363\301\000\017\250\301\000\f\362\301\000\f\366\301\000\f\365\301\000\f\372\301\000\f\373\301\000\f\374\301\000\f\375\301\000\f\376\301\000\f\377\301\000\r\000\301\000\r\001\301\000\r\002\301\000\r\003\301\000\r\004\301\000\r\005\301\000\r\006\301\000\r\007\301\000\r\b\301\000\f\370\301\000\r\t\004\200\344Y \004\000\bQT\301\000\017\250S\027\200\220\f\000\000\004\301\000\f\364\301\000\f\363\301\000\017\250\301\000\f\362\301\000\f\366\301\000\f\365\301\000\f\372\301\000\f\373\301\000\f\374\301\000\f\375\301\000\f\376\301\000\f\377\301\000\r\000\301\000\r\001\301\000\r\002\301\000\r\003\301\000\r\004\301\000\r\005\301\000\r\006\301\000\r\007\301\000\r\b\301\000\f\370\301\000\r\t\004\200\344\200\212\030\b\000\004m\301\000\017\251\301\000\017\250\301\000\017\245e\200\354\200\363x\024\000\004\301\000\017\254\301\000\017\251\301\000\017\250\301\000\017\245\302\000\003\310\302\000\003\343\302\000\003\342\302\000\003\341\302\000\003\330\302\000\003\312\302\000\003\311\200\313\200\312\200\321\200\320\200\275\200\316\200\244\200\330\200\327\200\347\302\000\003\275\200\263\200\301\200\350\200\323\200\250\200\252\000\200\322\200\274\200\277\200\276\200\271\200\273\200\272\200\256\200\260\200\257\200\247\200\317\203c\203b\203f\203d\203e\203g\203a\200\346\200\332\200\334\200\335\200\341\200\340\200\337\200\336\200\333\200\345\200\352\302\000\003\227\200\246\200\261\200\245\200\251\200\351\200\303\200\300\200\262\302\000\003\216\200\302\302\000\003\214\203x\203w\203v\203u\203t\203s\203r\203q\203p\203o\203n\203m\203l\203k\203j\203h\200\343\200\344\200\342\203Y\200\326\200\325\200\315\200\314\200\311\200\310\200\307\200\306\203K\200\217\027\200\220\f\000\000\004\301\000\f\364\301\000\f\363\301\000\017\250\301\000\f\362\301\000\f\366\301\000\f\365\301\000\f\372\301\000\f\373\301\000\f\374\301\000\f\375\301\000\f\376\301\000\f\377\301\000\r\000\301\000\r\001\301\000\r\002\301\000\r\003\301\000\r\004\301\000\r\005\301\000\r\006\301\000\r\007\301\000\r\b\301\000\f\370\301\000\r\t\004\200\250<\000\000\004\301\000\017\254\301\000\017\251\301\000\017\250\301\000\017\245\027\200\220\f\000\000\004\301\000\f\364\301\000\f\363\301\000\017\250\301\000\f\362\301\000\f\366\301\000\f\365\301\000\f\372\301\000\f\373\301\000\f\374\301\000\f\375\301\000\f\376\301\000\f\377\301\000\r\000\301\000\r\001\301\000\r\002\301\000\r\003\301\000\r\004\301\000\r\005\301\000\r\006\301\000\r\007\301\000\r\b\301\000\f\370\301\000\r\t\004\200\240D\000\000\004\301\000\017\254\301\000\017\251\301\000\017\250\301\000\017\245\004\200\240<\000\000\004\301\000\017\254\301\000\017\251\301\000\017\250\301\000\017\245\004\200\240<\000\000\004\301\000\017\254\301\000\017\251\301\000\017\250\301\000\017\245\004\200\240<\000\000\004\301\000\017\254\301\000\017\251\301\000\017\250\301\000\017\245\004\200\240<\000\000\004\301\000\017\254\301\000\017\251\301\000\017\250\301\000\017\245\004\200\240<\000\000\004\301\000\017\254\301\000\017\251\301\000\017\250\301\000\017\245\004\200\240<\000\000\004\301\000\017\254\301\000\017\251\301\000\017\250\301\000\017\245\004\200\240<\000\000\004\301\000\017\254\301\000\017\251\301\000\017\250\301\000\017\245\004\200\240<\000\000\004\301\000\017\254\301\000\017\251\301\000\017\250\301\000\017\245\004\200\240<\000\000\004\301\000\017\254\301\000\017\251\301\000\017\250\301\000\017\245\004\200\240<\000\000\004\301\000\017\254\301\000\017\251\301\000\017\250\301\000\017\245\004\200\240<\000\000\004\301\000\017\254\301\000\017\251\301\000\017\250\301\000\017\245\005\200\240\034\000\000\004\301\000\017\254\301\000\017\251\301\000\017\250\301\000\017\245\201%\004\200\354\2018,\b\000\004\301\000\017\254\301\000\017\251\301\000\017\250\301\000\017\245\004\200\240\024\000\000\004\301\000\017\254\301\000\017\251\301\000\017\250\301\000\017\245\004\200\240\034\000\000\004\301\000\017\254\301\000\017\251\301\000\017\250\301\000\017\245\b\200\240\030\000\000\004\301\000\017\254\301\000\017\251\301\000\017\250\301\000\017\245\201O\201N\201L\201KS\200\354\201\234L\b\000\004\301\000\017\254\301\000\017\251\301\000\017\250\301\000\017\245\302\000\b\365\302\000\t\017\302\000\t\016\302\000\t\r\302\000\t\f\302\000\t\013\302\000\t\n\302\000\t\t\302\000\t\b\302\000\t\007\302\000\t\006\302\000\t\005\302\000\t\004\302\000\t\003\302\000\t\000\302\000\b\377\302\000\b\376\302\000\b\375\302\000\b\374\302\000\b\373\302\000\b\372\302\000\b\366\201\214\201\213\201\216\201\217\201\220\201\221\201\215\201\212\201z\201W\201X\201x\201R\201S\201Y\201\223\201\222\201\206\201\207\201\205\201\211\201\203\201\202\201\210\201\201\201~\201`\201b\201_\201]\201a\201g\201e\201c\201\200\201}\201|\203\334\203\333\203\332\203\331\203\330\203\327\203\326\203\325\203\324\203\323\203\322\203\321\203\320\203\317\201{\201\204\201[\201Z\201^\201f\004\200\240\024\000\000\004\301\000\017\254\301\000\017\251\301\000\017\250\301\000\017\245\027\200\220\t\000\000\001\301\000\f\364\301\000\f\363\301\000\017\250\301\000\f\362\301\000\f\366\301\000\f\365\301\000\f\372\301\000\f\373\301\000\f\374\301\000\f\375\301\000\f\376\301\000\f\377\301\000\r\000\301\000\r\001\301\000\r\002\301\000\r\003\301\000\r\004\301\000\r\005\301\000\r\006\301\000\r\007\301\000\r\b\301\000\f\370\301\000\r\t\004\200\2504\000\000\004\301\000\017\254\301\000\017\251\301\000\017\250\301\000\017\245\004\200\240\024\000\000\004\301\000\017\254\301\000\017\251\301\000\017\250\301\000\017\245\004\200\240\034\000\000\004\301\000\017\254\301\000\017\251\301\000\017\250\301\000\017\245\027\200\220\f\000\000\004\301\000\f\364\301\000\f\363\301\000\017\250\301\000\f\362\301\000\f\366\301\000\f\365\301\000\f\372\301\000\f\373\301\000\f\374\301\000\f\375\301\000\f\376\301\000\f\377\301\000\r\000\301\000\r\001\301\000\r\002\301\000\r\003\301\000\r\004\301\000\r\005\301\000\r\006\301\000\r\007\301\000\r\b\301\000\f\370\301\000\r\tf\200\250\200\220\000\000\004\301\000\017\254\301\000\017\251\301\000\017\250\301\000\017\245\302\000\003\310\302\000\003\343\302\000\003\342\302\000\003\341\302\000\003\330\302\000\003\312\302\000\003\311\200\313\200\312\200\321\200\320\200\275\200\316\200\244\200\330\200\327\200\347\302\000\003\275\200\263\200\301\200\350\200\323\201\314\200\252\201\330\200\322\200\274\200\277\200\276\200\271\200\273\200\272\200\256\200\260\200\257\200\247\201\315\203c\201\317\201\323\201\321\201\322\201\324\201\316\200\346\200\332\200\334\200\335\200\341\200\340\200\337\200\336\200\333\200\345\200\352\302\000\003\227\200\246\200\261\200\245\200\251\200\351\200\303\200\300\200\262\302\000\003\216\200\302\302\000\003\214\202\f\202\013\202\t\202\b\202\006\202\005\202\003\202\002\202\000\201\377\201\375\201\374\201\372\201\371\201\364\203h\200\343\200\344\200\342\203Y\200\326\201\325\200\315\200\314\200\311\200\310\200\307\200\306\203K\200\217\201\312\027\200\220\f\000\000\004\301\000\f\364\301\000\f\363\301\000\017\250\301\000\f\362\301\000\f\366\301\000\f\365\301\000\f\372\301\000\f\373\301\000\f\374\301\000\f\375\301\000\f\376\301\000\f\377\301\000\r\000\301\000\r\001\301\000\r\002\301\000\r\003\301\000\r\004\301\000\r\005\301\000\r\006\301\000\r\007\301\000\r\b\301\000\f\370\301\000\r\t\006\200\240\020\000\000\004\301\000\017\254\301\000\017\251\301\000\017\250\301\000\017\245\202\r\202\016-\200\2508\000\000\004\301\000\017\254\301\000\017\251\301\000\017\250\301\000\017\245\202G\2020\202@\202A\202?\202>\202=\202<\202;\202.\202+\202-\202,\2024\2023\2021\2022\2029\2028\2027\2026\202:\202 \202\037\204\022\202\036\202\"\204\017\202!\204\r\202\034\202\033\202\032\204\t\202\030\202)\202(\202\027\202I\204h\202H\004\200\240\024\000\000\004\301\000\020I\301\000\020H\301\000\017\250\301\000\020FT\200\240P\000\000\004\301\000\017\254\301\000\017\251\301\000\017\250\301\000\017\245\302\000\b\365\302\000\t\017\302\000\t\016\302\000\t\r\302\000\t\f\302\000\t\013\302\000\t\n\302\000\t\t\302\000\t\b\302\000\t\007\302\000\t\006\302\000\t\005\302\000\t\004\302\000\t\003\302\000\t\000\302\000\b\377\302\000\b\376\302\000\b\375\302\000\b\374\302\000\b\373\302\000\b\372\302\000\b\366\201\214\201\213\201\216\201\217\201\220\201\221\201\215\201\212\201z\201W\201X\201x\201R\201S\201Y\201\223\201\222\201\206\201\207\201\205\201\211\201\203\201\202\201\210\201\201\201~\201`\201b\201_\201]\201a\201g\201e\201c\201\200\201}\201|\202c\202b\202a\202`\202_\202^\202]\202\\\202[\202Z\202Y\202X\202W\202V\201{\201\204\201[\201Z\201^\201f\202O\005\200\250\024\000\000\004\301\000\017\254\301\000\017\251\301\000\017\250\301\000\017\245\202e\377\377\377\377\377\377\377\377\377\377\004\200\240\f\000\000\004\301\000\017\254\301\000\017\251\301\000\017\250\301\000\017\245\004\200\344\202\311@\b\000\004\301\000\017\254\301\000\017\251\301\000\017\250\301\000\017\245\004\200\354\202\356t\b\000\004\301\000\017\254\301\000\017\251\301\000\017\250\301\000\017\245\005\200\240\f\000\000\004\301\000\017\254\301\000\017\251\301\000\017\250\301\000\017\245\202\361\004\200\220\020\000\000\004\301\000\020I\301\000\020H\301\000\017\250\301\000\020F\004\200\220\030\000\000\004\301\000\020I\301\000\020H\301\000\017\250\301\000\020F\004\200\220(\000\000\004\301\000\020I\301\000\020H\301\000\017\250\301\000\020F\004\200\200\034\000\000\004\301\000\020I\301\000\020H\301\000\017\250\301\000\020F\004\200\304\203;\b\020\000\001\301\000\017\254\301\000\017\251\301\000\017\250\301\000\017\245\t\200\240\024\000\000\004\301\000\017\254\301\000\017\251\301\000\017\250\301\000\017\245\203?\203@\203@\203?\203>\017\200\240@\000\000\004\301\000\017\254\301\000\017\237\301\000\017\250\301\000\017\236\301\000\017P\301\000\017\235\301\000\017\244\301\000\017\242\301\000\017\241\301\000\017\235\301\000\017\240\301\000\017P\203D\203C\203Be\200\210\b\000\000\001\301\000\017\254\301\000\017\251\301\000\017\250\301\000\017\245\302\000\003\310\302\000\003\343\302\000\003\342\302\000\003\341\302\000\003\330\302\000\003\312\302\000\003\311\302\000\003\307\302\000\003\306\302\000\003\305\302\000\003\304\302\000\003\303\302\000\003\302\302\000\003\301\302\000\003\300\302\000\003\277\000\302\000\003\275\000\000\302\000\003\272\000\302\000\003\270\000\000\000\000\000\000\302\000\003\261\000\000\000\000\000\000\203`\203c\203b\203f\203d\203e\203g\203a\203Z\203U\302\000\003\240\302\000\003\237\203[\203\\\302\000\003\234\302\000\003\233\302\000\003\232\302\000\003\231\302\000\003\230\302\000\003\227\302\000\003\226\000\000\000\000\000\000\000\302\000\003\216\000\302\000\003\214\203x\203w\203v\203u\203t\203s\203r\203q\203p\203o\203n\203m\203l\203k\203j\203h\203_\203^\203]\203Y\203S\203R\203Q\203P\203O\203N\203M\203L\203K\203Jh\200\240\020\000\000\004\301\000\017\254\301\000\017\251\301\000\017\250\301\000\017\245\302\000\003\310\302\000\003\343\302\000\003\342\302\000\003\341\302\000\003\330\302\000\003\312\302\000\003\311\203\206\302\000\003\306\203\226\302\000\003\304\302\000\003\303\203\234\203}\203\233\203\232\203\230\302\000\003\275\203\210\203\221\302\000\003\272\203\227\203~\203\200\203\224\203\225\203\214\203\216\203\215\203\211\203\213\203\212\203\201\203\203\203\202\203{\203`\203c\203b\203f\203d\203e\203g\203a\203\246\203\245\203\243\203\242\203\240\203\244\203\241\203\237\203\236\302\000\003\231\203\235\302\000\003\227\203\204\203\205\203|\203\177\203\231\203\223\203\220\203\207\203\217\203\222\302\000\003\214\203x\203w\203v\203u\203t\203s\203r\203q\203p\203o\203n\203m\203l\203k\203j\203h\203_\203^\203]\203Y\203S\203R\203Q\203P\203O\203N\203M\203L\203K\203J\203\247\203\250\203\251\027\200\220\f\000\000\004\301\000\f\364\301\000\f\363\301\000\017\250\301\000\f\362\301\000\f\366\301\000\f\365\301\000\f\372\301\000\f\373\301\000\f\374\301\000\f\375\301\000\f\376\301\000\f\377\301\000\r\000\301\000\r\001\301\000\r\002\301\000\r\003\301\000\r\004\301\000\r\005\301\000\r\006\301\000\r\007\301\000\r\b\301\000\f\370\301\000\r\t\004\200\304\203\265$\b\000\004\301\000\017\254\301\000\017\251\301\000\017\250\301\000\017\245\004\200\354\203\276\030\004\000\004\203\275\301\000\017\251\301\000\017\250\301\000\017\245\006\200\240\f\000\000\004\301\000\017\254\301\000\017\251\301\000\017\250\301\000\017\245\203\301\203\302S\200\230\b\000\000\001\301\000\017\254\301\000\017\251\301\000\017\250\301\000\017\245\302\000\b\365\302\000\t\017\302\000\t\016\302\000\t\r\302\000\t\f\302\000\t\013\302\000\t\n\302\000\t\t\302\000\t\b\302\000\t\007\302\000\t\006\302\000\t\005\302\000\t\004\302\000\t\003\302\000\t\000\302\000\b\377\302\000\b\376\302\000\b\375\302\000\b\374\302\000\b\373\302\000\b\372\302\000\b\366\302\000\b\362\302\000\b\361\302\000\b\360\302\000\b\357\302\000\b\356\302\000\b\355\302\000\b\354\302\000\b\353\302\000\b\352\302\000\b\351\302\000\b\350\000\000\302\000\b\345\000\302\000\b\343\000\000\000\000\000\000\000\000\000\000\000\000\000\000\000\000\000\000\000\000\000\203\334\203\333\203\332\203\331\203\330\203\327\203\326\203\325\203\324\203\323\203\322\203\321\203\320\203\317\203\315\203\314\203\313\203\312\203\311\203\310S\200\240\024\000\000\004\301\000\017\254\301\000\017\251\301\000\017\250\301\000\017\245\302\000\b\365\302\000\t\017\302\000\t\016\302\000\t\r\302\000\t\f\302\000\t\013\302\000\t\n\302\000\t\t\302\000\t\b\302\000\t\007\302\000\t\006\302\000\t\005\302\000\t\004\302\000\t\003\302\000\t\000\302\000\b\377\302\000\b\376\302\000\b\375\302\000\b\374\302\000\b\373\302\000\b\372\302\000\b\366\203\377\203\376\302\000\b\360\302\000\b\357\203\375\203\374\203\373\203\372\203\357\204\001\204\002\203\341\203\340\203\337\203\366\203\343\203\342\203\361\203\360\203\346\203\370\203\367\203\371\203\345\203\354\203\356\203\347\203\344\203\351\203\362\203\355\203\353\203\365\203\350\203\352\203\364\203\363\203\334\203\333\203\332\203\331\203\330\203\327\203\326\203\325\203\324\203\323\203\322\203\321\203\320\203\317\203\315\203\314\203\313\204\000\203\311\203\310,\200\220\b\000\000\001\301\000\017\254\301\000\017\251\301\000\017\250\301\000\017\245\000\000\000\000\000\000\000\000\000\000\000\000\000\000\000\000\000\000\000\000\000\000\000\000\204\022\000\000\204\017\000\204\r\000\000\000\204\t\000\000\000\000\000\000,\200\240\034\000\000\004\301\000\017\254\301\000\017\251\301\000\017\250\301\000\017\245\204P\204N\204M\204L\204K\204J\204I\204H\204G\204F\204E\204D\204C\204A\204@\204B\204?\204>\204<\204=\204;\204:\2049\2048\204\022\2047\2046\204\017\2045\204\r\2044\2043\2042\204\t\2041\2040\204/\204.\204-\204,-\200\344\204j\034\004\000\004\301\000\017\254\301\000\017\251\301\000\017\250\301\000\017\245\000\000\000\000\000\000\000\000\000\000\000\000\000\000\000\000\000\000\000\000\000\000\000\000\204\022\000\000\204\017\000\204\r\000\000\000\204\t\000\000\000\000\204i\204h\204g-\200\344\204\2364\030\000\004\301\000\017\254\301\000\017\251\301\000\017\250\301\000\017\245\204\235\204\232\204\231\204\234\204\225\204\224\204\221\204\222\204\223\204\230\204\220\204\227\204\226\204\204\204\205\204\207\204\206\204\202\204\200\204~\204\177\204\216\204{\204z\204\022\204y\204x\204\017\204w\204\r\204u\204t\204s\204\t\204r\204n\204q\204m\204i\204h\204g\004\200\220\b\000\000\001\301\000\017\254\301\000\017\251\301\000\017\250\301\000\017\245)\200\344\204\311\034\f\000\004\301\000\017\254\301\000\026\371\301\000\017\250\301\000\026\370\301\000\026\320\301\000\027\000\301\000\026\373\301\000\026\372\301\000\026\362\301\000\026\361\204\304\204\276\301\000\026\356\301\000\026\352\301\000\026\351\301\000\026\347\301\000\026\345\301\000\026\344\204\306\301\000\026\342\301\000\026\341\301\000\026\340\204\305\301\000\026\336\301\000\026\335\301\000\026\334\301\000\026\333\204\302\301\000\026\331\301\000\026\330\301\000\026\327\301\000\026\326\204\301\301\000\026\324\301\000\026\320\301\000\026\313\301\000\026\312\301\000\026\310\301\000\026\307\301\000\026\272\204\303(\200\344\204\321\034\b\000\004\301\000\017\254\301\000\026\371\301\000\017\250\301\000\026\370\301\000\026\320\301\000\027\000\301\000\026\373\301\000\026\372\301\000\026\362\301\000\026\361\204\315\204\312\301\000\026\356\301\000\026\352\301\000\026\351\301\000\026\347\301\000\026\345\301\000\026\344\204\317\301\000\026\342\301\000\026\341\301\000\026\340\204\316\301\000\026\336\301\000\026\335\301\000\026\334\301\000\026\333\204\314\301\000\026\331\301\000\026\330\301\000\026\327\301\000\026\326\204\313\301\000\026\324\301\000\026\320\301\000\026\313\301\000\026\312\301\000\026\310\301\000\026\307\301\000\026\272\004\200\200\f\000\000\002\301\000\020I\301\000\020H\301\000\017\250\301\000\020F\004\200\344\204\327<\b\000\004\301\000\017\254\301\000\017\251\301\000\017\250\301\000\017\245\024\200\250(\000\000\004\301\000\017\254\205\000\301\000\017\250\206\000\204\376\205\317\205\316\205\315\205\314\205\313\205\312\205\311\205\310\205\307\205\306\204\355\204\354\204\375\204\374\205\274\013\200\350h\004\000\004\301\000\017\254\301\000\017\251\301\000\017\250\301\000\017\245\2060\206/\206.\206-\205\030\205\025\206\036\004\200\240\024\000\000\004\301\000\020I\301\000\020H\301\000\017\250\301\000\020F\005\200\304\205(\b\004\000\001\301\000\017\254\301\000\017\251\301\000\017\250\301\000\017\245\205&\005\200\304\205+\b\004\000\001\301\000\017\254\301\000\017\251\301\000\017\250\301\000\017\245\205)\377\377\377\377\377\027\200\220\t\000\000\001\301\000\f\364\301\000\f\363\301\000\017\250\301\000\f\362\301\000\f\366\301\000\f\365\301\000\f\372\301\000\f\373\301\000\f\374\301\000\f\375\301\000\f\376\301\000\f\377\301\000\r\000\301\000\r\001\301\000\r\002\301\000\r\003\301\000\r\004\301\000\r\005\301\000\r\006\301\000\r\007\301\000\r\b\301\000\f\370\301\000\r\t\024\200\250$\000\000\004\301\000\017\254\205h\301\000\017\250\206\000\205g\205f\205d\205b\205\314\205\313\205\312\205\311\205\310\205\307\205\306\205\304\205H\205j\205i\205\274\013\200\340t\004\000\004\301\000\017\254\301\000\017\251\301\000\017\250\301\000\017\245\2060\206/\206.\206-\206(\205\210\206\036\t\200\240\f\000\000\004\301\000\017\254\301\000\017\251\301\000\017\250\301\000\017\245\205\223\205\221\205\222\205\224\205\225\377\377\377\377\377\004\200\240$\000\000\004\301\000\017\254\301\000\f\243\301\000\017\250\301\000\f\241\004\200\240\020\000\000\004\301\000\017\254\301\000\f\243\301\000\017\250\301\000\f\241\024\200\250\024\000\000\004\301\000\017\254\206\003\301\000\017\250\206\000\206\001\205\317\205\316\205\315\205\314\205\313\205\312\205\311\205\310\205\307\205\306\205\304\205\303\205\277\205\276\205\274\013\200\344\206\004$<\000\004\301\000\017\254\301\000\017\251\301\000\017\250\301\000\017\245\2060\206/\206.\206-\206(\206'\206\036\000\200\220\b\000\000\001\n\200\240\024\000\000\004\301\000\017\254\301\000\017\251\301\000\017\250\301\000\017\245\206<\206=\206>\206?\206@\206A\004\200\240\020\000\000\004\301\000\017\254\206E\301\000\017\250\206D\006\200\220\b\000\000\001\301\000\017\254\301\000\017\251\301\000\017\250\301\000\017\245\206F\206G\004\200\200\f\000\000\004\301\000\017\254\301\000\017\251\301\000\017\250\301\000\017\245\004\200\200\f\000\000\004\301\000\017\254\301\000\017\251\301\000\017\250\301\000\017\245\004\200\240\024\000\000\004\301\000\017\254\301\000\f\243\301\000\017\250\301\000\f\241\006\200\220\b\000\000\001\301\000\017\254\301\000\017\251\301\000\017\250\301\000\017\245\000\000\031\200\2404\000\000\004\301\000\017\254\301\000\017\251\301\000\017\250\301\000\017\245\206{\206z\206y\206x\206w\206q\206p\211\024\206v\206s\206r\206i\206h\206`\211\004\206l\206k\206j\206o\206n\206m\004\200\250\f\000\000\004\301\000\017\254\206\223\301\000\017\250\301\000\017\245\004\200\240$\000\000\004\301\000\017\254\301\000\017\251\301\000\017\250\301\000\017\245\004\200\240\030\000\000\004\301\000\017\254\301\000\f\243\301\000\017\250\301\000\f\241\004\200\200\030\000\000\b\301\000\020I\301\000\020H\301\000\017\250\301\000\020F\004\200\304\206\270\b\200\364\000\001\301\000\017\254\301\000\017\251\301\000\017\250\301\000\017\245\024\200\250\030\000\000\004\301\000\017\254\206\304\301\000\017\250\206\000\206\303\205\317\205\316\205\315\205\314\205\313\206\277\205\311\205\310\205\307\205\306\205\304\205\303\206\306\206\305\205\274\013\200\344\206\3078\b\000\004\301\000\017\254\301\000\017\251\301\000\017\250\301\000\017\245\2060\206/\206.\206-\206(\206'\206\036\004\200\240\020\000\000\004\301\000\017\254\301\000\f\243\301\000\017\250\301\000\f\241\004\200\240\f\000\000\004\301\000\017\254\301\000\017\251\301\000\017\250\301\000\017\245\004\200\240\030\000\000\004\301\000\017\254\301\000\017\251\301\000\017\250\301\000\017\245\000\200\220\b\000\000\001\377\377\377\377\377\377\377\377\377\377\377\377\377\377\377\377\377\377\377\377\377\377\377\377\377\004\200\240\020\000\000\004\301\000\017\254\301\000\017\251\301\000\017\250\301\000\017\245G\200\354\207.L\b\000\004\301\000\017\254\301\000\017\251\301\000\017\250\301\000\017\245\302\000\003\310\302\000\003\343\302\000\003\342\302\000\003\341\302\000\003\330\302\000\003\312\302\000\003\311\302\000\003\307\302\000\003\306\302\000\003\305\302\000\003\304\302\000\003\303\302\000\003\302\302\000\003\301\302\000\003\300\302\000\003\277\207R\302\000\003\275\207G\207N\207H\207=\207J\207<\207K\207S\207E\207A\207@\207B\207D\207Q\207P\207C\207O\207;\302\000\003\252\302\000\003\251\302\000\003\250\302\000\003\247\302\000\003\246\302\000\003\245\302\000\003\244\302\000\003\243\302\000\003\242\302\000\003\241\302\000\003\240\302\000\003\237\302\000\003\236\302\000\003\235\302\000\003\234\302\000\003\233\302\000\003\232\302\000\003\231\302\000\003\230\302\000\003\227\207?\207>\207M\207:\2079\2078\2077\2076\207L\2075\302\000\003\214\027\200\220\f\000\000\004\301\000\f\364\301\000\f\363\301\000\017\250\301\000\f\362\301\000\f\366\301\000\f\365\301\000\f\372\301\000\f\373\301\000\f\374\301\000\f\375\301\000\f\376\301\000\f\377\301\000\r\000\301\000\r\001\301\000\r\002\301\000\r\003\301\000\r\004\301\000\r\005\301\000\r\006\301\000\r\007\301\000\r\b\301\000\f\370\301\000\r\t\004\200\240\030\000\000\004\301\000\017\254\301\000\017\251\301\000\017\250\301\000\017\245\004\200\240$\000\000\004\301\000\017\254\301\000\017\251\301\000\017\250\301\000\017\245\024\200\250\030\000\000\004\301\000\017\254\206\003\301\000\017\250\206\000\206\001\205\317\205\316\205\315\205\314\205\313\205\312\205\311\205\310\205\307\205\306\205\304\205\303\205\277\205\276\207i\013\200\240(\000\000\004\301\000\017\254\301\000\017\251\301\000\017\250\301\000\017\245\2060\206/\206.\206-\206(\206'\206\036\004\200\304\207\254\b\201\b\000\001\301\000\017\254\301\000\017\251\301\000\017\250\301\000\017\245\004\200\240\020\000\000\004\301\000\017\254\301\000\017\251\301\000\017\250\301\000\017\245\000\200\220\b\000\000\001\004\200\220\b\000\000\001\301\000\017\254\301\000\017\251\301\000\017\250\301\000\017\245\000\200\220\b\000\000\001\004\200\220\b\000\000\001\301\000\017\254\301\000\f\243\301\000\017\250\301\000\f\241\f\200\240H\000\000\004\301\000\r+\301\000\017\251\301\000\017\250\301\000\017\245\301\000\r-\301\000\r-\301\000\r*\301\000\r)\301\000\r(\301\000\r%\301\000\r\"\301\000\r!\004\200\240\020\000\000\004\301\000\017\254\301\000\f\243\301\000\017\250\301\000\f\241\006\200\240\f\000\000\004\301\000\017\254\301\000\017\251\301\000\017\250\301\000\017\245\207\301\207\300\034\200\344\207\326$\006\000\004\301\000\017\254\301\000\017\251\301\000\017\250\301\000\017\245\211'\211&\211\031\211\030\211\027\207\320\211\025\211\024\211\f\211\013\211\n\211\t\211\b\211\007\211\004\211\003\211\002\211\001\207\317\207\312\207\311\207\305\207\304\207\303\004\200\240\030\000\000\004\301\000\020I\301\000\020H\301\000\017\250\301\000\020F\004\200\344\207\345\030\004\000\004\301\000\017\254\301\000\017\251\301\000\017\250\301\000\017\245\026\200\250\030\000\000\004\301\000\017\254\206\003\301\000\017\250\206\000\207\365\205\317\205\316\205\315\205\314\207\355\207\354\207\353\205\310\205\307\205\306\205\304\205\303\205\277\207\362\207\356\000\000\013\200\2400\000\000\004\301\000\017\254\301\000\017\251\301\000\017\250\301\000\017\245\2060\206/\206.\206-\206(\206'\206\036\026\200\240\030\000\000\004\301\000\017\254\206\003\301\000\017\250\206\000\207\365\205\317\205\316\205\315\205\314\207\355\207\354\207\353\205\310\205\307\205\306\205\304\205\303\210\002\210\001\207\356\210\000\207\377\026\200\240\030\000\000\004\301\000\017\254\206\003\301\000\017\250\206\000\207\365\205\317\205\316\205\315\205\314\207\355\207\354\207\353\205\310\205\307\205\306\205\304\205\303\210\002\210\001\207\356\210\000\207\377\026\200\240\030\000\000\004\301\000\017\254\206\003\301\000\017\250\206\000\207\365\205\317\205\316\205\315\205\314\207\355\207\354\207\353\205\310\205\307\205\306\205\304\205\303\210\b\210\007\207\356\210\006\210\005\026\200\240\030\000\000\004\301\000\017\254\206\003\301\000\017\250\206\000\207\365\205\317\205\316\205\315\205\314\207\355\207\354\207\353\205\310\205\307\205\306\205\304\205\303\210\r\210\f\207\356\210\013\210\n\026\200\240\030\000\000\004\301\000\017\254\206\003\301\000\017\250\206\000\207\365\205\317\205\316\205\315\205\314\207\355\207\354\207\353\205\310\205\307\205\306\205\304\205\303\210\022\210\021\207\356\210\020\210\017\026\200\240\030\000\000\004\301\000\017\254\206\003\301\000\017\250\206\000\207\365\205\317\205\316\205\315\205\314\207\355\207\354\207\353\205\310\205\307\205\306\205\304\205\303\210\027\210\026\207\356\210\025\210\024\026\200\240\030\000\000\004\301\000\017\254\206\003\301\000\017\250\206\000\207\365\205\317\205\316\205\315\205\314\207\355\207\354\207\353\205\310\205\307\205\306\205\304\205\303\210\034\210\033\207\356\210\032\210\031\026\200\240\030\000\000\004\301\000\017\254\206\003\301\000\017\250\206\000\207\365\205\317\205\316\205\315\205\314\207\355\207\354\207\353\205\310\205\307\205\306\205\304\205\303\210!\210 \207\356\210\037\210\036\026\200\240\030\000\000\004\301\000\017\254\206\003\301\000\017\250\206\000\207\365\205\317\205\316\205\315\205\314\207\355\207\354\207\353\205\310\205\307\205\306\205\304\205\303\210&\210%\207\356\210$\210#\026\200\240\030\000\000\004\301\000\017\254\206\003\301\000\017\250\206\000\207\365\205\317\205\316\205\315\205\314\207\355\207\354\207\353\205\310\205\307\205\306\205\304\205\303\210,\210+\207\356\210*\210)\026\200\240\030\000\000\004\301\000\017\254\206\003\301\000\017\250\206\000\207\365\205\317\205\316\205\315\205\314\207\355\207\354\207\353\205\310\205\307\205\306\205\304\205\303\210,\210+\207\356\210*\210)\026\200\240\030\000\000\004\301\000\017\254\206\003\301\000\017\250\206\000\207\365\205\317\205\316\205\315\205\314\207\355\207\354\207\353\205\310\205\307\205\306\205\304\205\303\210,\210+\207\356\210*\210)\026\200\240\030\000\000\004\301\000\017\254\206\003\301\000\017\250\206\000\207\365\205\317\205\316\205\315\205\314\207\355\207\354\207\353\205\310\205\307\205\306\205\304\205\303\210,\210+\207\356\210*\210)\026\200\240\030\000\000\004\301\000\017\254\206\003\301\000\017\250\206\000\207\365\205\317\205\316\205\315\205\314\207\355\207\354\207\353\205\310\205\307\205\306\205\304\205\303\210,\210+\207\356\210*\210)\026\200\240\030\000\000\004\301\000\017\254\206\003\301\000\017\250\206\000\207\365\205\317\205\316\205\315\205\314\207\355\207\354\207\353\205\310\205\307\205\306\205\304\205\303\210,\210+\207\356\210*\210)\026\200\240\030\000\000\004\301\000\017\254\206\003\301\000\017\250\206\000\207\365\205\317\205\316\205\315\205\314\207\355\207\354\207\353\205\310\205\307\205\306\205\304\205\303\2106\2105\207\356\2104\2103\026\200\240\030\000\000\004\301\000\017\254\206\003\301\000\017\250\206\000\207\365\205\317\205\316\205\315\205\314\207\355\207\354\207\353\205\310\205\307\205\306\205\304\205\303\210;\210:\207\356\2109\2108\026\200\240\030\000\000\004\301\000\017\254\206\003\301\000\017\250\206\000\207\365\205\317\205\316\205\315\205\314\207\355\207\354\207\353\205\310\205\307\205\306\205\304\205\303\210@\210?\207\356\210>\210=\026\200\240\030\000\000\004\301\000\017\254\206\003\301\000\017\250\206\000\207\365\205\317\205\316\205\315\205\314\207\355\207\354\207\353\205\310\205\307\205\306\205\304\205\303\210E\210D\207\356\210C\210B\026\200\240\030\000\000\004\301\000\017\254\206\003\301\000\017\250\206\000\207\365\205\317\205\316\205\315\205\314\207\355\207\354\207\353\205\310\205\307\205\306\205\304\205\303\210J\210I\207\356\210H\210G\026\200\240\030\000\000\004\301\000\017\254\206\003\301\000\017\250\206\000\207\365\205\317\205\316\205\315\205\314\207\355\207\354\207\353\205\310\205\307\205\306\205\304\205\303\210P\210O\207\356\210N\210M\026\200\240\030\000\000\004\301\000\017\254\206\003\301\000\017\250\206\000\207\365\205\317\205\316\205\315\205\314\207\355\207\354\207\353\205\310\205\307\205\306\205\304\205\303\210P\210O\207\356\210N\210M\026\200\240\030\000\000\004\301\000\017\254\206\003\301\000\017\250\206\000\207\365\205\317\205\316\205\315\205\314\207\355\207\354\207\353\205\310\205\307\205\306\205\304\205\303\210P\210O\207\356\210N\210M\026\200\240\030\000\000\004\301\000\017\254\206\003\301\000\017\250\206\000\207\365\205\317\205\316\205\315\205\314\207\355\207\354\207\353\205\310\205\307\205\306\205\304\205\303\210P\210O\207\356\210N\210M\026\200\240\030\000\000\004\301\000\017\254\206\003\301\000\017\250\206\000\207\365\205\317\205\316\205\315\205\314\207\355\207\354\207\353\205\310\205\307\205\306\205\304\205\303\210P\210O\207\356\210N\210M\026\200\240\030\000\000\004\301\000\017\254\206\003\301\000\017\250\206\000\207\365\205\317\205\316\205\315\205\314\207\355\207\354\207\353\205\310\205\307\205\306\205\304\205\303\210P\210O\207\356\210N\210M\026\200\240\030\000\000\004\301\000\017\254\206\003\301\000\017\250\206\000\207\365\205\317\205\316\205\315\205\314\207\355\207\354\207\353\205\310\205\307\205\306\205\304\205\303\210P\210O\207\356\210N\210M\026\200\240\030\000\000\004\301\000\017\254\206\003\301\000\017\250\206\000\207\365\205\317\205\316\205\315\205\314\207\355\207\354\207\353\205\310\205\307\205\306\205\304\205\303\210P\210O\207\356\210N\210M\026\200\240\030\000\000\004\301\000\017\254\206\003\301\000\017\250\206\000\207\365\205\317\205\316\205\315\205\314\207\355\207\354\207\353\205\310\205\307\205\306\205\304\205\303\210P\210O\207\356\210N\210M\026\200\240\030\000\000\004\301\000\017\254\206\003\301\000\017\250\206\000\207\365\205\317\205\316\205\315\205\314\207\355\207\354\207\353\205\310\205\307\205\306\205\304\205\303\210P\210O\207\356\210N\210M\026\200\240\030\000\000\004\301\000\017\254\206\003\301\000\017\250\206\000\207\365\205\317\205\316\205\315\205\314\207\355\207\354\207\353\205\310\205\307\205\306\205\304\205\303\210P\210O\207\356\210N\210M\026\200\240\030\000\000\004\301\000\017\254\206\003\301\000\017\250\206\000\207\365\205\317\205\316\205\315\205\314\207\355\207\354\207\353\205\310\205\307\205\306\205\304\205\303\210P\210O\207\356\210N\210M\026\200\240\030\000\000\004\301\000\017\254\206\003\301\000\017\250\206\000\207\365\205\317\205\316\205\315\205\314\207\355\207\354\207\353\205\310\205\307\205\306\205\304\205\303\210P\210O\207\356\210N\210M\026\200\240\030\000\000\004\301\000\017\254\206\003\301\000\017\250\206\000\207\365\205\317\205\316\205\315\205\314\207\355\207\354\207\353\205\310\205\307\205\306\205\304\205\303\210P\210O\207\356\210N\210M\026\200\240\030\000\000\004\301\000\017\254\206\003\301\000\017\250\206\000\207\365\205\317\205\316\205\315\205\314\207\355\207\354\207\353\205\310\205\307\205\306\205\304\205\303\210P\210O\207\356\210N\210M\026\200\240\030\000\000\004\301\000\017\254\206\003\301\000\017\250\206\000\207\365\205\317\205\316\205\315\205\314\207\355\207\354\207\353\205\310\205\307\205\306\205\304\205\303\210P\210O\207\356\210N\210M\026\200\240\030\000\000\004\301\000\017\254\206\003\301\000\017\250\206\000\207\365\205\317\205\316\205\315\205\314\207\355\207\354\207\353\205\310\205\307\205\306\205\304\205\303\210P\210O\207\356\210N\210M\026\200\240\030\000\000\004\301\000\017\254\206\003\301\000\017\250\206\000\207\365\205\317\205\316\205\315\205\314\207\355\207\354\207\353\205\310\205\307\205\306\205\304\205\303\210P\210O\207\356\210N\210M\026\200\240\030\000\000\004\301\000\017\254\206\003\301\000\017\250\206\000\207\365\205\317\205\316\205\315\205\314\207\355\207\354\207\353\205\310\205\307\205\306\205\304\205\303\210P\210O\207\356\210N\210M\026\200\240\030\000\000\004\301\000\017\254\206\003\301\000\017\250\206\000\207\365\205\317\205\316\205\315\205\314\207\355\207\354\207\353\205\310\205\307\205\306\205\304\205\303\210P\210O\207\356\210N\210M\026\200\240\030\000\000\004\301\000\017\254\206\003\301\000\017\250\206\000\207\365\205\317\205\316\205\315\205\314\207\355\207\354\207\353\205\310\205\307\205\306\205\304\205\303\210h\210g\207\356\210f\210e\026\200\240\030\000\000\004\301\000\017\254\206\003\301\000\017\250\206\000\207\365\205\317\205\316\205\315\205\314\210o\210n\207\353\205\310\205\307\205\306\205\304\205\303\210m\210l\207\356\210k\210j\026\200\240\030\000\000\004\301\000\017\254\206\003\301\000\017\250\206\000\207\365\205\317\205\316\205\315\205\314\207\355\207\354\207\353\205\310\205\307\205\306\205\304\205\303\210u\210t\207\356\210s\210r\026\200\240\030\000\000\004\301\000\017\254\206\003\301\000\017\250\206\000\207\365\205\317\205\316\205\315\205\314\207\355\207\354\207\353\205\310\205\307\205\306\205\304\205\303\210u\210t\207\356\210s\210r\026\200\240\030\000\000\004\301\000\017\254\206\003\301\000\017\250\206\000\207\365\205\317\205\316\205\315\205\314\207\355\207\354\207\353\205\310\205\307\205\306\205\304\205\303\210|\210{\207\356\210z\210y\026\200\240\030\000\000\004\301\000\017\254\206\003\301\000\017\250\206\000\207\365\205\317\205\316\205\315\205\314\207\355\207\354\207\353\205\310\205\307\205\306\205\304\205\303\210|\210{\207\356\210z\210y\026\200\240\030\000\000\004\301\000\017\254\206\003\301\000\017\250\206\000\207\365\205\317\205\316\205\315\205\314\207\355\207\354\207\353\205\310\205\307\205\306\205\304\205\303\210\202\210\201\207\356\210\200\210\177\026\200\240\030\000\000\004\301\000\017\254\206\003\301\000\017\250\206\000\207\365\205\317\205\316\205\315\210\211\210\206\207\354\207\353\205\310\205\307\205\306\205\304\205\303\210\210\210\207\207\356\210\205\210\204\004\200\300\b\004\000\001\301\000\017\254\301\000\017\251\301\000\017\250\301\000\017\245\004\200\240\020\000\000\004\301\000\020I\301\000\020H\301\000\017\250\301\000\020F\027\200\220\f\000\000\004\301\000\f\364\301\000\f\363\301\000\017\250\301\000\f\362\301\000\f\366\301\000\f\365\301\000\f\372\301\000\f\373\301\000\f\374\301\000\f\375\301\000\f\376\301\000\f\377\301\000\r\000\301\000\r\001\301\000\r\002\301\000\r\003\301\000\r\004\301\000\r\005\301\000\r\006\301\000\r\007\301\000\r\b\301\000\f\370\301\000\r\t\024\200\250\030\000\000\004\301\000\017\254\206\003\301\000\017\250\206\000\206\001\205\317\205\316\205\315\205\314\205\313\205\312\205\311\205\310\205\307\205\306\205\304\205\303\205\277\205\276\210\226\013\200\240$\000\000\004\301\000\017\254\301\000\017\251\301\000\017\250\301\000\017\245\2060\206/\206.\206-\206(\206'\206\036\024\200\250\030\000\000\004\301\000\017\254\206\003\301\000\017\250\206\000\206\001\205\317\205\316\205\315\205\314\205\313\205\312\205\311\205\310\205\307\205\306\205\304\205\303\210\237\210\232\205\274\013\200\240(\000\000\004\301\000\017\254\301\000\017\251\301\000\017\250\301\000\017\245\2060\206/\206.\206-\206(\206'\206\036\004\200\240\024\000\000\004\301\000\017\254\301\000\017\251\301\000\017\250\301\000\017\245\017\200\240@\000\000\004\301\000\017\254\301\000\017\237\301\000\017\250\301\000\017\236\301\000\017P\301\000\017\235\301\000\017\244\301\000\017\242\301\000\017\241\301\000\017\235\301\000\017\240\301\000\017P\210\250\210\247\210\246\024\200\250\030\000\000\004\301\000\017\254\210\263\301\000\017\250\206\000\210\262\205\317\205\316\205\315\205\314\205\313\210\260\210\256\210\255\210\254\205\306\205\304\210\252\210\265\210\264\210\261\013\200\240<\000\000\004\301\000\017\254\301\000\017\251\301\000\017\250\301\000\017\245\210\277\210\276\210\275\210\274\206(\210\271\206\036\004\200\300\b<\000\001\301\000\017\254\301\000\017\251\301\000\017\250\301\000\017\245\017\200\240@\000\000\004\301\000\017\254\301\000\017\237\301\000\017\250\301\000\017\236\301\000\017P\301\000\017\235\301\000\017\244\301\000\017\242\301\000\017\241\301\000\017\235\301\000\017\240\301\000\017P\210\324\210\323\210\322\017\200\240@\000\000\004\301\000\017\254\301\000\017\237\301\000\017\250\301\000\017\236\301\000\017P\301\000\017\235\301\000\017\244\301\000\017\242\301\000\017\241\301\000\017\235\301\000\017\240\301\000\017P\210\330\210\327\210\326\017\200\240@\000\000\004\301\000\017\254\301\000\017\237\301\000\017\250\301\000\017\236\301\000\017P\301\000\017\235\301\000\017\244\301\000\017\242\301\000\017\241\301\000\017\235\301\000\017\240\301\000\017P\210\334\210\333\210\332\004\200\250\f\000\000\004\301\000\017\254\301\000\017\251\301\000\017\250\301\000\017\245\004\200\230\b\000\000\001\301\000\017\254\301\000\017\251\301\000\017\250\301\000\017\245\004\200\240\f\000\000\004\301\000\017\254\301\000\017\251\301\000\017\250\301\000\017\245\004\200\240\f\000\000\004\301\000\017\254\301\000\017\251\301\000\017\250\301\000\017\245\004\200\240\f\000\000\004\301\000\017\254\301\000\017\251\301\000\017\250\301\000\017\245\017\200\240@\000\000\004\301\000\017\254\301\000\017\237\301\000\017\250\301\000\017\236\301\000\017P\301\000\017\235\301\000\017\244\301\000\017\242\301\000\017\241\301\000\017\235\301\000\017\240\301\000\017P\210\357\210\356\210\355\017\200\240@\000\000\004\301\000\017\254\301\000\017\237\301\000\017\250\301\000\017\236\301\000\017P\301\000\017\235\301\000\017\244\301\000\017\242\301\000\017\241\301\000\017\235\301\000\017\240\301\000\017P\210\363\210\362\210\361\004\200\250\f\000\000\004\301\000\017\254\301\000\017\251\301\000\017\250\301\000\017\245\004\200\230\b\000\000\001\301\000\017\254\301\000\017\251\301\000\017\250\301\000\017\245\004\200\240\f\000\000\004\301\000\017\254\301\000\017\251\301\000\017\250\301\000\017\245\004\200\240\f\000\000\004\301\000\017\254\301\000\017\251\301\000\017\250\301\000\017\245\031\200\300\b\004\000\001\301\000\017\254\301\000\017\251\301\000\017\250\301\000\017\245\211'\211&\211\031\211\030\211\027\000\211\025\211\024\211\f\211\013\211\n\211\t\211\b\211\007\211\004\211\003\211\002\211\001\000\000\000\r\200\240@\000\000\004\301\000\017\254\301\000\017\251\301\000\017\250\301\000\017\245\211F\211<\211;\211:\2119\2118\2110\211/\211.\031\200\240`\000\000\004\301\000\017\254\301\000\017\251\301\000\017\250\301\000\017\245\211F\211<\211;\211:\2119\2118\211J\211I\211.\211\213\211\212\211\211\211\210\211{\211y\211v\211e\211b\211V\211U\211T\031\200\354\211\240|\004\000\004\301\000\017\254\301\000\017\251\301\000\017\250\301\000\017\245\211F\211\233\211\232\211\217\2119\211\220\211J\211I\211\216\211\213\211\212\211\211\211\210\211{\211y\211\230\211\234\211b\211\223\211\222\211\221\004\200\240\f\000\000\004\301\000\017\254\301\000\017\251\301\000\017\250\301\000\017\245\004\200\240\020\000\000\004\301\000\017\254\301\000\017\251\301\000\017\250\301\000\017\245\004\200\240\020\000\000\004\301\000\017\254\211\250\301\000\017\250\211\247%\200\240\\\000\000\004\301\000\017\254\301\000\017\251\301\000\017\250\301\000\017\245\211F\211<\211;\211:\2119\2118\211\260\211\257\211.\211\352\211\351\211\350\211\345\211\344\211\335\211\320\211\311\211\310\211\306\211\305\211\304\211\303\211\302\211\301\211\300\211\277\211\276\211\275\211\274\211\273\211\270\211\267\211\265%\200\240x\000\000\004\301\000\017\254\301\000\017\251\301\000\017\250\301\000\017\245\211F\212\002\212\001\211\357\211\360\211\356\211\260\211\257\211\355\211\352\211\351\211\350\211\345\211\344\211\335\212\004\211\377\211\376\211\374\211\373\211\372\211\371\211\370\211\367\211\366\211\365\211\364\211\363\211\362\211\361\211\270\211\267\211\375\r\200\240\024\000\000\004\301\000\017\254\301\000\017\251\301\000\017\250\301\000\017\245\212T\212I\212H\2127\2126\2124\2123\212'\212&N\200\240\030\000\000\004\301\000\017\254\301\000\017\251\301\000\017\250\301\000\017\245\302\000\003\310\302\000\003\343\302\000\003\342\302\000\003\341\302\000\003\330\302\000\003\312\302\000\003\311\212\226\212\225\302\000\003\305\302\000\003\304\212\227\212\242\212\210\212\241\212\240\212\224\212\207\212\222\212\206\302\000\003\272\212\205\212u\212\204\212t\212\223\212\221\212\220\212\217\212\216\212\215\212\214\212\213\212\212\212\211\212\203\302\000\003\252\302\000\003\251\302\000\003\250\302\000\003\247\302\000\003\246\302\000\003\245\302\000\003\244\302\000\003\243\212\237\212\236\212\235\212\234\302\000\003\236\302\000\003\235\212\233\212\232\212\231\212\230\212\202\212\201\212\200\212\177\212~\212}\212|\212{\212z\212y\212x\212w\212v\212\247\212\250\212\251\212\243\212\244\212\245\212\246\004\200\220\b\000\000\001\301\000\017\254\301\000\017\251\301\000\017\250\301\000\017\245?\200\240\024\000\000\004\301\000\017\254\301\000\017\251\301\000\017\250\301\000\017\245\302\000\b\365\302\000\t\017\302\000\t\016\302\000\t\r\302\000\t\f\302\000\t\013\302\000\t\n\302\000\t\t\302\000\t\b\302\000\t\007\302\000\t\006\302\000\t\005\302\000\t\004\302\000\t\003\302\000\t\000\302\000\b\377\302\000\b\376\302\000\b\375\302\000\b\374\302\000\b\373\302\000\b\372\302\000\b\366\302\000\b\362\302\000\b\361\302\000\b\360\302\000\b\357\302\000\b\356\302\000\b\355\302\000\b\354\302\000\b\353\212\310\212\313\212\312\212\311\212\307\212\266\212\306\212\305\212\304\212\303\212\302\212\301\212\300\212\277\212\276\212\275\212\274\212\273\212\272\212\271\212\270\212\267\212\265\212\264\212\263\212\262\212\260\212\261\212\257\025\200\240\030\000\000\004\301\000\017\254\301\000\017\251\301\000\017\250\301\000\017\245\213\030\213\021\213\017\213\r\213\013\213\t\213\007\213\005\213\004\213\002\213\000\212\376\212\374\212\372\212\370\212\366\212\350\004\200\220\b\000\000\001\301\000\017\254\301\000\017\251\301\000\017\250\301\000\017\245\004\200\214\213'\b\004\000\001\301\000\017\254\301\000\017\251\301\000\017\250\301\000\017\245\004\200\220\b\000\000\001\301\000\017\254\301\000\017\251\301\000\017\250\301\000\017\245\004\200\220\b\000\000\001\301\000\017\254\301\000\017\251\301\000\017\250\301\000\017\245\004\200\204\2131\b\002\000\001\301\000\017\254\301\000\017\251\301\000\017\250\301\000\017\245\004\200\220\b\000\000\001\301\000\017\254\301\000\017\251\301\000\017\250\301\000\017\245\027\200\220\f\000\000\004\301\000\f\364\301\000\f\363\301\000\017\250\301\000\f\362\301\000\f\366\301\000\f\365\301\000\f\372\301\000\f\373\301\000\f\374\301\000\f\375\301\000\f\376\301\000\f\377\301\000\r\000\301\000\r\001\301\000\r\002\301\000\r\003\301\000\r\004\301\000\r\005\301\000\r\006\301\000\r\007\301\000\r\b\301\000\f\370\301\000\r\t\004\200\240 \000\000\004\301\000\017\254\301\000\017\251\301\000\017\250\301\000\017\245\004\200\240\f\000\000\004\301\000\017\254\301\000\017\251\301\000\017\250\301\000\017\245\004\200\2404\000\000\004\301\000\017\254\301\000\017\251\301\000\017\250\301\000\017\245\004\200\2508\000\000\004\301\000\017\254\301\000\017\251\301\000\017\250\301\000\017\245\004\200\240\f\000\000\004\301\000\017\254\301\000\017\251\301\000\017\250\301\000\017\245\004\200\240\f\000\000\004\301\000\017\254\301\000\017\251\301\000\017\250\301\000\017\245\004\200\240\f\000\000\004\301\000\017\254\301\000\017\251\301\000\017\250\301\000\017\245\004\200\220\b\000\000\001\301\000\017\254\301\000\017\251\301\000\017\250\301\000\017\245\004\200\304\213\236\b\t\000\001\301\000\017\254\301\000\017\251\301\000\017\250\301\000\017\245\004\200\210\b\204\360\000\001\301\000\017\254\301\000\017\251\301\000\017\250\301\000\017\245\004\200\220\013\000\001\001\301\000\020I\301\000\020H\301\000\017\250\301\000\020F\004\200\220\030\000\001\001\301\000\020I\301\000\020H\301\000\017\250\301\000\020F\004\200\220\"\000\001\001\301\000\020I\301\000\020H\301\000\017\250\301\000\020F\004\200\220&\000\001\001\301\000\020I\301\000\020H\301\000\017\250\301\000\020F\004\200\220.\000\001\001\301\000\020I\301\000\020H\301\000\017\250\301\000\020F\004\200\220/\000\001\001\301\000\020I\301\000\020H\301\000\017\250\301\000\020F\004\200\220H\000\001\001\301\000\020I\301\000\020H\301\000\017\250\301\000\020F\004\200\220X\000\001\001\301\000\020I\301\000\020H\301\000\017\250\301\000\020F\004\200\220\200\210\000\001\001\301\000\020I\301\000\020H\301\000\017\250\301\000\020F\004\200\220\202\b\000\001\001\301\000\020I\301\000\020H\301\000\017\250\301\000\020Fsgen"
	.size	blob, 14287

	.type	runtime_version,%object
	.p2align	3
runtime_version:
	.zero	1
	.size	runtime_version, 1

	.type	assembly_guid,%object
	.p2align	3
assembly_guid:
	.asciz	"A316576B-7669-47AF-94F1-82D5DDFB36A1"
	.size	assembly_guid, 37

	.type	assembly_name,%object
	.p2align	3
assembly_name:
	.asciz	"System.Runtime.Serialization"
	.size	assembly_name, 29

	.hidden	mono_aot_System_Runtime_Serialization_llvm_got
	.type	mono_aot_System_Runtime_Serialization_llvm_got,%object
	.bss
	.globl	mono_aot_System_Runtime_Serialization_llvm_got
	.p2align	4
mono_aot_System_Runtime_Serialization_llvm_got:
	.zero	164
	.size	mono_aot_System_Runtime_Serialization_llvm_got, 164

	.type	mono_inited,%object
	.local	mono_inited
	.comm	mono_inited,2415,16
	.hidden	mono_aot_System_Runtime_Serializationjit_got
	.hidden	mono_aot_System_Runtime_Serializationmethod_addresses
	.hidden	mono_aot_System_Runtime_Serializationplt
	.hidden	mono_aot_System_Runtime_Serializationplt_end
	.hidden	mono_aot_System_Runtime_Serializationunwind_info
	.hidden	mono_aot_System_Runtime_Serializationunbox_trampolines
	.hidden	mono_aot_System_Runtime_Serializationunbox_trampolines_end
	.hidden	mono_aot_System_Runtime_Serializationunbox_trampoline_addresses
	.hidden	p_1_plt__jit_icall_llvm_throw_corlib_exception_abs_trampoline_llvm
	.hidden	p_2_plt__rgctx_fetch_0_llvm
	.hidden	p_3_plt_wrapper_alloc_object_AllocVector_intptr_intptr_llvm
	.hidden	p_4_plt_System_Array_Copy_System_Array_int_System_Array_int_int_llvm
	.hidden	p_5_plt__rgctx_fetch_1_llvm
	.hidden	p_6_plt_System_Xml_XmlExceptionHelper_ThrowMaxArrayLengthOrMaxItemsQuotaExceeded_System_Xml_XmlDictionaryReader_int_llvm
	.hidden	p_7_plt_System_Xml_XmlBinaryWriterSession_PriorityDictionary_2_K_REF_V_REF_get_Now_llvm
	.hidden	p_8_plt_System_Collections_Generic_Dictionary_2_K_REF_V_REF_TryGetValue_K_REF_V_REF__llvm
	.hidden	p_9_plt_System_Collections_Generic_Dictionary_2_K_REF_V_REF_Add_K_REF_V_REF_llvm
	.hidden	p_10_plt__rgctx_fetch_2_llvm
	.hidden	p_11_plt_wrapper_alloc_object_AllocSmall_intptr_intptr_llvm
	.hidden	p_12_plt_System_Collections_Generic_Dictionary_2_K_REF_V_REF__ctor_llvm
	.hidden	p_13_plt_System_Xml_XmlBinaryWriterSession_PriorityDictionary_2_K_REF_V_REF_DecreaseAll_llvm
	.hidden	p_14_plt__jit_icall___emul_op_idiv_llvm
	.hidden	p_15_plt__rgctx_fetch_3_llvm
	.hidden	p_16_plt__rgctx_fetch_4_llvm
	.hidden	p_17_plt__rgctx_fetch_5_llvm
	.hidden	p_18_plt_System_Runtime_Serialization_KeyValue_2_K_REF_V_REF__ctor_K_REF_V_REF_llvm
	.hidden	p_19_plt_System_Runtime_Serialization_CollectionDataContract_GenericDictionaryEnumerator_2_K_REF_V_REF_get_Current_llvm
	.hidden	p_20_plt__rgctx_fetch_6_llvm
	.hidden	p_21_plt_System_Runtime_Serialization_DataNode_1_T_REF__ctor_llvm
	.hidden	p_22_plt__rgctx_fetch_7_llvm
	.hidden	p_23_plt_wrapper_castclass_object___castclass_with_cache_object_intptr_intptr_llvm
	.hidden	p_24_plt_string_op_Inequality_string_string_llvm
	.hidden	p_25_plt_System_Runtime_Serialization_ElementData_AddAttribute_string_string_string_string_llvm
	.hidden	p_26_plt_System_Runtime_Serialization_DataNode_1_T_REF_AddQualifiedNameAttribute_System_Runtime_Serialization_ElementData_string_string_string_string_string_llvm
	.hidden	p_27_plt_System_Runtime_Serialization_ExtensionDataReader_GetPrefix_string_llvm
	.hidden	p_28_plt_string_Format_System_IFormatProvider_string_object_object_llvm
	.hidden	p_29_plt_string_op_Equality_string_string_llvm
	.hidden	p_30_plt__jit_icall_mono_generic_class_init_llvm
	.hidden	p_31_plt__rgctx_fetch_8_llvm
	.hidden	p_32_plt__jit_icall_mono_helper_ldstr_llvm
	.hidden	p_33_plt__jit_icall_mono_helper_newobj_mscorlib_llvm
	.hidden	p_34_plt__rgctx_fetch_9_llvm
	.hidden	p_35_plt_System_Runtime_Serialization_DataContract_GetClrTypeFullName_System_Type_llvm
	.hidden	p_36_plt_System_Runtime_Serialization_SR_GetString_string_object___llvm
	.hidden	p_37_plt_System_Runtime_Serialization_XmlObjectSerializer_CreateSerializationException_string_llvm
	.hidden	p_38_plt__jit_icall_mono_arch_throw_exception_llvm
	.hidden	p_39_plt__rgctx_fetch_10_llvm
	.hidden	p_40_plt__rgctx_fetch_11_llvm
	.hidden	p_41_plt_System_Runtime_Serialization_XmlObjectSerializerWriteContext_IncrementCollectionCount_System_Runtime_Serialization_XmlWriterDelegator_int_llvm
	.hidden	p_42_plt__rgctx_fetch_12_llvm
	.hidden	p_43_plt_System_Nullable_1_T_REF_get_Value_llvm
	.hidden	p_44_plt__rgctx_fetch_13_llvm
	.text
	.p2align	4
mono_aot_System_Runtime_Serialization_eh_frame:
	.type	mono_aot_System_Runtime_Serialization_eh_frame,%object
	.size	mono_aot_System_Runtime_Serialization_eh_frame, .Lmono_eh_frame_end0-mono_aot_System_Runtime_Serialization_eh_frame
	.byte	3
	.byte	0
	.p2align	2
	.long	45
	.long	0
	.long	.Lmono_fde0-mono_aot_System_Runtime_Serialization_eh_frame
	.long	2
	.long	.Lmono_fde1-mono_aot_System_Runtime_Serialization_eh_frame
	.long	616
	.long	.Lmono_fde2-mono_aot_System_Runtime_Serialization_eh_frame
	.long	617
	.long	.Lmono_fde3-mono_aot_System_Runtime_Serialization_eh_frame
	.long	618
	.long	.Lmono_fde4-mono_aot_System_Runtime_Serialization_eh_frame
	.long	619
	.long	.Lmono_fde5-mono_aot_System_Runtime_Serialization_eh_frame
	.long	1323
	.long	.Lmono_fde6-mono_aot_System_Runtime_Serialization_eh_frame
	.long	1324
	.long	.Lmono_fde7-mono_aot_System_Runtime_Serialization_eh_frame
	.long	1325
	.long	.Lmono_fde8-mono_aot_System_Runtime_Serialization_eh_frame
	.long	1326
	.long	.Lmono_fde9-mono_aot_System_Runtime_Serialization_eh_frame
	.long	1327
	.long	.Lmono_fde10-mono_aot_System_Runtime_Serialization_eh_frame
	.long	1429
	.long	.Lmono_fde11-mono_aot_System_Runtime_Serialization_eh_frame
	.long	1430
	.long	.Lmono_fde12-mono_aot_System_Runtime_Serialization_eh_frame
	.long	1431
	.long	.Lmono_fde13-mono_aot_System_Runtime_Serialization_eh_frame
	.long	1432
	.long	.Lmono_fde14-mono_aot_System_Runtime_Serialization_eh_frame
	.long	1433
	.long	.Lmono_fde15-mono_aot_System_Runtime_Serialization_eh_frame
	.long	1434
	.long	.Lmono_fde16-mono_aot_System_Runtime_Serialization_eh_frame
	.long	1778
	.long	.Lmono_fde17-mono_aot_System_Runtime_Serialization_eh_frame
	.long	1779
	.long	.Lmono_fde18-mono_aot_System_Runtime_Serialization_eh_frame
	.long	1780
	.long	.Lmono_fde19-mono_aot_System_Runtime_Serialization_eh_frame
	.long	1781
	.long	.Lmono_fde20-mono_aot_System_Runtime_Serialization_eh_frame
	.long	1782
	.long	.Lmono_fde21-mono_aot_System_Runtime_Serialization_eh_frame
	.long	1783
	.long	.Lmono_fde22-mono_aot_System_Runtime_Serialization_eh_frame
	.long	1784
	.long	.Lmono_fde23-mono_aot_System_Runtime_Serialization_eh_frame
	.long	1785
	.long	.Lmono_fde24-mono_aot_System_Runtime_Serialization_eh_frame
	.long	1786
	.long	.Lmono_fde25-mono_aot_System_Runtime_Serialization_eh_frame
	.long	1787
	.long	.Lmono_fde26-mono_aot_System_Runtime_Serialization_eh_frame
	.long	1788
	.long	.Lmono_fde27-mono_aot_System_Runtime_Serialization_eh_frame
	.long	1789
	.long	.Lmono_fde28-mono_aot_System_Runtime_Serialization_eh_frame
	.long	1790
	.long	.Lmono_fde29-mono_aot_System_Runtime_Serialization_eh_frame
	.long	1791
	.long	.Lmono_fde30-mono_aot_System_Runtime_Serialization_eh_frame
	.long	1792
	.long	.Lmono_fde31-mono_aot_System_Runtime_Serialization_eh_frame
	.long	1793
	.long	.Lmono_fde32-mono_aot_System_Runtime_Serialization_eh_frame
	.long	1794
	.long	.Lmono_fde33-mono_aot_System_Runtime_Serialization_eh_frame
	.long	1795
	.long	.Lmono_fde34-mono_aot_System_Runtime_Serialization_eh_frame
	.long	1796
	.long	.Lmono_fde35-mono_aot_System_Runtime_Serialization_eh_frame
	.long	1797
	.long	.Lmono_fde36-mono_aot_System_Runtime_Serialization_eh_frame
	.long	1798
	.long	.Lmono_fde37-mono_aot_System_Runtime_Serialization_eh_frame
	.long	1799
	.long	.Lmono_fde38-mono_aot_System_Runtime_Serialization_eh_frame
	.long	2414
	.long	.Lmono_fde39-mono_aot_System_Runtime_Serialization_eh_frame
	.long	2415
	.long	.Lmono_fde40-mono_aot_System_Runtime_Serialization_eh_frame
	.long	2509
	.long	.Lmono_fde41-mono_aot_System_Runtime_Serialization_eh_frame
	.long	2512
	.long	.Lmono_fde42-mono_aot_System_Runtime_Serialization_eh_frame
	.long	2513
	.long	.Lmono_fde43-mono_aot_System_Runtime_Serialization_eh_frame
	.long	2515
	.long	.Lmono_fde44-mono_aot_System_Runtime_Serialization_eh_frame
	.long	.Lfunc_end48-.Lfunc_begin48
	.long	.Lmono_eh_frame_end0-mono_aot_System_Runtime_Serialization_eh_frame
	.byte	1
	.byte	124
	.byte	14
	.byte	255
	.byte	12
	.byte	13
	.byte	0
	.byte	0

.Lmono_fde0:
	.byte	1
	.long	.Lmono_fde_aug_end0-.Lmono_fde_aug_begin0
.Lmono_fde_aug_begin0:
	.ascii	"\317\336\277\352\004"
	.byte	1
	.byte	3
	.byte	146
	.byte	13
	.byte	28
	.byte	0
	.p2align	2
.Lmono_fde_aug_end0:
	.byte	4
	.long	.Ltmp16-.Lfunc_begin4
	.byte	14
	.byte	32
	.byte	4
	.long	.Ltmp17-.Ltmp16
	.byte	142
	.byte	1
	.byte	4
	.long	.Ltmp18-.Ltmp17
	.byte	139
	.byte	2
	.byte	4
	.long	.Ltmp19-.Ltmp18
	.byte	138
	.byte	3
	.byte	4
	.long	.Ltmp20-.Ltmp19
	.byte	137
	.byte	4
	.byte	4
	.long	.Ltmp21-.Ltmp20
	.byte	135
	.byte	5
	.byte	4
	.long	.Ltmp22-.Ltmp21
	.byte	134
	.byte	6
	.byte	4
	.long	.Ltmp23-.Ltmp22
	.byte	133
	.byte	7
	.byte	4
	.long	.Ltmp24-.Ltmp23
	.byte	132
	.byte	8
	.byte	4
	.long	.Ltmp25-.Ltmp24
	.byte	14
	.byte	72

.Lmono_fde1:
	.byte	1
	.long	.Lmono_fde_aug_end1-.Lmono_fde_aug_begin1
.Lmono_fde_aug_begin1:
	.ascii	"\317\336\277\352\004"
	.byte	1
	.byte	3
	.byte	146
	.byte	13
	.byte	0
	.byte	0
	.p2align	2
.Lmono_fde_aug_end1:
	.byte	4
	.long	.Ltmp31-.Lfunc_begin5
	.byte	14
	.byte	4

.Lmono_fde2:
	.byte	1
	.long	.Lmono_fde_aug_end2-.Lmono_fde_aug_begin2
.Lmono_fde_aug_begin2:
	.ascii	"\317\336\277\352\004"
	.byte	1
	.byte	3
	.byte	146
	.byte	13
	.byte	8
	.byte	0
	.p2align	2
.Lmono_fde_aug_end2:
	.byte	4
	.long	.Ltmp32-.Lfunc_begin6
	.byte	14
	.byte	32
	.byte	4
	.long	.Ltmp33-.Ltmp32
	.byte	142
	.byte	1
	.byte	4
	.long	.Ltmp34-.Ltmp33
	.byte	139
	.byte	2
	.byte	4
	.long	.Ltmp35-.Ltmp34
	.byte	138
	.byte	3
	.byte	4
	.long	.Ltmp36-.Ltmp35
	.byte	137
	.byte	4
	.byte	4
	.long	.Ltmp37-.Ltmp36
	.byte	135
	.byte	5
	.byte	4
	.long	.Ltmp38-.Ltmp37
	.byte	134
	.byte	6
	.byte	4
	.long	.Ltmp39-.Ltmp38
	.byte	133
	.byte	7
	.byte	4
	.long	.Ltmp40-.Ltmp39
	.byte	132
	.byte	8
	.byte	4
	.long	.Ltmp41-.Ltmp40
	.byte	14
	.byte	48

.Lmono_fde3:
	.byte	1
	.long	.Lmono_fde_aug_end3-.Lmono_fde_aug_begin3
.Lmono_fde_aug_begin3:
	.ascii	"\317\336\277\352\004"
	.byte	1
	.byte	3
	.byte	146
	.byte	13
	.byte	0
	.byte	0
	.p2align	2
.Lmono_fde_aug_end3:
	.byte	4
	.long	.Ltmp97-.Lfunc_begin7
	.byte	14
	.byte	32
	.byte	4
	.long	.Ltmp98-.Ltmp97
	.byte	142
	.byte	1
	.byte	4
	.long	.Ltmp99-.Ltmp98
	.byte	139
	.byte	2
	.byte	4
	.long	.Ltmp100-.Ltmp99
	.byte	138
	.byte	3
	.byte	4
	.long	.Ltmp101-.Ltmp100
	.byte	137
	.byte	4
	.byte	4
	.long	.Ltmp102-.Ltmp101
	.byte	135
	.byte	5
	.byte	4
	.long	.Ltmp103-.Ltmp102
	.byte	134
	.byte	6
	.byte	4
	.long	.Ltmp104-.Ltmp103
	.byte	133
	.byte	7
	.byte	4
	.long	.Ltmp105-.Ltmp104
	.byte	132
	.byte	8
	.byte	4
	.long	.Ltmp106-.Ltmp105
	.byte	14
	.byte	40

.Lmono_fde4:
	.byte	1
	.long	.Lmono_fde_aug_end4-.Lmono_fde_aug_begin4
.Lmono_fde_aug_begin4:
	.ascii	"\317\336\277\352\004"
	.byte	1
	.byte	3
	.byte	146
	.byte	13
	.byte	0
	.byte	0
	.p2align	2
.Lmono_fde_aug_end4:
	.byte	4
	.long	.Ltmp137-.Lfunc_begin8
	.byte	14
	.byte	16
	.byte	4
	.long	.Ltmp138-.Ltmp137
	.byte	142
	.byte	1
	.byte	4
	.long	.Ltmp139-.Ltmp138
	.byte	139
	.byte	2
	.byte	4
	.long	.Ltmp140-.Ltmp139
	.byte	133
	.byte	3
	.byte	4
	.long	.Ltmp141-.Ltmp140
	.byte	132
	.byte	4
	.byte	4
	.long	.Ltmp142-.Ltmp141
	.byte	14
	.byte	24

.Lmono_fde5:
	.byte	1
	.long	.Lmono_fde_aug_end5-.Lmono_fde_aug_begin5
.Lmono_fde_aug_begin5:
	.ascii	"\317\336\277\352\004"
	.byte	1
	.byte	3
	.byte	146
	.byte	13
	.byte	0
	.byte	0
	.p2align	2
.Lmono_fde_aug_end5:
	.byte	4
	.long	.Ltmp146-.Lfunc_begin9
	.byte	14
	.byte	24
	.byte	4
	.long	.Ltmp147-.Ltmp146
	.byte	142
	.byte	1
	.byte	4
	.long	.Ltmp148-.Ltmp147
	.byte	139
	.byte	2
	.byte	4
	.long	.Ltmp149-.Ltmp148
	.byte	135
	.byte	3
	.byte	4
	.long	.Ltmp150-.Ltmp149
	.byte	134
	.byte	4
	.byte	4
	.long	.Ltmp151-.Ltmp150
	.byte	133
	.byte	5
	.byte	4
	.long	.Ltmp152-.Ltmp151
	.byte	132
	.byte	6
	.byte	4
	.long	.Ltmp153-.Ltmp152
	.byte	14
	.byte	32

.Lmono_fde6:
	.byte	1
	.long	.Lmono_fde_aug_end6-.Lmono_fde_aug_begin6
.Lmono_fde_aug_begin6:
	.ascii	"\317\336\277\352\004"
	.byte	1
	.byte	3
	.byte	146
	.byte	13
	.byte	4
	.byte	0
	.p2align	2
.Lmono_fde_aug_end6:
	.byte	4
	.long	.Ltmp160-.Lfunc_begin10
	.byte	14
	.byte	8
	.byte	4
	.long	.Ltmp161-.Ltmp160
	.byte	142
	.byte	1
	.byte	4
	.long	.Ltmp162-.Ltmp161
	.byte	139
	.byte	2
	.byte	4
	.long	.Ltmp163-.Ltmp162
	.byte	14
	.byte	16

.Lmono_fde7:
	.byte	1
	.long	.Lmono_fde_aug_end7-.Lmono_fde_aug_begin7
.Lmono_fde_aug_begin7:
	.ascii	"\317\336\277\352\004"
	.byte	1
	.byte	3
	.byte	146
	.byte	13
	.byte	4
	.byte	0
	.p2align	2
.Lmono_fde_aug_end7:
	.byte	4
	.long	.Ltmp165-.Lfunc_begin11
	.byte	14
	.byte	8
	.byte	4
	.long	.Ltmp166-.Ltmp165
	.byte	142
	.byte	1
	.byte	4
	.long	.Ltmp167-.Ltmp166
	.byte	139
	.byte	2
	.byte	4
	.long	.Ltmp168-.Ltmp167
	.byte	14
	.byte	16

.Lmono_fde8:
	.byte	1
	.long	.Lmono_fde_aug_end8-.Lmono_fde_aug_begin8
.Lmono_fde_aug_begin8:
	.ascii	"\317\336\277\352\004"
	.byte	1
	.byte	3
	.byte	146
	.byte	13
	.byte	4
	.byte	0
	.p2align	2
.Lmono_fde_aug_end8:
	.byte	4
	.long	.Ltmp170-.Lfunc_begin12
	.byte	14
	.byte	8
	.byte	4
	.long	.Ltmp171-.Ltmp170
	.byte	142
	.byte	1
	.byte	4
	.long	.Ltmp172-.Ltmp171
	.byte	139
	.byte	2
	.byte	4
	.long	.Ltmp173-.Ltmp172
	.byte	14
	.byte	16

.Lmono_fde9:
	.byte	1
	.long	.Lmono_fde_aug_end9-.Lmono_fde_aug_begin9
.Lmono_fde_aug_begin9:
	.ascii	"\317\336\277\352\004"
	.byte	1
	.byte	3
	.byte	146
	.byte	13
	.byte	4
	.byte	0
	.p2align	2
.Lmono_fde_aug_end9:
	.byte	4
	.long	.Ltmp175-.Lfunc_begin13
	.byte	14
	.byte	8
	.byte	4
	.long	.Ltmp176-.Ltmp175
	.byte	142
	.byte	1
	.byte	4
	.long	.Ltmp177-.Ltmp176
	.byte	139
	.byte	2
	.byte	4
	.long	.Ltmp178-.Ltmp177
	.byte	14
	.byte	16

.Lmono_fde10:
	.byte	1
	.long	.Lmono_fde_aug_end10-.Lmono_fde_aug_begin10
.Lmono_fde_aug_begin10:
	.ascii	"\317\336\277\352\004"
	.byte	1
	.byte	3
	.byte	146
	.byte	13
	.byte	4
	.byte	0
	.p2align	2
.Lmono_fde_aug_end10:
	.byte	4
	.long	.Ltmp180-.Lfunc_begin14
	.byte	14
	.byte	8
	.byte	4
	.long	.Ltmp181-.Ltmp180
	.byte	142
	.byte	1
	.byte	4
	.long	.Ltmp182-.Ltmp181
	.byte	139
	.byte	2
	.byte	4
	.long	.Ltmp183-.Ltmp182
	.byte	14
	.byte	16

.Lmono_fde11:
	.byte	1
	.long	.Lmono_fde_aug_end11-.Lmono_fde_aug_begin11
.Lmono_fde_aug_begin11:
	.ascii	"\317\336\277\352\004"
	.byte	1
	.byte	3
	.byte	146
	.byte	13
	.byte	0
	.byte	0
	.p2align	2
.Lmono_fde_aug_end11:
	.byte	4
	.long	.Ltmp185-.Lfunc_begin15
	.byte	14
	.byte	8
	.byte	4
	.long	.Ltmp186-.Ltmp185
	.byte	142
	.byte	1
	.byte	4
	.long	.Ltmp187-.Ltmp186
	.byte	139
	.byte	2
	.byte	4
	.long	.Ltmp188-.Ltmp187
	.byte	14
	.byte	16

.Lmono_fde12:
	.byte	1
	.long	.Lmono_fde_aug_end12-.Lmono_fde_aug_begin12
.Lmono_fde_aug_begin12:
	.ascii	"\317\336\277\352\004"
	.byte	1
	.byte	3
	.byte	146
	.byte	13
	.byte	0
	.byte	0
	.p2align	2
.Lmono_fde_aug_end12:
	.byte	4
	.long	.Ltmp190-.Lfunc_begin16
	.byte	14
	.byte	4

.Lmono_fde13:
	.byte	1
	.long	.Lmono_fde_aug_end13-.Lmono_fde_aug_begin13
.Lmono_fde_aug_begin13:
	.ascii	"\317\336\277\352\004"
	.byte	1
	.byte	3
	.byte	146
	.byte	13
	.byte	8
	.byte	0
	.p2align	2
.Lmono_fde_aug_end13:
	.byte	4
	.long	.Ltmp191-.Lfunc_begin17
	.byte	14
	.byte	24
	.byte	4
	.long	.Ltmp192-.Ltmp191
	.byte	142
	.byte	1
	.byte	4
	.long	.Ltmp193-.Ltmp192
	.byte	139
	.byte	2
	.byte	4
	.long	.Ltmp194-.Ltmp193
	.byte	136
	.byte	3
	.byte	4
	.long	.Ltmp195-.Ltmp194
	.byte	134
	.byte	4
	.byte	4
	.long	.Ltmp196-.Ltmp195
	.byte	133
	.byte	5
	.byte	4
	.long	.Ltmp197-.Ltmp196
	.byte	132
	.byte	6
	.byte	4
	.long	.Ltmp198-.Ltmp197
	.byte	14
	.byte	40

.Lmono_fde14:
	.byte	1
	.long	.Lmono_fde_aug_end14-.Lmono_fde_aug_begin14
.Lmono_fde_aug_begin14:
	.ascii	"\317\336\277\352\004"
	.byte	1
	.byte	3
	.byte	146
	.byte	13
	.byte	8
	.byte	0
	.p2align	2
.Lmono_fde_aug_end14:
	.byte	4
	.long	.Ltmp201-.Lfunc_begin18
	.byte	14
	.byte	24
	.byte	4
	.long	.Ltmp202-.Ltmp201
	.byte	142
	.byte	1
	.byte	4
	.long	.Ltmp203-.Ltmp202
	.byte	136
	.byte	2
	.byte	4
	.long	.Ltmp204-.Ltmp203
	.byte	135
	.byte	3
	.byte	4
	.long	.Ltmp205-.Ltmp204
	.byte	134
	.byte	4
	.byte	4
	.long	.Ltmp206-.Ltmp205
	.byte	133
	.byte	5
	.byte	4
	.long	.Ltmp207-.Ltmp206
	.byte	132
	.byte	6
	.byte	4
	.long	.Ltmp208-.Ltmp207
	.byte	14
	.byte	56

.Lmono_fde15:
	.byte	1
	.long	.Lmono_fde_aug_end15-.Lmono_fde_aug_begin15
.Lmono_fde_aug_begin15:
	.ascii	"\317\336\277\352\004"
	.byte	1
	.byte	3
	.byte	146
	.byte	13
	.byte	0
	.byte	0
	.p2align	2
.Lmono_fde_aug_end15:
	.byte	4
	.long	.Ltmp211-.Lfunc_begin19
	.byte	14
	.byte	16
	.byte	4
	.long	.Ltmp212-.Ltmp211
	.byte	142
	.byte	1
	.byte	4
	.long	.Ltmp213-.Ltmp212
	.byte	139
	.byte	2
	.byte	4
	.long	.Ltmp214-.Ltmp213
	.byte	133
	.byte	3
	.byte	4
	.long	.Ltmp215-.Ltmp214
	.byte	132
	.byte	4
	.byte	4
	.long	.Ltmp216-.Ltmp215
	.byte	14
	.byte	32

.Lmono_fde16:
	.byte	1
	.long	.Lmono_fde_aug_end16-.Lmono_fde_aug_begin16
.Lmono_fde_aug_begin16:
	.ascii	"\317\336\277\352\004"
	.byte	1
	.byte	3
	.byte	146
	.byte	13
	.byte	8
	.byte	0
	.p2align	2
.Lmono_fde_aug_end16:
	.byte	4
	.long	.Ltmp217-.Lfunc_begin20
	.byte	14
	.byte	24
	.byte	4
	.long	.Ltmp218-.Ltmp217
	.byte	142
	.byte	1
	.byte	4
	.long	.Ltmp219-.Ltmp218
	.byte	139
	.byte	2
	.byte	4
	.long	.Ltmp220-.Ltmp219
	.byte	136
	.byte	3
	.byte	4
	.long	.Ltmp221-.Ltmp220
	.byte	134
	.byte	4
	.byte	4
	.long	.Ltmp222-.Ltmp221
	.byte	133
	.byte	5
	.byte	4
	.long	.Ltmp223-.Ltmp222
	.byte	132
	.byte	6
	.byte	4
	.long	.Ltmp224-.Ltmp223
	.byte	14
	.byte	40

.Lmono_fde17:
	.byte	1
	.long	.Lmono_fde_aug_end17-.Lmono_fde_aug_begin17
.Lmono_fde_aug_begin17:
	.ascii	"\317\336\277\352\004"
	.byte	1
	.byte	3
	.byte	146
	.byte	13
	.byte	0
	.byte	0
	.p2align	2
.Lmono_fde_aug_end17:
	.byte	4
	.long	.Ltmp227-.Lfunc_begin21
	.byte	14
	.byte	16
	.byte	4
	.long	.Ltmp228-.Ltmp227
	.byte	142
	.byte	1
	.byte	4
	.long	.Ltmp229-.Ltmp228
	.byte	134
	.byte	2
	.byte	4
	.long	.Ltmp230-.Ltmp229
	.byte	133
	.byte	3
	.byte	4
	.long	.Ltmp231-.Ltmp230
	.byte	132
	.byte	4
	.byte	4
	.long	.Ltmp232-.Ltmp231
	.byte	14
	.byte	24

.Lmono_fde18:
	.byte	1
	.long	.Lmono_fde_aug_end18-.Lmono_fde_aug_begin18
.Lmono_fde_aug_begin18:
	.ascii	"\317\336\277\352\004"
	.byte	1
	.byte	3
	.byte	146
	.byte	13
	.byte	0
	.byte	0
	.p2align	2
.Lmono_fde_aug_end18:
	.byte	4
	.long	.Ltmp236-.Lfunc_begin22
	.byte	14
	.byte	16
	.byte	4
	.long	.Ltmp237-.Ltmp236
	.byte	142
	.byte	1
	.byte	4
	.long	.Ltmp238-.Ltmp237
	.byte	134
	.byte	2
	.byte	4
	.long	.Ltmp239-.Ltmp238
	.byte	133
	.byte	3
	.byte	4
	.long	.Ltmp240-.Ltmp239
	.byte	132
	.byte	4
	.byte	4
	.long	.Ltmp241-.Ltmp240
	.byte	14
	.byte	24

.Lmono_fde19:
	.byte	1
	.long	.Lmono_fde_aug_end19-.Lmono_fde_aug_begin19
.Lmono_fde_aug_begin19:
	.ascii	"\317\336\277\352\004"
	.byte	1
	.byte	3
	.byte	146
	.byte	13
	.byte	0
	.byte	0
	.p2align	2
.Lmono_fde_aug_end19:
	.byte	4
	.long	.Ltmp243-.Lfunc_begin23
	.byte	14
	.byte	8
	.byte	4
	.long	.Ltmp244-.Ltmp243
	.byte	142
	.byte	1
	.byte	4
	.long	.Ltmp245-.Ltmp244
	.byte	139
	.byte	2
	.byte	4
	.long	.Ltmp246-.Ltmp245
	.byte	14
	.byte	16

.Lmono_fde20:
	.byte	1
	.long	.Lmono_fde_aug_end20-.Lmono_fde_aug_begin20
.Lmono_fde_aug_begin20:
	.ascii	"\317\336\277\352\004"
	.byte	1
	.byte	3
	.byte	146
	.byte	13
	.byte	0
	.byte	0
	.p2align	2
.Lmono_fde_aug_end20:
	.byte	4
	.long	.Ltmp248-.Lfunc_begin24
	.byte	14
	.byte	8
	.byte	4
	.long	.Ltmp249-.Ltmp248
	.byte	142
	.byte	1
	.byte	4
	.long	.Ltmp250-.Ltmp249
	.byte	139
	.byte	2
	.byte	4
	.long	.Ltmp251-.Ltmp250
	.byte	14
	.byte	16

.Lmono_fde21:
	.byte	1
	.long	.Lmono_fde_aug_end21-.Lmono_fde_aug_begin21
.Lmono_fde_aug_begin21:
	.ascii	"\317\336\277\352\004"
	.byte	1
	.byte	3
	.byte	146
	.byte	13
	.byte	0
	.byte	0
	.p2align	2
.Lmono_fde_aug_end21:
	.byte	4
	.long	.Ltmp253-.Lfunc_begin25
	.byte	14
	.byte	24
	.byte	4
	.long	.Ltmp254-.Ltmp253
	.byte	142
	.byte	1
	.byte	4
	.long	.Ltmp255-.Ltmp254
	.byte	139
	.byte	2
	.byte	4
	.long	.Ltmp256-.Ltmp255
	.byte	135
	.byte	3
	.byte	4
	.long	.Ltmp257-.Ltmp256
	.byte	134
	.byte	4
	.byte	4
	.long	.Ltmp258-.Ltmp257
	.byte	133
	.byte	5
	.byte	4
	.long	.Ltmp259-.Ltmp258
	.byte	132
	.byte	6
	.byte	4
	.long	.Ltmp260-.Ltmp259
	.byte	14
	.byte	32

.Lmono_fde22:
	.byte	1
	.long	.Lmono_fde_aug_end22-.Lmono_fde_aug_begin22
.Lmono_fde_aug_begin22:
	.ascii	"\317\336\277\352\004"
	.byte	1
	.byte	3
	.byte	146
	.byte	13
	.byte	0
	.byte	0
	.p2align	2
.Lmono_fde_aug_end22:
	.byte	4
	.long	.Ltmp262-.Lfunc_begin26
	.byte	14
	.byte	8
	.byte	4
	.long	.Ltmp263-.Ltmp262
	.byte	142
	.byte	1
	.byte	4
	.long	.Ltmp264-.Ltmp263
	.byte	139
	.byte	2
	.byte	4
	.long	.Ltmp265-.Ltmp264
	.byte	14
	.byte	16

.Lmono_fde23:
	.byte	1
	.long	.Lmono_fde_aug_end23-.Lmono_fde_aug_begin23
.Lmono_fde_aug_begin23:
	.ascii	"\317\336\277\352\004"
	.byte	1
	.byte	3
	.byte	146
	.byte	13
	.byte	0
	.byte	0
	.p2align	2
.Lmono_fde_aug_end23:
	.byte	4
	.long	.Ltmp267-.Lfunc_begin27
	.byte	14
	.byte	8
	.byte	4
	.long	.Ltmp268-.Ltmp267
	.byte	142
	.byte	1
	.byte	4
	.long	.Ltmp269-.Ltmp268
	.byte	139
	.byte	2
	.byte	4
	.long	.Ltmp270-.Ltmp269
	.byte	14
	.byte	16

.Lmono_fde24:
	.byte	1
	.long	.Lmono_fde_aug_end24-.Lmono_fde_aug_begin24
.Lmono_fde_aug_begin24:
	.ascii	"\317\336\277\352\004"
	.byte	1
	.byte	3
	.byte	146
	.byte	13
	.byte	0
	.byte	0
	.p2align	2
.Lmono_fde_aug_end24:
	.byte	4
	.long	.Ltmp272-.Lfunc_begin28
	.byte	14
	.byte	8
	.byte	4
	.long	.Ltmp273-.Ltmp272
	.byte	142
	.byte	1
	.byte	4
	.long	.Ltmp274-.Ltmp273
	.byte	139
	.byte	2
	.byte	4
	.long	.Ltmp275-.Ltmp274
	.byte	14
	.byte	16

.Lmono_fde25:
	.byte	1
	.long	.Lmono_fde_aug_end25-.Lmono_fde_aug_begin25
.Lmono_fde_aug_begin25:
	.ascii	"\317\336\277\352\004"
	.byte	1
	.byte	3
	.byte	146
	.byte	13
	.byte	0
	.byte	0
	.p2align	2
.Lmono_fde_aug_end25:
	.byte	4
	.long	.Ltmp277-.Lfunc_begin29
	.byte	14
	.byte	8
	.byte	4
	.long	.Ltmp278-.Ltmp277
	.byte	142
	.byte	1
	.byte	4
	.long	.Ltmp279-.Ltmp278
	.byte	139
	.byte	2
	.byte	4
	.long	.Ltmp280-.Ltmp279
	.byte	14
	.byte	16

.Lmono_fde26:
	.byte	1
	.long	.Lmono_fde_aug_end26-.Lmono_fde_aug_begin26
.Lmono_fde_aug_begin26:
	.ascii	"\317\336\277\352\004"
	.byte	1
	.byte	3
	.byte	146
	.byte	13
	.byte	0
	.byte	0
	.p2align	2
.Lmono_fde_aug_end26:
	.byte	4
	.long	.Ltmp282-.Lfunc_begin30
	.byte	14
	.byte	8
	.byte	4
	.long	.Ltmp283-.Ltmp282
	.byte	142
	.byte	1
	.byte	4
	.long	.Ltmp284-.Ltmp283
	.byte	139
	.byte	2
	.byte	4
	.long	.Ltmp285-.Ltmp284
	.byte	14
	.byte	16

.Lmono_fde27:
	.byte	1
	.long	.Lmono_fde_aug_end27-.Lmono_fde_aug_begin27
.Lmono_fde_aug_begin27:
	.ascii	"\317\336\277\352\004"
	.byte	1
	.byte	3
	.byte	146
	.byte	13
	.byte	0
	.byte	0
	.p2align	2
.Lmono_fde_aug_end27:
	.byte	4
	.long	.Ltmp287-.Lfunc_begin31
	.byte	14
	.byte	8
	.byte	4
	.long	.Ltmp288-.Ltmp287
	.byte	142
	.byte	1
	.byte	4
	.long	.Ltmp289-.Ltmp288
	.byte	139
	.byte	2
	.byte	4
	.long	.Ltmp290-.Ltmp289
	.byte	14
	.byte	16

.Lmono_fde28:
	.byte	1
	.long	.Lmono_fde_aug_end28-.Lmono_fde_aug_begin28
.Lmono_fde_aug_begin28:
	.ascii	"\317\336\277\352\004"
	.byte	1
	.byte	3
	.byte	146
	.byte	13
	.byte	0
	.byte	0
	.p2align	2
.Lmono_fde_aug_end28:
	.byte	4
	.long	.Ltmp292-.Lfunc_begin32
	.byte	14
	.byte	8
	.byte	4
	.long	.Ltmp293-.Ltmp292
	.byte	142
	.byte	1
	.byte	4
	.long	.Ltmp294-.Ltmp293
	.byte	139
	.byte	2
	.byte	4
	.long	.Ltmp295-.Ltmp294
	.byte	14
	.byte	16

.Lmono_fde29:
	.byte	1
	.long	.Lmono_fde_aug_end29-.Lmono_fde_aug_begin29
.Lmono_fde_aug_begin29:
	.ascii	"\317\336\277\352\004"
	.byte	1
	.byte	3
	.byte	146
	.byte	13
	.byte	0
	.byte	0
	.p2align	2
.Lmono_fde_aug_end29:
	.byte	4
	.long	.Ltmp297-.Lfunc_begin33
	.byte	14
	.byte	8
	.byte	4
	.long	.Ltmp298-.Ltmp297
	.byte	142
	.byte	1
	.byte	4
	.long	.Ltmp299-.Ltmp298
	.byte	139
	.byte	2
	.byte	4
	.long	.Ltmp300-.Ltmp299
	.byte	14
	.byte	16

.Lmono_fde30:
	.byte	1
	.long	.Lmono_fde_aug_end30-.Lmono_fde_aug_begin30
.Lmono_fde_aug_begin30:
	.ascii	"\317\336\277\352\004"
	.byte	1
	.byte	3
	.byte	146
	.byte	13
	.byte	0
	.byte	0
	.p2align	2
.Lmono_fde_aug_end30:
	.byte	4
	.long	.Ltmp302-.Lfunc_begin34
	.byte	14
	.byte	8
	.byte	4
	.long	.Ltmp303-.Ltmp302
	.byte	142
	.byte	1
	.byte	4
	.long	.Ltmp304-.Ltmp303
	.byte	139
	.byte	2
	.byte	4
	.long	.Ltmp305-.Ltmp304
	.byte	14
	.byte	16

.Lmono_fde31:
	.byte	1
	.long	.Lmono_fde_aug_end31-.Lmono_fde_aug_begin31
.Lmono_fde_aug_begin31:
	.ascii	"\317\336\277\352\004"
	.byte	1
	.byte	3
	.byte	146
	.byte	13
	.byte	0
	.byte	0
	.p2align	2
.Lmono_fde_aug_end31:
	.byte	4
	.long	.Ltmp307-.Lfunc_begin35
	.byte	14
	.byte	8
	.byte	4
	.long	.Ltmp308-.Ltmp307
	.byte	142
	.byte	1
	.byte	4
	.long	.Ltmp309-.Ltmp308
	.byte	139
	.byte	2
	.byte	4
	.long	.Ltmp310-.Ltmp309
	.byte	14
	.byte	16

.Lmono_fde32:
	.byte	1
	.long	.Lmono_fde_aug_end32-.Lmono_fde_aug_begin32
.Lmono_fde_aug_begin32:
	.ascii	"\317\336\277\352\004"
	.byte	1
	.byte	3
	.byte	146
	.byte	13
	.byte	0
	.byte	0
	.p2align	2
.Lmono_fde_aug_end32:
	.byte	4
	.long	.Ltmp312-.Lfunc_begin36
	.byte	14
	.byte	8
	.byte	4
	.long	.Ltmp313-.Ltmp312
	.byte	142
	.byte	1
	.byte	4
	.long	.Ltmp314-.Ltmp313
	.byte	139
	.byte	2
	.byte	4
	.long	.Ltmp315-.Ltmp314
	.byte	14
	.byte	16

.Lmono_fde33:
	.byte	1
	.long	.Lmono_fde_aug_end33-.Lmono_fde_aug_begin33
.Lmono_fde_aug_begin33:
	.ascii	"\317\336\277\352\004"
	.byte	1
	.byte	3
	.byte	146
	.byte	13
	.byte	0
	.byte	0
	.p2align	2
.Lmono_fde_aug_end33:
	.byte	4
	.long	.Ltmp317-.Lfunc_begin37
	.byte	14
	.byte	16
	.byte	4
	.long	.Ltmp318-.Ltmp317
	.byte	142
	.byte	1
	.byte	4
	.long	.Ltmp319-.Ltmp318
	.byte	134
	.byte	2
	.byte	4
	.long	.Ltmp320-.Ltmp319
	.byte	133
	.byte	3
	.byte	4
	.long	.Ltmp321-.Ltmp320
	.byte	132
	.byte	4
	.byte	4
	.long	.Ltmp322-.Ltmp321
	.byte	14
	.byte	24

.Lmono_fde34:
	.byte	1
	.long	.Lmono_fde_aug_end34-.Lmono_fde_aug_begin34
.Lmono_fde_aug_begin34:
	.ascii	"\317\336\277\352\004"
	.byte	1
	.byte	3
	.byte	146
	.byte	13
	.byte	0
	.byte	0
	.p2align	2
.Lmono_fde_aug_end34:
	.byte	4
	.long	.Ltmp324-.Lfunc_begin38
	.byte	14
	.byte	8
	.byte	4
	.long	.Ltmp325-.Ltmp324
	.byte	142
	.byte	1
	.byte	4
	.long	.Ltmp326-.Ltmp325
	.byte	139
	.byte	2
	.byte	4
	.long	.Ltmp327-.Ltmp326
	.byte	14
	.byte	16

.Lmono_fde35:
	.byte	1
	.long	.Lmono_fde_aug_end35-.Lmono_fde_aug_begin35
.Lmono_fde_aug_begin35:
	.ascii	"\317\336\277\352\004"
	.byte	1
	.byte	3
	.byte	146
	.byte	13
	.byte	0
	.byte	0
	.p2align	2
.Lmono_fde_aug_end35:
	.byte	4
	.long	.Ltmp329-.Lfunc_begin39
	.byte	14
	.byte	8
	.byte	4
	.long	.Ltmp330-.Ltmp329
	.byte	142
	.byte	1
	.byte	4
	.long	.Ltmp331-.Ltmp330
	.byte	139
	.byte	2
	.byte	4
	.long	.Ltmp332-.Ltmp331
	.byte	14
	.byte	16

.Lmono_fde36:
	.byte	1
	.long	.Lmono_fde_aug_end36-.Lmono_fde_aug_begin36
.Lmono_fde_aug_begin36:
	.ascii	"\317\336\277\352\004"
	.byte	1
	.byte	3
	.byte	146
	.byte	13
	.byte	16
	.byte	0
	.p2align	2
.Lmono_fde_aug_end36:
	.byte	4
	.long	.Ltmp334-.Lfunc_begin40
	.byte	14
	.byte	24
	.byte	4
	.long	.Ltmp335-.Ltmp334
	.byte	142
	.byte	1
	.byte	4
	.long	.Ltmp336-.Ltmp335
	.byte	139
	.byte	2
	.byte	4
	.long	.Ltmp337-.Ltmp336
	.byte	135
	.byte	3
	.byte	4
	.long	.Ltmp338-.Ltmp337
	.byte	134
	.byte	4
	.byte	4
	.long	.Ltmp339-.Ltmp338
	.byte	133
	.byte	5
	.byte	4
	.long	.Ltmp340-.Ltmp339
	.byte	132
	.byte	6
	.byte	4
	.long	.Ltmp341-.Ltmp340
	.byte	14
	.byte	48

.Lmono_fde37:
	.byte	1
	.long	.Lmono_fde_aug_end37-.Lmono_fde_aug_begin37
.Lmono_fde_aug_begin37:
	.ascii	"\317\336\277\352\004"
	.byte	1
	.byte	3
	.byte	146
	.byte	13
	.byte	0
	.byte	0
	.p2align	2
.Lmono_fde_aug_end37:
	.byte	4
	.long	.Ltmp350-.Lfunc_begin41
	.byte	14
	.byte	8
	.byte	4
	.long	.Ltmp351-.Ltmp350
	.byte	142
	.byte	1
	.byte	4
	.long	.Ltmp352-.Ltmp351
	.byte	139
	.byte	2
	.byte	4
	.long	.Ltmp353-.Ltmp352
	.byte	14
	.byte	16

.Lmono_fde38:
	.byte	1
	.long	.Lmono_fde_aug_end38-.Lmono_fde_aug_begin38
.Lmono_fde_aug_begin38:
	.ascii	"\317\336\277\352\004"
	.byte	1
	.byte	3
	.byte	146
	.byte	13
	.byte	12
	.byte	0
	.p2align	2
.Lmono_fde_aug_end38:
	.byte	4
	.long	.Ltmp356-.Lfunc_begin42
	.byte	14
	.byte	32
	.byte	4
	.long	.Ltmp357-.Ltmp356
	.byte	142
	.byte	1
	.byte	4
	.long	.Ltmp358-.Ltmp357
	.byte	139
	.byte	2
	.byte	4
	.long	.Ltmp359-.Ltmp358
	.byte	138
	.byte	3
	.byte	4
	.long	.Ltmp360-.Ltmp359
	.byte	137
	.byte	4
	.byte	4
	.long	.Ltmp361-.Ltmp360
	.byte	135
	.byte	5
	.byte	4
	.long	.Ltmp362-.Ltmp361
	.byte	134
	.byte	6
	.byte	4
	.long	.Ltmp363-.Ltmp362
	.byte	133
	.byte	7
	.byte	4
	.long	.Ltmp364-.Ltmp363
	.byte	132
	.byte	8
	.byte	4
	.long	.Ltmp365-.Ltmp364
	.byte	14
	.byte	48

.Lmono_fde39:
	.byte	1
	.long	.Lmono_fde_aug_end39-.Lmono_fde_aug_begin39
.Lmono_fde_aug_begin39:
	.ascii	"\317\336\277\352\004"
	.byte	1
	.byte	3
	.byte	146
	.byte	13
	.byte	4
	.byte	0
	.p2align	2
.Lmono_fde_aug_end39:
	.byte	4
	.long	.Ltmp369-.Lfunc_begin43
	.byte	14
	.byte	24
	.byte	4
	.long	.Ltmp370-.Ltmp369
	.byte	142
	.byte	1
	.byte	4
	.long	.Ltmp371-.Ltmp370
	.byte	139
	.byte	2
	.byte	4
	.long	.Ltmp372-.Ltmp371
	.byte	135
	.byte	3
	.byte	4
	.long	.Ltmp373-.Ltmp372
	.byte	134
	.byte	4
	.byte	4
	.long	.Ltmp374-.Ltmp373
	.byte	133
	.byte	5
	.byte	4
	.long	.Ltmp375-.Ltmp374
	.byte	132
	.byte	6
	.byte	4
	.long	.Ltmp376-.Ltmp375
	.byte	14
	.byte	32

.Lmono_fde40:
	.byte	1
	.long	.Lmono_fde_aug_end40-.Lmono_fde_aug_begin40
.Lmono_fde_aug_begin40:
	.ascii	"\317\336\277\352\004"
	.byte	1
	.byte	3
	.byte	146
	.byte	13
	.byte	4
	.byte	0
	.p2align	2
.Lmono_fde_aug_end40:
	.byte	4
	.long	.Ltmp378-.Lfunc_begin44
	.byte	14
	.byte	16
	.byte	4
	.long	.Ltmp379-.Ltmp378
	.byte	142
	.byte	1
	.byte	4
	.long	.Ltmp380-.Ltmp379
	.byte	134
	.byte	2
	.byte	4
	.long	.Ltmp381-.Ltmp380
	.byte	133
	.byte	3
	.byte	4
	.long	.Ltmp382-.Ltmp381
	.byte	132
	.byte	4
	.byte	4
	.long	.Ltmp383-.Ltmp382
	.byte	14
	.byte	24

.Lmono_fde41:
	.byte	1
	.long	.Lmono_fde_aug_end41-.Lmono_fde_aug_begin41
.Lmono_fde_aug_begin41:
	.ascii	"\317\336\277\352\004"
	.byte	1
	.byte	3
	.byte	146
	.byte	13
	.byte	4
	.byte	0
	.p2align	2
.Lmono_fde_aug_end41:
	.byte	4
	.long	.Ltmp385-.Lfunc_begin45
	.byte	14
	.byte	24
	.byte	4
	.long	.Ltmp386-.Ltmp385
	.byte	142
	.byte	1
	.byte	4
	.long	.Ltmp387-.Ltmp386
	.byte	136
	.byte	2
	.byte	4
	.long	.Ltmp388-.Ltmp387
	.byte	135
	.byte	3
	.byte	4
	.long	.Ltmp389-.Ltmp388
	.byte	134
	.byte	4
	.byte	4
	.long	.Ltmp390-.Ltmp389
	.byte	133
	.byte	5
	.byte	4
	.long	.Ltmp391-.Ltmp390
	.byte	132
	.byte	6
	.byte	4
	.long	.Ltmp392-.Ltmp391
	.byte	14
	.byte	32

.Lmono_fde42:
	.byte	1
	.long	.Lmono_fde_aug_end42-.Lmono_fde_aug_begin42
.Lmono_fde_aug_begin42:
	.ascii	"\317\336\277\352\004"
	.byte	1
	.byte	3
	.byte	146
	.byte	13
	.byte	0
	.byte	0
	.p2align	2
.Lmono_fde_aug_end42:
	.byte	4
	.long	.Ltmp394-.Lfunc_begin46
	.byte	14
	.byte	4

.Lmono_fde43:
	.byte	1
	.long	.Lmono_fde_aug_end43-.Lmono_fde_aug_begin43
.Lmono_fde_aug_begin43:
	.ascii	"\317\336\277\352\004"
	.byte	1
	.byte	3
	.byte	146
	.byte	13
	.byte	4
	.byte	0
	.p2align	2
.Lmono_fde_aug_end43:
	.byte	4
	.long	.Ltmp395-.Lfunc_begin47
	.byte	14
	.byte	16
	.byte	4
	.long	.Ltmp396-.Ltmp395
	.byte	142
	.byte	1
	.byte	4
	.long	.Ltmp397-.Ltmp396
	.byte	139
	.byte	2
	.byte	4
	.long	.Ltmp398-.Ltmp397
	.byte	136
	.byte	3
	.byte	4
	.long	.Ltmp399-.Ltmp398
	.byte	132
	.byte	4
	.byte	4
	.long	.Ltmp400-.Ltmp399
	.byte	14
	.byte	32

.Lmono_fde44:
	.byte	1
	.long	.Lmono_fde_aug_end44-.Lmono_fde_aug_begin44
.Lmono_fde_aug_begin44:
	.ascii	"\317\336\277\352\004"
	.byte	1
	.byte	3
	.byte	146
	.byte	13
	.byte	4
	.byte	0
	.p2align	2
.Lmono_fde_aug_end44:
	.byte	4
	.long	.Ltmp401-.Lfunc_begin48
	.byte	14
	.byte	16
	.byte	4
	.long	.Ltmp402-.Ltmp401
	.byte	142
	.byte	1
	.byte	4
	.long	.Ltmp403-.Ltmp402
	.byte	139
	.byte	2
	.byte	4
	.long	.Ltmp404-.Ltmp403
	.byte	133
	.byte	3
	.byte	4
	.long	.Ltmp405-.Ltmp404
	.byte	132
	.byte	4
	.byte	4
	.long	.Ltmp406-.Ltmp405
	.byte	14
	.byte	24

.Lmono_eh_frame_end0:
	.p2align	3

	.section	".note.GNU-stack","",%progbits
	.eabi_attribute	30, 1
