	.text
	.syntax unified
	.eabi_attribute	67, "2.09"
	.eabi_attribute	6, 10
	.eabi_attribute	7, 65
	.eabi_attribute	8, 1
	.eabi_attribute	9, 2
	.fpu	vfpv3-d16
	.eabi_attribute	34, 1
	.eabi_attribute	15, 1
	.eabi_attribute	16, 1
	.eabi_attribute	17, 2
	.eabi_attribute	20, 1
	.eabi_attribute	21, 1
	.eabi_attribute	23, 3
	.eabi_attribute	24, 1
	.eabi_attribute	25, 1
	.eabi_attribute	38, 1
	.eabi_attribute	14, 0
	.file	"aot"
	.weak	gc.safepoint_poll
	.p2align	2
	.type	gc.safepoint_poll,%function
	.code	32
gc.safepoint_poll:
.Lfunc_begin0:
	.fnstart
	ldr	r0, .LCPI0_0
.LPC0_0:
	add	r0, pc, r0
	ldr	r0, [r0, #28]
	ldr	r0, [r0]
	cmp	r0, #0
	bxeq	lr
	.save	{r11, lr}
	push	{r11, lr}
.Ltmp0:
.Ltmp1:
.Ltmp2:
	bl	mono_aot_Newtonsoft_Json_icall_cold_wrapper_265
	pop	{r11, lr}
	bx	lr
	.p2align	2
.LCPI0_0:
	.long	mono_aot_Newtonsoft_Json_llvm_got-(.LPC0_0+8)
.Lfunc_end0:
	.size	gc.safepoint_poll, .Lfunc_end0-gc.safepoint_poll
	.fnend

	.p2align	2
	.type	mono_aot_Newtonsoft_Json_icall_cold_wrapper_265,%function
	.code	32
mono_aot_Newtonsoft_Json_icall_cold_wrapper_265:
.Lfunc_begin1:
	.fnstart
	.save	{r11, lr}
	push	{r11, lr}
.Ltmp3:
.Ltmp4:
.Ltmp5:
	ldr	r0, .LCPI1_0
.LPC1_0:
	add	r0, pc, r0
	ldr	r0, [r0, #80]
	blx	r0
	pop	{r11, pc}
	.p2align	2
.LCPI1_0:
	.long	mono_aot_Newtonsoft_Json_llvm_got-(.LPC1_0+8)
.Lfunc_end1:
	.size	mono_aot_Newtonsoft_Json_icall_cold_wrapper_265, .Lfunc_end1-mono_aot_Newtonsoft_Json_icall_cold_wrapper_265
	.fnend

	.p2align	2
	.type	mono_aot_Newtonsoft_Json_init_method_gshared_mrgctx,%function
	.code	32
mono_aot_Newtonsoft_Json_init_method_gshared_mrgctx:
.Lfunc_begin2:
	.fnstart
	.save	{r4, r5, r11, lr}
	push	{r4, r5, r11, lr}
.Ltmp6:
.Ltmp7:
.Ltmp8:
.Ltmp9:
.Ltmp10:
	ldr	r5, .LCPI2_0
	mov	r4, r0
	mov	r3, r1
.LPC2_0:
	add	r5, pc, r5
	ldrb	r0, [r5, r4]
	cmp	r0, #0
	popne	{r4, r5, r11, pc}
	ldr	r0, .LCPI2_1
	mov	r2, r4
.LPC2_1:
	add	r0, pc, r0
	ldr	r1, [r0, #16]
	ldr	r12, [r0, #64]
	ldr	r0, .LCPI2_2
.LPC2_2:
	ldr	r0, [pc, r0]
	blx	r12
	mov	r0, #1
	strb	r0, [r5, r4]
	pop	{r4, r5, r11, pc}
	.p2align	2
.LCPI2_0:
	.long	mono_inited-(.LPC2_0+8)
.LCPI2_1:
	.long	mono_aot_Newtonsoft_Json_llvm_got-(.LPC2_1+8)
.LCPI2_2:
.Ltmp11:
	.long	mono_aot_file_info(GOT_PREL)-((.LPC2_2+8)-.Ltmp11)
.Lfunc_end2:
	.size	mono_aot_Newtonsoft_Json_init_method_gshared_mrgctx, .Lfunc_end2-mono_aot_Newtonsoft_Json_init_method_gshared_mrgctx
	.fnend

	.p2align	2
	.type	mono_aot_Newtonsoft_Json_init_method_gshared_this,%function
	.code	32
mono_aot_Newtonsoft_Json_init_method_gshared_this:
.Lfunc_begin3:
	.fnstart
	.save	{r4, r5, r11, lr}
	push	{r4, r5, r11, lr}
.Ltmp12:
.Ltmp13:
.Ltmp14:
.Ltmp15:
.Ltmp16:
	ldr	r5, .LCPI3_0
	mov	r4, r0
	mov	r3, r1
.LPC3_0:
	add	r5, pc, r5
	ldrb	r0, [r5, r4]
	cmp	r0, #0
	popne	{r4, r5, r11, pc}
	ldr	r0, .LCPI3_1
	mov	r2, r4
.LPC3_1:
	add	r0, pc, r0
	ldr	r1, [r0, #16]
	ldr	r12, [r0, #60]
	ldr	r0, .LCPI3_2
.LPC3_2:
	ldr	r0, [pc, r0]
	blx	r12
	mov	r0, #1
	strb	r0, [r5, r4]
	pop	{r4, r5, r11, pc}
	.p2align	2
.LCPI3_0:
	.long	mono_inited-(.LPC3_0+8)
.LCPI3_1:
	.long	mono_aot_Newtonsoft_Json_llvm_got-(.LPC3_1+8)
.LCPI3_2:
.Ltmp17:
	.long	mono_aot_file_info(GOT_PREL)-((.LPC3_2+8)-.Ltmp17)
.Lfunc_end3:
	.size	mono_aot_Newtonsoft_Json_init_method_gshared_this, .Lfunc_end3-mono_aot_Newtonsoft_Json_init_method_gshared_this
	.fnend

	.p2align	2
	.type	mono_aot_Newtonsoft_Json_init_method_gshared_vtable,%function
	.code	32
mono_aot_Newtonsoft_Json_init_method_gshared_vtable:
.Lfunc_begin4:
	.fnstart
	.save	{r4, r5, r11, lr}
	push	{r4, r5, r11, lr}
.Ltmp18:
.Ltmp19:
.Ltmp20:
.Ltmp21:
.Ltmp22:
	ldr	r5, .LCPI4_0
	mov	r4, r0
	mov	r3, r1
.LPC4_0:
	add	r5, pc, r5
	ldrb	r0, [r5, r4]
	cmp	r0, #0
	popne	{r4, r5, r11, pc}
	ldr	r0, .LCPI4_1
	mov	r2, r4
.LPC4_1:
	add	r0, pc, r0
	ldr	r1, [r0, #16]
	ldr	r12, [r0, #68]
	ldr	r0, .LCPI4_2
.LPC4_2:
	ldr	r0, [pc, r0]
	blx	r12
	mov	r0, #1
	strb	r0, [r5, r4]
	pop	{r4, r5, r11, pc}
	.p2align	2
.LCPI4_0:
	.long	mono_inited-(.LPC4_0+8)
.LCPI4_1:
	.long	mono_aot_Newtonsoft_Json_llvm_got-(.LPC4_1+8)
.LCPI4_2:
.Ltmp23:
	.long	mono_aot_file_info(GOT_PREL)-((.LPC4_2+8)-.Ltmp23)
.Lfunc_end4:
	.size	mono_aot_Newtonsoft_Json_init_method_gshared_vtable, .Lfunc_end4-mono_aot_Newtonsoft_Json_init_method_gshared_vtable
	.fnend

	.hidden	Newtonsoft_Json_JsonConvert_DeserializeObject_T_REF_string
	.globl	Newtonsoft_Json_JsonConvert_DeserializeObject_T_REF_string
	.p2align	2
	.type	Newtonsoft_Json_JsonConvert_DeserializeObject_T_REF_string,%function
	.code	32
Newtonsoft_Json_JsonConvert_DeserializeObject_T_REF_string:
.Lfunc_begin5:
	.fnstart
	.save	{r4, r5, r8, lr}
	push	{r4, r5, r8, lr}
.Ltmp24:
.Ltmp25:
.Ltmp26:
.Ltmp27:
.Ltmp28:
	.pad	#8
	sub	sp, sp, #8
.Ltmp29:
	mov	r4, r0
	ldr	r0, .LCPI5_0
	ldr	r1, .LCPI5_1
.LPC5_0:
	add	r0, pc, r0
.LPC5_1:
	add	r1, pc, r1
	ldr	r0, [r0, #28]
	ldrb	r5, [r1, #87]
	str	r8, [sp, #4]
	ldr	r0, [r0]
	cmp	r0, #0
	blne	mono_aot_Newtonsoft_Json_icall_cold_wrapper_265
	cmp	r5, #0
	beq	.LBB5_2
.LBB5_1:
	ldr	r0, [sp, #4]
	bl	p_1_plt__rgctx_fetch_0_llvm
	str	r0, [sp]
	mov	r0, r4
	ldr	r8, [sp]
	mov	r1, #0
	bl	p_2_plt_Newtonsoft_Json_JsonConvert_DeserializeObject_T_REF_string_Newtonsoft_Json_JsonSerializerSettings_llvm
	add	sp, sp, #8
	pop	{r4, r5, r8, pc}
.LBB5_2:
	mov	r0, #87
	mov	r1, r8
	bl	mono_aot_Newtonsoft_Json_init_method_gshared_mrgctx
	b	.LBB5_1
	.p2align	2
.LCPI5_0:
	.long	mono_aot_Newtonsoft_Json_llvm_got-(.LPC5_0+8)
.LCPI5_1:
	.long	mono_inited-(.LPC5_1+8)
.Lfunc_end5:
	.size	Newtonsoft_Json_JsonConvert_DeserializeObject_T_REF_string, .Lfunc_end5-Newtonsoft_Json_JsonConvert_DeserializeObject_T_REF_string
.Lexception0:
	.fnend

	.hidden	Newtonsoft_Json_JsonConvert_DeserializeAnonymousType_T_REF_string_T_REF
	.globl	Newtonsoft_Json_JsonConvert_DeserializeAnonymousType_T_REF_string_T_REF
	.p2align	2
	.type	Newtonsoft_Json_JsonConvert_DeserializeAnonymousType_T_REF_string_T_REF,%function
	.code	32
Newtonsoft_Json_JsonConvert_DeserializeAnonymousType_T_REF_string_T_REF:
.Lfunc_begin6:
	.fnstart
	.save	{r4, r5, r8, lr}
	push	{r4, r5, r8, lr}
.Ltmp30:
.Ltmp31:
.Ltmp32:
.Ltmp33:
.Ltmp34:
	.pad	#8
	sub	sp, sp, #8
.Ltmp35:
	mov	r4, r0
	ldr	r0, .LCPI6_0
	ldr	r1, .LCPI6_1
.LPC6_0:
	add	r0, pc, r0
.LPC6_1:
	add	r1, pc, r1
	ldr	r0, [r0, #28]
	ldrb	r5, [r1, #88]
	str	r8, [sp, #4]
	ldr	r0, [r0]
	cmp	r0, #0
	blne	mono_aot_Newtonsoft_Json_icall_cold_wrapper_265
	cmp	r5, #0
	beq	.LBB6_2
.LBB6_1:
	ldr	r0, [sp, #4]
	bl	p_3_plt__rgctx_fetch_1_llvm
	str	r0, [sp]
	mov	r0, r4
	ldr	r8, [sp]
	bl	p_4_plt_Newtonsoft_Json_JsonConvert_DeserializeObject_T_REF_string_llvm
	add	sp, sp, #8
	pop	{r4, r5, r8, pc}
.LBB6_2:
	mov	r0, #88
	mov	r1, r8
	bl	mono_aot_Newtonsoft_Json_init_method_gshared_mrgctx
	b	.LBB6_1
	.p2align	2
.LCPI6_0:
	.long	mono_aot_Newtonsoft_Json_llvm_got-(.LPC6_0+8)
.LCPI6_1:
	.long	mono_inited-(.LPC6_1+8)
.Lfunc_end6:
	.size	Newtonsoft_Json_JsonConvert_DeserializeAnonymousType_T_REF_string_T_REF, .Lfunc_end6-Newtonsoft_Json_JsonConvert_DeserializeAnonymousType_T_REF_string_T_REF
.Lexception1:
	.fnend

	.hidden	Newtonsoft_Json_JsonConvert_DeserializeAnonymousType_T_REF_string_T_REF_Newtonsoft_Json_JsonSerializerSettings
	.globl	Newtonsoft_Json_JsonConvert_DeserializeAnonymousType_T_REF_string_T_REF_Newtonsoft_Json_JsonSerializerSettings
	.p2align	2
	.type	Newtonsoft_Json_JsonConvert_DeserializeAnonymousType_T_REF_string_T_REF_Newtonsoft_Json_JsonSerializerSettings,%function
	.code	32
Newtonsoft_Json_JsonConvert_DeserializeAnonymousType_T_REF_string_T_REF_Newtonsoft_Json_JsonSerializerSettings:
.Lfunc_begin7:
	.fnstart
	.save	{r4, r5, r6, r8, r11, lr}
	push	{r4, r5, r6, r8, r11, lr}
.Ltmp36:
.Ltmp37:
.Ltmp38:
.Ltmp39:
.Ltmp40:
.Ltmp41:
.Ltmp42:
	.pad	#8
	sub	sp, sp, #8
.Ltmp43:
	mov	r5, r0
	ldr	r0, .LCPI7_0
	ldr	r1, .LCPI7_1
	mov	r4, r2
.LPC7_0:
	add	r0, pc, r0
.LPC7_1:
	add	r1, pc, r1
	ldr	r0, [r0, #28]
	ldrb	r6, [r1, #89]
	str	r8, [sp, #4]
	ldr	r0, [r0]
	cmp	r0, #0
	blne	mono_aot_Newtonsoft_Json_icall_cold_wrapper_265
	cmp	r6, #0
	beq	.LBB7_2
.LBB7_1:
	ldr	r0, [sp, #4]
	bl	p_5_plt__rgctx_fetch_2_llvm
	str	r0, [sp]
	mov	r0, r5
	ldr	r8, [sp]
	mov	r1, r4
	bl	p_6_plt_Newtonsoft_Json_JsonConvert_DeserializeObject_T_REF_string_Newtonsoft_Json_JsonSerializerSettings_0_llvm
	add	sp, sp, #8
	pop	{r4, r5, r6, r8, r11, pc}
.LBB7_2:
	mov	r0, #89
	mov	r1, r8
	bl	mono_aot_Newtonsoft_Json_init_method_gshared_mrgctx
	b	.LBB7_1
	.p2align	2
.LCPI7_0:
	.long	mono_aot_Newtonsoft_Json_llvm_got-(.LPC7_0+8)
.LCPI7_1:
	.long	mono_inited-(.LPC7_1+8)
.Lfunc_end7:
	.size	Newtonsoft_Json_JsonConvert_DeserializeAnonymousType_T_REF_string_T_REF_Newtonsoft_Json_JsonSerializerSettings, .Lfunc_end7-Newtonsoft_Json_JsonConvert_DeserializeAnonymousType_T_REF_string_T_REF_Newtonsoft_Json_JsonSerializerSettings
.Lexception2:
	.fnend

	.hidden	Newtonsoft_Json_JsonConvert_DeserializeObject_T_REF_string_Newtonsoft_Json_JsonConverter__
	.globl	Newtonsoft_Json_JsonConvert_DeserializeObject_T_REF_string_Newtonsoft_Json_JsonConverter__
	.p2align	2
	.type	Newtonsoft_Json_JsonConvert_DeserializeObject_T_REF_string_Newtonsoft_Json_JsonConverter__,%function
	.code	32
Newtonsoft_Json_JsonConvert_DeserializeObject_T_REF_string_Newtonsoft_Json_JsonConverter__:
.Lfunc_begin8:
	.fnstart
	.save	{r4, r5, r6, lr}
	push	{r4, r5, r6, lr}
.Ltmp44:
.Ltmp45:
.Ltmp46:
.Ltmp47:
.Ltmp48:
	.pad	#8
	sub	sp, sp, #8
.Ltmp49:
	mov	r5, r0
	ldr	r0, .LCPI8_0
	mov	r4, r1
	ldr	r1, .LCPI8_1
.LPC8_0:
	add	r0, pc, r0
.LPC8_1:
	add	r1, pc, r1
	ldr	r0, [r0, #28]
	ldrb	r6, [r1, #90]
	str	r8, [sp, #4]
	ldr	r0, [r0]
	cmp	r0, #0
	blne	mono_aot_Newtonsoft_Json_icall_cold_wrapper_265
	cmp	r6, #0
	beq	.LBB8_2
.LBB8_1:
	ldr	r0, [sp, #4]
	bl	p_7_plt__rgctx_fetch_3_llvm
	mov	r1, r0
	mov	r0, r5
	mov	r2, r4
	bl	p_8_plt_Newtonsoft_Json_JsonConvert_DeserializeObject_string_System_Type_Newtonsoft_Json_JsonConverter___llvm
	mov	r4, r0
	ldr	r0, [sp, #4]
	bl	p_9_plt__rgctx_fetch_4_llvm
	mov	r2, r0
	mov	r0, r4
	ldr	r1, [r2, #4]
	bl	p_10_plt_wrapper_castclass_object___castclass_with_cache_object_intptr_intptr_llvm
	add	sp, sp, #8
	pop	{r4, r5, r6, pc}
.LBB8_2:
	mov	r0, #90
	mov	r1, r8
	bl	mono_aot_Newtonsoft_Json_init_method_gshared_mrgctx
	b	.LBB8_1
	.p2align	2
.LCPI8_0:
	.long	mono_aot_Newtonsoft_Json_llvm_got-(.LPC8_0+8)
.LCPI8_1:
	.long	mono_inited-(.LPC8_1+8)
.Lfunc_end8:
	.size	Newtonsoft_Json_JsonConvert_DeserializeObject_T_REF_string_Newtonsoft_Json_JsonConverter__, .Lfunc_end8-Newtonsoft_Json_JsonConvert_DeserializeObject_T_REF_string_Newtonsoft_Json_JsonConverter__
.Lexception3:
	.fnend

	.hidden	Newtonsoft_Json_JsonConvert_DeserializeObject_T_REF_string_Newtonsoft_Json_JsonSerializerSettings
	.globl	Newtonsoft_Json_JsonConvert_DeserializeObject_T_REF_string_Newtonsoft_Json_JsonSerializerSettings
	.p2align	2
	.type	Newtonsoft_Json_JsonConvert_DeserializeObject_T_REF_string_Newtonsoft_Json_JsonSerializerSettings,%function
	.code	32
Newtonsoft_Json_JsonConvert_DeserializeObject_T_REF_string_Newtonsoft_Json_JsonSerializerSettings:
.Lfunc_begin9:
	.fnstart
	.save	{r4, r5, r6, lr}
	push	{r4, r5, r6, lr}
.Ltmp50:
.Ltmp51:
.Ltmp52:
.Ltmp53:
.Ltmp54:
	.pad	#8
	sub	sp, sp, #8
.Ltmp55:
	mov	r5, r0
	ldr	r0, .LCPI9_0
	mov	r4, r1
	ldr	r1, .LCPI9_1
.LPC9_0:
	add	r0, pc, r0
.LPC9_1:
	add	r1, pc, r1
	ldr	r0, [r0, #28]
	ldrb	r6, [r1, #91]
	str	r8, [sp, #4]
	ldr	r0, [r0]
	cmp	r0, #0
	blne	mono_aot_Newtonsoft_Json_icall_cold_wrapper_265
	cmp	r6, #0
	beq	.LBB9_2
.LBB9_1:
	ldr	r0, [sp, #4]
	bl	p_11_plt__rgctx_fetch_5_llvm
	mov	r1, r0
	mov	r0, r5
	mov	r2, r4
	bl	p_12_plt_Newtonsoft_Json_JsonConvert_DeserializeObject_string_System_Type_Newtonsoft_Json_JsonSerializerSettings_llvm
	mov	r4, r0
	ldr	r0, [sp, #4]
	bl	p_13_plt__rgctx_fetch_6_llvm
	mov	r2, r0
	mov	r0, r4
	ldr	r1, [r2, #4]
	bl	p_10_plt_wrapper_castclass_object___castclass_with_cache_object_intptr_intptr_llvm
	add	sp, sp, #8
	pop	{r4, r5, r6, pc}
.LBB9_2:
	mov	r0, #91
	mov	r1, r8
	bl	mono_aot_Newtonsoft_Json_init_method_gshared_mrgctx
	b	.LBB9_1
	.p2align	2
.LCPI9_0:
	.long	mono_aot_Newtonsoft_Json_llvm_got-(.LPC9_0+8)
.LCPI9_1:
	.long	mono_inited-(.LPC9_1+8)
.Lfunc_end9:
	.size	Newtonsoft_Json_JsonConvert_DeserializeObject_T_REF_string_Newtonsoft_Json_JsonSerializerSettings, .Lfunc_end9-Newtonsoft_Json_JsonConvert_DeserializeObject_T_REF_string_Newtonsoft_Json_JsonSerializerSettings
.Lexception4:
	.fnend

	.hidden	Newtonsoft_Json_JsonConvert_DeserializeObjectAsync_T_REF_string
	.globl	Newtonsoft_Json_JsonConvert_DeserializeObjectAsync_T_REF_string
	.p2align	2
	.type	Newtonsoft_Json_JsonConvert_DeserializeObjectAsync_T_REF_string,%function
	.code	32
Newtonsoft_Json_JsonConvert_DeserializeObjectAsync_T_REF_string:
.Lfunc_begin10:
	.fnstart
	.save	{r4, r5, r8, lr}
	push	{r4, r5, r8, lr}
.Ltmp56:
.Ltmp57:
.Ltmp58:
.Ltmp59:
.Ltmp60:
	.pad	#8
	sub	sp, sp, #8
.Ltmp61:
	mov	r4, r0
	ldr	r0, .LCPI10_0
	ldr	r1, .LCPI10_1
.LPC10_0:
	add	r0, pc, r0
.LPC10_1:
	add	r1, pc, r1
	ldr	r0, [r0, #28]
	ldrb	r5, [r1, #94]
	str	r8, [sp, #4]
	ldr	r0, [r0]
	cmp	r0, #0
	blne	mono_aot_Newtonsoft_Json_icall_cold_wrapper_265
	cmp	r5, #0
	beq	.LBB10_2
.LBB10_1:
	ldr	r0, [sp, #4]
	bl	p_14_plt__rgctx_fetch_7_llvm
	str	r0, [sp]
	mov	r0, r4
	ldr	r8, [sp]
	mov	r1, #0
	bl	p_15_plt_Newtonsoft_Json_JsonConvert_DeserializeObjectAsync_T_REF_string_Newtonsoft_Json_JsonSerializerSettings_llvm
	add	sp, sp, #8
	pop	{r4, r5, r8, pc}
.LBB10_2:
	mov	r0, #94
	mov	r1, r8
	bl	mono_aot_Newtonsoft_Json_init_method_gshared_mrgctx
	b	.LBB10_1
	.p2align	2
.LCPI10_0:
	.long	mono_aot_Newtonsoft_Json_llvm_got-(.LPC10_0+8)
.LCPI10_1:
	.long	mono_inited-(.LPC10_1+8)
.Lfunc_end10:
	.size	Newtonsoft_Json_JsonConvert_DeserializeObjectAsync_T_REF_string, .Lfunc_end10-Newtonsoft_Json_JsonConvert_DeserializeObjectAsync_T_REF_string
.Lexception5:
	.fnend

	.hidden	Newtonsoft_Json_JsonConvert_DeserializeObjectAsync_T_REF_string_Newtonsoft_Json_JsonSerializerSettings
	.globl	Newtonsoft_Json_JsonConvert_DeserializeObjectAsync_T_REF_string_Newtonsoft_Json_JsonSerializerSettings
	.p2align	2
	.type	Newtonsoft_Json_JsonConvert_DeserializeObjectAsync_T_REF_string_Newtonsoft_Json_JsonSerializerSettings,%function
	.code	32
Newtonsoft_Json_JsonConvert_DeserializeObjectAsync_T_REF_string_Newtonsoft_Json_JsonSerializerSettings:
.Lfunc_begin11:
	.fnstart
	.save	{r4, r5, r6, r7, r8, r9, r10, lr}
	push	{r4, r5, r6, r7, r8, r9, r10, lr}
.Ltmp62:
.Ltmp63:
.Ltmp64:
.Ltmp65:
.Ltmp66:
.Ltmp67:
.Ltmp68:
.Ltmp69:
.Ltmp70:
	.pad	#8
	sub	sp, sp, #8
.Ltmp71:
	ldr	r4, .LCPI11_1
	mov	r5, r0
	ldr	r0, .LCPI11_2
	mov	r9, r1
.LPC11_1:
	add	r4, pc, r4
.LPC11_2:
	add	r0, pc, r0
	ldr	r1, [r4, #28]
	ldrb	r6, [r0, #95]
	str	r8, [sp, #4]
	ldr	r0, [r1]
	cmp	r0, #0
	blne	mono_aot_Newtonsoft_Json_icall_cold_wrapper_265
	cmp	r6, #0
	beq	.LBB11_4
.LBB11_1:
	ldr	r0, [sp, #4]
	bl	p_16_plt__rgctx_fetch_8_llvm
	mov	r1, #16
	bl	p_17_plt_wrapper_alloc_object_AllocSmall_intptr_intptr_llvm
	mov	r6, r0
	bl	p_18_plt_Newtonsoft_Json_JsonConvert__c__DisplayClass67_0_1_T_REF__ctor_llvm
	ldr	r7, [r4, #8]
	mov	r0, r6
	dmb	ish
	str	r5, [r0, #8]!
	mov	r10, #1
	mov	r1, r6
	strb	r10, [r7, r0, lsr #9]
	dmb	ish
	str	r9, [r1, #12]!
	ldr	r0, [r4, #100]
	strb	r10, [r7, r1, lsr #9]
	ldrb	r1, [r0, #25]
	cmp	r1, #0
	beq	.LBB11_5
.LBB11_2:
	ldr	r0, [r4, #104]
	ldr	r4, [r0]
	ldr	r0, [sp, #4]
	bl	p_19_plt__rgctx_fetch_9_llvm
	mov	r1, #64
	bl	p_17_plt_wrapper_alloc_object_AllocSmall_intptr_intptr_llvm
	mov	r5, r0
	dmb	ish
	str	r6, [r0, #16]!
	lsr	r0, r0, #9
	strb	r10, [r0, r7]
	ldr	r0, [sp, #4]
	bl	p_20_plt__rgctx_fetch_10_llvm
	str	r0, [r5, #32]
	ldr	r0, [sp, #4]
	bl	p_21_plt__rgctx_fetch_11_llvm
	ldr	r1, [r0, #4]
	str	r1, [r5, #20]
	ldr	r1, [r0, #20]
	str	r1, [r5, #12]
	mov	r1, #0
	ldr	r0, [r0, #16]
	strb	r1, [r5, #56]
	str	r0, [r5, #8]
	ldr	r0, [sp, #4]
	bl	p_22_plt__rgctx_fetch_12_llvm
	cmp	r4, #0
	beq	.LBB11_6
	str	r0, [sp]
	mov	r0, r4
	ldr	r8, [sp]
	mov	r1, r5
	bl	p_24_plt_System_Threading_Tasks_TaskFactory_StartNew_T_REF_System_Func_1_T_REF_llvm
	add	sp, sp, #8
	pop	{r4, r5, r6, r7, r8, r9, r10, pc}
.LBB11_4:
	mov	r0, #95
	mov	r1, r8
	bl	mono_aot_Newtonsoft_Json_init_method_gshared_mrgctx
	b	.LBB11_1
.LBB11_5:
	bl	p_25_plt__jit_icall_mono_generic_class_init_llvm
	b	.LBB11_2
.Ltmp72:
.LBB11_6:
	ldr	r0, .LCPI11_0
.LPC11_0:
	add	r1, pc, r0
	mov	r0, #225
	bl	p_23_plt__jit_icall_llvm_throw_corlib_exception_abs_trampoline_llvm
	.p2align	2
.LCPI11_0:
	.long	.Ltmp72-(.LPC11_0+8)
.LCPI11_1:
	.long	mono_aot_Newtonsoft_Json_llvm_got-(.LPC11_1+8)
.LCPI11_2:
	.long	mono_inited-(.LPC11_2+8)
.Lfunc_end11:
	.size	Newtonsoft_Json_JsonConvert_DeserializeObjectAsync_T_REF_string_Newtonsoft_Json_JsonSerializerSettings, .Lfunc_end11-Newtonsoft_Json_JsonConvert_DeserializeObjectAsync_T_REF_string_Newtonsoft_Json_JsonSerializerSettings
.Lexception6:
	.fnend

	.hidden	Newtonsoft_Json_JsonConvert__c__DisplayClass67_0_1_T_REF__ctor
	.globl	Newtonsoft_Json_JsonConvert__c__DisplayClass67_0_1_T_REF__ctor
	.p2align	2
	.type	Newtonsoft_Json_JsonConvert__c__DisplayClass67_0_1_T_REF__ctor,%function
	.code	32
Newtonsoft_Json_JsonConvert__c__DisplayClass67_0_1_T_REF__ctor:
.Lfunc_begin12:
	.fnstart
	.pad	#4
	sub	sp, sp, #4
.Ltmp73:
	str	r0, [sp]
	add	sp, sp, #4
	bx	lr
.Lfunc_end12:
	.size	Newtonsoft_Json_JsonConvert__c__DisplayClass67_0_1_T_REF__ctor, .Lfunc_end12-Newtonsoft_Json_JsonConvert__c__DisplayClass67_0_1_T_REF__ctor
.Lexception7:
	.fnend

	.hidden	Newtonsoft_Json_JsonConvert__c__DisplayClass67_0_1_T_REF__DeserializeObjectAsyncb__0
	.globl	Newtonsoft_Json_JsonConvert__c__DisplayClass67_0_1_T_REF__DeserializeObjectAsyncb__0
	.p2align	2
	.type	Newtonsoft_Json_JsonConvert__c__DisplayClass67_0_1_T_REF__DeserializeObjectAsyncb__0,%function
	.code	32
Newtonsoft_Json_JsonConvert__c__DisplayClass67_0_1_T_REF__DeserializeObjectAsyncb__0:
.Lfunc_begin13:
	.fnstart
	.save	{r4, r5, r8, lr}
	push	{r4, r5, r8, lr}
.Ltmp74:
.Ltmp75:
.Ltmp76:
.Ltmp77:
.Ltmp78:
	.pad	#16
	sub	sp, sp, #16
.Ltmp79:
	ldr	r1, .LCPI13_2
.LPC13_2:
	add	r1, pc, r1
	ldr	r1, [r1, #28]
	str	r0, [sp, #8]
	str	r0, [sp, #12]
	ldr	r4, [sp, #12]
	ldr	r0, [r1]
	cmp	r0, #0
	blne	mono_aot_Newtonsoft_Json_icall_cold_wrapper_265
	cmp	r4, #0
	beq	.LBB13_3
	ldr	r4, [r4, #8]
	ldr	r0, [sp, #12]
	cmp	r0, #0
	beq	.LBB13_4
	ldr	r5, [r0, #12]
	ldr	r0, [sp, #12]
	ldr	r0, [r0]
	bl	p_26_plt__rgctx_fetch_13_llvm
	str	r0, [sp, #4]
	mov	r0, r4
	ldr	r8, [sp, #4]
	mov	r1, r5
	bl	p_27_plt_Newtonsoft_Json_JsonConvert_DeserializeObject_T_REF_string_Newtonsoft_Json_JsonSerializerSettings_1_llvm
	add	sp, sp, #16
	pop	{r4, r5, r8, pc}
.Ltmp80:
.LBB13_3:
	ldr	r0, .LCPI13_1
.LPC13_1:
	add	r1, pc, r0
	mov	r0, #225
	bl	p_23_plt__jit_icall_llvm_throw_corlib_exception_abs_trampoline_llvm
.Ltmp81:
.LBB13_4:
	ldr	r0, .LCPI13_0
.LPC13_0:
	add	r1, pc, r0
	mov	r0, #225
	bl	p_23_plt__jit_icall_llvm_throw_corlib_exception_abs_trampoline_llvm
	.p2align	2
.LCPI13_0:
	.long	.Ltmp81-(.LPC13_0+8)
.LCPI13_1:
	.long	.Ltmp80-(.LPC13_1+8)
.LCPI13_2:
	.long	mono_aot_Newtonsoft_Json_llvm_got-(.LPC13_2+8)
.Lfunc_end13:
	.size	Newtonsoft_Json_JsonConvert__c__DisplayClass67_0_1_T_REF__DeserializeObjectAsyncb__0, .Lfunc_end13-Newtonsoft_Json_JsonConvert__c__DisplayClass67_0_1_T_REF__DeserializeObjectAsyncb__0
.Lexception8:
	.fnend

	.hidden	Newtonsoft_Json_JsonSerializer_Deserialize_T_REF_Newtonsoft_Json_JsonReader
	.globl	Newtonsoft_Json_JsonSerializer_Deserialize_T_REF_Newtonsoft_Json_JsonReader
	.p2align	2
	.type	Newtonsoft_Json_JsonSerializer_Deserialize_T_REF_Newtonsoft_Json_JsonReader,%function
	.code	32
Newtonsoft_Json_JsonSerializer_Deserialize_T_REF_Newtonsoft_Json_JsonReader:
.Lfunc_begin14:
	.fnstart
	.save	{r4, r5, r6, lr}
	push	{r4, r5, r6, lr}
.Ltmp82:
.Ltmp83:
.Ltmp84:
.Ltmp85:
.Ltmp86:
	.pad	#8
	sub	sp, sp, #8
.Ltmp87:
	mov	r5, r0
	ldr	r0, .LCPI14_0
	mov	r4, r1
.LPC14_0:
	add	r0, pc, r0
	ldr	r0, [r0, #28]
	str	r8, [sp, #4]
	ldr	r6, [sp, #4]
	ldr	r0, [r0]
	cmp	r0, #0
	blne	mono_aot_Newtonsoft_Json_icall_cold_wrapper_265
	mov	r0, r6
	bl	p_28_plt__rgctx_fetch_14_llvm
	mov	r2, r0
	mov	r0, r5
	mov	r1, r4
	bl	p_29_plt_Newtonsoft_Json_JsonSerializer_Deserialize_Newtonsoft_Json_JsonReader_System_Type_llvm
	mov	r4, r0
	ldr	r0, [sp, #4]
	bl	p_30_plt__rgctx_fetch_15_llvm
	mov	r2, r0
	mov	r0, r4
	ldr	r1, [r2, #4]
	bl	p_10_plt_wrapper_castclass_object___castclass_with_cache_object_intptr_intptr_llvm
	add	sp, sp, #8
	pop	{r4, r5, r6, pc}
	.p2align	2
.LCPI14_0:
	.long	mono_aot_Newtonsoft_Json_llvm_got-(.LPC14_0+8)
.Lfunc_end14:
	.size	Newtonsoft_Json_JsonSerializer_Deserialize_T_REF_Newtonsoft_Json_JsonReader, .Lfunc_end14-Newtonsoft_Json_JsonSerializer_Deserialize_T_REF_Newtonsoft_Json_JsonReader
.Lexception9:
	.fnend

	.hidden	Newtonsoft_Json_Utilities_BidirectionalDictionary_2_TFirst_REF_TSecond_REF__ctor
	.globl	Newtonsoft_Json_Utilities_BidirectionalDictionary_2_TFirst_REF_TSecond_REF__ctor
	.p2align	2
	.type	Newtonsoft_Json_Utilities_BidirectionalDictionary_2_TFirst_REF_TSecond_REF__ctor,%function
	.code	32
Newtonsoft_Json_Utilities_BidirectionalDictionary_2_TFirst_REF_TSecond_REF__ctor:
.Lfunc_begin15:
	.fnstart
	.save	{r4, r5, r6, r8, r11, lr}
	push	{r4, r5, r6, r8, r11, lr}
.Ltmp88:
.Ltmp89:
.Ltmp90:
.Ltmp91:
.Ltmp92:
.Ltmp93:
.Ltmp94:
	.pad	#16
	sub	sp, sp, #16
.Ltmp95:
	ldr	r1, .LCPI15_0
	str	r0, [sp, #8]
.LPC15_0:
	add	r1, pc, r1
	str	r0, [sp, #12]
	ldr	r4, [sp, #12]
	ldr	r0, [sp, #12]
	ldr	r1, [r1, #28]
	ldr	r5, [r0]
	ldr	r0, [r1]
	cmp	r0, #0
	blne	mono_aot_Newtonsoft_Json_icall_cold_wrapper_265
	mov	r0, r5
	bl	p_31_plt__rgctx_fetch_16_llvm
	ldr	r0, [sp, #12]
	ldr	r0, [r0]
	bl	p_32_plt__rgctx_fetch_17_llvm
	ldr	r5, [r0]
	dmb	ish
	cmp	r5, #0
	bne	.LBB15_2
	ldr	r0, [sp, #12]
	ldr	r0, [r0]
	bl	p_31_plt__rgctx_fetch_16_llvm
	str	r0, [sp, #4]
	ldr	r8, [sp, #4]
	bl	p_37_plt_System_Collections_Generic_EqualityComparer_1_TFirst_REF_CreateComparer_llvm
	mov	r5, r0
	ldr	r0, [sp, #12]
	ldr	r0, [r0]
	bl	p_32_plt__rgctx_fetch_17_llvm
	dmb	ish
	str	r5, [r0]
.LBB15_2:
	ldr	r0, [sp, #12]
	ldr	r0, [r0]
	bl	p_33_plt__rgctx_fetch_18_llvm
	ldr	r0, [sp, #12]
	ldr	r0, [r0]
	bl	p_34_plt__rgctx_fetch_19_llvm
	ldr	r6, [r0]
	dmb	ish
	cmp	r6, #0
	bne	.LBB15_4
	ldr	r0, [sp, #12]
	ldr	r0, [r0]
	bl	p_33_plt__rgctx_fetch_18_llvm
	str	r0, [sp, #4]
	ldr	r8, [sp, #4]
	bl	p_36_plt_System_Collections_Generic_EqualityComparer_1_TSecond_REF_CreateComparer_llvm
	mov	r6, r0
	ldr	r0, [sp, #12]
	ldr	r0, [r0]
	bl	p_34_plt__rgctx_fetch_19_llvm
	dmb	ish
	str	r6, [r0]
.LBB15_4:
	mov	r0, r4
	mov	r1, r5
	mov	r2, r6
	bl	p_35_plt_Newtonsoft_Json_Utilities_BidirectionalDictionary_2_TFirst_REF_TSecond_REF__ctor_System_Collections_Generic_IEqualityComparer_1_TFirst_REF_System_Collections_Generic_IEqualityComparer_1_TSecond_REF_llvm
	add	sp, sp, #16
	pop	{r4, r5, r6, r8, r11, pc}
	.p2align	2
.LCPI15_0:
	.long	mono_aot_Newtonsoft_Json_llvm_got-(.LPC15_0+8)
.Lfunc_end15:
	.size	Newtonsoft_Json_Utilities_BidirectionalDictionary_2_TFirst_REF_TSecond_REF__ctor, .Lfunc_end15-Newtonsoft_Json_Utilities_BidirectionalDictionary_2_TFirst_REF_TSecond_REF__ctor
.Lexception10:
	.fnend

	.hidden	Newtonsoft_Json_Utilities_BidirectionalDictionary_2_TFirst_REF_TSecond_REF__ctor_System_Collections_Generic_IEqualityComparer_1_TFirst_REF_System_Collections_Generic_IEqualityComparer_1_TSecond_REF
	.globl	Newtonsoft_Json_Utilities_BidirectionalDictionary_2_TFirst_REF_TSecond_REF__ctor_System_Collections_Generic_IEqualityComparer_1_TFirst_REF_System_Collections_Generic_IEqualityComparer_1_TSecond_REF
	.p2align	2
	.type	Newtonsoft_Json_Utilities_BidirectionalDictionary_2_TFirst_REF_TSecond_REF__ctor_System_Collections_Generic_IEqualityComparer_1_TFirst_REF_System_Collections_Generic_IEqualityComparer_1_TSecond_REF,%function
	.code	32
Newtonsoft_Json_Utilities_BidirectionalDictionary_2_TFirst_REF_TSecond_REF__ctor_System_Collections_Generic_IEqualityComparer_1_TFirst_REF_System_Collections_Generic_IEqualityComparer_1_TSecond_REF:
.Lfunc_begin16:
	.fnstart
	.save	{r4, r5, r6, r7, r9, lr}
	push	{r4, r5, r6, r7, r9, lr}
.Ltmp96:
.Ltmp97:
.Ltmp98:
.Ltmp99:
.Ltmp100:
.Ltmp101:
.Ltmp102:
	.pad	#16
	sub	sp, sp, #16
.Ltmp103:
	mov	r6, r0
	ldr	r0, .LCPI16_0
	ldr	r9, .LCPI16_1
	mov	r4, r2
.LPC16_0:
	add	r0, pc, r0
	mov	r5, r1
.LPC16_1:
	add	r9, pc, r9
	ldrb	r7, [r0, #746]
	ldr	r0, [r9, #28]
	str	r6, [sp, #8]
	str	r6, [sp, #12]
	ldr	r0, [r0]
	cmp	r0, #0
	blne	mono_aot_Newtonsoft_Json_icall_cold_wrapper_265
	cmp	r7, #0
	beq	.LBB16_2
.LBB16_1:
	ldr	r0, [sp, #12]
	mov	r1, r5
	ldr	r3, [r9, #108]
	mov	r2, r4
	str	r3, [sp]
	bl	p_38_plt_Newtonsoft_Json_Utilities_BidirectionalDictionary_2_TFirst_REF_TSecond_REF__ctor_System_Collections_Generic_IEqualityComparer_1_TFirst_REF_System_Collections_Generic_IEqualityComparer_1_TSecond_REF_string_string_llvm
	add	sp, sp, #16
	pop	{r4, r5, r6, r7, r9, pc}
.LBB16_2:
	movw	r0, #746
	mov	r1, r6
	bl	mono_aot_Newtonsoft_Json_init_method_gshared_this
	b	.LBB16_1
	.p2align	2
.LCPI16_0:
	.long	mono_inited-(.LPC16_0+8)
.LCPI16_1:
	.long	mono_aot_Newtonsoft_Json_llvm_got-(.LPC16_1+8)
.Lfunc_end16:
	.size	Newtonsoft_Json_Utilities_BidirectionalDictionary_2_TFirst_REF_TSecond_REF__ctor_System_Collections_Generic_IEqualityComparer_1_TFirst_REF_System_Collections_Generic_IEqualityComparer_1_TSecond_REF, .Lfunc_end16-Newtonsoft_Json_Utilities_BidirectionalDictionary_2_TFirst_REF_TSecond_REF__ctor_System_Collections_Generic_IEqualityComparer_1_TFirst_REF_System_Collections_Generic_IEqualityComparer_1_TSecond_REF
.Lexception11:
	.fnend

	.hidden	Newtonsoft_Json_Utilities_BidirectionalDictionary_2_TFirst_REF_TSecond_REF__ctor_System_Collections_Generic_IEqualityComparer_1_TFirst_REF_System_Collections_Generic_IEqualityComparer_1_TSecond_REF_string_string
	.globl	Newtonsoft_Json_Utilities_BidirectionalDictionary_2_TFirst_REF_TSecond_REF__ctor_System_Collections_Generic_IEqualityComparer_1_TFirst_REF_System_Collections_Generic_IEqualityComparer_1_TSecond_REF_string_string
	.p2align	2
	.type	Newtonsoft_Json_Utilities_BidirectionalDictionary_2_TFirst_REF_TSecond_REF__ctor_System_Collections_Generic_IEqualityComparer_1_TFirst_REF_System_Collections_Generic_IEqualityComparer_1_TSecond_REF_string_string,%function
	.code	32
Newtonsoft_Json_Utilities_BidirectionalDictionary_2_TFirst_REF_TSecond_REF__ctor_System_Collections_Generic_IEqualityComparer_1_TFirst_REF_System_Collections_Generic_IEqualityComparer_1_TSecond_REF_string_string:
.Lfunc_begin17:
	.fnstart
	.save	{r4, r5, r6, r7, r9, r10, r11, lr}
	push	{r4, r5, r6, r7, r9, r10, r11, lr}
.Ltmp104:
.Ltmp105:
.Ltmp106:
.Ltmp107:
.Ltmp108:
.Ltmp109:
.Ltmp110:
.Ltmp111:
.Ltmp112:
	.pad	#8
	sub	sp, sp, #8
.Ltmp113:
	ldr	r4, .LCPI17_4
	mov	r6, r1
	str	r0, [sp]
	mov	r9, r3
.LPC17_4:
	add	r4, pc, r4
	str	r0, [sp, #4]
	ldr	r5, [sp, #4]
	mov	r10, r2
	ldr	r0, [sp, #4]
	ldr	r1, [r4, #28]
	ldr	r7, [r0]
	ldr	r0, [r1]
	cmp	r0, #0
	blne	mono_aot_Newtonsoft_Json_icall_cold_wrapper_265
	mov	r0, r7
	bl	p_39_plt__rgctx_fetch_20_llvm
	mov	r1, #48
	bl	p_17_plt_wrapper_alloc_object_AllocSmall_intptr_intptr_llvm
	mov	r1, r6
	mov	r7, r0
	bl	p_40_plt_System_Collections_Generic_Dictionary_2_TFirst_REF_TSecond_REF__ctor_System_Collections_Generic_IEqualityComparer_1_TFirst_REF_llvm
	cmp	r5, #0
	beq	.LBB17_5
	ldr	r4, [r4, #8]
	dmb	ish
	str	r7, [r5, #8]!
	mov	r7, #1
	strb	r7, [r4, r5, lsr #9]
	ldr	r5, [sp, #4]
	ldr	r0, [sp, #4]
	ldr	r0, [r0]
	bl	p_41_plt__rgctx_fetch_21_llvm
	mov	r1, #48
	bl	p_17_plt_wrapper_alloc_object_AllocSmall_intptr_intptr_llvm
	mov	r1, r10
	mov	r6, r0
	bl	p_42_plt_System_Collections_Generic_Dictionary_2_TSecond_REF_TFirst_REF__ctor_System_Collections_Generic_IEqualityComparer_1_TSecond_REF_llvm
	cmp	r5, #0
	beq	.LBB17_6
	dmb	ish
	str	r6, [r5, #12]!
	lsr	r0, r5, #9
	strb	r7, [r0, r4]
	ldr	r0, [sp, #4]
	cmp	r0, #0
	beq	.LBB17_7
	dmb	ish
	str	r9, [r0, #16]!
	lsr	r1, r0, #9
	mov	r0, #1
	strb	r0, [r1, r4]
	ldr	r1, [sp, #4]
	cmp	r1, #0
	beq	.LBB17_8
	ldr	r2, [sp, #40]
	dmb	ish
	str	r2, [r1, #20]!
	lsr	r1, r1, #9
	strb	r0, [r1, r4]
	add	sp, sp, #8
	pop	{r4, r5, r6, r7, r9, r10, r11, pc}
.Ltmp114:
.LBB17_5:
	ldr	r0, .LCPI17_3
.LPC17_3:
	add	r1, pc, r0
	mov	r0, #225
	bl	p_23_plt__jit_icall_llvm_throw_corlib_exception_abs_trampoline_llvm
.Ltmp115:
.LBB17_6:
	ldr	r0, .LCPI17_2
.LPC17_2:
	add	r1, pc, r0
	mov	r0, #225
	bl	p_23_plt__jit_icall_llvm_throw_corlib_exception_abs_trampoline_llvm
.Ltmp116:
.LBB17_7:
	ldr	r0, .LCPI17_1
.LPC17_1:
	add	r1, pc, r0
	mov	r0, #225
	bl	p_23_plt__jit_icall_llvm_throw_corlib_exception_abs_trampoline_llvm
.Ltmp117:
.LBB17_8:
	ldr	r0, .LCPI17_0
.LPC17_0:
	add	r1, pc, r0
	mov	r0, #225
	bl	p_23_plt__jit_icall_llvm_throw_corlib_exception_abs_trampoline_llvm
	.p2align	2
.LCPI17_0:
	.long	.Ltmp117-(.LPC17_0+8)
.LCPI17_1:
	.long	.Ltmp116-(.LPC17_1+8)
.LCPI17_2:
	.long	.Ltmp115-(.LPC17_2+8)
.LCPI17_3:
	.long	.Ltmp114-(.LPC17_3+8)
.LCPI17_4:
	.long	mono_aot_Newtonsoft_Json_llvm_got-(.LPC17_4+8)
.Lfunc_end17:
	.size	Newtonsoft_Json_Utilities_BidirectionalDictionary_2_TFirst_REF_TSecond_REF__ctor_System_Collections_Generic_IEqualityComparer_1_TFirst_REF_System_Collections_Generic_IEqualityComparer_1_TSecond_REF_string_string, .Lfunc_end17-Newtonsoft_Json_Utilities_BidirectionalDictionary_2_TFirst_REF_TSecond_REF__ctor_System_Collections_Generic_IEqualityComparer_1_TFirst_REF_System_Collections_Generic_IEqualityComparer_1_TSecond_REF_string_string
.Lexception12:
	.fnend

	.hidden	Newtonsoft_Json_Utilities_BidirectionalDictionary_2_TFirst_REF_TSecond_REF_Set_TFirst_REF_TSecond_REF
	.globl	Newtonsoft_Json_Utilities_BidirectionalDictionary_2_TFirst_REF_TSecond_REF_Set_TFirst_REF_TSecond_REF
	.p2align	2
	.type	Newtonsoft_Json_Utilities_BidirectionalDictionary_2_TFirst_REF_TSecond_REF_Set_TFirst_REF_TSecond_REF,%function
	.code	32
Newtonsoft_Json_Utilities_BidirectionalDictionary_2_TFirst_REF_TSecond_REF_Set_TFirst_REF_TSecond_REF:
.Lfunc_begin18:
	.fnstart
	.save	{r4, r5, r6, r7, r8, r9, r11, lr}
	push	{r4, r5, r6, r7, r8, r9, r11, lr}
.Ltmp118:
.Ltmp119:
.Ltmp120:
.Ltmp121:
.Ltmp122:
.Ltmp123:
.Ltmp124:
.Ltmp125:
.Ltmp126:
	.pad	#24
	sub	sp, sp, #24
.Ltmp127:
	mov	r6, r0
	ldr	r0, .LCPI18_12
	ldr	r9, .LCPI18_13
	mov	r5, r2
.LPC18_12:
	add	r0, pc, r0
	mov	r4, r1
.LPC18_13:
	add	r9, pc, r9
	ldrb	r7, [r0, #748]
	ldr	r0, [r9, #28]
	str	r6, [sp, #8]
	str	r6, [sp, #12]
	ldr	r0, [r0]
	cmp	r0, #0
	blne	mono_aot_Newtonsoft_Json_icall_cold_wrapper_265
	cmp	r7, #0
	beq	.LBB18_16
.LBB18_1:
	ldr	r0, [sp, #12]
	mov	r1, #0
	str	r1, [sp, #20]
	cmp	r0, #0
	str	r1, [sp, #16]
	beq	.LBB18_17
	ldr	r6, [r0, #8]
	ldr	r0, [sp, #12]
	ldr	r0, [r0]
	bl	p_43_plt__rgctx_fetch_22_llvm
	cmp	r6, #0
	beq	.LBB18_18
	ldr	r1, [r6]
	add	r2, sp, #20
	ldr	r3, [r1, #-68]
	mov	r1, r4
	str	r0, [sp, #4]
	mov	r0, r6
	ldr	r8, [sp, #4]
	blx	r3
	tst	r0, #255
	beq	.LBB18_6
	ldr	r0, [sp, #20]
	cmp	r0, #0
	beq	.LBB18_25
	ldr	r1, [r0]
	ldr	r2, [r1, #52]
	mov	r1, r5
	blx	r2
	tst	r0, #255
	beq	.LBB18_26
.LBB18_6:
	ldr	r0, [sp, #12]
	cmp	r0, #0
	beq	.LBB18_19
	ldr	r6, [r0, #12]
	ldr	r0, [sp, #12]
	ldr	r0, [r0]
	bl	p_44_plt__rgctx_fetch_23_llvm
	cmp	r6, #0
	beq	.LBB18_20
	ldr	r1, [r6]
	add	r2, sp, #16
	ldr	r3, [r1, #-68]
	mov	r1, r5
	str	r0, [sp, #4]
	mov	r0, r6
	ldr	r8, [sp, #4]
	blx	r3
	tst	r0, #255
	beq	.LBB18_11
	ldr	r0, [sp, #16]
	cmp	r0, #0
	beq	.LBB18_28
	ldr	r1, [r0]
	ldr	r2, [r1, #52]
	mov	r1, r4
	blx	r2
	tst	r0, #255
	beq	.LBB18_29
.LBB18_11:
	ldr	r0, [sp, #12]
	cmp	r0, #0
	beq	.LBB18_21
	ldr	r6, [r0, #8]
	ldr	r0, [sp, #12]
	ldr	r0, [r0]
	bl	p_45_plt__rgctx_fetch_24_llvm
	cmp	r6, #0
	beq	.LBB18_22
	ldr	r1, [r6]
	mov	r2, r5
	ldr	r3, [r1, #-68]
	mov	r1, r4
	str	r0, [sp, #4]
	mov	r0, r6
	ldr	r8, [sp, #4]
	blx	r3
	ldr	r0, [sp, #12]
	cmp	r0, #0
	beq	.LBB18_23
	ldr	r6, [r0, #12]
	ldr	r0, [sp, #12]
	ldr	r0, [r0]
	bl	p_46_plt__rgctx_fetch_25_llvm
	cmp	r6, #0
	beq	.LBB18_24
	ldr	r1, [r6]
	mov	r2, r4
	ldr	r3, [r1, #-68]
	mov	r1, r5
	str	r0, [sp, #4]
	mov	r0, r6
	ldr	r8, [sp, #4]
	blx	r3
	add	sp, sp, #24
	pop	{r4, r5, r6, r7, r8, r9, r11, pc}
.LBB18_16:
	mov	r0, #748
	mov	r1, r6
	bl	mono_aot_Newtonsoft_Json_init_method_gshared_this
	b	.LBB18_1
.Ltmp128:
.LBB18_17:
	ldr	r0, .LCPI18_11
.LPC18_11:
	add	r1, pc, r0
	mov	r0, #225
	bl	p_23_plt__jit_icall_llvm_throw_corlib_exception_abs_trampoline_llvm
.Ltmp129:
.LBB18_18:
	ldr	r0, .LCPI18_10
.LPC18_10:
	add	r1, pc, r0
	mov	r0, #225
	bl	p_23_plt__jit_icall_llvm_throw_corlib_exception_abs_trampoline_llvm
.Ltmp130:
.LBB18_19:
	ldr	r0, .LCPI18_9
.LPC18_9:
	add	r1, pc, r0
	mov	r0, #225
	bl	p_23_plt__jit_icall_llvm_throw_corlib_exception_abs_trampoline_llvm
.Ltmp131:
.LBB18_20:
	ldr	r0, .LCPI18_8
.LPC18_8:
	add	r1, pc, r0
	mov	r0, #225
	bl	p_23_plt__jit_icall_llvm_throw_corlib_exception_abs_trampoline_llvm
.Ltmp132:
.LBB18_21:
	ldr	r0, .LCPI18_7
.LPC18_7:
	add	r1, pc, r0
	mov	r0, #225
	bl	p_23_plt__jit_icall_llvm_throw_corlib_exception_abs_trampoline_llvm
.Ltmp133:
.LBB18_22:
	ldr	r0, .LCPI18_6
.LPC18_6:
	add	r1, pc, r0
	mov	r0, #225
	bl	p_23_plt__jit_icall_llvm_throw_corlib_exception_abs_trampoline_llvm
.Ltmp134:
.LBB18_23:
	ldr	r0, .LCPI18_5
.LPC18_5:
	add	r1, pc, r0
	mov	r0, #225
	bl	p_23_plt__jit_icall_llvm_throw_corlib_exception_abs_trampoline_llvm
.Ltmp135:
.LBB18_24:
	ldr	r0, .LCPI18_4
.LPC18_4:
	add	r1, pc, r0
	mov	r0, #225
	bl	p_23_plt__jit_icall_llvm_throw_corlib_exception_abs_trampoline_llvm
.Ltmp136:
.LBB18_25:
	ldr	r0, .LCPI18_1
.LPC18_1:
	add	r1, pc, r0
	mov	r0, #225
	bl	p_23_plt__jit_icall_llvm_throw_corlib_exception_abs_trampoline_llvm
.LBB18_26:
	ldr	r1, [sp, #12]
	cmp	r1, #0
	bne	.LBB18_31
.Ltmp137:
	ldr	r0, .LCPI18_0
.LPC18_0:
	add	r1, pc, r0
	mov	r0, #225
	bl	p_23_plt__jit_icall_llvm_throw_corlib_exception_abs_trampoline_llvm
.Ltmp138:
.LBB18_28:
	ldr	r0, .LCPI18_3
.LPC18_3:
	add	r1, pc, r0
	mov	r0, #225
	bl	p_23_plt__jit_icall_llvm_throw_corlib_exception_abs_trampoline_llvm
.LBB18_29:
	ldr	r1, [sp, #12]
	cmp	r1, #0
	bne	.LBB18_34
.Ltmp139:
	ldr	r0, .LCPI18_2
.LPC18_2:
	add	r1, pc, r0
	mov	r0, #225
	bl	p_23_plt__jit_icall_llvm_throw_corlib_exception_abs_trampoline_llvm
.LBB18_31:
	ldr	r0, [r9, #112]
	ldr	r5, [r1, #16]
	ldrb	r1, [r0, #25]
	cmp	r1, #0
	bne	.LBB18_33
	bl	p_25_plt__jit_icall_mono_generic_class_init_llvm
.LBB18_33:
	ldr	r0, [r9, #116]
	mov	r2, r4
	ldr	r1, [r0]
	dmb	ish
	mov	r0, r5
	b	.LBB18_37
.LBB18_34:
	ldr	r0, [r9, #112]
	ldr	r4, [r1, #20]
	ldrb	r1, [r0, #25]
	cmp	r1, #0
	bne	.LBB18_36
	bl	p_25_plt__jit_icall_mono_generic_class_init_llvm
.LBB18_36:
	ldr	r0, [r9, #116]
	mov	r2, r5
	ldr	r1, [r0]
	mov	r0, r4
	dmb	ish
.LBB18_37:
	bl	p_47_plt_Newtonsoft_Json_Utilities_StringUtils_FormatWith_string_System_IFormatProvider_object_llvm
	mov	r4, r0
	ldr	r0, [r9, #120]
	mov	r1, #76
	bl	p_17_plt_wrapper_alloc_object_AllocSmall_intptr_intptr_llvm
	mov	r1, r4
	mov	r5, r0
	bl	p_48_plt_System_ArgumentException__ctor_string_llvm
	mov	r0, r5
	bl	p_49_plt__jit_icall_mono_arch_throw_exception_llvm
	.p2align	2
.LCPI18_0:
	.long	.Ltmp137-(.LPC18_0+8)
.LCPI18_1:
	.long	.Ltmp136-(.LPC18_1+8)
.LCPI18_2:
	.long	.Ltmp139-(.LPC18_2+8)
.LCPI18_3:
	.long	.Ltmp138-(.LPC18_3+8)
.LCPI18_4:
	.long	.Ltmp135-(.LPC18_4+8)
.LCPI18_5:
	.long	.Ltmp134-(.LPC18_5+8)
.LCPI18_6:
	.long	.Ltmp133-(.LPC18_6+8)
.LCPI18_7:
	.long	.Ltmp132-(.LPC18_7+8)
.LCPI18_8:
	.long	.Ltmp131-(.LPC18_8+8)
.LCPI18_9:
	.long	.Ltmp130-(.LPC18_9+8)
.LCPI18_10:
	.long	.Ltmp129-(.LPC18_10+8)
.LCPI18_11:
	.long	.Ltmp128-(.LPC18_11+8)
.LCPI18_12:
	.long	mono_inited-(.LPC18_12+8)
.LCPI18_13:
	.long	mono_aot_Newtonsoft_Json_llvm_got-(.LPC18_13+8)
.Lfunc_end18:
	.size	Newtonsoft_Json_Utilities_BidirectionalDictionary_2_TFirst_REF_TSecond_REF_Set_TFirst_REF_TSecond_REF, .Lfunc_end18-Newtonsoft_Json_Utilities_BidirectionalDictionary_2_TFirst_REF_TSecond_REF_Set_TFirst_REF_TSecond_REF
.Lexception13:
	.fnend

	.hidden	Newtonsoft_Json_Utilities_BidirectionalDictionary_2_TFirst_REF_TSecond_REF_TryGetByFirst_TFirst_REF_TSecond_REF_
	.globl	Newtonsoft_Json_Utilities_BidirectionalDictionary_2_TFirst_REF_TSecond_REF_TryGetByFirst_TFirst_REF_TSecond_REF_
	.p2align	2
	.type	Newtonsoft_Json_Utilities_BidirectionalDictionary_2_TFirst_REF_TSecond_REF_TryGetByFirst_TFirst_REF_TSecond_REF_,%function
	.code	32
Newtonsoft_Json_Utilities_BidirectionalDictionary_2_TFirst_REF_TSecond_REF_TryGetByFirst_TFirst_REF_TSecond_REF_:
.Lfunc_begin19:
	.fnstart
	.save	{r4, r5, r6, r8, r11, lr}
	push	{r4, r5, r6, r8, r11, lr}
.Ltmp140:
.Ltmp141:
.Ltmp142:
.Ltmp143:
.Ltmp144:
.Ltmp145:
.Ltmp146:
	.pad	#16
	sub	sp, sp, #16
.Ltmp147:
	mov	r5, r1
	ldr	r1, .LCPI19_2
	mov	r4, r2
.LPC19_2:
	add	r1, pc, r1
	ldr	r1, [r1, #28]
	str	r0, [sp, #8]
	str	r0, [sp, #12]
	ldr	r6, [sp, #12]
	ldr	r0, [r1]
	cmp	r0, #0
	blne	mono_aot_Newtonsoft_Json_icall_cold_wrapper_265
	cmp	r6, #0
	beq	.LBB19_3
	ldr	r6, [r6, #8]
	ldr	r0, [sp, #12]
	ldr	r0, [r0]
	bl	p_43_plt__rgctx_fetch_22_llvm
	cmp	r6, #0
	beq	.LBB19_4
	ldr	r1, [r6]
	mov	r2, r4
	ldr	r3, [r1, #-68]
	mov	r1, r5
	str	r0, [sp, #4]
	mov	r0, r6
	ldr	r8, [sp, #4]
	blx	r3
	add	sp, sp, #16
	pop	{r4, r5, r6, r8, r11, pc}
.Ltmp148:
.LBB19_3:
	ldr	r0, .LCPI19_1
.LPC19_1:
	add	r1, pc, r0
	mov	r0, #225
	bl	p_23_plt__jit_icall_llvm_throw_corlib_exception_abs_trampoline_llvm
.Ltmp149:
.LBB19_4:
	ldr	r0, .LCPI19_0
.LPC19_0:
	add	r1, pc, r0
	mov	r0, #225
	bl	p_23_plt__jit_icall_llvm_throw_corlib_exception_abs_trampoline_llvm
	.p2align	2
.LCPI19_0:
	.long	.Ltmp149-(.LPC19_0+8)
.LCPI19_1:
	.long	.Ltmp148-(.LPC19_1+8)
.LCPI19_2:
	.long	mono_aot_Newtonsoft_Json_llvm_got-(.LPC19_2+8)
.Lfunc_end19:
	.size	Newtonsoft_Json_Utilities_BidirectionalDictionary_2_TFirst_REF_TSecond_REF_TryGetByFirst_TFirst_REF_TSecond_REF_, .Lfunc_end19-Newtonsoft_Json_Utilities_BidirectionalDictionary_2_TFirst_REF_TSecond_REF_TryGetByFirst_TFirst_REF_TSecond_REF_
.Lexception14:
	.fnend

	.hidden	Newtonsoft_Json_Utilities_BidirectionalDictionary_2_TFirst_REF_TSecond_REF_TryGetBySecond_TSecond_REF_TFirst_REF_
	.globl	Newtonsoft_Json_Utilities_BidirectionalDictionary_2_TFirst_REF_TSecond_REF_TryGetBySecond_TSecond_REF_TFirst_REF_
	.p2align	2
	.type	Newtonsoft_Json_Utilities_BidirectionalDictionary_2_TFirst_REF_TSecond_REF_TryGetBySecond_TSecond_REF_TFirst_REF_,%function
	.code	32
Newtonsoft_Json_Utilities_BidirectionalDictionary_2_TFirst_REF_TSecond_REF_TryGetBySecond_TSecond_REF_TFirst_REF_:
.Lfunc_begin20:
	.fnstart
	.save	{r4, r5, r6, r8, r11, lr}
	push	{r4, r5, r6, r8, r11, lr}
.Ltmp150:
.Ltmp151:
.Ltmp152:
.Ltmp153:
.Ltmp154:
.Ltmp155:
.Ltmp156:
	.pad	#16
	sub	sp, sp, #16
.Ltmp157:
	mov	r5, r1
	ldr	r1, .LCPI20_2
	mov	r4, r2
.LPC20_2:
	add	r1, pc, r1
	ldr	r1, [r1, #28]
	str	r0, [sp, #8]
	str	r0, [sp, #12]
	ldr	r6, [sp, #12]
	ldr	r0, [r1]
	cmp	r0, #0
	blne	mono_aot_Newtonsoft_Json_icall_cold_wrapper_265
	cmp	r6, #0
	beq	.LBB20_3
	ldr	r6, [r6, #12]
	ldr	r0, [sp, #12]
	ldr	r0, [r0]
	bl	p_44_plt__rgctx_fetch_23_llvm
	cmp	r6, #0
	beq	.LBB20_4
	ldr	r1, [r6]
	mov	r2, r4
	ldr	r3, [r1, #-68]
	mov	r1, r5
	str	r0, [sp, #4]
	mov	r0, r6
	ldr	r8, [sp, #4]
	blx	r3
	add	sp, sp, #16
	pop	{r4, r5, r6, r8, r11, pc}
.Ltmp158:
.LBB20_3:
	ldr	r0, .LCPI20_1
.LPC20_1:
	add	r1, pc, r0
	mov	r0, #225
	bl	p_23_plt__jit_icall_llvm_throw_corlib_exception_abs_trampoline_llvm
.Ltmp159:
.LBB20_4:
	ldr	r0, .LCPI20_0
.LPC20_0:
	add	r1, pc, r0
	mov	r0, #225
	bl	p_23_plt__jit_icall_llvm_throw_corlib_exception_abs_trampoline_llvm
	.p2align	2
.LCPI20_0:
	.long	.Ltmp159-(.LPC20_0+8)
.LCPI20_1:
	.long	.Ltmp158-(.LPC20_1+8)
.LCPI20_2:
	.long	mono_aot_Newtonsoft_Json_llvm_got-(.LPC20_2+8)
.Lfunc_end20:
	.size	Newtonsoft_Json_Utilities_BidirectionalDictionary_2_TFirst_REF_TSecond_REF_TryGetBySecond_TSecond_REF_TFirst_REF_, .Lfunc_end20-Newtonsoft_Json_Utilities_BidirectionalDictionary_2_TFirst_REF_TSecond_REF_TryGetBySecond_TSecond_REF_TFirst_REF_
.Lexception15:
	.fnend

	.hidden	Newtonsoft_Json_Utilities_CollectionUtils_IsNullOrEmpty_T_REF_System_Collections_Generic_ICollection_1_T_REF
	.globl	Newtonsoft_Json_Utilities_CollectionUtils_IsNullOrEmpty_T_REF_System_Collections_Generic_ICollection_1_T_REF
	.p2align	2
	.type	Newtonsoft_Json_Utilities_CollectionUtils_IsNullOrEmpty_T_REF_System_Collections_Generic_ICollection_1_T_REF,%function
	.code	32
Newtonsoft_Json_Utilities_CollectionUtils_IsNullOrEmpty_T_REF_System_Collections_Generic_ICollection_1_T_REF:
.Lfunc_begin21:
	.fnstart
	.save	{r4, r8, r11, lr}
	push	{r4, r8, r11, lr}
.Ltmp160:
.Ltmp161:
.Ltmp162:
.Ltmp163:
.Ltmp164:
	.pad	#8
	sub	sp, sp, #8
.Ltmp165:
	mov	r4, r0
	ldr	r0, .LCPI21_0
.LPC21_0:
	add	r0, pc, r0
	ldr	r0, [r0, #28]
	str	r8, [sp, #4]
	ldr	r0, [r0]
	cmp	r0, #0
	blne	mono_aot_Newtonsoft_Json_icall_cold_wrapper_265
	cmp	r4, #0
	beq	.LBB21_2
	ldr	r0, [sp, #4]
	bl	p_50_plt__rgctx_fetch_26_llvm
	ldr	r1, [r4]
	ldr	r1, [r1, #-76]
	str	r0, [sp]
	mov	r0, r4
	ldr	r8, [sp]
	blx	r1
	mov	r1, r0
	mov	r0, #0
	cmp	r1, #0
	movweq	r0, #1
	add	sp, sp, #8
	pop	{r4, r8, r11, pc}
.LBB21_2:
	mov	r0, #1
	add	sp, sp, #8
	pop	{r4, r8, r11, pc}
	.p2align	2
.LCPI21_0:
	.long	mono_aot_Newtonsoft_Json_llvm_got-(.LPC21_0+8)
.Lfunc_end21:
	.size	Newtonsoft_Json_Utilities_CollectionUtils_IsNullOrEmpty_T_REF_System_Collections_Generic_ICollection_1_T_REF, .Lfunc_end21-Newtonsoft_Json_Utilities_CollectionUtils_IsNullOrEmpty_T_REF_System_Collections_Generic_ICollection_1_T_REF
.Lexception16:
	.fnend

	.hidden	Newtonsoft_Json_Utilities_CollectionUtils_AddRange_T_REF_System_Collections_Generic_IList_1_T_REF_System_Collections_Generic_IEnumerable_1_T_REF
	.globl	Newtonsoft_Json_Utilities_CollectionUtils_AddRange_T_REF_System_Collections_Generic_IList_1_T_REF_System_Collections_Generic_IEnumerable_1_T_REF
	.p2align	2
	.type	Newtonsoft_Json_Utilities_CollectionUtils_AddRange_T_REF_System_Collections_Generic_IList_1_T_REF_System_Collections_Generic_IEnumerable_1_T_REF,%function
	.code	32
Newtonsoft_Json_Utilities_CollectionUtils_AddRange_T_REF_System_Collections_Generic_IList_1_T_REF_System_Collections_Generic_IEnumerable_1_T_REF:
.Lfunc_begin22:
	.fnstart
	.save	{r4, r5, r6, r7, r8, lr}
	push	{r4, r5, r6, r7, r8, lr}
.Ltmp184:
.Ltmp185:
.Ltmp186:
.Ltmp187:
.Ltmp188:
.Ltmp189:
.Ltmp190:
	.pad	#16
	sub	sp, sp, #16
.Ltmp191:
	ldr	r6, .LCPI22_3
	mov	r4, r0
	ldr	r0, .LCPI22_4
	mov	r5, r1
.LPC22_3:
	add	r6, pc, r6
.LPC22_4:
	add	r0, pc, r0
	ldr	r1, [r6, #28]
	ldrb	r7, [r0, #752]
	str	r8, [sp, #12]
	ldr	r0, [r1]
	cmp	r0, #0
	blne	mono_aot_Newtonsoft_Json_icall_cold_wrapper_265
	cmp	r7, #0
	beq	.LBB22_16
.LBB22_1:
	mov	r0, #0
	cmp	r4, #0
	str	r0, [sp, #4]
	beq	.LBB22_19
	cmp	r5, #0
	beq	.LBB22_28
	ldr	r0, [sp, #12]
	bl	p_51_plt__rgctx_fetch_27_llvm
	ldr	r1, [r5]
	ldr	r1, [r1, #-40]
	str	r0, [sp]
	mov	r0, r5
	ldr	r8, [sp]
	blx	r1
	str	r0, [sp, #4]
	ldr	r5, [sp, #4]
	cmp	r5, #0
	beq	.LBB22_13
	ldr	r7, [r6, #124]
.LBB22_5:
	ldr	r0, [r5]
	ldr	r1, [r0, #-60]
	str	r7, [sp]
	ldr	r8, [sp]
.Ltmp166:
	mov	r0, r5
	blx	r1
.Ltmp167:
	tst	r0, #255
	beq	.LBB22_15
	ldr	r5, [sp, #4]
	ldr	r0, [sp, #12]
.Ltmp168:
	bl	p_52_plt__rgctx_fetch_28_llvm
.Ltmp169:
	cmp	r5, #0
	beq	.LBB22_17
	ldr	r1, [r5]
	ldr	r1, [r1, #-8]
	str	r0, [sp]
	ldr	r8, [sp]
.Ltmp170:
	mov	r0, r5
	blx	r1
	mov	r5, r0
.Ltmp171:
	ldr	r0, [sp, #12]
.Ltmp172:
	bl	p_53_plt__rgctx_fetch_29_llvm
.Ltmp173:
	ldr	r1, [r4]
	ldr	r2, [r1, #-20]
	str	r0, [sp]
	ldr	r8, [sp]
.Ltmp174:
	mov	r0, r4
	mov	r1, r5
	blx	r2
.Ltmp175:
	ldr	r0, [r6, #28]
	ldr	r5, [sp, #4]
	ldr	r0, [r0]
	cmp	r0, #0
	blne	mono_aot_Newtonsoft_Json_icall_cold_wrapper_265
	cmp	r5, #0
	bne	.LBB22_5
.Ltmp192:
.LBB22_13:
	ldr	r0, .LCPI22_1
.Ltmp179:
.LPC22_1:
	add	r1, pc, r0
	mov	r0, #225
	bl	p_23_plt__jit_icall_llvm_throw_corlib_exception_abs_trampoline_llvm
.Ltmp180:
.LBB22_15:
	mov	r0, #0
	mov	r4, #1
	str	r0, [sp, #8]
	b	.LBB22_22
.LBB22_16:
	mov	r0, #752
	mov	r1, r8
	bl	mono_aot_Newtonsoft_Json_init_method_gshared_mrgctx
	b	.LBB22_1
.Ltmp193:
.LBB22_17:
	ldr	r0, .LCPI22_0
.Ltmp177:
.LPC22_0:
	add	r1, pc, r0
	mov	r0, #225
	bl	p_23_plt__jit_icall_llvm_throw_corlib_exception_abs_trampoline_llvm
.Ltmp178:
.LBB22_19:
	ldr	r0, .LCPI22_5
	movw	r1, #9780
.LPC22_5:
	ldr	r0, [pc, r0]
	bl	p_55_plt__jit_icall_mono_helper_ldstr_llvm
	mov	r1, r0
	movw	r0, #124
	movt	r0, #512
	bl	p_56_plt__jit_icall_mono_create_corlib_exception_1_llvm
	bl	p_49_plt__jit_icall_mono_arch_throw_exception_llvm
.LBB22_20:
.Ltmp176:
.LBB22_21:
	mov	r4, #0
.LBB22_22:
	ldr	r0, [sp, #4]
	cmp	r0, #0
	beq	.LBB22_25
	ldr	r0, [sp, #4]
	cmp	r0, #0
	beq	.LBB22_30
	ldr	r1, [r0]
	ldr	r2, [r6, #128]
	ldr	r1, [r1, #-20]
	str	r2, [sp]
	ldr	r8, [sp]
	blx	r1
.LBB22_25:
	cmp	r4, #0
	beq	.LBB22_29
	ldr	r0, [sp, #8]
	cmp	r0, #0
	beq	.LBB22_28
.Ltmp182:
	bl	p_54_plt__jit_icall_ves_icall_thread_finish_async_abort_llvm
.Ltmp183:
.LBB22_28:
	add	sp, sp, #16
	pop	{r4, r5, r6, r7, r8, pc}
.LBB22_29:
	bl	p_57_plt__jit_icall_llvm_resume_unwind_trampoline_llvm
.Ltmp194:
.LBB22_30:
	ldr	r0, .LCPI22_2
.LPC22_2:
	add	r1, pc, r0
	mov	r0, #225
	bl	p_23_plt__jit_icall_llvm_throw_corlib_exception_abs_trampoline_llvm
.LBB22_31:
.Ltmp181:
	b	.LBB22_21
	.p2align	2
.LCPI22_0:
	.long	.Ltmp193-(.LPC22_0+8)
.LCPI22_1:
	.long	.Ltmp192-(.LPC22_1+8)
.LCPI22_2:
	.long	.Ltmp194-(.LPC22_2+8)
.LCPI22_3:
	.long	mono_aot_Newtonsoft_Json_llvm_got-(.LPC22_3+8)
.LCPI22_4:
	.long	mono_inited-(.LPC22_4+8)
.LCPI22_5:
	.long	mono_aot_Newtonsoft_Json_llvm_got-(.LPC22_5+8)
.Lfunc_end22:
	.size	Newtonsoft_Json_Utilities_CollectionUtils_AddRange_T_REF_System_Collections_Generic_IList_1_T_REF_System_Collections_Generic_IEnumerable_1_T_REF, .Lfunc_end22-Newtonsoft_Json_Utilities_CollectionUtils_AddRange_T_REF_System_Collections_Generic_IList_1_T_REF_System_Collections_Generic_IEnumerable_1_T_REF
.Lexception17:
	.fnend

	.hidden	Newtonsoft_Json_Utilities_CollectionUtils_AddDistinct_T_REF_System_Collections_Generic_IList_1_T_REF_T_REF
	.globl	Newtonsoft_Json_Utilities_CollectionUtils_AddDistinct_T_REF_System_Collections_Generic_IList_1_T_REF_T_REF
	.p2align	2
	.type	Newtonsoft_Json_Utilities_CollectionUtils_AddDistinct_T_REF_System_Collections_Generic_IList_1_T_REF_T_REF,%function
	.code	32
Newtonsoft_Json_Utilities_CollectionUtils_AddDistinct_T_REF_System_Collections_Generic_IList_1_T_REF_T_REF:
.Lfunc_begin23:
	.fnstart
	.save	{r4, r5, r6, r8, r11, lr}
	push	{r4, r5, r6, r8, r11, lr}
.Ltmp195:
.Ltmp196:
.Ltmp197:
.Ltmp198:
.Ltmp199:
.Ltmp200:
.Ltmp201:
	.pad	#8
	sub	sp, sp, #8
.Ltmp202:
	mov	r5, r0
	ldr	r0, .LCPI23_0
	mov	r4, r1
.LPC23_0:
	add	r0, pc, r0
	ldr	r0, [r0, #28]
	str	r8, [sp, #4]
	ldr	r6, [sp, #4]
	ldr	r0, [r0]
	cmp	r0, #0
	blne	mono_aot_Newtonsoft_Json_icall_cold_wrapper_265
	mov	r0, r6
	bl	p_58_plt__rgctx_fetch_30_llvm
	ldr	r0, [sp, #4]
	bl	p_59_plt__rgctx_fetch_31_llvm
	ldr	r6, [r0]
	dmb	ish
	cmp	r6, #0
	bne	.LBB23_2
	ldr	r0, [sp, #4]
	bl	p_58_plt__rgctx_fetch_30_llvm
	str	r0, [sp]
	ldr	r8, [sp]
	bl	p_62_plt_System_Collections_Generic_EqualityComparer_1_T_REF_CreateComparer_llvm
	mov	r6, r0
	ldr	r0, [sp, #4]
	bl	p_59_plt__rgctx_fetch_31_llvm
	dmb	ish
	str	r6, [r0]
.LBB23_2:
	ldr	r0, [sp, #4]
	bl	p_60_plt__rgctx_fetch_32_llvm
	str	r0, [sp]
	mov	r0, r5
	ldr	r8, [sp]
	mov	r1, r4
	mov	r2, r6
	bl	p_61_plt_Newtonsoft_Json_Utilities_CollectionUtils_AddDistinct_T_REF_System_Collections_Generic_IList_1_T_REF_T_REF_System_Collections_Generic_IEqualityComparer_1_T_REF_llvm
	add	sp, sp, #8
	pop	{r4, r5, r6, r8, r11, pc}
	.p2align	2
.LCPI23_0:
	.long	mono_aot_Newtonsoft_Json_llvm_got-(.LPC23_0+8)
.Lfunc_end23:
	.size	Newtonsoft_Json_Utilities_CollectionUtils_AddDistinct_T_REF_System_Collections_Generic_IList_1_T_REF_T_REF, .Lfunc_end23-Newtonsoft_Json_Utilities_CollectionUtils_AddDistinct_T_REF_System_Collections_Generic_IList_1_T_REF_T_REF
.Lexception18:
	.fnend

	.hidden	Newtonsoft_Json_Utilities_CollectionUtils_AddDistinct_T_REF_System_Collections_Generic_IList_1_T_REF_T_REF_System_Collections_Generic_IEqualityComparer_1_T_REF
	.globl	Newtonsoft_Json_Utilities_CollectionUtils_AddDistinct_T_REF_System_Collections_Generic_IList_1_T_REF_T_REF_System_Collections_Generic_IEqualityComparer_1_T_REF
	.p2align	2
	.type	Newtonsoft_Json_Utilities_CollectionUtils_AddDistinct_T_REF_System_Collections_Generic_IList_1_T_REF_T_REF_System_Collections_Generic_IEqualityComparer_1_T_REF,%function
	.code	32
Newtonsoft_Json_Utilities_CollectionUtils_AddDistinct_T_REF_System_Collections_Generic_IList_1_T_REF_T_REF_System_Collections_Generic_IEqualityComparer_1_T_REF:
.Lfunc_begin24:
	.fnstart
	.save	{r4, r5, r6, r7, r8, lr}
	push	{r4, r5, r6, r7, r8, lr}
.Ltmp203:
.Ltmp204:
.Ltmp205:
.Ltmp206:
.Ltmp207:
.Ltmp208:
.Ltmp209:
	.pad	#8
	sub	sp, sp, #8
.Ltmp210:
	mov	r5, r0
	ldr	r0, .LCPI24_1
	mov	r6, r2
	mov	r4, r1
.LPC24_1:
	add	r0, pc, r0
	ldr	r0, [r0, #28]
	str	r8, [sp, #4]
	ldr	r7, [sp, #4]
	ldr	r0, [r0]
	cmp	r0, #0
	blne	mono_aot_Newtonsoft_Json_icall_cold_wrapper_265
	mov	r0, r7
	bl	p_63_plt__rgctx_fetch_33_llvm
	str	r0, [sp]
	mov	r0, r5
	ldr	r8, [sp]
	mov	r1, r4
	mov	r2, r6
	bl	p_64_plt_Newtonsoft_Json_Utilities_CollectionUtils_ContainsValue_T_REF_System_Collections_Generic_IEnumerable_1_T_REF_T_REF_System_Collections_Generic_IEqualityComparer_1_T_REF_llvm
	mov	r1, r0
	mov	r0, #0
	tst	r1, #255
	beq	.LBB24_2
	add	sp, sp, #8
	pop	{r4, r5, r6, r7, r8, pc}
.LBB24_2:
	ldr	r0, [sp, #4]
	bl	p_65_plt__rgctx_fetch_34_llvm
	cmp	r5, #0
	beq	.LBB24_4
	ldr	r1, [r5]
	ldr	r2, [r1, #-20]
	mov	r1, r4
	str	r0, [sp]
	mov	r0, r5
	ldr	r8, [sp]
	blx	r2
	mov	r0, #1
	add	sp, sp, #8
	pop	{r4, r5, r6, r7, r8, pc}
.Ltmp211:
.LBB24_4:
	ldr	r0, .LCPI24_0
.LPC24_0:
	add	r1, pc, r0
	mov	r0, #225
	bl	p_23_plt__jit_icall_llvm_throw_corlib_exception_abs_trampoline_llvm
	.p2align	2
.LCPI24_0:
	.long	.Ltmp211-(.LPC24_0+8)
.LCPI24_1:
	.long	mono_aot_Newtonsoft_Json_llvm_got-(.LPC24_1+8)
.Lfunc_end24:
	.size	Newtonsoft_Json_Utilities_CollectionUtils_AddDistinct_T_REF_System_Collections_Generic_IList_1_T_REF_T_REF_System_Collections_Generic_IEqualityComparer_1_T_REF, .Lfunc_end24-Newtonsoft_Json_Utilities_CollectionUtils_AddDistinct_T_REF_System_Collections_Generic_IList_1_T_REF_T_REF_System_Collections_Generic_IEqualityComparer_1_T_REF
.Lexception19:
	.fnend

	.hidden	Newtonsoft_Json_Utilities_CollectionUtils_ContainsValue_TSource_REF_System_Collections_Generic_IEnumerable_1_TSource_REF_TSource_REF_System_Collections_Generic_IEqualityComparer_1_TSource_REF
	.globl	Newtonsoft_Json_Utilities_CollectionUtils_ContainsValue_TSource_REF_System_Collections_Generic_IEnumerable_1_TSource_REF_TSource_REF_System_Collections_Generic_IEqualityComparer_1_TSource_REF
	.p2align	2
	.type	Newtonsoft_Json_Utilities_CollectionUtils_ContainsValue_TSource_REF_System_Collections_Generic_IEnumerable_1_TSource_REF_TSource_REF_System_Collections_Generic_IEqualityComparer_1_TSource_REF,%function
	.code	32
Newtonsoft_Json_Utilities_CollectionUtils_ContainsValue_TSource_REF_System_Collections_Generic_IEnumerable_1_TSource_REF_TSource_REF_System_Collections_Generic_IEqualityComparer_1_TSource_REF:
.Lfunc_begin25:
	.fnstart
	.save	{r4, r5, r6, r7, r8, r9, r10, r11, lr}
	push	{r4, r5, r6, r7, r8, r9, r10, r11, lr}
.Ltmp234:
.Ltmp235:
.Ltmp236:
.Ltmp237:
.Ltmp238:
.Ltmp239:
.Ltmp240:
.Ltmp241:
.Ltmp242:
	.setfp	r11, sp, #28
	add	r11, sp, #28
.Ltmp243:
	.pad	#28
	sub	sp, sp, #28
	ldr	r10, .LCPI25_4
	mov	r6, r0
	ldr	r0, .LCPI25_5
	mov	r9, r1
.LPC25_4:
	add	r10, pc, r10
	mov	r5, r2
.LPC25_5:
	add	r0, pc, r0
	ldr	r1, [r10, #28]
	ldrb	r4, [r0, #758]
	str	r8, [r11, #-36]
	ldr	r0, [r1]
	cmp	r0, #0
	blne	mono_aot_Newtonsoft_Json_icall_cold_wrapper_265
	cmp	r4, #0
	beq	.LBB25_18
.LBB25_1:
	mov	r0, sp
	sub	r4, r0, #8
	mov	sp, r4
	mov	r1, #0
	cmp	r5, #0
	str	r1, [r0, #-8]
	strb	r1, [r11, #-41]
	str	r1, [r11, #-48]
	bne	.LBB25_4
	ldr	r0, [r11, #-36]
	bl	p_69_plt__rgctx_fetch_38_llvm
	ldr	r0, [r11, #-36]
	bl	p_70_plt__rgctx_fetch_39_llvm
	ldr	r5, [r0]
	dmb	ish
	cmp	r5, #0
	bne	.LBB25_4
	ldr	r0, [r11, #-36]
	bl	p_69_plt__rgctx_fetch_38_llvm
	str	r0, [r11, #-56]
	ldr	r8, [r11, #-56]
	bl	p_71_plt_System_Collections_Generic_EqualityComparer_1_TSource_REF_CreateComparer_llvm
	mov	r5, r0
	ldr	r0, [r11, #-36]
	bl	p_70_plt__rgctx_fetch_39_llvm
	dmb	ish
	str	r5, [r0]
.LBB25_4:
	cmp	r6, #0
	beq	.LBB25_25
	ldr	r0, [r11, #-36]
	bl	p_66_plt__rgctx_fetch_35_llvm
	ldr	r1, [r6]
	ldr	r1, [r1, #-40]
	str	r0, [r11, #-56]
	mov	r0, r6
	ldr	r8, [r11, #-56]
	blx	r1
	ldr	r7, [r10, #124]
	str	r0, [r11, #-48]
.LBB25_6:
	ldr	r0, [r11, #-48]
	cmp	r0, #0
	beq	.LBB25_19
	ldr	r1, [r0]
	ldr	r1, [r1, #-60]
	str	r7, [r11, #-56]
	ldr	r8, [r11, #-56]
.Ltmp212:
	blx	r1
.Ltmp213:
	tst	r0, #255
	beq	.LBB25_17
	ldr	r6, [r11, #-48]
	ldr	r0, [r11, #-36]
.Ltmp214:
	bl	p_67_plt__rgctx_fetch_36_llvm
.Ltmp215:
	cmp	r6, #0
	beq	.LBB25_21
	ldr	r1, [r6]
	ldr	r1, [r1, #-8]
	str	r0, [r11, #-56]
	ldr	r8, [r11, #-56]
.Ltmp216:
	mov	r0, r6
	blx	r1
	mov	r6, r0
.Ltmp217:
	ldr	r0, [r11, #-36]
.Ltmp218:
	bl	p_68_plt__rgctx_fetch_37_llvm
.Ltmp219:
	cmp	r5, #0
	beq	.LBB25_23
	ldr	r1, [r5]
	ldr	r3, [r1, #-76]
	str	r0, [r11, #-56]
	ldr	r8, [r11, #-56]
.Ltmp220:
	mov	r0, r5
	mov	r1, r6
	mov	r2, r9
	blx	r3
	mov	r6, r0
.Ltmp221:
	ldr	r0, [r10, #28]
	ldr	r0, [r0]
	cmp	r0, #0
	blne	mono_aot_Newtonsoft_Json_icall_cold_wrapper_265
	tst	r6, #255
	beq	.LBB25_6
	mov	r0, #0
	str	r0, [r11, #-40]
	mov	r0, #1
	strb	r0, [r11, #-41]
	str	r0, [r4]
	b	.LBB25_27
.LBB25_17:
	mov	r0, #0
	str	r0, [r11, #-40]
	mov	r0, #2
	str	r0, [r4]
	b	.LBB25_27
.LBB25_18:
	movw	r0, #758
	mov	r1, r8
	bl	mono_aot_Newtonsoft_Json_init_method_gshared_mrgctx
	b	.LBB25_1
.Ltmp244:
.LBB25_19:
	ldr	r0, .LCPI25_2
.Ltmp227:
.LPC25_2:
	add	r1, pc, r0
	mov	r0, #225
	bl	p_23_plt__jit_icall_llvm_throw_corlib_exception_abs_trampoline_llvm
.Ltmp228:
.Ltmp245:
.LBB25_21:
	ldr	r0, .LCPI25_1
.Ltmp225:
.LPC25_1:
	add	r1, pc, r0
	mov	r0, #225
	bl	p_23_plt__jit_icall_llvm_throw_corlib_exception_abs_trampoline_llvm
.Ltmp226:
.Ltmp246:
.LBB25_23:
	ldr	r0, .LCPI25_0
.Ltmp223:
.LPC25_0:
	add	r1, pc, r0
	mov	r0, #225
	bl	p_23_plt__jit_icall_llvm_throw_corlib_exception_abs_trampoline_llvm
.Ltmp224:
.LBB25_25:
	ldr	r0, .LCPI25_6
	movw	r1, #9806
.LPC25_6:
	ldr	r0, [pc, r0]
	bl	p_55_plt__jit_icall_mono_helper_ldstr_llvm
	mov	r1, r0
	movw	r0, #124
	movt	r0, #512
	bl	p_56_plt__jit_icall_mono_create_corlib_exception_1_llvm
	bl	p_49_plt__jit_icall_mono_arch_throw_exception_llvm
.LBB25_26:
.Ltmp222:
.LBB25_27:
	ldr	r0, [r11, #-48]
	cmp	r0, #0
	beq	.LBB25_30
	ldr	r0, [r11, #-48]
	cmp	r0, #0
	beq	.LBB25_39
	ldr	r1, [r0]
	ldr	r2, [r10, #128]
	ldr	r1, [r1, #-20]
	str	r2, [r11, #-56]
	ldr	r8, [r11, #-56]
	blx	r1
.LBB25_30:
	ldr	r0, [r4]
	mov	r1, #0
	str	r1, [r4]
	cmp	r0, #1
	beq	.LBB25_34
	cmp	r0, #2
	bne	.LBB25_38
	ldr	r0, [r11, #-40]
	mov	r5, #0
	cmp	r0, #0
	beq	.LBB25_37
.Ltmp230:
	bl	p_54_plt__jit_icall_ves_icall_thread_finish_async_abort_llvm
.Ltmp231:
	b	.LBB25_37
.LBB25_34:
	ldr	r0, [r11, #-40]
	cmp	r0, #0
	beq	.LBB25_36
.Ltmp232:
	bl	p_54_plt__jit_icall_ves_icall_thread_finish_async_abort_llvm
.Ltmp233:
.LBB25_36:
	ldrb	r5, [r11, #-41]
.LBB25_37:
	strb	r5, [r11, #-49]
	ldrb	r0, [r11, #-49]
	sub	sp, r11, #28
	pop	{r4, r5, r6, r7, r8, r9, r10, r11, pc}
.LBB25_38:
	bl	p_57_plt__jit_icall_llvm_resume_unwind_trampoline_llvm
.Ltmp247:
.LBB25_39:
	ldr	r0, .LCPI25_3
.LPC25_3:
	add	r1, pc, r0
	mov	r0, #225
	bl	p_23_plt__jit_icall_llvm_throw_corlib_exception_abs_trampoline_llvm
.LBB25_40:
.Ltmp229:
	b	.LBB25_27
	.p2align	2
.LCPI25_0:
	.long	.Ltmp246-(.LPC25_0+8)
.LCPI25_1:
	.long	.Ltmp245-(.LPC25_1+8)
.LCPI25_2:
	.long	.Ltmp244-(.LPC25_2+8)
.LCPI25_3:
	.long	.Ltmp247-(.LPC25_3+8)
.LCPI25_4:
	.long	mono_aot_Newtonsoft_Json_llvm_got-(.LPC25_4+8)
.LCPI25_5:
	.long	mono_inited-(.LPC25_5+8)
.LCPI25_6:
	.long	mono_aot_Newtonsoft_Json_llvm_got-(.LPC25_6+8)
.Lfunc_end25:
	.size	Newtonsoft_Json_Utilities_CollectionUtils_ContainsValue_TSource_REF_System_Collections_Generic_IEnumerable_1_TSource_REF_TSource_REF_System_Collections_Generic_IEqualityComparer_1_TSource_REF, .Lfunc_end25-Newtonsoft_Json_Utilities_CollectionUtils_ContainsValue_TSource_REF_System_Collections_Generic_IEnumerable_1_TSource_REF_TSource_REF_System_Collections_Generic_IEqualityComparer_1_TSource_REF
.Lexception20:
	.fnend

	.hidden	Newtonsoft_Json_Utilities_CollectionUtils_AddRangeDistinct_T_REF_System_Collections_Generic_IList_1_T_REF_System_Collections_Generic_IEnumerable_1_T_REF_System_Collections_Generic_IEqualityComparer_1_T_REF
	.globl	Newtonsoft_Json_Utilities_CollectionUtils_AddRangeDistinct_T_REF_System_Collections_Generic_IList_1_T_REF_System_Collections_Generic_IEnumerable_1_T_REF_System_Collections_Generic_IEqualityComparer_1_T_REF
	.p2align	2
	.type	Newtonsoft_Json_Utilities_CollectionUtils_AddRangeDistinct_T_REF_System_Collections_Generic_IList_1_T_REF_System_Collections_Generic_IEnumerable_1_T_REF_System_Collections_Generic_IEqualityComparer_1_T_REF,%function
	.code	32
Newtonsoft_Json_Utilities_CollectionUtils_AddRangeDistinct_T_REF_System_Collections_Generic_IList_1_T_REF_System_Collections_Generic_IEnumerable_1_T_REF_System_Collections_Generic_IEqualityComparer_1_T_REF:
.Lfunc_begin26:
	.fnstart
	.save	{r4, r5, r6, r7, r8, r9, r10, lr}
	push	{r4, r5, r6, r7, r8, r9, r10, lr}
.Ltmp266:
.Ltmp267:
.Ltmp268:
.Ltmp269:
.Ltmp270:
.Ltmp271:
.Ltmp272:
.Ltmp273:
.Ltmp274:
	.pad	#24
	sub	sp, sp, #24
.Ltmp275:
	ldr	r7, .LCPI26_4
	mov	r5, r0
	ldr	r0, .LCPI26_5
	mov	r6, r1
.LPC26_4:
	add	r7, pc, r7
	mov	r9, r2
.LPC26_5:
	add	r0, pc, r0
	ldr	r1, [r7, #28]
	ldrb	r4, [r0, #759]
	str	r8, [sp, #20]
	ldr	r0, [r1]
	cmp	r0, #0
	blne	mono_aot_Newtonsoft_Json_icall_cold_wrapper_265
	cmp	r4, #0
	beq	.LBB26_15
.LBB26_1:
	ldr	r0, [sp, #20]
	mov	r1, #1
	strb	r1, [sp, #11]
	mov	r1, #0
	str	r1, [sp, #12]
	bl	p_72_plt__rgctx_fetch_40_llvm
	cmp	r6, #0
	beq	.LBB26_18
	ldr	r1, [r6]
	ldr	r1, [r1, #-40]
	str	r0, [sp, #4]
	mov	r0, r6
	ldr	r8, [sp, #4]
	blx	r1
	str	r0, [sp, #12]
	ldr	r6, [sp, #12]
	cmp	r6, #0
	beq	.LBB26_12
	ldr	r4, [r7, #124]
	mov	r10, #0
.LBB26_4:
	ldr	r0, [r6]
	ldr	r1, [r0, #-60]
	str	r4, [sp, #4]
	ldr	r8, [sp, #4]
.Ltmp248:
	mov	r0, r6
	blx	r1
.Ltmp249:
	tst	r0, #255
	beq	.LBB26_14
	ldr	r6, [sp, #12]
	ldr	r0, [sp, #20]
.Ltmp250:
	bl	p_73_plt__rgctx_fetch_41_llvm
.Ltmp251:
	cmp	r6, #0
	beq	.LBB26_16
	ldr	r1, [r6]
	ldr	r1, [r1, #-8]
	str	r0, [sp, #4]
	ldr	r8, [sp, #4]
.Ltmp252:
	mov	r0, r6
	blx	r1
	mov	r6, r0
.Ltmp253:
	ldr	r0, [sp, #20]
.Ltmp254:
	bl	p_74_plt__rgctx_fetch_42_llvm
.Ltmp255:
	str	r0, [sp, #4]
	ldr	r8, [sp, #4]
.Ltmp256:
	mov	r0, r5
	mov	r1, r6
	mov	r2, r9
	bl	p_75_plt_Newtonsoft_Json_Utilities_CollectionUtils_AddDistinct_T_REF_System_Collections_Generic_IList_1_T_REF_T_REF_System_Collections_Generic_IEqualityComparer_1_T_REF_0_llvm
.Ltmp257:
	tst	r0, #255
	ldr	r0, [r7, #28]
	strbeq	r10, [sp, #11]
	ldr	r6, [sp, #12]
	ldr	r0, [r0]
	cmp	r0, #0
	blne	mono_aot_Newtonsoft_Json_icall_cold_wrapper_265
	cmp	r6, #0
	bne	.LBB26_4
.Ltmp276:
.LBB26_12:
	ldr	r0, .LCPI26_1
.Ltmp261:
.LPC26_1:
	add	r1, pc, r0
	mov	r0, #225
	bl	p_23_plt__jit_icall_llvm_throw_corlib_exception_abs_trampoline_llvm
.Ltmp262:
.LBB26_14:
	mov	r0, #0
	mov	r4, #1
	str	r0, [sp, #16]
	b	.LBB26_21
.LBB26_15:
	movw	r0, #759
	mov	r1, r8
	bl	mono_aot_Newtonsoft_Json_init_method_gshared_mrgctx
	b	.LBB26_1
.Ltmp277:
.LBB26_16:
	ldr	r0, .LCPI26_0
.Ltmp259:
.LPC26_0:
	add	r1, pc, r0
	mov	r0, #225
	bl	p_23_plt__jit_icall_llvm_throw_corlib_exception_abs_trampoline_llvm
.Ltmp260:
.Ltmp278:
.LBB26_18:
	ldr	r0, .LCPI26_3
.LPC26_3:
	add	r1, pc, r0
	mov	r0, #225
	bl	p_23_plt__jit_icall_llvm_throw_corlib_exception_abs_trampoline_llvm
.LBB26_19:
.Ltmp258:
.LBB26_20:
	mov	r4, #0
.LBB26_21:
	ldr	r0, [sp, #12]
	cmp	r0, #0
	beq	.LBB26_24
	ldr	r0, [sp, #12]
	cmp	r0, #0
	beq	.LBB26_29
	ldr	r1, [r0]
	ldr	r2, [r7, #128]
	ldr	r1, [r1, #-20]
	str	r2, [sp, #4]
	ldr	r8, [sp, #4]
	blx	r1
.LBB26_24:
	cmp	r4, #0
	beq	.LBB26_28
	ldr	r0, [sp, #16]
	cmp	r0, #0
	beq	.LBB26_27
.Ltmp264:
	bl	p_54_plt__jit_icall_ves_icall_thread_finish_async_abort_llvm
.Ltmp265:
.LBB26_27:
	ldrb	r0, [sp, #11]
	strb	r0, [sp, #10]
	ldrb	r0, [sp, #10]
	add	sp, sp, #24
	pop	{r4, r5, r6, r7, r8, r9, r10, pc}
.LBB26_28:
	bl	p_57_plt__jit_icall_llvm_resume_unwind_trampoline_llvm
.Ltmp279:
.LBB26_29:
	ldr	r0, .LCPI26_2
.LPC26_2:
	add	r1, pc, r0
	mov	r0, #225
	bl	p_23_plt__jit_icall_llvm_throw_corlib_exception_abs_trampoline_llvm
.LBB26_30:
.Ltmp263:
	b	.LBB26_20
	.p2align	2
.LCPI26_0:
	.long	.Ltmp277-(.LPC26_0+8)
.LCPI26_1:
	.long	.Ltmp276-(.LPC26_1+8)
.LCPI26_2:
	.long	.Ltmp279-(.LPC26_2+8)
.LCPI26_3:
	.long	.Ltmp278-(.LPC26_3+8)
.LCPI26_4:
	.long	mono_aot_Newtonsoft_Json_llvm_got-(.LPC26_4+8)
.LCPI26_5:
	.long	mono_inited-(.LPC26_5+8)
.Lfunc_end26:
	.size	Newtonsoft_Json_Utilities_CollectionUtils_AddRangeDistinct_T_REF_System_Collections_Generic_IList_1_T_REF_System_Collections_Generic_IEnumerable_1_T_REF_System_Collections_Generic_IEqualityComparer_1_T_REF, .Lfunc_end26-Newtonsoft_Json_Utilities_CollectionUtils_AddRangeDistinct_T_REF_System_Collections_Generic_IList_1_T_REF_System_Collections_Generic_IEnumerable_1_T_REF_System_Collections_Generic_IEqualityComparer_1_T_REF
.Lexception21:
	.fnend

	.hidden	Newtonsoft_Json_Utilities_CollectionUtils_IndexOf_T_REF_System_Collections_Generic_IEnumerable_1_T_REF_System_Func_2_T_REF_bool
	.globl	Newtonsoft_Json_Utilities_CollectionUtils_IndexOf_T_REF_System_Collections_Generic_IEnumerable_1_T_REF_System_Func_2_T_REF_bool
	.p2align	2
	.type	Newtonsoft_Json_Utilities_CollectionUtils_IndexOf_T_REF_System_Collections_Generic_IEnumerable_1_T_REF_System_Func_2_T_REF_bool,%function
	.code	32
Newtonsoft_Json_Utilities_CollectionUtils_IndexOf_T_REF_System_Collections_Generic_IEnumerable_1_T_REF_System_Func_2_T_REF_bool:
.Lfunc_begin27:
	.fnstart
	.save	{r4, r5, r6, r7, r8, r9, r11, lr}
	push	{r4, r5, r6, r7, r8, r9, r11, lr}
.Ltmp300:
.Ltmp301:
.Ltmp302:
.Ltmp303:
.Ltmp304:
.Ltmp305:
.Ltmp306:
.Ltmp307:
.Ltmp308:
	.pad	#24
	sub	sp, sp, #24
.Ltmp309:
	ldr	r9, .LCPI27_5
	mov	r5, r0
	ldr	r0, .LCPI27_6
	mov	r4, r1
.LPC27_5:
	add	r9, pc, r9
.LPC27_6:
	add	r0, pc, r0
	ldr	r1, [r9, #28]
	ldrb	r6, [r0, #760]
	str	r8, [sp, #20]
	ldr	r0, [r1]
	cmp	r0, #0
	blne	mono_aot_Newtonsoft_Json_icall_cold_wrapper_265
	cmp	r6, #0
	beq	.LBB27_17
.LBB27_1:
	ldr	r0, [sp, #20]
	mov	r1, #0
	str	r1, [sp, #12]
	str	r1, [sp, #8]
	bl	p_76_plt__rgctx_fetch_43_llvm
	cmp	r5, #0
	beq	.LBB27_22
	ldr	r1, [r5]
	ldr	r1, [r1, #-40]
	str	r0, [sp]
	mov	r0, r5
	ldr	r8, [sp]
	blx	r1
	str	r0, [sp, #8]
	ldr	r5, [sp, #8]
	cmp	r5, #0
	beq	.LBB27_13
	ldr	r6, [r9, #124]
	mov	r7, #0
.LBB27_4:
	ldr	r0, [r5]
	ldr	r1, [r0, #-60]
	str	r6, [sp]
	ldr	r8, [sp]
.Ltmp280:
	mov	r0, r5
	blx	r1
.Ltmp281:
	tst	r0, #255
	beq	.LBB27_15
	ldr	r5, [sp, #8]
	ldr	r0, [sp, #20]
.Ltmp282:
	bl	p_77_plt__rgctx_fetch_44_llvm
.Ltmp283:
	cmp	r5, #0
	beq	.LBB27_18
	ldr	r1, [r5]
	ldr	r1, [r1, #-8]
	str	r0, [sp]
	ldr	r8, [sp]
.Ltmp284:
	mov	r0, r5
	blx	r1
	mov	r1, r0
.Ltmp285:
	cmp	r4, #0
	beq	.LBB27_20
	ldr	r2, [r4, #12]
.Ltmp286:
	mov	r0, r4
	blx	r2
.Ltmp287:
	tst	r0, #255
	bne	.LBB27_16
	ldr	r0, [r9, #28]
	ldr	r5, [sp, #8]
	ldr	r0, [r0]
	cmp	r0, #0
	blne	mono_aot_Newtonsoft_Json_icall_cold_wrapper_265
	add	r7, r7, #1
	cmp	r5, #0
	bne	.LBB27_4
.Ltmp310:
.LBB27_13:
	ldr	r0, .LCPI27_2
.Ltmp293:
.LPC27_2:
	add	r1, pc, r0
	mov	r0, #225
	bl	p_23_plt__jit_icall_llvm_throw_corlib_exception_abs_trampoline_llvm
.Ltmp294:
.LBB27_15:
	mov	r0, #0
	mov	r4, #2
	str	r0, [sp, #16]
	b	.LBB27_25
.LBB27_16:
	mov	r0, #0
	str	r7, [sp, #12]
	str	r0, [sp, #16]
	mov	r4, #1
	b	.LBB27_25
.LBB27_17:
	mov	r0, #760
	mov	r1, r8
	bl	mono_aot_Newtonsoft_Json_init_method_gshared_mrgctx
	b	.LBB27_1
.Ltmp311:
.LBB27_18:
	ldr	r0, .LCPI27_1
.Ltmp291:
.LPC27_1:
	add	r1, pc, r0
	mov	r0, #225
	bl	p_23_plt__jit_icall_llvm_throw_corlib_exception_abs_trampoline_llvm
.Ltmp292:
.Ltmp312:
.LBB27_20:
	ldr	r0, .LCPI27_0
.Ltmp289:
.LPC27_0:
	add	r1, pc, r0
	mov	r0, #225
	bl	p_23_plt__jit_icall_llvm_throw_corlib_exception_abs_trampoline_llvm
.Ltmp290:
.Ltmp313:
.LBB27_22:
	ldr	r0, .LCPI27_4
.LPC27_4:
	add	r1, pc, r0
	mov	r0, #225
	bl	p_23_plt__jit_icall_llvm_throw_corlib_exception_abs_trampoline_llvm
.LBB27_23:
.Ltmp288:
.LBB27_24:
	mov	r4, #0
.LBB27_25:
	ldr	r0, [sp, #8]
	cmp	r0, #0
	beq	.LBB27_28
	ldr	r0, [sp, #8]
	cmp	r0, #0
	beq	.LBB27_37
	ldr	r1, [r0]
	ldr	r2, [r9, #128]
	ldr	r1, [r1, #-20]
	str	r2, [sp]
	ldr	r8, [sp]
	blx	r1
.LBB27_28:
	and	r0, r4, #3
	cmp	r0, #1
	beq	.LBB27_32
	cmp	r0, #2
	bne	.LBB27_36
	ldr	r0, [sp, #16]
	mvn	r4, #0
	cmp	r0, #0
	beq	.LBB27_35
.Ltmp296:
	bl	p_54_plt__jit_icall_ves_icall_thread_finish_async_abort_llvm
.Ltmp297:
	b	.LBB27_35
.LBB27_32:
	ldr	r0, [sp, #16]
	cmp	r0, #0
	beq	.LBB27_34
.Ltmp298:
	bl	p_54_plt__jit_icall_ves_icall_thread_finish_async_abort_llvm
.Ltmp299:
.LBB27_34:
	ldr	r4, [sp, #12]
.LBB27_35:
	str	r4, [sp, #4]
	ldr	r0, [sp, #4]
	add	sp, sp, #24
	pop	{r4, r5, r6, r7, r8, r9, r11, pc}
.LBB27_36:
	bl	p_57_plt__jit_icall_llvm_resume_unwind_trampoline_llvm
.Ltmp314:
.LBB27_37:
	ldr	r0, .LCPI27_3
.LPC27_3:
	add	r1, pc, r0
	mov	r0, #225
	bl	p_23_plt__jit_icall_llvm_throw_corlib_exception_abs_trampoline_llvm
.LBB27_38:
.Ltmp295:
	b	.LBB27_24
	.p2align	2
.LCPI27_0:
	.long	.Ltmp312-(.LPC27_0+8)
.LCPI27_1:
	.long	.Ltmp311-(.LPC27_1+8)
.LCPI27_2:
	.long	.Ltmp310-(.LPC27_2+8)
.LCPI27_3:
	.long	.Ltmp314-(.LPC27_3+8)
.LCPI27_4:
	.long	.Ltmp313-(.LPC27_4+8)
.LCPI27_5:
	.long	mono_aot_Newtonsoft_Json_llvm_got-(.LPC27_5+8)
.LCPI27_6:
	.long	mono_inited-(.LPC27_6+8)
.Lfunc_end27:
	.size	Newtonsoft_Json_Utilities_CollectionUtils_IndexOf_T_REF_System_Collections_Generic_IEnumerable_1_T_REF_System_Func_2_T_REF_bool, .Lfunc_end27-Newtonsoft_Json_Utilities_CollectionUtils_IndexOf_T_REF_System_Collections_Generic_IEnumerable_1_T_REF_System_Func_2_T_REF_bool
.Lexception22:
	.fnend

	.hidden	Newtonsoft_Json_Utilities_CollectionUtils_Contains_T_REF_System_Collections_Generic_List_1_T_REF_T_REF_System_Collections_IEqualityComparer
	.globl	Newtonsoft_Json_Utilities_CollectionUtils_Contains_T_REF_System_Collections_Generic_List_1_T_REF_T_REF_System_Collections_IEqualityComparer
	.p2align	2
	.type	Newtonsoft_Json_Utilities_CollectionUtils_Contains_T_REF_System_Collections_Generic_List_1_T_REF_T_REF_System_Collections_IEqualityComparer,%function
	.code	32
Newtonsoft_Json_Utilities_CollectionUtils_Contains_T_REF_System_Collections_Generic_List_1_T_REF_T_REF_System_Collections_IEqualityComparer:
.Lfunc_begin28:
	.fnstart
	.save	{r4, r5, r6, r7, r8, r9, r10, r11, lr}
	push	{r4, r5, r6, r7, r8, r9, r10, r11, lr}
.Ltmp315:
.Ltmp316:
.Ltmp317:
.Ltmp318:
.Ltmp319:
.Ltmp320:
.Ltmp321:
.Ltmp322:
.Ltmp323:
.Ltmp324:
	.pad	#12
	sub	sp, sp, #12
.Ltmp325:
	ldr	r10, .LCPI28_2
	mov	r6, r0
	ldr	r0, .LCPI28_3
	mov	r9, r1
.LPC28_2:
	add	r10, pc, r10
	mov	r4, r2
.LPC28_3:
	add	r0, pc, r0
	ldr	r1, [r10, #28]
	ldrb	r5, [r0, #761]
	str	r8, [sp, #8]
	ldr	r0, [r1]
	cmp	r0, #0
	blne	mono_aot_Newtonsoft_Json_icall_cold_wrapper_265
	cmp	r5, #0
	beq	.LBB28_12
.LBB28_1:
	ldr	r11, [r10, #132]
	mov	r7, #0
.LBB28_2:
	ldr	r0, [sp, #8]
	bl	p_78_plt__rgctx_fetch_45_llvm
	ldrb	r1, [r0, #25]
	cmp	r1, #0
	beq	.LBB28_8
	cmp	r6, #0
	beq	.LBB28_14
.LBB28_4:
	mov	r0, r6
	bl	p_79_plt_System_Collections_Generic_List_1_T_REF_get_Count_llvm
	cmp	r7, r0
	bge	.LBB28_10
	ldr	r0, [sp, #8]
	bl	p_78_plt__rgctx_fetch_45_llvm
	ldrb	r1, [r0, #25]
	cmp	r1, #0
	beq	.LBB28_9
.LBB28_6:
	mov	r0, r6
	mov	r1, r7
	bl	p_80_plt_System_Collections_Generic_List_1_T_REF_get_Item_int_llvm
	mov	r2, r0
	cmp	r4, #0
	beq	.LBB28_13
	ldr	r0, [r4]
	mov	r1, r9
	ldr	r3, [r0, #-12]
	mov	r0, r4
	str	r11, [sp, #4]
	ldr	r8, [sp, #4]
	blx	r3
	mov	r5, r0
	ldr	r0, [r10, #28]
	ldr	r0, [r0]
	cmp	r0, #0
	blne	mono_aot_Newtonsoft_Json_icall_cold_wrapper_265
	add	r7, r7, #1
	tst	r5, #255
	beq	.LBB28_2
	b	.LBB28_11
.LBB28_8:
	bl	p_25_plt__jit_icall_mono_generic_class_init_llvm
	cmp	r6, #0
	bne	.LBB28_4
	b	.LBB28_14
.LBB28_9:
	bl	p_25_plt__jit_icall_mono_generic_class_init_llvm
	b	.LBB28_6
.LBB28_10:
	mov	r0, #0
	add	sp, sp, #12
	pop	{r4, r5, r6, r7, r8, r9, r10, r11, pc}
.LBB28_11:
	mov	r0, #1
	add	sp, sp, #12
	pop	{r4, r5, r6, r7, r8, r9, r10, r11, pc}
.LBB28_12:
	movw	r0, #761
	mov	r1, r8
	bl	mono_aot_Newtonsoft_Json_init_method_gshared_mrgctx
	b	.LBB28_1
.Ltmp326:
.LBB28_13:
	ldr	r0, .LCPI28_0
.LPC28_0:
	add	r1, pc, r0
	mov	r0, #225
	bl	p_23_plt__jit_icall_llvm_throw_corlib_exception_abs_trampoline_llvm
.Ltmp327:
.LBB28_14:
	ldr	r0, .LCPI28_1
.LPC28_1:
	add	r1, pc, r0
	mov	r0, #225
	bl	p_23_plt__jit_icall_llvm_throw_corlib_exception_abs_trampoline_llvm
	.p2align	2
.LCPI28_0:
	.long	.Ltmp326-(.LPC28_0+8)
.LCPI28_1:
	.long	.Ltmp327-(.LPC28_1+8)
.LCPI28_2:
	.long	mono_aot_Newtonsoft_Json_llvm_got-(.LPC28_2+8)
.LCPI28_3:
	.long	mono_inited-(.LPC28_3+8)
.Lfunc_end28:
	.size	Newtonsoft_Json_Utilities_CollectionUtils_Contains_T_REF_System_Collections_Generic_List_1_T_REF_T_REF_System_Collections_IEqualityComparer, .Lfunc_end28-Newtonsoft_Json_Utilities_CollectionUtils_Contains_T_REF_System_Collections_Generic_List_1_T_REF_T_REF_System_Collections_IEqualityComparer
.Lexception23:
	.fnend

	.hidden	Newtonsoft_Json_Utilities_CollectionUtils_IndexOfReference_T_REF_System_Collections_Generic_List_1_T_REF_T_REF
	.globl	Newtonsoft_Json_Utilities_CollectionUtils_IndexOfReference_T_REF_System_Collections_Generic_List_1_T_REF_T_REF
	.p2align	2
	.type	Newtonsoft_Json_Utilities_CollectionUtils_IndexOfReference_T_REF_System_Collections_Generic_List_1_T_REF_T_REF,%function
	.code	32
Newtonsoft_Json_Utilities_CollectionUtils_IndexOfReference_T_REF_System_Collections_Generic_List_1_T_REF_T_REF:
.Lfunc_begin29:
	.fnstart
	.save	{r4, r5, r6, r7, r11, lr}
	push	{r4, r5, r6, r7, r11, lr}
.Ltmp328:
.Ltmp329:
.Ltmp330:
.Ltmp331:
.Ltmp332:
.Ltmp333:
.Ltmp334:
	.pad	#8
	sub	sp, sp, #8
.Ltmp335:
	ldr	r7, .LCPI29_1
	mov	r5, r0
	mov	r4, r1
.LPC29_1:
	add	r7, pc, r7
	ldr	r0, [r7, #28]
	str	r8, [sp, #4]
	ldr	r0, [r0]
	cmp	r0, #0
	blne	mono_aot_Newtonsoft_Json_icall_cold_wrapper_265
	mov	r6, #0
	b	.LBB29_2
.LBB29_1:
	bl	mono_aot_Newtonsoft_Json_icall_cold_wrapper_265
.LBB29_2:
	ldr	r0, [sp, #4]
	bl	p_81_plt__rgctx_fetch_46_llvm
	ldrb	r1, [r0, #25]
	cmp	r1, #0
	beq	.LBB29_8
	cmp	r5, #0
	beq	.LBB29_12
.LBB29_4:
	mov	r0, r5
	bl	p_82_plt_System_Collections_Generic_List_1_T_REF_get_Count_0_llvm
	cmp	r6, r0
	bge	.LBB29_10
	ldr	r0, [sp, #4]
	bl	p_81_plt__rgctx_fetch_46_llvm
	ldrb	r1, [r0, #25]
	cmp	r1, #0
	beq	.LBB29_9
.LBB29_6:
	mov	r0, r5
	mov	r1, r6
	bl	p_83_plt_System_Collections_Generic_List_1_T_REF_get_Item_int_0_llvm
	cmp	r0, r4
	beq	.LBB29_11
	ldr	r0, [r7, #28]
	add	r6, r6, #1
	ldr	r0, [r0]
	cmp	r0, #0
	beq	.LBB29_2
	b	.LBB29_1
.LBB29_8:
	bl	p_25_plt__jit_icall_mono_generic_class_init_llvm
	cmp	r5, #0
	bne	.LBB29_4
	b	.LBB29_12
.LBB29_9:
	bl	p_25_plt__jit_icall_mono_generic_class_init_llvm
	b	.LBB29_6
.LBB29_10:
	mvn	r6, #0
.LBB29_11:
	mov	r0, r6
	add	sp, sp, #8
	pop	{r4, r5, r6, r7, r11, pc}
.Ltmp336:
.LBB29_12:
	ldr	r0, .LCPI29_0
.LPC29_0:
	add	r1, pc, r0
	mov	r0, #225
	bl	p_23_plt__jit_icall_llvm_throw_corlib_exception_abs_trampoline_llvm
	.p2align	2
.LCPI29_0:
	.long	.Ltmp336-(.LPC29_0+8)
.LCPI29_1:
	.long	mono_aot_Newtonsoft_Json_llvm_got-(.LPC29_1+8)
.Lfunc_end29:
	.size	Newtonsoft_Json_Utilities_CollectionUtils_IndexOfReference_T_REF_System_Collections_Generic_List_1_T_REF_T_REF, .Lfunc_end29-Newtonsoft_Json_Utilities_CollectionUtils_IndexOfReference_T_REF_System_Collections_Generic_List_1_T_REF_T_REF
.Lexception24:
	.fnend

	.hidden	Newtonsoft_Json_Utilities_CollectionWrapper_1_T_REF__ctor_System_Collections_IList
	.globl	Newtonsoft_Json_Utilities_CollectionWrapper_1_T_REF__ctor_System_Collections_IList
	.p2align	2
	.type	Newtonsoft_Json_Utilities_CollectionWrapper_1_T_REF__ctor_System_Collections_IList,%function
	.code	32
Newtonsoft_Json_Utilities_CollectionWrapper_1_T_REF__ctor_System_Collections_IList:
.Lfunc_begin30:
	.fnstart
	.save	{r4, r5, r6, r7, r11, lr}
	push	{r4, r5, r6, r7, r11, lr}
.Ltmp337:
.Ltmp338:
.Ltmp339:
.Ltmp340:
.Ltmp341:
.Ltmp342:
.Ltmp343:
	.pad	#8
	sub	sp, sp, #8
.Ltmp344:
	mov	r5, r0
	ldr	r0, .LCPI30_2
	ldr	r6, .LCPI30_3
	mov	r4, r1
.LPC30_2:
	add	r0, pc, r0
.LPC30_3:
	add	r6, pc, r6
	ldrb	r7, [r0, #768]
	ldr	r0, [r6, #28]
	str	r5, [sp]
	str	r5, [sp, #4]
	ldr	r0, [r0]
	cmp	r0, #0
	blne	mono_aot_Newtonsoft_Json_icall_cold_wrapper_265
	cmp	r7, #0
	beq	.LBB30_7
.LBB30_1:
	ldr	r1, [r6, #136]
	mov	r0, r4
	bl	p_84_plt_Newtonsoft_Json_Utilities_ValidationUtils_ArgumentNotNull_object_string_llvm
	ldr	r0, [sp, #4]
	ldr	r0, [r0]
	bl	p_85_plt__rgctx_fetch_47_llvm
	mov	r2, r0
	mov	r0, r4
	ldr	r1, [r2, #4]
	bl	p_86_plt_wrapper_castclass_object___isinst_with_cache_object_intptr_intptr_llvm
	ldr	r5, [sp, #4]
	cmp	r0, #0
	beq	.LBB30_4
	ldr	r0, [sp, #4]
	ldr	r0, [r0]
	bl	p_85_plt__rgctx_fetch_47_llvm
	mov	r2, r0
	mov	r0, r4
	ldr	r1, [r2, #4]
	bl	p_10_plt_wrapper_castclass_object___castclass_with_cache_object_intptr_intptr_llvm
	mov	r4, r0
	cmp	r5, #0
	beq	.LBB30_8
	dmb	ish
	add	r0, r5, #12
	b	.LBB30_6
.LBB30_4:
	cmp	r5, #0
	beq	.LBB30_9
	add	r0, r5, #8
	dmb	ish
.LBB30_6:
	ldr	r1, [r6, #8]
	mov	r2, #1
	str	r4, [r0]
	strb	r2, [r1, r0, lsr #9]
	add	sp, sp, #8
	pop	{r4, r5, r6, r7, r11, pc}
.LBB30_7:
	mov	r0, #768
	mov	r1, r5
	bl	mono_aot_Newtonsoft_Json_init_method_gshared_this
	b	.LBB30_1
.Ltmp345:
.LBB30_8:
	ldr	r0, .LCPI30_0
.LPC30_0:
	add	r1, pc, r0
	mov	r0, #225
	bl	p_23_plt__jit_icall_llvm_throw_corlib_exception_abs_trampoline_llvm
.Ltmp346:
.LBB30_9:
	ldr	r0, .LCPI30_1
.LPC30_1:
	add	r1, pc, r0
	mov	r0, #225
	bl	p_23_plt__jit_icall_llvm_throw_corlib_exception_abs_trampoline_llvm
	.p2align	2
.LCPI30_0:
	.long	.Ltmp345-(.LPC30_0+8)
.LCPI30_1:
	.long	.Ltmp346-(.LPC30_1+8)
.LCPI30_2:
	.long	mono_inited-(.LPC30_2+8)
.LCPI30_3:
	.long	mono_aot_Newtonsoft_Json_llvm_got-(.LPC30_3+8)
.Lfunc_end30:
	.size	Newtonsoft_Json_Utilities_CollectionWrapper_1_T_REF__ctor_System_Collections_IList, .Lfunc_end30-Newtonsoft_Json_Utilities_CollectionWrapper_1_T_REF__ctor_System_Collections_IList
.Lexception25:
	.fnend

	.hidden	Newtonsoft_Json_Utilities_CollectionWrapper_1_T_REF__ctor_System_Collections_Generic_ICollection_1_T_REF
	.globl	Newtonsoft_Json_Utilities_CollectionWrapper_1_T_REF__ctor_System_Collections_Generic_ICollection_1_T_REF
	.p2align	2
	.type	Newtonsoft_Json_Utilities_CollectionWrapper_1_T_REF__ctor_System_Collections_Generic_ICollection_1_T_REF,%function
	.code	32
Newtonsoft_Json_Utilities_CollectionWrapper_1_T_REF__ctor_System_Collections_Generic_ICollection_1_T_REF:
.Lfunc_begin31:
	.fnstart
	.save	{r4, r5, r6, r7, r11, lr}
	push	{r4, r5, r6, r7, r11, lr}
.Ltmp347:
.Ltmp348:
.Ltmp349:
.Ltmp350:
.Ltmp351:
.Ltmp352:
.Ltmp353:
	.pad	#8
	sub	sp, sp, #8
.Ltmp354:
	mov	r5, r0
	ldr	r0, .LCPI31_1
	ldr	r6, .LCPI31_2
	mov	r4, r1
.LPC31_1:
	add	r0, pc, r0
.LPC31_2:
	add	r6, pc, r6
	ldrb	r7, [r0, #769]
	ldr	r0, [r6, #28]
	str	r5, [sp]
	str	r5, [sp, #4]
	ldr	r0, [r0]
	cmp	r0, #0
	blne	mono_aot_Newtonsoft_Json_icall_cold_wrapper_265
	cmp	r7, #0
	beq	.LBB31_3
.LBB31_1:
	ldr	r1, [r6, #136]
	mov	r0, r4
	bl	p_84_plt_Newtonsoft_Json_Utilities_ValidationUtils_ArgumentNotNull_object_string_llvm
	ldr	r0, [sp, #4]
	cmp	r0, #0
	beq	.LBB31_4
	ldr	r1, [r6, #8]
	dmb	ish
	str	r4, [r0, #12]!
	mov	r2, #1
	strb	r2, [r1, r0, lsr #9]
	add	sp, sp, #8
	pop	{r4, r5, r6, r7, r11, pc}
.LBB31_3:
	movw	r0, #769
	mov	r1, r5
	bl	mono_aot_Newtonsoft_Json_init_method_gshared_this
	b	.LBB31_1
.Ltmp355:
.LBB31_4:
	ldr	r0, .LCPI31_0
.LPC31_0:
	add	r1, pc, r0
	mov	r0, #225
	bl	p_23_plt__jit_icall_llvm_throw_corlib_exception_abs_trampoline_llvm
	.p2align	2
.LCPI31_0:
	.long	.Ltmp355-(.LPC31_0+8)
.LCPI31_1:
	.long	mono_inited-(.LPC31_1+8)
.LCPI31_2:
	.long	mono_aot_Newtonsoft_Json_llvm_got-(.LPC31_2+8)
.Lfunc_end31:
	.size	Newtonsoft_Json_Utilities_CollectionWrapper_1_T_REF__ctor_System_Collections_Generic_ICollection_1_T_REF, .Lfunc_end31-Newtonsoft_Json_Utilities_CollectionWrapper_1_T_REF__ctor_System_Collections_Generic_ICollection_1_T_REF
.Lexception26:
	.fnend

	.hidden	Newtonsoft_Json_Utilities_CollectionWrapper_1_T_REF_Add_T_REF
	.globl	Newtonsoft_Json_Utilities_CollectionWrapper_1_T_REF_Add_T_REF
	.p2align	2
	.type	Newtonsoft_Json_Utilities_CollectionWrapper_1_T_REF_Add_T_REF,%function
	.code	32
Newtonsoft_Json_Utilities_CollectionWrapper_1_T_REF_Add_T_REF:
.Lfunc_begin32:
	.fnstart
	.save	{r4, r5, r6, r7, r8, lr}
	push	{r4, r5, r6, r7, r8, lr}
.Ltmp356:
.Ltmp357:
.Ltmp358:
.Ltmp359:
.Ltmp360:
.Ltmp361:
.Ltmp362:
	.pad	#16
	sub	sp, sp, #16
.Ltmp363:
	mov	r5, r0
	ldr	r0, .LCPI32_5
	ldr	r6, .LCPI32_6
	mov	r4, r1
.LPC32_5:
	add	r0, pc, r0
.LPC32_6:
	add	r6, pc, r6
	ldrb	r7, [r0, #770]
	ldr	r0, [r6, #28]
	str	r5, [sp, #8]
	str	r5, [sp, #12]
	ldr	r0, [r0]
	cmp	r0, #0
	blne	mono_aot_Newtonsoft_Json_icall_cold_wrapper_265
	cmp	r7, #0
	beq	.LBB32_9
.LBB32_1:
	ldr	r0, [sp, #12]
	cmp	r0, #0
	beq	.LBB32_10
	ldr	r1, [r0, #12]
	ldr	r0, [sp, #12]
	cmp	r1, #0
	beq	.LBB32_6
	cmp	r0, #0
	beq	.LBB32_11
	ldr	r5, [r0, #12]
	ldr	r0, [sp, #12]
	ldr	r0, [r0]
	bl	p_87_plt__rgctx_fetch_48_llvm
	cmp	r5, #0
	beq	.LBB32_12
	ldr	r1, [r5]
	ldr	r2, [r1, #-20]
	mov	r1, r4
	str	r0, [sp, #4]
	mov	r0, r5
	ldr	r8, [sp, #4]
	blx	r2
	add	sp, sp, #16
	pop	{r4, r5, r6, r7, r8, pc}
.LBB32_6:
	cmp	r0, #0
	beq	.LBB32_13
	ldr	r0, [r0, #8]
	cmp	r0, #0
	beq	.LBB32_14
	ldr	r1, [r0]
	ldr	r2, [r1, #-32]
	ldr	r1, [r6, #140]
	str	r1, [sp, #4]
	mov	r1, r4
	ldr	r8, [sp, #4]
	blx	r2
	add	sp, sp, #16
	pop	{r4, r5, r6, r7, r8, pc}
.LBB32_9:
	movw	r0, #770
	mov	r1, r5
	bl	mono_aot_Newtonsoft_Json_init_method_gshared_this
	b	.LBB32_1
.Ltmp364:
.LBB32_10:
	ldr	r0, .LCPI32_4
.LPC32_4:
	add	r1, pc, r0
	mov	r0, #225
	bl	p_23_plt__jit_icall_llvm_throw_corlib_exception_abs_trampoline_llvm
.Ltmp365:
.LBB32_11:
	ldr	r0, .LCPI32_1
.LPC32_1:
	add	r1, pc, r0
	mov	r0, #225
	bl	p_23_plt__jit_icall_llvm_throw_corlib_exception_abs_trampoline_llvm
.Ltmp366:
.LBB32_12:
	ldr	r0, .LCPI32_0
.LPC32_0:
	add	r1, pc, r0
	mov	r0, #225
	bl	p_23_plt__jit_icall_llvm_throw_corlib_exception_abs_trampoline_llvm
.Ltmp367:
.LBB32_13:
	ldr	r0, .LCPI32_3
.LPC32_3:
	add	r1, pc, r0
	mov	r0, #225
	bl	p_23_plt__jit_icall_llvm_throw_corlib_exception_abs_trampoline_llvm
.Ltmp368:
.LBB32_14:
	ldr	r0, .LCPI32_2
.LPC32_2:
	add	r1, pc, r0
	mov	r0, #225
	bl	p_23_plt__jit_icall_llvm_throw_corlib_exception_abs_trampoline_llvm
	.p2align	2
.LCPI32_0:
	.long	.Ltmp366-(.LPC32_0+8)
.LCPI32_1:
	.long	.Ltmp365-(.LPC32_1+8)
.LCPI32_2:
	.long	.Ltmp368-(.LPC32_2+8)
.LCPI32_3:
	.long	.Ltmp367-(.LPC32_3+8)
.LCPI32_4:
	.long	.Ltmp364-(.LPC32_4+8)
.LCPI32_5:
	.long	mono_inited-(.LPC32_5+8)
.LCPI32_6:
	.long	mono_aot_Newtonsoft_Json_llvm_got-(.LPC32_6+8)
.Lfunc_end32:
	.size	Newtonsoft_Json_Utilities_CollectionWrapper_1_T_REF_Add_T_REF, .Lfunc_end32-Newtonsoft_Json_Utilities_CollectionWrapper_1_T_REF_Add_T_REF
.Lexception27:
	.fnend

	.hidden	Newtonsoft_Json_Utilities_CollectionWrapper_1_T_REF_Clear
	.globl	Newtonsoft_Json_Utilities_CollectionWrapper_1_T_REF_Clear
	.p2align	2
	.type	Newtonsoft_Json_Utilities_CollectionWrapper_1_T_REF_Clear,%function
	.code	32
Newtonsoft_Json_Utilities_CollectionWrapper_1_T_REF_Clear:
.Lfunc_begin33:
	.fnstart
	.save	{r4, r5, r6, r8, r11, lr}
	push	{r4, r5, r6, r8, r11, lr}
.Ltmp369:
.Ltmp370:
.Ltmp371:
.Ltmp372:
.Ltmp373:
.Ltmp374:
.Ltmp375:
	.pad	#16
	sub	sp, sp, #16
.Ltmp376:
	mov	r4, r0
	ldr	r0, .LCPI33_5
	ldr	r5, .LCPI33_6
.LPC33_5:
	add	r0, pc, r0
.LPC33_6:
	add	r5, pc, r5
	ldrb	r6, [r0, #771]
	ldr	r0, [r5, #28]
	str	r4, [sp, #8]
	str	r4, [sp, #12]
	ldr	r0, [r0]
	cmp	r0, #0
	blne	mono_aot_Newtonsoft_Json_icall_cold_wrapper_265
	cmp	r6, #0
	beq	.LBB33_10
.LBB33_1:
	ldr	r0, [sp, #12]
	cmp	r0, #0
	beq	.LBB33_11
	ldr	r1, [r0, #12]
	ldr	r0, [sp, #12]
	cmp	r1, #0
	beq	.LBB33_6
	cmp	r0, #0
	beq	.LBB33_12
	ldr	r4, [r0, #12]
	ldr	r0, [sp, #12]
	ldr	r0, [r0]
	bl	p_88_plt__rgctx_fetch_49_llvm
	cmp	r4, #0
	beq	.LBB33_13
	ldr	r1, [r4]
	ldr	r1, [r1, #-4]
	str	r0, [sp, #4]
	mov	r0, r4
	b	.LBB33_9
.LBB33_6:
	cmp	r0, #0
	beq	.LBB33_14
	ldr	r0, [r0, #8]
	cmp	r0, #0
	beq	.LBB33_15
	ldr	r1, [r0]
	ldr	r2, [r5, #144]
	ldr	r1, [r1, #-52]
	str	r2, [sp, #4]
.LBB33_9:
	ldr	r8, [sp, #4]
	blx	r1
	add	sp, sp, #16
	pop	{r4, r5, r6, r8, r11, pc}
.LBB33_10:
	movw	r0, #771
	mov	r1, r4
	bl	mono_aot_Newtonsoft_Json_init_method_gshared_this
	b	.LBB33_1
.Ltmp377:
.LBB33_11:
	ldr	r0, .LCPI33_4
.LPC33_4:
	add	r1, pc, r0
	mov	r0, #225
	bl	p_23_plt__jit_icall_llvm_throw_corlib_exception_abs_trampoline_llvm
.Ltmp378:
.LBB33_12:
	ldr	r0, .LCPI33_1
.LPC33_1:
	add	r1, pc, r0
	mov	r0, #225
	bl	p_23_plt__jit_icall_llvm_throw_corlib_exception_abs_trampoline_llvm
.Ltmp379:
.LBB33_13:
	ldr	r0, .LCPI33_0
.LPC33_0:
	add	r1, pc, r0
	mov	r0, #225
	bl	p_23_plt__jit_icall_llvm_throw_corlib_exception_abs_trampoline_llvm
.Ltmp380:
.LBB33_14:
	ldr	r0, .LCPI33_3
.LPC33_3:
	add	r1, pc, r0
	mov	r0, #225
	bl	p_23_plt__jit_icall_llvm_throw_corlib_exception_abs_trampoline_llvm
.Ltmp381:
.LBB33_15:
	ldr	r0, .LCPI33_2
.LPC33_2:
	add	r1, pc, r0
	mov	r0, #225
	bl	p_23_plt__jit_icall_llvm_throw_corlib_exception_abs_trampoline_llvm
	.p2align	2
.LCPI33_0:
	.long	.Ltmp379-(.LPC33_0+8)
.LCPI33_1:
	.long	.Ltmp378-(.LPC33_1+8)
.LCPI33_2:
	.long	.Ltmp381-(.LPC33_2+8)
.LCPI33_3:
	.long	.Ltmp380-(.LPC33_3+8)
.LCPI33_4:
	.long	.Ltmp377-(.LPC33_4+8)
.LCPI33_5:
	.long	mono_inited-(.LPC33_5+8)
.LCPI33_6:
	.long	mono_aot_Newtonsoft_Json_llvm_got-(.LPC33_6+8)
.Lfunc_end33:
	.size	Newtonsoft_Json_Utilities_CollectionWrapper_1_T_REF_Clear, .Lfunc_end33-Newtonsoft_Json_Utilities_CollectionWrapper_1_T_REF_Clear
.Lexception28:
	.fnend

	.hidden	Newtonsoft_Json_Utilities_CollectionWrapper_1_T_REF_Contains_T_REF
	.globl	Newtonsoft_Json_Utilities_CollectionWrapper_1_T_REF_Contains_T_REF
	.p2align	2
	.type	Newtonsoft_Json_Utilities_CollectionWrapper_1_T_REF_Contains_T_REF,%function
	.code	32
Newtonsoft_Json_Utilities_CollectionWrapper_1_T_REF_Contains_T_REF:
.Lfunc_begin34:
	.fnstart
	.save	{r4, r5, r6, r7, r8, lr}
	push	{r4, r5, r6, r7, r8, lr}
.Ltmp382:
.Ltmp383:
.Ltmp384:
.Ltmp385:
.Ltmp386:
.Ltmp387:
.Ltmp388:
	.pad	#16
	sub	sp, sp, #16
.Ltmp389:
	mov	r5, r0
	ldr	r0, .LCPI34_5
	ldr	r6, .LCPI34_6
	mov	r4, r1
.LPC34_5:
	add	r0, pc, r0
.LPC34_6:
	add	r6, pc, r6
	ldrb	r7, [r0, #772]
	ldr	r0, [r6, #28]
	str	r5, [sp, #8]
	str	r5, [sp, #12]
	ldr	r0, [r0]
	cmp	r0, #0
	blne	mono_aot_Newtonsoft_Json_icall_cold_wrapper_265
	cmp	r7, #0
	beq	.LBB34_10
.LBB34_1:
	ldr	r0, [sp, #12]
	cmp	r0, #0
	beq	.LBB34_11
	ldr	r1, [r0, #12]
	ldr	r0, [sp, #12]
	cmp	r1, #0
	beq	.LBB34_6
	cmp	r0, #0
	beq	.LBB34_12
	ldr	r5, [r0, #12]
	ldr	r0, [sp, #12]
	ldr	r0, [r0]
	bl	p_89_plt__rgctx_fetch_50_llvm
	cmp	r5, #0
	beq	.LBB34_13
	ldr	r1, [r5]
	ldr	r2, [r1, #-28]
	str	r0, [sp, #4]
	mov	r0, r5
	b	.LBB34_9
.LBB34_6:
	cmp	r0, #0
	beq	.LBB34_14
	ldr	r0, [r0, #8]
	cmp	r0, #0
	beq	.LBB34_15
	ldr	r1, [r0]
	ldr	r2, [r1, #-68]
	ldr	r1, [r6, #148]
	str	r1, [sp, #4]
.LBB34_9:
	ldr	r8, [sp, #4]
	mov	r1, r4
	blx	r2
	add	sp, sp, #16
	pop	{r4, r5, r6, r7, r8, pc}
.LBB34_10:
	mov	r0, #772
	mov	r1, r5
	bl	mono_aot_Newtonsoft_Json_init_method_gshared_this
	b	.LBB34_1
.Ltmp390:
.LBB34_11:
	ldr	r0, .LCPI34_4
.LPC34_4:
	add	r1, pc, r0
	mov	r0, #225
	bl	p_23_plt__jit_icall_llvm_throw_corlib_exception_abs_trampoline_llvm
.Ltmp391:
.LBB34_12:
	ldr	r0, .LCPI34_1
.LPC34_1:
	add	r1, pc, r0
	mov	r0, #225
	bl	p_23_plt__jit_icall_llvm_throw_corlib_exception_abs_trampoline_llvm
.Ltmp392:
.LBB34_13:
	ldr	r0, .LCPI34_0
.LPC34_0:
	add	r1, pc, r0
	mov	r0, #225
	bl	p_23_plt__jit_icall_llvm_throw_corlib_exception_abs_trampoline_llvm
.Ltmp393:
.LBB34_14:
	ldr	r0, .LCPI34_3
.LPC34_3:
	add	r1, pc, r0
	mov	r0, #225
	bl	p_23_plt__jit_icall_llvm_throw_corlib_exception_abs_trampoline_llvm
.Ltmp394:
.LBB34_15:
	ldr	r0, .LCPI34_2
.LPC34_2:
	add	r1, pc, r0
	mov	r0, #225
	bl	p_23_plt__jit_icall_llvm_throw_corlib_exception_abs_trampoline_llvm
	.p2align	2
.LCPI34_0:
	.long	.Ltmp392-(.LPC34_0+8)
.LCPI34_1:
	.long	.Ltmp391-(.LPC34_1+8)
.LCPI34_2:
	.long	.Ltmp394-(.LPC34_2+8)
.LCPI34_3:
	.long	.Ltmp393-(.LPC34_3+8)
.LCPI34_4:
	.long	.Ltmp390-(.LPC34_4+8)
.LCPI34_5:
	.long	mono_inited-(.LPC34_5+8)
.LCPI34_6:
	.long	mono_aot_Newtonsoft_Json_llvm_got-(.LPC34_6+8)
.Lfunc_end34:
	.size	Newtonsoft_Json_Utilities_CollectionWrapper_1_T_REF_Contains_T_REF, .Lfunc_end34-Newtonsoft_Json_Utilities_CollectionWrapper_1_T_REF_Contains_T_REF
.Lexception29:
	.fnend

	.hidden	Newtonsoft_Json_Utilities_CollectionWrapper_1_T_REF_CopyTo_T_REF___int
	.globl	Newtonsoft_Json_Utilities_CollectionWrapper_1_T_REF_CopyTo_T_REF___int
	.p2align	2
	.type	Newtonsoft_Json_Utilities_CollectionWrapper_1_T_REF_CopyTo_T_REF___int,%function
	.code	32
Newtonsoft_Json_Utilities_CollectionWrapper_1_T_REF_CopyTo_T_REF___int:
.Lfunc_begin35:
	.fnstart
	.save	{r4, r5, r6, r7, r8, r9, r11, lr}
	push	{r4, r5, r6, r7, r8, r9, r11, lr}
.Ltmp395:
.Ltmp396:
.Ltmp397:
.Ltmp398:
.Ltmp399:
.Ltmp400:
.Ltmp401:
.Ltmp402:
.Ltmp403:
	.pad	#16
	sub	sp, sp, #16
.Ltmp404:
	mov	r6, r0
	ldr	r0, .LCPI35_5
	ldr	r9, .LCPI35_6
	mov	r4, r2
.LPC35_5:
	add	r0, pc, r0
	mov	r5, r1
.LPC35_6:
	add	r9, pc, r9
	ldrb	r7, [r0, #773]
	ldr	r0, [r9, #28]
	str	r6, [sp, #8]
	str	r6, [sp, #12]
	ldr	r0, [r0]
	cmp	r0, #0
	blne	mono_aot_Newtonsoft_Json_icall_cold_wrapper_265
	cmp	r7, #0
	beq	.LBB35_10
.LBB35_1:
	ldr	r0, [sp, #12]
	cmp	r0, #0
	beq	.LBB35_11
	ldr	r1, [r0, #12]
	ldr	r0, [sp, #12]
	cmp	r1, #0
	beq	.LBB35_6
	cmp	r0, #0
	beq	.LBB35_12
	ldr	r6, [r0, #12]
	ldr	r0, [sp, #12]
	ldr	r0, [r0]
	bl	p_90_plt__rgctx_fetch_51_llvm
	cmp	r6, #0
	beq	.LBB35_13
	ldr	r1, [r6]
	ldr	r3, [r1, #-32]
	str	r0, [sp, #4]
	mov	r0, r6
	b	.LBB35_9
.LBB35_6:
	cmp	r0, #0
	beq	.LBB35_14
	ldr	r0, [r0, #8]
	cmp	r0, #0
	beq	.LBB35_15
	ldr	r1, [r0]
	ldr	r3, [r1, #-64]
	ldr	r1, [r9, #152]
	str	r1, [sp, #4]
.LBB35_9:
	ldr	r8, [sp, #4]
	mov	r1, r5
	mov	r2, r4
	blx	r3
	add	sp, sp, #16
	pop	{r4, r5, r6, r7, r8, r9, r11, pc}
.LBB35_10:
	movw	r0, #773
	mov	r1, r6
	bl	mono_aot_Newtonsoft_Json_init_method_gshared_this
	b	.LBB35_1
.Ltmp405:
.LBB35_11:
	ldr	r0, .LCPI35_4
.LPC35_4:
	add	r1, pc, r0
	mov	r0, #225
	bl	p_23_plt__jit_icall_llvm_throw_corlib_exception_abs_trampoline_llvm
.Ltmp406:
.LBB35_12:
	ldr	r0, .LCPI35_1
.LPC35_1:
	add	r1, pc, r0
	mov	r0, #225
	bl	p_23_plt__jit_icall_llvm_throw_corlib_exception_abs_trampoline_llvm
.Ltmp407:
.LBB35_13:
	ldr	r0, .LCPI35_0
.LPC35_0:
	add	r1, pc, r0
	mov	r0, #225
	bl	p_23_plt__jit_icall_llvm_throw_corlib_exception_abs_trampoline_llvm
.Ltmp408:
.LBB35_14:
	ldr	r0, .LCPI35_3
.LPC35_3:
	add	r1, pc, r0
	mov	r0, #225
	bl	p_23_plt__jit_icall_llvm_throw_corlib_exception_abs_trampoline_llvm
.Ltmp409:
.LBB35_15:
	ldr	r0, .LCPI35_2
.LPC35_2:
	add	r1, pc, r0
	mov	r0, #225
	bl	p_23_plt__jit_icall_llvm_throw_corlib_exception_abs_trampoline_llvm
	.p2align	2
.LCPI35_0:
	.long	.Ltmp407-(.LPC35_0+8)
.LCPI35_1:
	.long	.Ltmp406-(.LPC35_1+8)
.LCPI35_2:
	.long	.Ltmp409-(.LPC35_2+8)
.LCPI35_3:
	.long	.Ltmp408-(.LPC35_3+8)
.LCPI35_4:
	.long	.Ltmp405-(.LPC35_4+8)
.LCPI35_5:
	.long	mono_inited-(.LPC35_5+8)
.LCPI35_6:
	.long	mono_aot_Newtonsoft_Json_llvm_got-(.LPC35_6+8)
.Lfunc_end35:
	.size	Newtonsoft_Json_Utilities_CollectionWrapper_1_T_REF_CopyTo_T_REF___int, .Lfunc_end35-Newtonsoft_Json_Utilities_CollectionWrapper_1_T_REF_CopyTo_T_REF___int
.Lexception30:
	.fnend

	.hidden	Newtonsoft_Json_Utilities_CollectionWrapper_1_T_REF_get_Count
	.globl	Newtonsoft_Json_Utilities_CollectionWrapper_1_T_REF_get_Count
	.p2align	2
	.type	Newtonsoft_Json_Utilities_CollectionWrapper_1_T_REF_get_Count,%function
	.code	32
Newtonsoft_Json_Utilities_CollectionWrapper_1_T_REF_get_Count:
.Lfunc_begin36:
	.fnstart
	.save	{r4, r5, r6, r8, r11, lr}
	push	{r4, r5, r6, r8, r11, lr}
.Ltmp410:
.Ltmp411:
.Ltmp412:
.Ltmp413:
.Ltmp414:
.Ltmp415:
.Ltmp416:
	.pad	#16
	sub	sp, sp, #16
.Ltmp417:
	mov	r4, r0
	ldr	r0, .LCPI36_5
	ldr	r5, .LCPI36_6
.LPC36_5:
	add	r0, pc, r0
.LPC36_6:
	add	r5, pc, r5
	ldrb	r6, [r0, #774]
	ldr	r0, [r5, #28]
	str	r4, [sp, #8]
	str	r4, [sp, #12]
	ldr	r0, [r0]
	cmp	r0, #0
	blne	mono_aot_Newtonsoft_Json_icall_cold_wrapper_265
	cmp	r6, #0
	beq	.LBB36_10
.LBB36_1:
	ldr	r0, [sp, #12]
	cmp	r0, #0
	beq	.LBB36_11
	ldr	r1, [r0, #12]
	ldr	r0, [sp, #12]
	cmp	r1, #0
	beq	.LBB36_6
	cmp	r0, #0
	beq	.LBB36_12
	ldr	r4, [r0, #12]
	ldr	r0, [sp, #12]
	ldr	r0, [r0]
	bl	p_91_plt__rgctx_fetch_52_llvm
	cmp	r4, #0
	beq	.LBB36_13
	ldr	r1, [r4]
	ldr	r1, [r1, #-76]
	str	r0, [sp, #4]
	mov	r0, r4
	b	.LBB36_9
.LBB36_6:
	cmp	r0, #0
	beq	.LBB36_14
	ldr	r0, [r0, #8]
	cmp	r0, #0
	beq	.LBB36_15
	ldr	r1, [r0]
	ldr	r2, [r5, #156]
	ldr	r1, [r1, #-28]
	str	r2, [sp, #4]
.LBB36_9:
	ldr	r8, [sp, #4]
	blx	r1
	add	sp, sp, #16
	pop	{r4, r5, r6, r8, r11, pc}
.LBB36_10:
	movw	r0, #774
	mov	r1, r4
	bl	mono_aot_Newtonsoft_Json_init_method_gshared_this
	b	.LBB36_1
.Ltmp418:
.LBB36_11:
	ldr	r0, .LCPI36_4
.LPC36_4:
	add	r1, pc, r0
	mov	r0, #225
	bl	p_23_plt__jit_icall_llvm_throw_corlib_exception_abs_trampoline_llvm
.Ltmp419:
.LBB36_12:
	ldr	r0, .LCPI36_1
.LPC36_1:
	add	r1, pc, r0
	mov	r0, #225
	bl	p_23_plt__jit_icall_llvm_throw_corlib_exception_abs_trampoline_llvm
.Ltmp420:
.LBB36_13:
	ldr	r0, .LCPI36_0
.LPC36_0:
	add	r1, pc, r0
	mov	r0, #225
	bl	p_23_plt__jit_icall_llvm_throw_corlib_exception_abs_trampoline_llvm
.Ltmp421:
.LBB36_14:
	ldr	r0, .LCPI36_3
.LPC36_3:
	add	r1, pc, r0
	mov	r0, #225
	bl	p_23_plt__jit_icall_llvm_throw_corlib_exception_abs_trampoline_llvm
.Ltmp422:
.LBB36_15:
	ldr	r0, .LCPI36_2
.LPC36_2:
	add	r1, pc, r0
	mov	r0, #225
	bl	p_23_plt__jit_icall_llvm_throw_corlib_exception_abs_trampoline_llvm
	.p2align	2
.LCPI36_0:
	.long	.Ltmp420-(.LPC36_0+8)
.LCPI36_1:
	.long	.Ltmp419-(.LPC36_1+8)
.LCPI36_2:
	.long	.Ltmp422-(.LPC36_2+8)
.LCPI36_3:
	.long	.Ltmp421-(.LPC36_3+8)
.LCPI36_4:
	.long	.Ltmp418-(.LPC36_4+8)
.LCPI36_5:
	.long	mono_inited-(.LPC36_5+8)
.LCPI36_6:
	.long	mono_aot_Newtonsoft_Json_llvm_got-(.LPC36_6+8)
.Lfunc_end36:
	.size	Newtonsoft_Json_Utilities_CollectionWrapper_1_T_REF_get_Count, .Lfunc_end36-Newtonsoft_Json_Utilities_CollectionWrapper_1_T_REF_get_Count
.Lexception31:
	.fnend

	.hidden	Newtonsoft_Json_Utilities_CollectionWrapper_1_T_REF_get_IsReadOnly
	.globl	Newtonsoft_Json_Utilities_CollectionWrapper_1_T_REF_get_IsReadOnly
	.p2align	2
	.type	Newtonsoft_Json_Utilities_CollectionWrapper_1_T_REF_get_IsReadOnly,%function
	.code	32
Newtonsoft_Json_Utilities_CollectionWrapper_1_T_REF_get_IsReadOnly:
.Lfunc_begin37:
	.fnstart
	.save	{r4, r5, r6, r8, r11, lr}
	push	{r4, r5, r6, r8, r11, lr}
.Ltmp423:
.Ltmp424:
.Ltmp425:
.Ltmp426:
.Ltmp427:
.Ltmp428:
.Ltmp429:
	.pad	#16
	sub	sp, sp, #16
.Ltmp430:
	mov	r4, r0
	ldr	r0, .LCPI37_5
	ldr	r5, .LCPI37_6
.LPC37_5:
	add	r0, pc, r0
.LPC37_6:
	add	r5, pc, r5
	ldrb	r6, [r0, #775]
	ldr	r0, [r5, #28]
	str	r4, [sp, #8]
	str	r4, [sp, #12]
	ldr	r0, [r0]
	cmp	r0, #0
	blne	mono_aot_Newtonsoft_Json_icall_cold_wrapper_265
	cmp	r6, #0
	beq	.LBB37_10
.LBB37_1:
	ldr	r0, [sp, #12]
	cmp	r0, #0
	beq	.LBB37_11
	ldr	r1, [r0, #12]
	ldr	r0, [sp, #12]
	cmp	r1, #0
	beq	.LBB37_6
	cmp	r0, #0
	beq	.LBB37_12
	ldr	r4, [r0, #12]
	ldr	r0, [sp, #12]
	ldr	r0, [r0]
	bl	p_92_plt__rgctx_fetch_53_llvm
	cmp	r4, #0
	beq	.LBB37_13
	ldr	r1, [r4]
	ldr	r1, [r1, #-52]
	str	r0, [sp, #4]
	mov	r0, r4
	b	.LBB37_9
.LBB37_6:
	cmp	r0, #0
	beq	.LBB37_14
	ldr	r0, [r0, #8]
	cmp	r0, #0
	beq	.LBB37_15
	ldr	r1, [r0]
	ldr	r2, [r5, #160]
	ldr	r1, [r1, #-24]
	str	r2, [sp, #4]
.LBB37_9:
	ldr	r8, [sp, #4]
	blx	r1
	add	sp, sp, #16
	pop	{r4, r5, r6, r8, r11, pc}
.LBB37_10:
	movw	r0, #775
	mov	r1, r4
	bl	mono_aot_Newtonsoft_Json_init_method_gshared_this
	b	.LBB37_1
.Ltmp431:
.LBB37_11:
	ldr	r0, .LCPI37_4
.LPC37_4:
	add	r1, pc, r0
	mov	r0, #225
	bl	p_23_plt__jit_icall_llvm_throw_corlib_exception_abs_trampoline_llvm
.Ltmp432:
.LBB37_12:
	ldr	r0, .LCPI37_1
.LPC37_1:
	add	r1, pc, r0
	mov	r0, #225
	bl	p_23_plt__jit_icall_llvm_throw_corlib_exception_abs_trampoline_llvm
.Ltmp433:
.LBB37_13:
	ldr	r0, .LCPI37_0
.LPC37_0:
	add	r1, pc, r0
	mov	r0, #225
	bl	p_23_plt__jit_icall_llvm_throw_corlib_exception_abs_trampoline_llvm
.Ltmp434:
.LBB37_14:
	ldr	r0, .LCPI37_3
.LPC37_3:
	add	r1, pc, r0
	mov	r0, #225
	bl	p_23_plt__jit_icall_llvm_throw_corlib_exception_abs_trampoline_llvm
.Ltmp435:
.LBB37_15:
	ldr	r0, .LCPI37_2
.LPC37_2:
	add	r1, pc, r0
	mov	r0, #225
	bl	p_23_plt__jit_icall_llvm_throw_corlib_exception_abs_trampoline_llvm
	.p2align	2
.LCPI37_0:
	.long	.Ltmp433-(.LPC37_0+8)
.LCPI37_1:
	.long	.Ltmp432-(.LPC37_1+8)
.LCPI37_2:
	.long	.Ltmp435-(.LPC37_2+8)
.LCPI37_3:
	.long	.Ltmp434-(.LPC37_3+8)
.LCPI37_4:
	.long	.Ltmp431-(.LPC37_4+8)
.LCPI37_5:
	.long	mono_inited-(.LPC37_5+8)
.LCPI37_6:
	.long	mono_aot_Newtonsoft_Json_llvm_got-(.LPC37_6+8)
.Lfunc_end37:
	.size	Newtonsoft_Json_Utilities_CollectionWrapper_1_T_REF_get_IsReadOnly, .Lfunc_end37-Newtonsoft_Json_Utilities_CollectionWrapper_1_T_REF_get_IsReadOnly
.Lexception32:
	.fnend

	.hidden	Newtonsoft_Json_Utilities_CollectionWrapper_1_T_REF_Remove_T_REF
	.globl	Newtonsoft_Json_Utilities_CollectionWrapper_1_T_REF_Remove_T_REF
	.p2align	2
	.type	Newtonsoft_Json_Utilities_CollectionWrapper_1_T_REF_Remove_T_REF,%function
	.code	32
Newtonsoft_Json_Utilities_CollectionWrapper_1_T_REF_Remove_T_REF:
.Lfunc_begin38:
	.fnstart
	.save	{r4, r5, r6, r7, r8, lr}
	push	{r4, r5, r6, r7, r8, lr}
.Ltmp436:
.Ltmp437:
.Ltmp438:
.Ltmp439:
.Ltmp440:
.Ltmp441:
.Ltmp442:
	.pad	#16
	sub	sp, sp, #16
.Ltmp443:
	mov	r5, r0
	ldr	r0, .LCPI38_7
	ldr	r6, .LCPI38_8
	mov	r4, r1
.LPC38_7:
	add	r0, pc, r0
.LPC38_8:
	add	r6, pc, r6
	ldrb	r7, [r0, #776]
	ldr	r0, [r6, #28]
	str	r5, [sp, #8]
	str	r5, [sp, #12]
	ldr	r0, [r0]
	cmp	r0, #0
	blne	mono_aot_Newtonsoft_Json_icall_cold_wrapper_265
	cmp	r7, #0
	beq	.LBB38_14
.LBB38_1:
	ldr	r0, [sp, #12]
	cmp	r0, #0
	beq	.LBB38_15
	ldr	r1, [r0, #12]
	ldr	r0, [sp, #12]
	cmp	r1, #0
	beq	.LBB38_6
	cmp	r0, #0
	beq	.LBB38_16
	ldr	r5, [r0, #12]
	ldr	r0, [sp, #12]
	ldr	r0, [r0]
	bl	p_93_plt__rgctx_fetch_54_llvm
	cmp	r5, #0
	beq	.LBB38_17
	ldr	r1, [r5]
	ldr	r2, [r1, #-32]
	mov	r1, r4
	str	r0, [sp, #4]
	mov	r0, r5
	ldr	r8, [sp, #4]
	blx	r2
	mov	r5, r0
	b	.LBB38_13
.LBB38_6:
	cmp	r0, #0
	beq	.LBB38_18
	ldr	r0, [r0, #8]
	cmp	r0, #0
	beq	.LBB38_19
	ldr	r1, [r0]
	ldr	r2, [r1, #-68]
	ldr	r1, [r6, #148]
	str	r1, [sp, #4]
	mov	r1, r4
	ldr	r8, [sp, #4]
	blx	r2
	mov	r5, r0
	tst	r5, #255
	beq	.LBB38_12
	ldr	r0, [sp, #12]
	cmp	r0, #0
	beq	.LBB38_20
	ldr	r0, [r0, #8]
	cmp	r0, #0
	beq	.LBB38_21
	ldr	r1, [r0]
	ldr	r2, [r1, #-20]
	ldr	r1, [r6, #164]
	str	r1, [sp, #4]
	mov	r1, r4
	ldr	r8, [sp, #4]
	blx	r2
	b	.LBB38_13
.LBB38_12:
	mov	r5, #0
.LBB38_13:
	mov	r0, r5
	add	sp, sp, #16
	pop	{r4, r5, r6, r7, r8, pc}
.LBB38_14:
	mov	r0, #776
	mov	r1, r5
	bl	mono_aot_Newtonsoft_Json_init_method_gshared_this
	b	.LBB38_1
.Ltmp444:
.LBB38_15:
	ldr	r0, .LCPI38_6
.LPC38_6:
	add	r1, pc, r0
	mov	r0, #225
	bl	p_23_plt__jit_icall_llvm_throw_corlib_exception_abs_trampoline_llvm
.Ltmp445:
.LBB38_16:
	ldr	r0, .LCPI38_1
.LPC38_1:
	add	r1, pc, r0
	mov	r0, #225
	bl	p_23_plt__jit_icall_llvm_throw_corlib_exception_abs_trampoline_llvm
.Ltmp446:
.LBB38_17:
	ldr	r0, .LCPI38_0
.LPC38_0:
	add	r1, pc, r0
	mov	r0, #225
	bl	p_23_plt__jit_icall_llvm_throw_corlib_exception_abs_trampoline_llvm
.Ltmp447:
.LBB38_18:
	ldr	r0, .LCPI38_5
.LPC38_5:
	add	r1, pc, r0
	mov	r0, #225
	bl	p_23_plt__jit_icall_llvm_throw_corlib_exception_abs_trampoline_llvm
.Ltmp448:
.LBB38_19:
	ldr	r0, .LCPI38_4
.LPC38_4:
	add	r1, pc, r0
	mov	r0, #225
	bl	p_23_plt__jit_icall_llvm_throw_corlib_exception_abs_trampoline_llvm
.Ltmp449:
.LBB38_20:
	ldr	r0, .LCPI38_3
.LPC38_3:
	add	r1, pc, r0
	mov	r0, #225
	bl	p_23_plt__jit_icall_llvm_throw_corlib_exception_abs_trampoline_llvm
.Ltmp450:
.LBB38_21:
	ldr	r0, .LCPI38_2
.LPC38_2:
	add	r1, pc, r0
	mov	r0, #225
	bl	p_23_plt__jit_icall_llvm_throw_corlib_exception_abs_trampoline_llvm
	.p2align	2
.LCPI38_0:
	.long	.Ltmp446-(.LPC38_0+8)
.LCPI38_1:
	.long	.Ltmp445-(.LPC38_1+8)
.LCPI38_2:
	.long	.Ltmp450-(.LPC38_2+8)
.LCPI38_3:
	.long	.Ltmp449-(.LPC38_3+8)
.LCPI38_4:
	.long	.Ltmp448-(.LPC38_4+8)
.LCPI38_5:
	.long	.Ltmp447-(.LPC38_5+8)
.LCPI38_6:
	.long	.Ltmp444-(.LPC38_6+8)
.LCPI38_7:
	.long	mono_inited-(.LPC38_7+8)
.LCPI38_8:
	.long	mono_aot_Newtonsoft_Json_llvm_got-(.LPC38_8+8)
.Lfunc_end38:
	.size	Newtonsoft_Json_Utilities_CollectionWrapper_1_T_REF_Remove_T_REF, .Lfunc_end38-Newtonsoft_Json_Utilities_CollectionWrapper_1_T_REF_Remove_T_REF
.Lexception33:
	.fnend

	.hidden	Newtonsoft_Json_Utilities_CollectionWrapper_1_T_REF_GetEnumerator
	.globl	Newtonsoft_Json_Utilities_CollectionWrapper_1_T_REF_GetEnumerator
	.p2align	2
	.type	Newtonsoft_Json_Utilities_CollectionWrapper_1_T_REF_GetEnumerator,%function
	.code	32
Newtonsoft_Json_Utilities_CollectionWrapper_1_T_REF_GetEnumerator:
.Lfunc_begin39:
	.fnstart
	.save	{r4, r8, r11, lr}
	push	{r4, r8, r11, lr}
.Ltmp451:
.Ltmp452:
.Ltmp453:
.Ltmp454:
.Ltmp455:
	.pad	#16
	sub	sp, sp, #16
.Ltmp456:
	ldr	r1, .LCPI39_5
.LPC39_5:
	add	r1, pc, r1
	ldr	r1, [r1, #28]
	str	r0, [sp, #8]
	str	r0, [sp, #12]
	ldr	r4, [sp, #12]
	ldr	r0, [r1]
	cmp	r0, #0
	blne	mono_aot_Newtonsoft_Json_icall_cold_wrapper_265
	cmp	r4, #0
	beq	.LBB39_8
	ldr	r1, [r4, #12]
	ldr	r0, [sp, #12]
	cmp	r1, #0
	beq	.LBB39_5
	cmp	r0, #0
	beq	.LBB39_9
	ldr	r4, [r0, #12]
	ldr	r0, [sp, #12]
	ldr	r0, [r0]
	bl	p_96_plt__rgctx_fetch_56_llvm
	cmp	r4, #0
	bne	.LBB39_7
.Ltmp457:
	ldr	r0, .LCPI39_0
.LPC39_0:
	add	r1, pc, r0
	mov	r0, #225
	bl	p_23_plt__jit_icall_llvm_throw_corlib_exception_abs_trampoline_llvm
.LBB39_5:
	cmp	r0, #0
	beq	.LBB39_10
	ldr	r4, [r0, #8]
	ldr	r0, [sp, #12]
	ldr	r0, [r0]
	bl	p_94_plt__rgctx_fetch_55_llvm
	str	r0, [sp, #4]
	mov	r0, r4
	ldr	r8, [sp, #4]
	bl	p_95_plt_System_Linq_Enumerable_Cast_T_REF_System_Collections_IEnumerable_llvm
	mov	r4, r0
	ldr	r0, [sp, #12]
	ldr	r0, [r0]
	bl	p_96_plt__rgctx_fetch_56_llvm
	cmp	r4, #0
	beq	.LBB39_11
.LBB39_7:
	ldr	r1, [r4]
	ldr	r1, [r1, #-40]
	str	r0, [sp, #4]
	mov	r0, r4
	ldr	r8, [sp, #4]
	blx	r1
	add	sp, sp, #16
	pop	{r4, r8, r11, pc}
.Ltmp458:
.LBB39_8:
	ldr	r0, .LCPI39_4
.LPC39_4:
	add	r1, pc, r0
	mov	r0, #225
	bl	p_23_plt__jit_icall_llvm_throw_corlib_exception_abs_trampoline_llvm
.Ltmp459:
.LBB39_9:
	ldr	r0, .LCPI39_1
.LPC39_1:
	add	r1, pc, r0
	mov	r0, #225
	bl	p_23_plt__jit_icall_llvm_throw_corlib_exception_abs_trampoline_llvm
.Ltmp460:
.LBB39_10:
	ldr	r0, .LCPI39_3
.LPC39_3:
	add	r1, pc, r0
	mov	r0, #225
	bl	p_23_plt__jit_icall_llvm_throw_corlib_exception_abs_trampoline_llvm
.Ltmp461:
.LBB39_11:
	ldr	r0, .LCPI39_2
.LPC39_2:
	add	r1, pc, r0
	mov	r0, #225
	bl	p_23_plt__jit_icall_llvm_throw_corlib_exception_abs_trampoline_llvm
	.p2align	2
.LCPI39_0:
	.long	.Ltmp457-(.LPC39_0+8)
.LCPI39_1:
	.long	.Ltmp459-(.LPC39_1+8)
.LCPI39_2:
	.long	.Ltmp461-(.LPC39_2+8)
.LCPI39_3:
	.long	.Ltmp460-(.LPC39_3+8)
.LCPI39_4:
	.long	.Ltmp458-(.LPC39_4+8)
.LCPI39_5:
	.long	mono_aot_Newtonsoft_Json_llvm_got-(.LPC39_5+8)
.Lfunc_end39:
	.size	Newtonsoft_Json_Utilities_CollectionWrapper_1_T_REF_GetEnumerator, .Lfunc_end39-Newtonsoft_Json_Utilities_CollectionWrapper_1_T_REF_GetEnumerator
.Lexception34:
	.fnend

	.hidden	Newtonsoft_Json_Utilities_CollectionWrapper_1_T_REF_System_Collections_IEnumerable_GetEnumerator
	.globl	Newtonsoft_Json_Utilities_CollectionWrapper_1_T_REF_System_Collections_IEnumerable_GetEnumerator
	.p2align	2
	.type	Newtonsoft_Json_Utilities_CollectionWrapper_1_T_REF_System_Collections_IEnumerable_GetEnumerator,%function
	.code	32
Newtonsoft_Json_Utilities_CollectionWrapper_1_T_REF_System_Collections_IEnumerable_GetEnumerator:
.Lfunc_begin40:
	.fnstart
	.save	{r4, r5, r6, r8, r11, lr}
	push	{r4, r5, r6, r8, r11, lr}
.Ltmp462:
.Ltmp463:
.Ltmp464:
.Ltmp465:
.Ltmp466:
.Ltmp467:
.Ltmp468:
	.pad	#16
	sub	sp, sp, #16
.Ltmp469:
	mov	r4, r0
	ldr	r0, .LCPI40_5
	ldr	r5, .LCPI40_6
.LPC40_5:
	add	r0, pc, r0
.LPC40_6:
	add	r5, pc, r5
	ldrb	r6, [r0, #778]
	ldr	r0, [r5, #28]
	str	r4, [sp, #8]
	str	r4, [sp, #12]
	ldr	r0, [r0]
	cmp	r0, #0
	blne	mono_aot_Newtonsoft_Json_icall_cold_wrapper_265
	cmp	r6, #0
	beq	.LBB40_10
.LBB40_1:
	ldr	r0, [sp, #12]
	cmp	r0, #0
	beq	.LBB40_11
	ldr	r1, [r0, #12]
	ldr	r0, [sp, #12]
	cmp	r1, #0
	beq	.LBB40_6
	cmp	r0, #0
	beq	.LBB40_12
	ldr	r4, [r0, #12]
	ldr	r0, [sp, #12]
	ldr	r0, [r0]
	bl	p_96_plt__rgctx_fetch_56_llvm
	cmp	r4, #0
	beq	.LBB40_13
	ldr	r1, [r4]
	ldr	r1, [r1, #-40]
	str	r0, [sp, #4]
	mov	r0, r4
	b	.LBB40_9
.LBB40_6:
	cmp	r0, #0
	beq	.LBB40_14
	ldr	r0, [r0, #8]
	cmp	r0, #0
	beq	.LBB40_15
	ldr	r1, [r0]
	ldr	r2, [r5, #168]
	ldr	r1, [r1, #-60]
	str	r2, [sp, #4]
.LBB40_9:
	ldr	r8, [sp, #4]
	blx	r1
	add	sp, sp, #16
	pop	{r4, r5, r6, r8, r11, pc}
.LBB40_10:
	movw	r0, #778
	mov	r1, r4
	bl	mono_aot_Newtonsoft_Json_init_method_gshared_this
	b	.LBB40_1
.Ltmp470:
.LBB40_11:
	ldr	r0, .LCPI40_4
.LPC40_4:
	add	r1, pc, r0
	mov	r0, #225
	bl	p_23_plt__jit_icall_llvm_throw_corlib_exception_abs_trampoline_llvm
.Ltmp471:
.LBB40_12:
	ldr	r0, .LCPI40_1
.LPC40_1:
	add	r1, pc, r0
	mov	r0, #225
	bl	p_23_plt__jit_icall_llvm_throw_corlib_exception_abs_trampoline_llvm
.Ltmp472:
.LBB40_13:
	ldr	r0, .LCPI40_0
.LPC40_0:
	add	r1, pc, r0
	mov	r0, #225
	bl	p_23_plt__jit_icall_llvm_throw_corlib_exception_abs_trampoline_llvm
.Ltmp473:
.LBB40_14:
	ldr	r0, .LCPI40_3
.LPC40_3:
	add	r1, pc, r0
	mov	r0, #225
	bl	p_23_plt__jit_icall_llvm_throw_corlib_exception_abs_trampoline_llvm
.Ltmp474:
.LBB40_15:
	ldr	r0, .LCPI40_2
.LPC40_2:
	add	r1, pc, r0
	mov	r0, #225
	bl	p_23_plt__jit_icall_llvm_throw_corlib_exception_abs_trampoline_llvm
	.p2align	2
.LCPI40_0:
	.long	.Ltmp472-(.LPC40_0+8)
.LCPI40_1:
	.long	.Ltmp471-(.LPC40_1+8)
.LCPI40_2:
	.long	.Ltmp474-(.LPC40_2+8)
.LCPI40_3:
	.long	.Ltmp473-(.LPC40_3+8)
.LCPI40_4:
	.long	.Ltmp470-(.LPC40_4+8)
.LCPI40_5:
	.long	mono_inited-(.LPC40_5+8)
.LCPI40_6:
	.long	mono_aot_Newtonsoft_Json_llvm_got-(.LPC40_6+8)
.Lfunc_end40:
	.size	Newtonsoft_Json_Utilities_CollectionWrapper_1_T_REF_System_Collections_IEnumerable_GetEnumerator, .Lfunc_end40-Newtonsoft_Json_Utilities_CollectionWrapper_1_T_REF_System_Collections_IEnumerable_GetEnumerator
.Lexception35:
	.fnend

	.hidden	Newtonsoft_Json_Utilities_CollectionWrapper_1_T_REF_System_Collections_IList_Add_object
	.globl	Newtonsoft_Json_Utilities_CollectionWrapper_1_T_REF_System_Collections_IList_Add_object
	.p2align	2
	.type	Newtonsoft_Json_Utilities_CollectionWrapper_1_T_REF_System_Collections_IList_Add_object,%function
	.code	32
Newtonsoft_Json_Utilities_CollectionWrapper_1_T_REF_System_Collections_IList_Add_object:
.Lfunc_begin41:
	.fnstart
	.save	{r4, r5, r8, lr}
	push	{r4, r5, r8, lr}
.Ltmp475:
.Ltmp476:
.Ltmp477:
.Ltmp478:
.Ltmp479:
	.pad	#16
	sub	sp, sp, #16
.Ltmp480:
	mov	r4, r1
	ldr	r1, .LCPI41_2
	str	r0, [sp, #8]
.LPC41_2:
	add	r1, pc, r1
	str	r0, [sp, #12]
	ldr	r0, [sp, #12]
	ldr	r1, [r1, #28]
	ldr	r5, [r0]
	ldr	r0, [r1]
	cmp	r0, #0
	blne	mono_aot_Newtonsoft_Json_icall_cold_wrapper_265
	mov	r0, r5
	bl	p_97_plt__rgctx_fetch_57_llvm
	str	r0, [sp, #4]
	mov	r0, r4
	ldr	r8, [sp, #4]
	bl	p_98_plt_Newtonsoft_Json_Utilities_CollectionWrapper_1_T_REF_VerifyValueType_object_llvm
	ldr	r5, [sp, #12]
	ldr	r0, [sp, #12]
	ldr	r0, [r0]
	bl	p_99_plt__rgctx_fetch_58_llvm
	mov	r2, r0
	mov	r0, r4
	ldr	r1, [r2, #4]
	bl	p_10_plt_wrapper_castclass_object___castclass_with_cache_object_intptr_intptr_llvm
	mov	r1, r0
	cmp	r5, #0
	beq	.LBB41_3
	ldr	r0, [r5]
	ldr	r2, [r0, #184]
	mov	r0, r5
	blx	r2
	ldr	r0, [sp, #12]
	cmp	r0, #0
	beq	.LBB41_4
	ldr	r1, [r0]
	ldr	r1, [r1, #168]
	blx	r1
	sub	r0, r0, #1
	add	sp, sp, #16
	pop	{r4, r5, r8, pc}
.Ltmp481:
.LBB41_3:
	ldr	r0, .LCPI41_1
.LPC41_1:
	add	r1, pc, r0
	mov	r0, #225
	bl	p_23_plt__jit_icall_llvm_throw_corlib_exception_abs_trampoline_llvm
.Ltmp482:
.LBB41_4:
	ldr	r0, .LCPI41_0
.LPC41_0:
	add	r1, pc, r0
	mov	r0, #225
	bl	p_23_plt__jit_icall_llvm_throw_corlib_exception_abs_trampoline_llvm
	.p2align	2
.LCPI41_0:
	.long	.Ltmp482-(.LPC41_0+8)
.LCPI41_1:
	.long	.Ltmp481-(.LPC41_1+8)
.LCPI41_2:
	.long	mono_aot_Newtonsoft_Json_llvm_got-(.LPC41_2+8)
.Lfunc_end41:
	.size	Newtonsoft_Json_Utilities_CollectionWrapper_1_T_REF_System_Collections_IList_Add_object, .Lfunc_end41-Newtonsoft_Json_Utilities_CollectionWrapper_1_T_REF_System_Collections_IList_Add_object
.Lexception36:
	.fnend

	.hidden	Newtonsoft_Json_Utilities_CollectionWrapper_1_T_REF_System_Collections_IList_Contains_object
	.globl	Newtonsoft_Json_Utilities_CollectionWrapper_1_T_REF_System_Collections_IList_Contains_object
	.p2align	2
	.type	Newtonsoft_Json_Utilities_CollectionWrapper_1_T_REF_System_Collections_IList_Contains_object,%function
	.code	32
Newtonsoft_Json_Utilities_CollectionWrapper_1_T_REF_System_Collections_IList_Contains_object:
.Lfunc_begin42:
	.fnstart
	.save	{r4, r5, r8, lr}
	push	{r4, r5, r8, lr}
.Ltmp483:
.Ltmp484:
.Ltmp485:
.Ltmp486:
.Ltmp487:
	.pad	#16
	sub	sp, sp, #16
.Ltmp488:
	mov	r4, r1
	ldr	r1, .LCPI42_1
	str	r0, [sp, #8]
.LPC42_1:
	add	r1, pc, r1
	str	r0, [sp, #12]
	ldr	r0, [sp, #12]
	ldr	r1, [r1, #28]
	ldr	r5, [r0]
	ldr	r0, [r1]
	cmp	r0, #0
	blne	mono_aot_Newtonsoft_Json_icall_cold_wrapper_265
	mov	r0, r5
	bl	p_97_plt__rgctx_fetch_57_llvm
	str	r0, [sp, #4]
	mov	r0, r4
	ldr	r8, [sp, #4]
	bl	p_100_plt_Newtonsoft_Json_Utilities_CollectionWrapper_1_T_REF_IsCompatibleObject_object_llvm
	tst	r0, #255
	beq	.LBB42_3
	ldr	r5, [sp, #12]
	ldr	r0, [sp, #12]
	ldr	r0, [r0]
	bl	p_99_plt__rgctx_fetch_58_llvm
	mov	r2, r0
	mov	r0, r4
	ldr	r1, [r2, #4]
	bl	p_10_plt_wrapper_castclass_object___castclass_with_cache_object_intptr_intptr_llvm
	mov	r1, r0
	cmp	r5, #0
	beq	.LBB42_4
	ldr	r0, [r5]
	ldr	r2, [r0, #176]
	mov	r0, r5
	blx	r2
	add	sp, sp, #16
	pop	{r4, r5, r8, pc}
.LBB42_3:
	mov	r0, #0
	add	sp, sp, #16
	pop	{r4, r5, r8, pc}
.Ltmp489:
.LBB42_4:
	ldr	r0, .LCPI42_0
.LPC42_0:
	add	r1, pc, r0
	mov	r0, #225
	bl	p_23_plt__jit_icall_llvm_throw_corlib_exception_abs_trampoline_llvm
	.p2align	2
.LCPI42_0:
	.long	.Ltmp489-(.LPC42_0+8)
.LCPI42_1:
	.long	mono_aot_Newtonsoft_Json_llvm_got-(.LPC42_1+8)
.Lfunc_end42:
	.size	Newtonsoft_Json_Utilities_CollectionWrapper_1_T_REF_System_Collections_IList_Contains_object, .Lfunc_end42-Newtonsoft_Json_Utilities_CollectionWrapper_1_T_REF_System_Collections_IList_Contains_object
.Lexception37:
	.fnend

	.hidden	Newtonsoft_Json_Utilities_CollectionWrapper_1_T_REF_System_Collections_IList_IndexOf_object
	.globl	Newtonsoft_Json_Utilities_CollectionWrapper_1_T_REF_System_Collections_IList_IndexOf_object
	.p2align	2
	.type	Newtonsoft_Json_Utilities_CollectionWrapper_1_T_REF_System_Collections_IList_IndexOf_object,%function
	.code	32
Newtonsoft_Json_Utilities_CollectionWrapper_1_T_REF_System_Collections_IList_IndexOf_object:
.Lfunc_begin43:
	.fnstart
	.save	{r4, r5, r6, r7, r8, lr}
	push	{r4, r5, r6, r7, r8, lr}
.Ltmp490:
.Ltmp491:
.Ltmp492:
.Ltmp493:
.Ltmp494:
.Ltmp495:
.Ltmp496:
	.pad	#16
	sub	sp, sp, #16
.Ltmp497:
	mov	r5, r0
	ldr	r0, .LCPI43_3
	ldr	r6, .LCPI43_4
	mov	r4, r1
.LPC43_3:
	add	r0, pc, r0
.LPC43_4:
	add	r6, pc, r6
	ldrb	r7, [r0, #781]
	ldr	r0, [r6, #28]
	str	r5, [sp, #8]
	str	r5, [sp, #12]
	ldr	r0, [r0]
	cmp	r0, #0
	blne	mono_aot_Newtonsoft_Json_icall_cold_wrapper_265
	cmp	r7, #0
	beq	.LBB43_8
.LBB43_1:
	ldr	r0, [sp, #12]
	cmp	r0, #0
	beq	.LBB43_9
	ldr	r0, [r0, #12]
	cmp	r0, #0
	bne	.LBB43_10
	ldr	r0, [sp, #12]
	ldr	r0, [r0]
	bl	p_97_plt__rgctx_fetch_57_llvm
	str	r0, [sp, #4]
	mov	r0, r4
	ldr	r8, [sp, #4]
	bl	p_100_plt_Newtonsoft_Json_Utilities_CollectionWrapper_1_T_REF_IsCompatibleObject_object_llvm
	tst	r0, #255
	beq	.LBB43_7
	ldr	r0, [sp, #12]
	cmp	r0, #0
	beq	.LBB43_11
	ldr	r5, [r0, #8]
	ldr	r0, [sp, #12]
	ldr	r0, [r0]
	bl	p_99_plt__rgctx_fetch_58_llvm
	mov	r2, r0
	mov	r0, r4
	ldr	r1, [r2, #4]
	bl	p_10_plt_wrapper_castclass_object___castclass_with_cache_object_intptr_intptr_llvm
	mov	r1, r0
	cmp	r5, #0
	beq	.LBB43_12
	ldr	r0, [r5]
	ldr	r2, [r0, #-32]
	ldr	r0, [r6, #172]
	str	r0, [sp, #4]
	mov	r0, r5
	ldr	r8, [sp, #4]
	blx	r2
	add	sp, sp, #16
	pop	{r4, r5, r6, r7, r8, pc}
.LBB43_7:
	mvn	r0, #0
	add	sp, sp, #16
	pop	{r4, r5, r6, r7, r8, pc}
.LBB43_8:
	movw	r0, #781
	mov	r1, r5
	bl	mono_aot_Newtonsoft_Json_init_method_gshared_this
	b	.LBB43_1
.Ltmp498:
.LBB43_9:
	ldr	r0, .LCPI43_2
.LPC43_2:
	add	r1, pc, r0
	mov	r0, #225
	bl	p_23_plt__jit_icall_llvm_throw_corlib_exception_abs_trampoline_llvm
.LBB43_10:
	ldr	r0, .LCPI43_5
	movw	r1, #9958
.LPC43_5:
	ldr	r0, [pc, r0]
	bl	p_55_plt__jit_icall_mono_helper_ldstr_llvm
	mov	r1, r0
	movw	r0, #204
	movt	r0, #512
	bl	p_56_plt__jit_icall_mono_create_corlib_exception_1_llvm
	bl	p_49_plt__jit_icall_mono_arch_throw_exception_llvm
.Ltmp499:
.LBB43_11:
	ldr	r0, .LCPI43_1
.LPC43_1:
	add	r1, pc, r0
	mov	r0, #225
	bl	p_23_plt__jit_icall_llvm_throw_corlib_exception_abs_trampoline_llvm
.Ltmp500:
.LBB43_12:
	ldr	r0, .LCPI43_0
.LPC43_0:
	add	r1, pc, r0
	mov	r0, #225
	bl	p_23_plt__jit_icall_llvm_throw_corlib_exception_abs_trampoline_llvm
	.p2align	2
.LCPI43_0:
	.long	.Ltmp500-(.LPC43_0+8)
.LCPI43_1:
	.long	.Ltmp499-(.LPC43_1+8)
.LCPI43_2:
	.long	.Ltmp498-(.LPC43_2+8)
.LCPI43_3:
	.long	mono_inited-(.LPC43_3+8)
.LCPI43_4:
	.long	mono_aot_Newtonsoft_Json_llvm_got-(.LPC43_4+8)
.LCPI43_5:
	.long	mono_aot_Newtonsoft_Json_llvm_got-(.LPC43_5+8)
.Lfunc_end43:
	.size	Newtonsoft_Json_Utilities_CollectionWrapper_1_T_REF_System_Collections_IList_IndexOf_object, .Lfunc_end43-Newtonsoft_Json_Utilities_CollectionWrapper_1_T_REF_System_Collections_IList_IndexOf_object
.Lexception38:
	.fnend

	.hidden	Newtonsoft_Json_Utilities_CollectionWrapper_1_T_REF_System_Collections_IList_RemoveAt_int
	.globl	Newtonsoft_Json_Utilities_CollectionWrapper_1_T_REF_System_Collections_IList_RemoveAt_int
	.p2align	2
	.type	Newtonsoft_Json_Utilities_CollectionWrapper_1_T_REF_System_Collections_IList_RemoveAt_int,%function
	.code	32
Newtonsoft_Json_Utilities_CollectionWrapper_1_T_REF_System_Collections_IList_RemoveAt_int:
.Lfunc_begin44:
	.fnstart
	.save	{r4, r5, r6, r7, r8, lr}
	push	{r4, r5, r6, r7, r8, lr}
.Ltmp501:
.Ltmp502:
.Ltmp503:
.Ltmp504:
.Ltmp505:
.Ltmp506:
.Ltmp507:
	.pad	#16
	sub	sp, sp, #16
.Ltmp508:
	mov	r5, r0
	ldr	r0, .LCPI44_3
	ldr	r6, .LCPI44_4
	mov	r4, r1
.LPC44_3:
	add	r0, pc, r0
.LPC44_4:
	add	r6, pc, r6
	ldrb	r7, [r0, #782]
	ldr	r0, [r6, #28]
	str	r5, [sp, #8]
	str	r5, [sp, #12]
	ldr	r0, [r0]
	cmp	r0, #0
	blne	mono_aot_Newtonsoft_Json_icall_cold_wrapper_265
	cmp	r7, #0
	beq	.LBB44_6
.LBB44_1:
	ldr	r0, [sp, #12]
	cmp	r0, #0
	beq	.LBB44_7
	ldr	r0, [r0, #12]
	cmp	r0, #0
	bne	.LBB44_8
	ldr	r0, [sp, #12]
	cmp	r0, #0
	beq	.LBB44_9
	ldr	r0, [r0, #8]
	cmp	r0, #0
	beq	.LBB44_10
	ldr	r1, [r0]
	ldr	r2, [r1, #-20]
	ldr	r1, [r6, #176]
	str	r1, [sp, #4]
	mov	r1, r4
	ldr	r8, [sp, #4]
	blx	r2
	add	sp, sp, #16
	pop	{r4, r5, r6, r7, r8, pc}
.LBB44_6:
	movw	r0, #782
	mov	r1, r5
	bl	mono_aot_Newtonsoft_Json_init_method_gshared_this
	b	.LBB44_1
.Ltmp509:
.LBB44_7:
	ldr	r0, .LCPI44_2
.LPC44_2:
	add	r1, pc, r0
	mov	r0, #225
	bl	p_23_plt__jit_icall_llvm_throw_corlib_exception_abs_trampoline_llvm
.LBB44_8:
	ldr	r0, .LCPI44_5
	movw	r1, #10056
.LPC44_5:
	ldr	r0, [pc, r0]
	bl	p_55_plt__jit_icall_mono_helper_ldstr_llvm
	mov	r1, r0
	movw	r0, #204
	movt	r0, #512
	bl	p_56_plt__jit_icall_mono_create_corlib_exception_1_llvm
	bl	p_49_plt__jit_icall_mono_arch_throw_exception_llvm
.Ltmp510:
.LBB44_9:
	ldr	r0, .LCPI44_1
.LPC44_1:
	add	r1, pc, r0
	mov	r0, #225
	bl	p_23_plt__jit_icall_llvm_throw_corlib_exception_abs_trampoline_llvm
.Ltmp511:
.LBB44_10:
	ldr	r0, .LCPI44_0
.LPC44_0:
	add	r1, pc, r0
	mov	r0, #225
	bl	p_23_plt__jit_icall_llvm_throw_corlib_exception_abs_trampoline_llvm
	.p2align	2
.LCPI44_0:
	.long	.Ltmp511-(.LPC44_0+8)
.LCPI44_1:
	.long	.Ltmp510-(.LPC44_1+8)
.LCPI44_2:
	.long	.Ltmp509-(.LPC44_2+8)
.LCPI44_3:
	.long	mono_inited-(.LPC44_3+8)
.LCPI44_4:
	.long	mono_aot_Newtonsoft_Json_llvm_got-(.LPC44_4+8)
.LCPI44_5:
	.long	mono_aot_Newtonsoft_Json_llvm_got-(.LPC44_5+8)
.Lfunc_end44:
	.size	Newtonsoft_Json_Utilities_CollectionWrapper_1_T_REF_System_Collections_IList_RemoveAt_int, .Lfunc_end44-Newtonsoft_Json_Utilities_CollectionWrapper_1_T_REF_System_Collections_IList_RemoveAt_int
.Lexception39:
	.fnend

	.hidden	Newtonsoft_Json_Utilities_CollectionWrapper_1_T_REF_System_Collections_IList_Insert_int_object
	.globl	Newtonsoft_Json_Utilities_CollectionWrapper_1_T_REF_System_Collections_IList_Insert_int_object
	.p2align	2
	.type	Newtonsoft_Json_Utilities_CollectionWrapper_1_T_REF_System_Collections_IList_Insert_int_object,%function
	.code	32
Newtonsoft_Json_Utilities_CollectionWrapper_1_T_REF_System_Collections_IList_Insert_int_object:
.Lfunc_begin45:
	.fnstart
	.save	{r4, r5, r6, r7, r8, r9, r11, lr}
	push	{r4, r5, r6, r7, r8, r9, r11, lr}
.Ltmp512:
.Ltmp513:
.Ltmp514:
.Ltmp515:
.Ltmp516:
.Ltmp517:
.Ltmp518:
.Ltmp519:
.Ltmp520:
	.pad	#16
	sub	sp, sp, #16
.Ltmp521:
	mov	r6, r0
	ldr	r0, .LCPI45_3
	ldr	r9, .LCPI45_4
	mov	r5, r2
.LPC45_3:
	add	r0, pc, r0
	mov	r4, r1
.LPC45_4:
	add	r9, pc, r9
	ldrb	r7, [r0, #783]
	ldr	r0, [r9, #28]
	str	r6, [sp, #8]
	str	r6, [sp, #12]
	ldr	r0, [r0]
	cmp	r0, #0
	blne	mono_aot_Newtonsoft_Json_icall_cold_wrapper_265
	cmp	r7, #0
	beq	.LBB45_6
.LBB45_1:
	ldr	r0, [sp, #12]
	cmp	r0, #0
	beq	.LBB45_7
	ldr	r0, [r0, #12]
	cmp	r0, #0
	bne	.LBB45_8
	ldr	r0, [sp, #12]
	ldr	r0, [r0]
	bl	p_97_plt__rgctx_fetch_57_llvm
	str	r0, [sp, #4]
	mov	r0, r5
	ldr	r8, [sp, #4]
	bl	p_98_plt_Newtonsoft_Json_Utilities_CollectionWrapper_1_T_REF_VerifyValueType_object_llvm
	ldr	r0, [sp, #12]
	cmp	r0, #0
	beq	.LBB45_9
	ldr	r6, [r0, #8]
	ldr	r0, [sp, #12]
	ldr	r0, [r0]
	bl	p_99_plt__rgctx_fetch_58_llvm
	mov	r2, r0
	mov	r0, r5
	ldr	r1, [r2, #4]
	bl	p_10_plt_wrapper_castclass_object___castclass_with_cache_object_intptr_intptr_llvm
	mov	r2, r0
	cmp	r6, #0
	beq	.LBB45_10
	ldr	r0, [r6]
	mov	r1, r4
	ldr	r3, [r0, #-68]
	ldr	r0, [r9, #180]
	str	r0, [sp, #4]
	mov	r0, r6
	ldr	r8, [sp, #4]
	blx	r3
	add	sp, sp, #16
	pop	{r4, r5, r6, r7, r8, r9, r11, pc}
.LBB45_6:
	movw	r0, #783
	mov	r1, r6
	bl	mono_aot_Newtonsoft_Json_init_method_gshared_this
	b	.LBB45_1
.Ltmp522:
.LBB45_7:
	ldr	r0, .LCPI45_2
.LPC45_2:
	add	r1, pc, r0
	mov	r0, #225
	bl	p_23_plt__jit_icall_llvm_throw_corlib_exception_abs_trampoline_llvm
.LBB45_8:
	ldr	r0, .LCPI45_5
	movw	r1, #10156
.LPC45_5:
	ldr	r0, [pc, r0]
	bl	p_55_plt__jit_icall_mono_helper_ldstr_llvm
	mov	r1, r0
	movw	r0, #204
	movt	r0, #512
	bl	p_56_plt__jit_icall_mono_create_corlib_exception_1_llvm
	bl	p_49_plt__jit_icall_mono_arch_throw_exception_llvm
.Ltmp523:
.LBB45_9:
	ldr	r0, .LCPI45_1
.LPC45_1:
	add	r1, pc, r0
	mov	r0, #225
	bl	p_23_plt__jit_icall_llvm_throw_corlib_exception_abs_trampoline_llvm
.Ltmp524:
.LBB45_10:
	ldr	r0, .LCPI45_0
.LPC45_0:
	add	r1, pc, r0
	mov	r0, #225
	bl	p_23_plt__jit_icall_llvm_throw_corlib_exception_abs_trampoline_llvm
	.p2align	2
.LCPI45_0:
	.long	.Ltmp524-(.LPC45_0+8)
.LCPI45_1:
	.long	.Ltmp523-(.LPC45_1+8)
.LCPI45_2:
	.long	.Ltmp522-(.LPC45_2+8)
.LCPI45_3:
	.long	mono_inited-(.LPC45_3+8)
.LCPI45_4:
	.long	mono_aot_Newtonsoft_Json_llvm_got-(.LPC45_4+8)
.LCPI45_5:
	.long	mono_aot_Newtonsoft_Json_llvm_got-(.LPC45_5+8)
.Lfunc_end45:
	.size	Newtonsoft_Json_Utilities_CollectionWrapper_1_T_REF_System_Collections_IList_Insert_int_object, .Lfunc_end45-Newtonsoft_Json_Utilities_CollectionWrapper_1_T_REF_System_Collections_IList_Insert_int_object
.Lexception40:
	.fnend

	.hidden	Newtonsoft_Json_Utilities_CollectionWrapper_1_T_REF_System_Collections_IList_get_IsFixedSize
	.globl	Newtonsoft_Json_Utilities_CollectionWrapper_1_T_REF_System_Collections_IList_get_IsFixedSize
	.p2align	2
	.type	Newtonsoft_Json_Utilities_CollectionWrapper_1_T_REF_System_Collections_IList_get_IsFixedSize,%function
	.code	32
Newtonsoft_Json_Utilities_CollectionWrapper_1_T_REF_System_Collections_IList_get_IsFixedSize:
.Lfunc_begin46:
	.fnstart
	.save	{r4, r5, r6, r8, r11, lr}
	push	{r4, r5, r6, r8, r11, lr}
.Ltmp525:
.Ltmp526:
.Ltmp527:
.Ltmp528:
.Ltmp529:
.Ltmp530:
.Ltmp531:
	.pad	#16
	sub	sp, sp, #16
.Ltmp532:
	mov	r4, r0
	ldr	r0, .LCPI46_5
	ldr	r5, .LCPI46_6
.LPC46_5:
	add	r0, pc, r0
.LPC46_6:
	add	r5, pc, r5
	ldrb	r6, [r0, #784]
	ldr	r0, [r5, #28]
	str	r4, [sp, #8]
	str	r4, [sp, #12]
	ldr	r0, [r0]
	cmp	r0, #0
	blne	mono_aot_Newtonsoft_Json_icall_cold_wrapper_265
	cmp	r6, #0
	beq	.LBB46_10
.LBB46_1:
	ldr	r0, [sp, #12]
	cmp	r0, #0
	beq	.LBB46_11
	ldr	r1, [r0, #12]
	ldr	r0, [sp, #12]
	cmp	r1, #0
	beq	.LBB46_6
	cmp	r0, #0
	beq	.LBB46_12
	ldr	r4, [r0, #12]
	ldr	r0, [sp, #12]
	ldr	r0, [r0]
	bl	p_92_plt__rgctx_fetch_53_llvm
	cmp	r4, #0
	beq	.LBB46_13
	ldr	r1, [r4]
	ldr	r1, [r1, #-52]
	str	r0, [sp, #4]
	mov	r0, r4
	b	.LBB46_9
.LBB46_6:
	cmp	r0, #0
	beq	.LBB46_14
	ldr	r0, [r0, #8]
	cmp	r0, #0
	beq	.LBB46_15
	ldr	r1, [r0]
	ldr	r2, [r5, #184]
	ldr	r1, [r1, #-64]
	str	r2, [sp, #4]
.LBB46_9:
	ldr	r8, [sp, #4]
	blx	r1
	add	sp, sp, #16
	pop	{r4, r5, r6, r8, r11, pc}
.LBB46_10:
	mov	r0, #784
	mov	r1, r4
	bl	mono_aot_Newtonsoft_Json_init_method_gshared_this
	b	.LBB46_1
.Ltmp533:
.LBB46_11:
	ldr	r0, .LCPI46_4
.LPC46_4:
	add	r1, pc, r0
	mov	r0, #225
	bl	p_23_plt__jit_icall_llvm_throw_corlib_exception_abs_trampoline_llvm
.Ltmp534:
.LBB46_12:
	ldr	r0, .LCPI46_1
.LPC46_1:
	add	r1, pc, r0
	mov	r0, #225
	bl	p_23_plt__jit_icall_llvm_throw_corlib_exception_abs_trampoline_llvm
.Ltmp535:
.LBB46_13:
	ldr	r0, .LCPI46_0
.LPC46_0:
	add	r1, pc, r0
	mov	r0, #225
	bl	p_23_plt__jit_icall_llvm_throw_corlib_exception_abs_trampoline_llvm
.Ltmp536:
.LBB46_14:
	ldr	r0, .LCPI46_3
.LPC46_3:
	add	r1, pc, r0
	mov	r0, #225
	bl	p_23_plt__jit_icall_llvm_throw_corlib_exception_abs_trampoline_llvm
.Ltmp537:
.LBB46_15:
	ldr	r0, .LCPI46_2
.LPC46_2:
	add	r1, pc, r0
	mov	r0, #225
	bl	p_23_plt__jit_icall_llvm_throw_corlib_exception_abs_trampoline_llvm
	.p2align	2
.LCPI46_0:
	.long	.Ltmp535-(.LPC46_0+8)
.LCPI46_1:
	.long	.Ltmp534-(.LPC46_1+8)
.LCPI46_2:
	.long	.Ltmp537-(.LPC46_2+8)
.LCPI46_3:
	.long	.Ltmp536-(.LPC46_3+8)
.LCPI46_4:
	.long	.Ltmp533-(.LPC46_4+8)
.LCPI46_5:
	.long	mono_inited-(.LPC46_5+8)
.LCPI46_6:
	.long	mono_aot_Newtonsoft_Json_llvm_got-(.LPC46_6+8)
.Lfunc_end46:
	.size	Newtonsoft_Json_Utilities_CollectionWrapper_1_T_REF_System_Collections_IList_get_IsFixedSize, .Lfunc_end46-Newtonsoft_Json_Utilities_CollectionWrapper_1_T_REF_System_Collections_IList_get_IsFixedSize
.Lexception41:
	.fnend

	.hidden	Newtonsoft_Json_Utilities_CollectionWrapper_1_T_REF_System_Collections_IList_Remove_object
	.globl	Newtonsoft_Json_Utilities_CollectionWrapper_1_T_REF_System_Collections_IList_Remove_object
	.p2align	2
	.type	Newtonsoft_Json_Utilities_CollectionWrapper_1_T_REF_System_Collections_IList_Remove_object,%function
	.code	32
Newtonsoft_Json_Utilities_CollectionWrapper_1_T_REF_System_Collections_IList_Remove_object:
.Lfunc_begin47:
	.fnstart
	.save	{r4, r5, r8, lr}
	push	{r4, r5, r8, lr}
.Ltmp538:
.Ltmp539:
.Ltmp540:
.Ltmp541:
.Ltmp542:
	.pad	#16
	sub	sp, sp, #16
.Ltmp543:
	mov	r4, r1
	ldr	r1, .LCPI47_1
	str	r0, [sp, #8]
.LPC47_1:
	add	r1, pc, r1
	str	r0, [sp, #12]
	ldr	r0, [sp, #12]
	ldr	r1, [r1, #28]
	ldr	r5, [r0]
	ldr	r0, [r1]
	cmp	r0, #0
	blne	mono_aot_Newtonsoft_Json_icall_cold_wrapper_265
	mov	r0, r5
	bl	p_97_plt__rgctx_fetch_57_llvm
	str	r0, [sp, #4]
	mov	r0, r4
	ldr	r8, [sp, #4]
	bl	p_100_plt_Newtonsoft_Json_Utilities_CollectionWrapper_1_T_REF_IsCompatibleObject_object_llvm
	tst	r0, #255
	beq	.LBB47_3
	ldr	r5, [sp, #12]
	ldr	r0, [sp, #12]
	ldr	r0, [r0]
	bl	p_99_plt__rgctx_fetch_58_llvm
	mov	r2, r0
	mov	r0, r4
	ldr	r1, [r2, #4]
	bl	p_10_plt_wrapper_castclass_object___castclass_with_cache_object_intptr_intptr_llvm
	mov	r1, r0
	cmp	r5, #0
	beq	.LBB47_4
	ldr	r0, [r5]
	ldr	r2, [r0, #160]
	mov	r0, r5
	blx	r2
.LBB47_3:
	add	sp, sp, #16
	pop	{r4, r5, r8, pc}
.Ltmp544:
.LBB47_4:
	ldr	r0, .LCPI47_0
.LPC47_0:
	add	r1, pc, r0
	mov	r0, #225
	bl	p_23_plt__jit_icall_llvm_throw_corlib_exception_abs_trampoline_llvm
	.p2align	2
.LCPI47_0:
	.long	.Ltmp544-(.LPC47_0+8)
.LCPI47_1:
	.long	mono_aot_Newtonsoft_Json_llvm_got-(.LPC47_1+8)
.Lfunc_end47:
	.size	Newtonsoft_Json_Utilities_CollectionWrapper_1_T_REF_System_Collections_IList_Remove_object, .Lfunc_end47-Newtonsoft_Json_Utilities_CollectionWrapper_1_T_REF_System_Collections_IList_Remove_object
.Lexception42:
	.fnend

	.hidden	Newtonsoft_Json_Utilities_CollectionWrapper_1_T_REF_System_Collections_IList_get_Item_int
	.globl	Newtonsoft_Json_Utilities_CollectionWrapper_1_T_REF_System_Collections_IList_get_Item_int
	.p2align	2
	.type	Newtonsoft_Json_Utilities_CollectionWrapper_1_T_REF_System_Collections_IList_get_Item_int,%function
	.code	32
Newtonsoft_Json_Utilities_CollectionWrapper_1_T_REF_System_Collections_IList_get_Item_int:
.Lfunc_begin48:
	.fnstart
	.save	{r4, r5, r6, r7, r8, lr}
	push	{r4, r5, r6, r7, r8, lr}
.Ltmp545:
.Ltmp546:
.Ltmp547:
.Ltmp548:
.Ltmp549:
.Ltmp550:
.Ltmp551:
	.pad	#16
	sub	sp, sp, #16
.Ltmp552:
	mov	r5, r0
	ldr	r0, .LCPI48_3
	ldr	r6, .LCPI48_4
	mov	r4, r1
.LPC48_3:
	add	r0, pc, r0
.LPC48_4:
	add	r6, pc, r6
	ldrb	r7, [r0, #786]
	ldr	r0, [r6, #28]
	str	r5, [sp, #8]
	str	r5, [sp, #12]
	ldr	r0, [r0]
	cmp	r0, #0
	blne	mono_aot_Newtonsoft_Json_icall_cold_wrapper_265
	cmp	r7, #0
	beq	.LBB48_6
.LBB48_1:
	ldr	r0, [sp, #12]
	cmp	r0, #0
	beq	.LBB48_7
	ldr	r0, [r0, #12]
	cmp	r0, #0
	bne	.LBB48_8
	ldr	r0, [sp, #12]
	cmp	r0, #0
	beq	.LBB48_9
	ldr	r0, [r0, #8]
	cmp	r0, #0
	beq	.LBB48_10
	ldr	r1, [r0]
	ldr	r2, [r1, #-12]
	ldr	r1, [r6, #188]
	str	r1, [sp, #4]
	mov	r1, r4
	ldr	r8, [sp, #4]
	blx	r2
	add	sp, sp, #16
	pop	{r4, r5, r6, r7, r8, pc}
.LBB48_6:
	movw	r0, #786
	mov	r1, r5
	bl	mono_aot_Newtonsoft_Json_init_method_gshared_this
	b	.LBB48_1
.Ltmp553:
.LBB48_7:
	ldr	r0, .LCPI48_2
.LPC48_2:
	add	r1, pc, r0
	mov	r0, #225
	bl	p_23_plt__jit_icall_llvm_throw_corlib_exception_abs_trampoline_llvm
.LBB48_8:
	ldr	r0, .LCPI48_5
	movw	r1, #10252
.LPC48_5:
	ldr	r0, [pc, r0]
	bl	p_55_plt__jit_icall_mono_helper_ldstr_llvm
	mov	r1, r0
	movw	r0, #204
	movt	r0, #512
	bl	p_56_plt__jit_icall_mono_create_corlib_exception_1_llvm
	bl	p_49_plt__jit_icall_mono_arch_throw_exception_llvm
.Ltmp554:
.LBB48_9:
	ldr	r0, .LCPI48_1
.LPC48_1:
	add	r1, pc, r0
	mov	r0, #225
	bl	p_23_plt__jit_icall_llvm_throw_corlib_exception_abs_trampoline_llvm
.Ltmp555:
.LBB48_10:
	ldr	r0, .LCPI48_0
.LPC48_0:
	add	r1, pc, r0
	mov	r0, #225
	bl	p_23_plt__jit_icall_llvm_throw_corlib_exception_abs_trampoline_llvm
	.p2align	2
.LCPI48_0:
	.long	.Ltmp555-(.LPC48_0+8)
.LCPI48_1:
	.long	.Ltmp554-(.LPC48_1+8)
.LCPI48_2:
	.long	.Ltmp553-(.LPC48_2+8)
.LCPI48_3:
	.long	mono_inited-(.LPC48_3+8)
.LCPI48_4:
	.long	mono_aot_Newtonsoft_Json_llvm_got-(.LPC48_4+8)
.LCPI48_5:
	.long	mono_aot_Newtonsoft_Json_llvm_got-(.LPC48_5+8)
.Lfunc_end48:
	.size	Newtonsoft_Json_Utilities_CollectionWrapper_1_T_REF_System_Collections_IList_get_Item_int, .Lfunc_end48-Newtonsoft_Json_Utilities_CollectionWrapper_1_T_REF_System_Collections_IList_get_Item_int
.Lexception43:
	.fnend

	.hidden	Newtonsoft_Json_Utilities_CollectionWrapper_1_T_REF_System_Collections_IList_set_Item_int_object
	.globl	Newtonsoft_Json_Utilities_CollectionWrapper_1_T_REF_System_Collections_IList_set_Item_int_object
	.p2align	2
	.type	Newtonsoft_Json_Utilities_CollectionWrapper_1_T_REF_System_Collections_IList_set_Item_int_object,%function
	.code	32
Newtonsoft_Json_Utilities_CollectionWrapper_1_T_REF_System_Collections_IList_set_Item_int_object:
.Lfunc_begin49:
	.fnstart
	.save	{r4, r5, r6, r7, r8, r9, r11, lr}
	push	{r4, r5, r6, r7, r8, r9, r11, lr}
.Ltmp556:
.Ltmp557:
.Ltmp558:
.Ltmp559:
.Ltmp560:
.Ltmp561:
.Ltmp562:
.Ltmp563:
.Ltmp564:
	.pad	#16
	sub	sp, sp, #16
.Ltmp565:
	mov	r6, r0
	ldr	r0, .LCPI49_3
	ldr	r9, .LCPI49_4
	mov	r5, r2
.LPC49_3:
	add	r0, pc, r0
	mov	r4, r1
.LPC49_4:
	add	r9, pc, r9
	ldrb	r7, [r0, #787]
	ldr	r0, [r9, #28]
	str	r6, [sp, #8]
	str	r6, [sp, #12]
	ldr	r0, [r0]
	cmp	r0, #0
	blne	mono_aot_Newtonsoft_Json_icall_cold_wrapper_265
	cmp	r7, #0
	beq	.LBB49_6
.LBB49_1:
	ldr	r0, [sp, #12]
	cmp	r0, #0
	beq	.LBB49_7
	ldr	r0, [r0, #12]
	cmp	r0, #0
	bne	.LBB49_8
	ldr	r0, [sp, #12]
	ldr	r0, [r0]
	bl	p_97_plt__rgctx_fetch_57_llvm
	str	r0, [sp, #4]
	mov	r0, r5
	ldr	r8, [sp, #4]
	bl	p_98_plt_Newtonsoft_Json_Utilities_CollectionWrapper_1_T_REF_VerifyValueType_object_llvm
	ldr	r0, [sp, #12]
	cmp	r0, #0
	beq	.LBB49_9
	ldr	r6, [r0, #8]
	ldr	r0, [sp, #12]
	ldr	r0, [r0]
	bl	p_99_plt__rgctx_fetch_58_llvm
	mov	r2, r0
	mov	r0, r5
	ldr	r1, [r2, #4]
	bl	p_10_plt_wrapper_castclass_object___castclass_with_cache_object_intptr_intptr_llvm
	mov	r2, r0
	cmp	r6, #0
	beq	.LBB49_10
	ldr	r0, [r6]
	mov	r1, r4
	ldr	r3, [r0, #-48]
	ldr	r0, [r9, #192]
	str	r0, [sp, #4]
	mov	r0, r6
	ldr	r8, [sp, #4]
	blx	r3
	add	sp, sp, #16
	pop	{r4, r5, r6, r7, r8, r9, r11, pc}
.LBB49_6:
	movw	r0, #787
	mov	r1, r6
	bl	mono_aot_Newtonsoft_Json_init_method_gshared_this
	b	.LBB49_1
.Ltmp566:
.LBB49_7:
	ldr	r0, .LCPI49_2
.LPC49_2:
	add	r1, pc, r0
	mov	r0, #225
	bl	p_23_plt__jit_icall_llvm_throw_corlib_exception_abs_trampoline_llvm
.LBB49_8:
	ldr	r0, .LCPI49_5
	movw	r1, #10252
.LPC49_5:
	ldr	r0, [pc, r0]
	bl	p_55_plt__jit_icall_mono_helper_ldstr_llvm
	mov	r1, r0
	movw	r0, #204
	movt	r0, #512
	bl	p_56_plt__jit_icall_mono_create_corlib_exception_1_llvm
	bl	p_49_plt__jit_icall_mono_arch_throw_exception_llvm
.Ltmp567:
.LBB49_9:
	ldr	r0, .LCPI49_1
.LPC49_1:
	add	r1, pc, r0
	mov	r0, #225
	bl	p_23_plt__jit_icall_llvm_throw_corlib_exception_abs_trampoline_llvm
.Ltmp568:
.LBB49_10:
	ldr	r0, .LCPI49_0
.LPC49_0:
	add	r1, pc, r0
	mov	r0, #225
	bl	p_23_plt__jit_icall_llvm_throw_corlib_exception_abs_trampoline_llvm
	.p2align	2
.LCPI49_0:
	.long	.Ltmp568-(.LPC49_0+8)
.LCPI49_1:
	.long	.Ltmp567-(.LPC49_1+8)
.LCPI49_2:
	.long	.Ltmp566-(.LPC49_2+8)
.LCPI49_3:
	.long	mono_inited-(.LPC49_3+8)
.LCPI49_4:
	.long	mono_aot_Newtonsoft_Json_llvm_got-(.LPC49_4+8)
.LCPI49_5:
	.long	mono_aot_Newtonsoft_Json_llvm_got-(.LPC49_5+8)
.Lfunc_end49:
	.size	Newtonsoft_Json_Utilities_CollectionWrapper_1_T_REF_System_Collections_IList_set_Item_int_object, .Lfunc_end49-Newtonsoft_Json_Utilities_CollectionWrapper_1_T_REF_System_Collections_IList_set_Item_int_object
.Lexception44:
	.fnend

	.hidden	Newtonsoft_Json_Utilities_CollectionWrapper_1_T_REF_System_Collections_ICollection_CopyTo_System_Array_int
	.globl	Newtonsoft_Json_Utilities_CollectionWrapper_1_T_REF_System_Collections_ICollection_CopyTo_System_Array_int
	.p2align	2
	.type	Newtonsoft_Json_Utilities_CollectionWrapper_1_T_REF_System_Collections_ICollection_CopyTo_System_Array_int,%function
	.code	32
Newtonsoft_Json_Utilities_CollectionWrapper_1_T_REF_System_Collections_ICollection_CopyTo_System_Array_int:
.Lfunc_begin50:
	.fnstart
	.save	{r4, r5, r6, r7, r11, lr}
	push	{r4, r5, r6, r7, r11, lr}
.Ltmp569:
.Ltmp570:
.Ltmp571:
.Ltmp572:
.Ltmp573:
.Ltmp574:
.Ltmp575:
	.pad	#8
	sub	sp, sp, #8
.Ltmp576:
	mov	r6, r1
	ldr	r1, .LCPI50_1
	str	r0, [sp]
	mov	r4, r2
.LPC50_1:
	add	r1, pc, r1
	str	r0, [sp, #4]
	ldr	r5, [sp, #4]
	ldr	r0, [sp, #4]
	ldr	r1, [r1, #28]
	ldr	r7, [r0]
	ldr	r0, [r1]
	cmp	r0, #0
	blne	mono_aot_Newtonsoft_Json_icall_cold_wrapper_265
	mov	r0, r7
	bl	p_101_plt__rgctx_fetch_59_llvm
	mov	r2, r0
	mov	r0, r6
	ldr	r1, [r2, #4]
	bl	p_10_plt_wrapper_castclass_object___castclass_with_cache_object_intptr_intptr_llvm
	mov	r1, r0
	cmp	r5, #0
	beq	.LBB50_2
	ldr	r0, [r5]
	mov	r2, r4
	ldr	r3, [r0, #172]
	mov	r0, r5
	blx	r3
	add	sp, sp, #8
	pop	{r4, r5, r6, r7, r11, pc}
.Ltmp577:
.LBB50_2:
	ldr	r0, .LCPI50_0
.LPC50_0:
	add	r1, pc, r0
	mov	r0, #225
	bl	p_23_plt__jit_icall_llvm_throw_corlib_exception_abs_trampoline_llvm
	.p2align	2
.LCPI50_0:
	.long	.Ltmp577-(.LPC50_0+8)
.LCPI50_1:
	.long	mono_aot_Newtonsoft_Json_llvm_got-(.LPC50_1+8)
.Lfunc_end50:
	.size	Newtonsoft_Json_Utilities_CollectionWrapper_1_T_REF_System_Collections_ICollection_CopyTo_System_Array_int, .Lfunc_end50-Newtonsoft_Json_Utilities_CollectionWrapper_1_T_REF_System_Collections_ICollection_CopyTo_System_Array_int
.Lexception45:
	.fnend

	.hidden	Newtonsoft_Json_Utilities_CollectionWrapper_1_T_REF_System_Collections_ICollection_get_IsSynchronized
	.globl	Newtonsoft_Json_Utilities_CollectionWrapper_1_T_REF_System_Collections_ICollection_get_IsSynchronized
	.p2align	2
	.type	Newtonsoft_Json_Utilities_CollectionWrapper_1_T_REF_System_Collections_ICollection_get_IsSynchronized,%function
	.code	32
Newtonsoft_Json_Utilities_CollectionWrapper_1_T_REF_System_Collections_ICollection_get_IsSynchronized:
.Lfunc_begin51:
	.fnstart
	.pad	#4
	sub	sp, sp, #4
.Ltmp578:
	str	r0, [sp]
	mov	r0, #0
	add	sp, sp, #4
	bx	lr
.Lfunc_end51:
	.size	Newtonsoft_Json_Utilities_CollectionWrapper_1_T_REF_System_Collections_ICollection_get_IsSynchronized, .Lfunc_end51-Newtonsoft_Json_Utilities_CollectionWrapper_1_T_REF_System_Collections_ICollection_get_IsSynchronized
.Lexception46:
	.fnend

	.hidden	Newtonsoft_Json_Utilities_CollectionWrapper_1_T_REF_System_Collections_ICollection_get_SyncRoot
	.globl	Newtonsoft_Json_Utilities_CollectionWrapper_1_T_REF_System_Collections_ICollection_get_SyncRoot
	.p2align	2
	.type	Newtonsoft_Json_Utilities_CollectionWrapper_1_T_REF_System_Collections_ICollection_get_SyncRoot,%function
	.code	32
Newtonsoft_Json_Utilities_CollectionWrapper_1_T_REF_System_Collections_ICollection_get_SyncRoot:
.Lfunc_begin52:
	.fnstart
	.save	{r4, r5, r6, lr}
	push	{r4, r5, r6, lr}
.Ltmp579:
.Ltmp580:
.Ltmp581:
.Ltmp582:
.Ltmp583:
	.pad	#8
	sub	sp, sp, #8
.Ltmp584:
	mov	r4, r0
	ldr	r0, .LCPI52_3
	ldr	r5, .LCPI52_4
.LPC52_3:
	add	r0, pc, r0
.LPC52_4:
	add	r5, pc, r5
	ldrb	r6, [r0, #790]
	ldr	r0, [r5, #28]
	str	r4, [sp]
	str	r4, [sp, #4]
	ldr	r0, [r0]
	cmp	r0, #0
	blne	mono_aot_Newtonsoft_Json_icall_cold_wrapper_265
	cmp	r6, #0
	beq	.LBB52_12
.LBB52_1:
	ldr	r0, [sp, #4]
	cmp	r0, #0
	beq	.LBB52_13
	ldr	r0, [r0, #16]
	cmp	r0, #0
	bne	.LBB52_10
	ldr	r4, [sp, #4]
	cmp	r4, #0
	beq	.LBB52_14
	ldr	r0, [r5, #196]
	mov	r1, #8
	bl	p_17_plt_wrapper_alloc_object_AllocSmall_intptr_intptr_llvm
	dmb	ish
	add	r1, r4, #16
	ldrex	r2, [r1]
	cmp	r2, #0
	bne	.LBB52_8
	dmb	ish
.LBB52_6:
	strex	r2, r0, [r1]
	cmp	r2, #0
	beq	.LBB52_9
	ldrex	r2, [r1]
	cmp	r2, #0
	beq	.LBB52_6
.LBB52_8:
	clrex
.LBB52_9:
	ldr	r0, [r5, #8]
	mov	r2, #1
	dmb	ish
	strb	r2, [r0, r1, lsr #9]
.LBB52_10:
	ldr	r0, [sp, #4]
	cmp	r0, #0
	ldrne	r0, [r0, #16]
	addne	sp, sp, #8
	popne	{r4, r5, r6, pc}
.Ltmp585:
.LBB52_11:
	ldr	r0, .LCPI52_0
.LPC52_0:
	add	r1, pc, r0
	mov	r0, #225
	bl	p_23_plt__jit_icall_llvm_throw_corlib_exception_abs_trampoline_llvm
.LBB52_12:
	movw	r0, #790
	mov	r1, r4
	bl	mono_aot_Newtonsoft_Json_init_method_gshared_this
	b	.LBB52_1
.Ltmp586:
.LBB52_13:
	ldr	r0, .LCPI52_2
.LPC52_2:
	add	r1, pc, r0
	mov	r0, #225
	bl	p_23_plt__jit_icall_llvm_throw_corlib_exception_abs_trampoline_llvm
.Ltmp587:
.LBB52_14:
	ldr	r0, .LCPI52_1
.LPC52_1:
	add	r1, pc, r0
	mov	r0, #225
	bl	p_23_plt__jit_icall_llvm_throw_corlib_exception_abs_trampoline_llvm
	.p2align	2
.LCPI52_0:
	.long	.Ltmp585-(.LPC52_0+8)
.LCPI52_1:
	.long	.Ltmp587-(.LPC52_1+8)
.LCPI52_2:
	.long	.Ltmp586-(.LPC52_2+8)
.LCPI52_3:
	.long	mono_inited-(.LPC52_3+8)
.LCPI52_4:
	.long	mono_aot_Newtonsoft_Json_llvm_got-(.LPC52_4+8)
.Lfunc_end52:
	.size	Newtonsoft_Json_Utilities_CollectionWrapper_1_T_REF_System_Collections_ICollection_get_SyncRoot, .Lfunc_end52-Newtonsoft_Json_Utilities_CollectionWrapper_1_T_REF_System_Collections_ICollection_get_SyncRoot
.Lexception47:
	.fnend

	.hidden	Newtonsoft_Json_Utilities_CollectionWrapper_1_T_REF_VerifyValueType_object
	.globl	Newtonsoft_Json_Utilities_CollectionWrapper_1_T_REF_VerifyValueType_object
	.p2align	2
	.type	Newtonsoft_Json_Utilities_CollectionWrapper_1_T_REF_VerifyValueType_object,%function
	.code	32
Newtonsoft_Json_Utilities_CollectionWrapper_1_T_REF_VerifyValueType_object:
.Lfunc_begin53:
	.fnstart
	.save	{r4, r5, r6, r7, r8, lr}
	push	{r4, r5, r6, r7, r8, lr}
.Ltmp588:
.Ltmp589:
.Ltmp590:
.Ltmp591:
.Ltmp592:
.Ltmp593:
.Ltmp594:
	.pad	#8
	sub	sp, sp, #8
.Ltmp595:
	ldr	r7, .LCPI53_0
	mov	r4, r0
	ldr	r0, .LCPI53_1
.LPC53_0:
	add	r7, pc, r7
.LPC53_1:
	add	r0, pc, r0
	ldr	r1, [r7, #28]
	ldrb	r5, [r0, #791]
	str	r8, [sp, #4]
	ldr	r0, [r1]
	cmp	r0, #0
	blne	mono_aot_Newtonsoft_Json_icall_cold_wrapper_265
	cmp	r5, #0
	beq	.LBB53_4
.LBB53_1:
	ldr	r0, [sp, #4]
	bl	p_97_plt__rgctx_fetch_57_llvm
	str	r0, [sp]
	mov	r0, r4
	ldr	r8, [sp]
	bl	p_100_plt_Newtonsoft_Json_Utilities_CollectionWrapper_1_T_REF_IsCompatibleObject_object_llvm
	tst	r0, #255
	addne	sp, sp, #8
	popne	{r4, r5, r6, r7, r8, pc}
	ldr	r0, .LCPI53_2
	movw	r1, #10350
.LPC53_2:
	ldr	r0, [pc, r0]
	bl	p_55_plt__jit_icall_mono_helper_ldstr_llvm
	mov	r5, r0
	ldr	r0, [r7, #112]
	ldrb	r1, [r0, #25]
	cmp	r1, #0
	bne	.LBB53_3
	bl	p_25_plt__jit_icall_mono_generic_class_init_llvm
.LBB53_3:
	ldr	r0, [r7, #116]
	ldr	r6, [r0]
	dmb	ish
	ldr	r0, [sp, #4]
	bl	p_102_plt__rgctx_fetch_60_llvm
	mov	r3, r0
	mov	r0, r5
	mov	r1, r6
	mov	r2, r4
	bl	p_103_plt_Newtonsoft_Json_Utilities_StringUtils_FormatWith_string_System_IFormatProvider_object_object_llvm
	mov	r4, r0
	ldr	r0, [r7, #120]
	mov	r1, #76
	ldr	r5, [r7, #200]
	bl	p_17_plt_wrapper_alloc_object_AllocSmall_intptr_intptr_llvm
	mov	r1, r4
	mov	r2, r5
	mov	r6, r0
	bl	p_104_plt_System_ArgumentException__ctor_string_string_llvm
	mov	r0, r6
	bl	p_49_plt__jit_icall_mono_arch_throw_exception_llvm
.LBB53_4:
	movw	r0, #791
	mov	r1, r8
	bl	mono_aot_Newtonsoft_Json_init_method_gshared_vtable
	b	.LBB53_1
	.p2align	2
.LCPI53_0:
	.long	mono_aot_Newtonsoft_Json_llvm_got-(.LPC53_0+8)
.LCPI53_1:
	.long	mono_inited-(.LPC53_1+8)
.LCPI53_2:
	.long	mono_aot_Newtonsoft_Json_llvm_got-(.LPC53_2+8)
.Lfunc_end53:
	.size	Newtonsoft_Json_Utilities_CollectionWrapper_1_T_REF_VerifyValueType_object, .Lfunc_end53-Newtonsoft_Json_Utilities_CollectionWrapper_1_T_REF_VerifyValueType_object
.Lexception48:
	.fnend

	.hidden	Newtonsoft_Json_Utilities_CollectionWrapper_1_T_REF_IsCompatibleObject_object
	.globl	Newtonsoft_Json_Utilities_CollectionWrapper_1_T_REF_IsCompatibleObject_object
	.p2align	2
	.type	Newtonsoft_Json_Utilities_CollectionWrapper_1_T_REF_IsCompatibleObject_object,%function
	.code	32
Newtonsoft_Json_Utilities_CollectionWrapper_1_T_REF_IsCompatibleObject_object:
.Lfunc_begin54:
	.fnstart
	.save	{r4, r5, r11, lr}
	push	{r4, r5, r11, lr}
.Ltmp596:
.Ltmp597:
.Ltmp598:
.Ltmp599:
.Ltmp600:
	.pad	#8
	sub	sp, sp, #8
.Ltmp601:
	mov	r5, r0
	ldr	r0, .LCPI54_0
.LPC54_0:
	add	r0, pc, r0
	ldr	r0, [r0, #28]
	str	r8, [sp, #4]
	ldr	r4, [sp, #4]
	ldr	r0, [r0]
	cmp	r0, #0
	blne	mono_aot_Newtonsoft_Json_icall_cold_wrapper_265
	mov	r0, r4
	bl	p_99_plt__rgctx_fetch_58_llvm
	mov	r2, r0
	mov	r0, r5
	ldr	r1, [r2, #4]
	bl	p_86_plt_wrapper_castclass_object___isinst_with_cache_object_intptr_intptr_llvm
	mov	r4, #1
	cmp	r0, #0
	bne	.LBB54_5
	cmp	r5, #0
	beq	.LBB54_3
	mov	r4, #0
	b	.LBB54_5
.LBB54_3:
	ldr	r0, [sp, #4]
	bl	p_102_plt__rgctx_fetch_60_llvm
	bl	p_105_plt_Newtonsoft_Json_Utilities_TypeExtensions_IsValueType_System_Type_llvm
	tst	r0, #255
	beq	.LBB54_5
	ldr	r0, [sp, #4]
	bl	p_102_plt__rgctx_fetch_60_llvm
	bl	p_106_plt_Newtonsoft_Json_Utilities_ReflectionUtils_IsNullableType_System_Type_llvm
	tst	r0, #255
	moveq	r4, #0
.LBB54_5:
	mov	r0, r4
	add	sp, sp, #8
	pop	{r4, r5, r11, pc}
	.p2align	2
.LCPI54_0:
	.long	mono_aot_Newtonsoft_Json_llvm_got-(.LPC54_0+8)
.Lfunc_end54:
	.size	Newtonsoft_Json_Utilities_CollectionWrapper_1_T_REF_IsCompatibleObject_object, .Lfunc_end54-Newtonsoft_Json_Utilities_CollectionWrapper_1_T_REF_IsCompatibleObject_object
.Lexception49:
	.fnend

	.hidden	Newtonsoft_Json_Utilities_CollectionWrapper_1_T_REF_get_UnderlyingCollection
	.globl	Newtonsoft_Json_Utilities_CollectionWrapper_1_T_REF_get_UnderlyingCollection
	.p2align	2
	.type	Newtonsoft_Json_Utilities_CollectionWrapper_1_T_REF_get_UnderlyingCollection,%function
	.code	32
Newtonsoft_Json_Utilities_CollectionWrapper_1_T_REF_get_UnderlyingCollection:
.Lfunc_begin55:
	.fnstart
	.save	{r11, lr}
	push	{r11, lr}
.Ltmp602:
.Ltmp603:
.Ltmp604:
	.pad	#8
	sub	sp, sp, #8
.Ltmp605:
	str	r0, [sp]
	str	r0, [sp, #4]
	ldr	r0, [sp, #4]
	cmp	r0, #0
	beq	.LBB55_6
	ldr	r1, [r0, #12]
	ldr	r0, [sp, #4]
	cmp	r1, #0
	beq	.LBB55_4
	mov	r1, #3
	cmp	r0, #0
	bne	.LBB55_5
.Ltmp606:
	ldr	r0, .LCPI55_0
.LPC55_0:
	add	r1, pc, r0
	mov	r0, #225
	bl	p_23_plt__jit_icall_llvm_throw_corlib_exception_abs_trampoline_llvm
.LBB55_4:
	mov	r1, #2
	cmp	r0, #0
	beq	.LBB55_7
.LBB55_5:
	ldr	r0, [r0, r1, lsl #2]
	add	sp, sp, #8
	pop	{r11, pc}
.Ltmp607:
.LBB55_6:
	ldr	r0, .LCPI55_2
.LPC55_2:
	add	r1, pc, r0
	mov	r0, #225
	bl	p_23_plt__jit_icall_llvm_throw_corlib_exception_abs_trampoline_llvm
.Ltmp608:
.LBB55_7:
	ldr	r0, .LCPI55_1
.LPC55_1:
	add	r1, pc, r0
	mov	r0, #225
	bl	p_23_plt__jit_icall_llvm_throw_corlib_exception_abs_trampoline_llvm
	.p2align	2
.LCPI55_0:
	.long	.Ltmp606-(.LPC55_0+8)
.LCPI55_1:
	.long	.Ltmp608-(.LPC55_1+8)
.LCPI55_2:
	.long	.Ltmp607-(.LPC55_2+8)
.Lfunc_end55:
	.size	Newtonsoft_Json_Utilities_CollectionWrapper_1_T_REF_get_UnderlyingCollection, .Lfunc_end55-Newtonsoft_Json_Utilities_CollectionWrapper_1_T_REF_get_UnderlyingCollection
.Lexception50:
	.fnend

	.hidden	Newtonsoft_Json_Utilities_ExpressionReflectionDelegateFactory_CreateMethodCall_T_REF_System_Reflection_MethodBase
	.globl	Newtonsoft_Json_Utilities_ExpressionReflectionDelegateFactory_CreateMethodCall_T_REF_System_Reflection_MethodBase
	.p2align	2
	.type	Newtonsoft_Json_Utilities_ExpressionReflectionDelegateFactory_CreateMethodCall_T_REF_System_Reflection_MethodBase,%function
	.code	32
Newtonsoft_Json_Utilities_ExpressionReflectionDelegateFactory_CreateMethodCall_T_REF_System_Reflection_MethodBase:
.Lfunc_begin56:
	.fnstart
	.save	{r4, r5, r6, r7, r9, r10, r11, lr}
	push	{r4, r5, r6, r7, r9, r10, r11, lr}
.Ltmp609:
.Ltmp610:
.Ltmp611:
.Ltmp612:
.Ltmp613:
.Ltmp614:
.Ltmp615:
.Ltmp616:
.Ltmp617:
	.pad	#8
	sub	sp, sp, #8
.Ltmp618:
	ldr	r10, .LCPI56_1
	mov	r9, r0
	ldr	r0, .LCPI56_2
	mov	r5, r1
.LPC56_1:
	add	r10, pc, r10
.LPC56_2:
	add	r0, pc, r0
	ldr	r1, [r10, #28]
	ldrb	r6, [r0, #827]
	str	r8, [sp, #4]
	ldr	r0, [r1]
	cmp	r0, #0
	blne	mono_aot_Newtonsoft_Json_icall_cold_wrapper_265
	cmp	r6, #0
	beq	.LBB56_3
.LBB56_1:
	ldr	r1, [r10, #204]
	mov	r0, r5
	bl	p_84_plt_Newtonsoft_Json_Utilities_ValidationUtils_ArgumentNotNull_object_string_llvm
	ldr	r4, [r10, #208]
	ldr	r1, [r10, #212]
	mov	r0, r4
	bl	p_107_plt_System_Linq_Expressions_Expression_Parameter_System_Type_string_llvm
	mov	r7, r0
	ldrd	r0, r1, [r10, #216]
	bl	p_107_plt_System_Linq_Expressions_Expression_Parameter_System_Type_string_llvm
	mov	r6, r0
	mov	r0, r9
	mov	r1, r5
	mov	r2, r4
	mov	r3, r7
	str	r6, [sp]
	bl	p_108_plt_Newtonsoft_Json_Utilities_ExpressionReflectionDelegateFactory_BuildMethodCall_System_Reflection_MethodBase_System_Type_System_Linq_Expressions_ParameterExpression_System_Linq_Expressions_ParameterExpression_llvm
	mov	r9, r0
	ldr	r0, [sp, #4]
	bl	p_109_plt__rgctx_fetch_61_llvm
	mov	r5, r0
	ldr	r0, [r10, #224]
	mov	r1, #2
	bl	p_110_plt_wrapper_alloc_object_AllocVector_intptr_intptr_llvm
	mov	r4, r0
	mov	r1, #0
	ldr	r0, [r4]
	mov	r2, r7
	ldr	r3, [r0, #136]
	mov	r0, r4
	blx	r3
	ldr	r0, [r4]
	mov	r1, #1
	mov	r2, r6
	ldr	r3, [r0, #136]
	mov	r0, r4
	blx	r3
	mov	r0, r5
	mov	r1, r9
	mov	r2, r4
	bl	p_111_plt_System_Linq_Expressions_Expression_Lambda_System_Type_System_Linq_Expressions_Expression_System_Linq_Expressions_ParameterExpression___llvm
	cmp	r0, #0
	beq	.LBB56_4
	bl	p_112_plt_System_Linq_Expressions_LambdaExpression_Compile_llvm
	mov	r4, r0
	ldr	r0, [sp, #4]
	bl	p_113_plt__rgctx_fetch_62_llvm
	mov	r2, r0
	mov	r0, r4
	ldr	r1, [r2, #4]
	bl	p_10_plt_wrapper_castclass_object___castclass_with_cache_object_intptr_intptr_llvm
	add	sp, sp, #8
	pop	{r4, r5, r6, r7, r9, r10, r11, pc}
.LBB56_3:
	movw	r0, #827
	mov	r1, r8
	bl	mono_aot_Newtonsoft_Json_init_method_gshared_mrgctx
	b	.LBB56_1
.Ltmp619:
.LBB56_4:
	ldr	r0, .LCPI56_0
.LPC56_0:
	add	r1, pc, r0
	mov	r0, #225
	bl	p_23_plt__jit_icall_llvm_throw_corlib_exception_abs_trampoline_llvm
	.p2align	2
.LCPI56_0:
	.long	.Ltmp619-(.LPC56_0+8)
.LCPI56_1:
	.long	mono_aot_Newtonsoft_Json_llvm_got-(.LPC56_1+8)
.LCPI56_2:
	.long	mono_inited-(.LPC56_2+8)
.Lfunc_end56:
	.size	Newtonsoft_Json_Utilities_ExpressionReflectionDelegateFactory_CreateMethodCall_T_REF_System_Reflection_MethodBase, .Lfunc_end56-Newtonsoft_Json_Utilities_ExpressionReflectionDelegateFactory_CreateMethodCall_T_REF_System_Reflection_MethodBase
.Lexception51:
	.fnend

	.hidden	Newtonsoft_Json_Utilities_ExpressionReflectionDelegateFactory_CreateDefaultConstructor_T_REF_System_Type
	.globl	Newtonsoft_Json_Utilities_ExpressionReflectionDelegateFactory_CreateDefaultConstructor_T_REF_System_Type
	.p2align	2
	.type	Newtonsoft_Json_Utilities_ExpressionReflectionDelegateFactory_CreateDefaultConstructor_T_REF_System_Type,%function
	.code	32
Newtonsoft_Json_Utilities_ExpressionReflectionDelegateFactory_CreateDefaultConstructor_T_REF_System_Type:
.Lfunc_begin57:
	.fnstart
	.save	{r4, r5, r6, r7, r11, lr}
	push	{r4, r5, r6, r7, r11, lr}
.Ltmp643:
.Ltmp644:
.Ltmp645:
.Ltmp646:
.Ltmp647:
.Ltmp648:
.Ltmp649:
	.pad	#24
	sub	sp, sp, #24
.Ltmp650:
	ldr	r7, .LCPI57_7
	mov	r4, r0
	ldr	r0, .LCPI57_8
	mov	r5, r1
.LPC57_7:
	add	r7, pc, r7
.LPC57_8:
	add	r0, pc, r0
	ldr	r1, [r7, #28]
	ldrb	r6, [r0, #829]
	str	r8, [sp, #16]
	ldr	r0, [r1]
	cmp	r0, #0
	blne	mono_aot_Newtonsoft_Json_icall_cold_wrapper_265
	cmp	r6, #0
	beq	.LBB57_21
.LBB57_1:
	ldr	r0, [sp, #16]
	mov	r1, #0
	str	r1, [sp, #12]
	bl	p_114_plt__rgctx_fetch_63_llvm
	mov	r1, #12
	bl	p_17_plt_wrapper_alloc_object_AllocSmall_intptr_intptr_llvm
	mov	r6, r0
	bl	p_115_plt_Newtonsoft_Json_Utilities_ExpressionReflectionDelegateFactory__c__DisplayClass7_0_1_T_REF__ctor_llvm
	str	r6, [sp, #8]
	ldr	r0, [sp, #8]
	cmp	r0, #0
	beq	.LBB57_22
	ldr	r6, [r7, #8]
	dmb	ish
	str	r5, [r0, #8]!
	mov	r1, #1
	strb	r1, [r6, r0, lsr #9]
	ldr	r0, [sp, #8]
	cmp	r0, #0
	beq	.LBB57_23
	ldr	r0, [r0, #8]
	ldr	r1, [r7, #228]
	bl	p_84_plt_Newtonsoft_Json_Utilities_ValidationUtils_ArgumentNotNull_object_string_llvm
	ldr	r0, [sp, #8]
	cmp	r0, #0
	beq	.LBB57_24
	ldr	r0, [r0, #8]
	bl	p_116_plt_Newtonsoft_Json_Utilities_TypeExtensions_IsAbstract_System_Type_llvm
	tst	r0, #255
	beq	.LBB57_7
	ldr	r5, [sp, #8]
	cmp	r5, #0
	beq	.LBB57_25
	ldr	r0, [sp, #16]
	bl	p_122_plt__rgctx_fetch_67_llvm
	mov	r1, #64
	bl	p_17_plt_wrapper_alloc_object_AllocSmall_intptr_intptr_llvm
	mov	r4, r0
	dmb	ish
	str	r5, [r0, #16]!
	mov	r1, #1
	lsr	r0, r0, #9
	strb	r1, [r0, r6]
	ldr	r0, [sp, #16]
	bl	p_123_plt__rgctx_fetch_68_llvm
	str	r0, [r4, #32]
	ldr	r0, [sp, #16]
	bl	p_124_plt__rgctx_fetch_69_llvm
	ldr	r1, [r0, #4]
	str	r1, [r4, #20]
	ldr	r1, [r0, #20]
	str	r1, [r4, #12]
	mov	r1, #0
	ldr	r0, [r0, #16]
	strb	r1, [r4, #56]
	str	r0, [r4, #8]
	b	.LBB57_20
.LBB57_7:
	ldr	r0, [sp, #16]
.Ltmp620:
	bl	p_117_plt__rgctx_fetch_64_llvm
	mov	r5, r0
.Ltmp621:
	ldr	r0, [sp, #8]
	cmp	r0, #0
	beq	.LBB57_26
	ldr	r0, [r0, #8]
.Ltmp622:
	bl	p_118_plt_System_Linq_Expressions_Expression_New_System_Type_llvm
	mov	r1, r0
.Ltmp623:
.Ltmp624:
	mov	r0, r4
	mov	r2, r5
	bl	p_119_plt_Newtonsoft_Json_Utilities_ExpressionReflectionDelegateFactory_EnsureCastExpression_System_Linq_Expressions_Expression_System_Type_llvm
	mov	r4, r0
.Ltmp625:
	ldr	r0, [sp, #16]
.Ltmp626:
	bl	p_120_plt__rgctx_fetch_65_llvm
	mov	r5, r0
.Ltmp627:
	ldr	r0, [r7, #224]
.Ltmp628:
	mov	r1, #0
	bl	p_110_plt_wrapper_alloc_object_AllocVector_intptr_intptr_llvm
	mov	r2, r0
.Ltmp629:
.Ltmp630:
	mov	r0, r5
	mov	r1, r4
	bl	p_111_plt_System_Linq_Expressions_Expression_Lambda_System_Type_System_Linq_Expressions_Expression_System_Linq_Expressions_ParameterExpression___llvm
.Ltmp631:
	cmp	r0, #0
	beq	.LBB57_28
.Ltmp632:
	bl	p_112_plt_System_Linq_Expressions_LambdaExpression_Compile_llvm
	mov	r4, r0
.Ltmp633:
	ldr	r0, [sp, #16]
.Ltmp634:
	bl	p_121_plt__rgctx_fetch_66_llvm
	mov	r2, r0
.Ltmp635:
	ldr	r1, [r2, #4]
.Ltmp636:
	mov	r0, r4
	bl	p_10_plt_wrapper_castclass_object___castclass_with_cache_object_intptr_intptr_llvm
.Ltmp637:
	str	r0, [sp, #12]
.LBB57_19:
	ldr	r4, [sp, #12]
.LBB57_20:
	str	r4, [sp, #4]
	ldr	r0, [sp, #4]
	add	sp, sp, #24
	pop	{r4, r5, r6, r7, r11, pc}
.LBB57_21:
	movw	r0, #829
	mov	r1, r8
	bl	mono_aot_Newtonsoft_Json_init_method_gshared_mrgctx
	b	.LBB57_1
.Ltmp651:
.LBB57_22:
	ldr	r0, .LCPI57_6
.LPC57_6:
	add	r1, pc, r0
	mov	r0, #225
	bl	p_23_plt__jit_icall_llvm_throw_corlib_exception_abs_trampoline_llvm
.Ltmp652:
.LBB57_23:
	ldr	r0, .LCPI57_5
.LPC57_5:
	add	r1, pc, r0
	mov	r0, #225
	bl	p_23_plt__jit_icall_llvm_throw_corlib_exception_abs_trampoline_llvm
.Ltmp653:
.LBB57_24:
	ldr	r0, .LCPI57_4
.LPC57_4:
	add	r1, pc, r0
	mov	r0, #225
	bl	p_23_plt__jit_icall_llvm_throw_corlib_exception_abs_trampoline_llvm
.Ltmp654:
.LBB57_25:
	ldr	r0, .LCPI57_0
.LPC57_0:
	add	r1, pc, r0
	mov	r0, #123
	bl	p_23_plt__jit_icall_llvm_throw_corlib_exception_abs_trampoline_llvm
.Ltmp655:
.LBB57_26:
	ldr	r0, .LCPI57_2
.Ltmp640:
.LPC57_2:
	add	r1, pc, r0
	mov	r0, #225
	bl	p_23_plt__jit_icall_llvm_throw_corlib_exception_abs_trampoline_llvm
.Ltmp641:
.Ltmp656:
.LBB57_28:
	ldr	r0, .LCPI57_1
.Ltmp638:
.LPC57_1:
	add	r1, pc, r0
	mov	r0, #225
	bl	p_23_plt__jit_icall_llvm_throw_corlib_exception_abs_trampoline_llvm
.Ltmp639:
.LBB57_30:
.Ltmp642:
	ldr	r5, [sp, #8]
	cmp	r5, #0
	beq	.LBB57_33
	ldr	r0, [sp, #16]
	bl	p_122_plt__rgctx_fetch_67_llvm
	mov	r1, #64
	bl	p_17_plt_wrapper_alloc_object_AllocSmall_intptr_intptr_llvm
	mov	r4, r0
	dmb	ish
	str	r5, [r0, #16]!
	mov	r1, #1
	lsr	r0, r0, #9
	strb	r1, [r0, r6]
	ldr	r0, [sp, #16]
	bl	p_125_plt__rgctx_fetch_70_llvm
	str	r0, [r4, #32]
	ldr	r0, [sp, #16]
	bl	p_126_plt__rgctx_fetch_71_llvm
	ldr	r1, [r0, #4]
	str	r1, [r4, #20]
	ldr	r1, [r0, #20]
	str	r1, [r4, #12]
	mov	r1, #0
	ldr	r0, [r0, #16]
	strb	r1, [r4, #56]
	str	r0, [r4, #8]
	str	r4, [sp, #12]
	bl	p_127_plt__jit_icall_mono_thread_get_undeniable_exception_llvm
	str	r0, [sp, #20]
	ldr	r0, [sp, #20]
	cmp	r0, #0
	beq	.LBB57_19
	ldr	r0, [sp, #20]
	bl	p_49_plt__jit_icall_mono_arch_throw_exception_llvm
	b	.LBB57_19
.Ltmp657:
.LBB57_33:
	ldr	r0, .LCPI57_3
.LPC57_3:
	add	r1, pc, r0
	mov	r0, #123
	bl	p_23_plt__jit_icall_llvm_throw_corlib_exception_abs_trampoline_llvm
	.p2align	2
.LCPI57_0:
	.long	.Ltmp654-(.LPC57_0+8)
.LCPI57_1:
	.long	.Ltmp656-(.LPC57_1+8)
.LCPI57_2:
	.long	.Ltmp655-(.LPC57_2+8)
.LCPI57_3:
	.long	.Ltmp657-(.LPC57_3+8)
.LCPI57_4:
	.long	.Ltmp653-(.LPC57_4+8)
.LCPI57_5:
	.long	.Ltmp652-(.LPC57_5+8)
.LCPI57_6:
	.long	.Ltmp651-(.LPC57_6+8)
.LCPI57_7:
	.long	mono_aot_Newtonsoft_Json_llvm_got-(.LPC57_7+8)
.LCPI57_8:
	.long	mono_inited-(.LPC57_8+8)
.Lfunc_end57:
	.size	Newtonsoft_Json_Utilities_ExpressionReflectionDelegateFactory_CreateDefaultConstructor_T_REF_System_Type, .Lfunc_end57-Newtonsoft_Json_Utilities_ExpressionReflectionDelegateFactory_CreateDefaultConstructor_T_REF_System_Type
.Lexception52:
	.fnend

	.hidden	Newtonsoft_Json_Utilities_ExpressionReflectionDelegateFactory_CreateGet_T_REF_System_Reflection_PropertyInfo
	.globl	Newtonsoft_Json_Utilities_ExpressionReflectionDelegateFactory_CreateGet_T_REF_System_Reflection_PropertyInfo
	.p2align	2
	.type	Newtonsoft_Json_Utilities_ExpressionReflectionDelegateFactory_CreateGet_T_REF_System_Reflection_PropertyInfo,%function
	.code	32
Newtonsoft_Json_Utilities_ExpressionReflectionDelegateFactory_CreateGet_T_REF_System_Reflection_PropertyInfo:
.Lfunc_begin58:
	.fnstart
	.save	{r4, r5, r6, r7, r11, lr}
	push	{r4, r5, r6, r7, r11, lr}
.Ltmp658:
.Ltmp659:
.Ltmp660:
.Ltmp661:
.Ltmp662:
.Ltmp663:
.Ltmp664:
	.pad	#8
	sub	sp, sp, #8
.Ltmp665:
	ldr	r7, .LCPI58_3
	mov	r4, r0
	ldr	r0, .LCPI58_4
	mov	r5, r1
.LPC58_3:
	add	r7, pc, r7
.LPC58_4:
	add	r0, pc, r0
	ldr	r1, [r7, #28]
	ldrb	r6, [r0, #830]
	str	r8, [sp, #4]
	ldr	r0, [r1]
	cmp	r0, #0
	blne	mono_aot_Newtonsoft_Json_icall_cold_wrapper_265
	cmp	r6, #0
	beq	.LBB58_8
.LBB58_1:
	ldr	r1, [r7, #232]
	mov	r0, r5
	bl	p_84_plt_Newtonsoft_Json_Utilities_ValidationUtils_ArgumentNotNull_object_string_llvm
	ldr	r0, [sp, #4]
	bl	p_128_plt__rgctx_fetch_72_llvm
	ldr	r1, [r7, #240]
	bl	p_107_plt_System_Linq_Expressions_Expression_Parameter_System_Type_string_llvm
	mov	r6, r0
	mov	r0, r5
	mov	r1, #1
	bl	p_129_plt_Newtonsoft_Json_Utilities_TypeExtensions_GetGetMethod_System_Reflection_PropertyInfo_bool_llvm
	cmp	r0, #0
	beq	.LBB58_9
	bl	p_130_plt_System_Reflection_MethodBase_get_IsStatic_llvm
	tst	r0, #255
	beq	.LBB58_4
	mov	r0, #0
	b	.LBB58_6
.LBB58_4:
	cmp	r5, #0
	beq	.LBB58_11
	ldr	r0, [r5]
	ldr	r1, [r0, #104]
	mov	r0, r5
	blx	r1
	mov	r2, r0
	mov	r0, r4
	mov	r1, r6
	bl	p_119_plt_Newtonsoft_Json_Utilities_ExpressionReflectionDelegateFactory_EnsureCastExpression_System_Linq_Expressions_Expression_System_Type_llvm
.LBB58_6:
	mov	r1, r5
	bl	p_131_plt_System_Linq_Expressions_Expression_MakeMemberAccess_System_Linq_Expressions_Expression_System_Reflection_MemberInfo_llvm
	ldr	r2, [r7, #236]
	mov	r1, r0
	mov	r0, r4
	bl	p_119_plt_Newtonsoft_Json_Utilities_ExpressionReflectionDelegateFactory_EnsureCastExpression_System_Linq_Expressions_Expression_System_Type_llvm
	mov	r4, r0
	ldr	r0, [sp, #4]
	bl	p_132_plt__rgctx_fetch_73_llvm
	mov	r5, r0
	ldr	r0, [r7, #224]
	mov	r1, #1
	bl	p_110_plt_wrapper_alloc_object_AllocVector_intptr_intptr_llvm
	mov	r7, r0
	mov	r1, #0
	ldr	r0, [r7]
	mov	r2, r6
	ldr	r3, [r0, #136]
	mov	r0, r7
	blx	r3
	mov	r0, r5
	mov	r1, r4
	mov	r2, r7
	bl	p_111_plt_System_Linq_Expressions_Expression_Lambda_System_Type_System_Linq_Expressions_Expression_System_Linq_Expressions_ParameterExpression___llvm
	cmp	r0, #0
	beq	.LBB58_10
	bl	p_112_plt_System_Linq_Expressions_LambdaExpression_Compile_llvm
	mov	r4, r0
	ldr	r0, [sp, #4]
	bl	p_133_plt__rgctx_fetch_74_llvm
	mov	r2, r0
	mov	r0, r4
	ldr	r1, [r2, #4]
	bl	p_10_plt_wrapper_castclass_object___castclass_with_cache_object_intptr_intptr_llvm
	add	sp, sp, #8
	pop	{r4, r5, r6, r7, r11, pc}
.LBB58_8:
	movw	r0, #830
	mov	r1, r8
	bl	mono_aot_Newtonsoft_Json_init_method_gshared_mrgctx
	b	.LBB58_1
.Ltmp666:
.LBB58_9:
	ldr	r0, .LCPI58_2
.LPC58_2:
	add	r1, pc, r0
	mov	r0, #225
	bl	p_23_plt__jit_icall_llvm_throw_corlib_exception_abs_trampoline_llvm
.Ltmp667:
.LBB58_10:
	ldr	r0, .LCPI58_0
.LPC58_0:
	add	r1, pc, r0
	mov	r0, #225
	bl	p_23_plt__jit_icall_llvm_throw_corlib_exception_abs_trampoline_llvm
.Ltmp668:
.LBB58_11:
	ldr	r0, .LCPI58_1
.LPC58_1:
	add	r1, pc, r0
	mov	r0, #225
	bl	p_23_plt__jit_icall_llvm_throw_corlib_exception_abs_trampoline_llvm
	.p2align	2
.LCPI58_0:
	.long	.Ltmp667-(.LPC58_0+8)
.LCPI58_1:
	.long	.Ltmp668-(.LPC58_1+8)
.LCPI58_2:
	.long	.Ltmp666-(.LPC58_2+8)
.LCPI58_3:
	.long	mono_aot_Newtonsoft_Json_llvm_got-(.LPC58_3+8)
.LCPI58_4:
	.long	mono_inited-(.LPC58_4+8)
.Lfunc_end58:
	.size	Newtonsoft_Json_Utilities_ExpressionReflectionDelegateFactory_CreateGet_T_REF_System_Reflection_PropertyInfo, .Lfunc_end58-Newtonsoft_Json_Utilities_ExpressionReflectionDelegateFactory_CreateGet_T_REF_System_Reflection_PropertyInfo
.Lexception53:
	.fnend

	.hidden	Newtonsoft_Json_Utilities_ExpressionReflectionDelegateFactory_CreateGet_T_REF_System_Reflection_FieldInfo
	.globl	Newtonsoft_Json_Utilities_ExpressionReflectionDelegateFactory_CreateGet_T_REF_System_Reflection_FieldInfo
	.p2align	2
	.type	Newtonsoft_Json_Utilities_ExpressionReflectionDelegateFactory_CreateGet_T_REF_System_Reflection_FieldInfo,%function
	.code	32
Newtonsoft_Json_Utilities_ExpressionReflectionDelegateFactory_CreateGet_T_REF_System_Reflection_FieldInfo:
.Lfunc_begin59:
	.fnstart
	.save	{r4, r5, r6, r7, r8, lr}
	push	{r4, r5, r6, r7, r8, lr}
.Ltmp669:
.Ltmp670:
.Ltmp671:
.Ltmp672:
.Ltmp673:
.Ltmp674:
.Ltmp675:
	.pad	#8
	sub	sp, sp, #8
.Ltmp676:
	ldr	r7, .LCPI59_2
	mov	r4, r0
	ldr	r0, .LCPI59_3
	mov	r5, r1
.LPC59_2:
	add	r7, pc, r7
.LPC59_3:
	add	r0, pc, r0
	ldr	r1, [r7, #28]
	ldrb	r6, [r0, #831]
	str	r8, [sp, #4]
	ldr	r0, [r1]
	cmp	r0, #0
	blne	mono_aot_Newtonsoft_Json_icall_cold_wrapper_265
	cmp	r6, #0
	beq	.LBB59_6
.LBB59_1:
	ldr	r1, [r7, #244]
	mov	r0, r5
	bl	p_84_plt_Newtonsoft_Json_Utilities_ValidationUtils_ArgumentNotNull_object_string_llvm
	ldr	r0, [sp, #4]
	bl	p_134_plt__rgctx_fetch_75_llvm
	ldr	r1, [r7, #248]
	bl	p_107_plt_System_Linq_Expressions_Expression_Parameter_System_Type_string_llvm
	mov	r6, r0
	cmp	r5, #0
	beq	.LBB59_7
	mov	r0, r5
	bl	p_135_plt_System_Reflection_FieldInfo_get_IsStatic_llvm
	mov	r1, r0
	mov	r0, #0
	tst	r1, #255
	bne	.LBB59_4
	ldr	r0, [r5]
	ldr	r1, [r0, #104]
	mov	r0, r5
	blx	r1
	mov	r2, r0
	mov	r0, r4
	mov	r1, r6
	bl	p_119_plt_Newtonsoft_Json_Utilities_ExpressionReflectionDelegateFactory_EnsureCastExpression_System_Linq_Expressions_Expression_System_Type_llvm
.LBB59_4:
	mov	r1, r5
	bl	p_136_plt_System_Linq_Expressions_Expression_Field_System_Linq_Expressions_Expression_System_Reflection_FieldInfo_llvm
	ldr	r2, [r7, #252]
	mov	r1, r0
	mov	r0, r4
	bl	p_119_plt_Newtonsoft_Json_Utilities_ExpressionReflectionDelegateFactory_EnsureCastExpression_System_Linq_Expressions_Expression_System_Type_llvm
	mov	r4, r0
	ldr	r0, [r7, #224]
	mov	r1, #1
	bl	p_110_plt_wrapper_alloc_object_AllocVector_intptr_intptr_llvm
	mov	r5, r0
	mov	r1, #0
	ldr	r0, [r5]
	mov	r2, r6
	ldr	r3, [r0, #136]
	mov	r0, r5
	blx	r3
	ldr	r0, [sp, #4]
	bl	p_137_plt__rgctx_fetch_76_llvm
	str	r0, [sp]
	mov	r0, r4
	ldr	r8, [sp]
	mov	r1, r5
	bl	p_138_plt_System_Linq_Expressions_Expression_Lambda_System_Func_2_T_REF_object_System_Linq_Expressions_Expression_System_Linq_Expressions_ParameterExpression___llvm
	cmp	r0, #0
	beq	.LBB59_8
	bl	p_139_plt_System_Linq_Expressions_Expression_1_System_Func_2_T_REF_object_Compile_llvm
	add	sp, sp, #8
	pop	{r4, r5, r6, r7, r8, pc}
.LBB59_6:
	movw	r0, #831
	mov	r1, r8
	bl	mono_aot_Newtonsoft_Json_init_method_gshared_mrgctx
	b	.LBB59_1
.Ltmp677:
.LBB59_7:
	ldr	r0, .LCPI59_1
.LPC59_1:
	add	r1, pc, r0
	mov	r0, #225
	bl	p_23_plt__jit_icall_llvm_throw_corlib_exception_abs_trampoline_llvm
.Ltmp678:
.LBB59_8:
	ldr	r0, .LCPI59_0
.LPC59_0:
	add	r1, pc, r0
	mov	r0, #225
	bl	p_23_plt__jit_icall_llvm_throw_corlib_exception_abs_trampoline_llvm
	.p2align	2
.LCPI59_0:
	.long	.Ltmp678-(.LPC59_0+8)
.LCPI59_1:
	.long	.Ltmp677-(.LPC59_1+8)
.LCPI59_2:
	.long	mono_aot_Newtonsoft_Json_llvm_got-(.LPC59_2+8)
.LCPI59_3:
	.long	mono_inited-(.LPC59_3+8)
.Lfunc_end59:
	.size	Newtonsoft_Json_Utilities_ExpressionReflectionDelegateFactory_CreateGet_T_REF_System_Reflection_FieldInfo, .Lfunc_end59-Newtonsoft_Json_Utilities_ExpressionReflectionDelegateFactory_CreateGet_T_REF_System_Reflection_FieldInfo
.Lexception54:
	.fnend

	.hidden	Newtonsoft_Json_Utilities_ExpressionReflectionDelegateFactory_CreateSet_T_REF_System_Reflection_FieldInfo
	.globl	Newtonsoft_Json_Utilities_ExpressionReflectionDelegateFactory_CreateSet_T_REF_System_Reflection_FieldInfo
	.p2align	2
	.type	Newtonsoft_Json_Utilities_ExpressionReflectionDelegateFactory_CreateSet_T_REF_System_Reflection_FieldInfo,%function
	.code	32
Newtonsoft_Json_Utilities_ExpressionReflectionDelegateFactory_CreateSet_T_REF_System_Reflection_FieldInfo:
.Lfunc_begin60:
	.fnstart
	.save	{r4, r5, r6, r7, r8, r9, r11, lr}
	push	{r4, r5, r6, r7, r8, r9, r11, lr}
.Ltmp679:
.Ltmp680:
.Ltmp681:
.Ltmp682:
.Ltmp683:
.Ltmp684:
.Ltmp685:
.Ltmp686:
.Ltmp687:
	.pad	#8
	sub	sp, sp, #8
.Ltmp688:
	ldr	r7, .LCPI60_4
	mov	r5, r0
	ldr	r0, .LCPI60_5
	mov	r4, r1
.LPC60_4:
	add	r7, pc, r7
.LPC60_5:
	add	r0, pc, r0
	ldr	r1, [r7, #28]
	ldrb	r6, [r0, #832]
	str	r8, [sp, #4]
	ldr	r0, [r1]
	cmp	r0, #0
	blne	mono_aot_Newtonsoft_Json_icall_cold_wrapper_265
	cmp	r6, #0
	beq	.LBB60_12
.LBB60_1:
	ldr	r1, [r7, #244]
	mov	r0, r4
	bl	p_84_plt_Newtonsoft_Json_Utilities_ValidationUtils_ArgumentNotNull_object_string_llvm
	cmp	r4, #0
	beq	.LBB60_14
	ldr	r0, [r4]
	ldr	r1, [r0, #104]
	mov	r0, r4
	blx	r1
	bl	p_105_plt_Newtonsoft_Json_Utilities_TypeExtensions_IsValueType_System_Type_llvm
	tst	r0, #255
	bne	.LBB60_4
	mov	r0, r4
	bl	p_142_plt_System_Reflection_FieldInfo_get_IsInitOnly_llvm
	tst	r0, #255
	beq	.LBB60_7
.LBB60_4:
	ldr	r0, [r7, #256]
	ldrb	r1, [r0, #25]
	cmp	r1, #0
	beq	.LBB60_13
.LBB60_5:
	ldr	r0, [r7, #260]
	ldr	r5, [r0]
	ldr	r0, [sp, #4]
	bl	p_140_plt__rgctx_fetch_77_llvm
	ldr	r0, [sp, #4]
	bl	p_141_plt__rgctx_fetch_78_llvm
	cmp	r5, #0
	beq	.LBB60_15
	ldr	r1, [r5]
	ldr	r2, [r1, #60]
	mov	r1, r4
	str	r0, [sp]
	mov	r0, r5
	ldr	r8, [sp]
	blx	r2
	add	sp, sp, #8
	pop	{r4, r5, r6, r7, r8, r9, r11, pc}
.LBB60_7:
	ldr	r0, [sp, #4]
	bl	p_143_plt__rgctx_fetch_79_llvm
	ldr	r1, [r7, #248]
	bl	p_107_plt_System_Linq_Expressions_Expression_Parameter_System_Type_string_llvm
	mov	r9, r0
	ldr	r1, [r7, #200]
	ldr	r0, [r7, #264]
	bl	p_107_plt_System_Linq_Expressions_Expression_Parameter_System_Type_string_llvm
	mov	r6, r0
	mov	r0, r4
	bl	p_135_plt_System_Reflection_FieldInfo_get_IsStatic_llvm
	mov	r1, r0
	mov	r0, #0
	tst	r1, #255
	bne	.LBB60_9
	ldr	r0, [r4]
	ldr	r1, [r0, #104]
	mov	r0, r4
	blx	r1
	mov	r2, r0
	mov	r0, r5
	mov	r1, r9
	bl	p_119_plt_Newtonsoft_Json_Utilities_ExpressionReflectionDelegateFactory_EnsureCastExpression_System_Linq_Expressions_Expression_System_Type_llvm
.LBB60_9:
	mov	r1, r4
	bl	p_136_plt_System_Linq_Expressions_Expression_Field_System_Linq_Expressions_Expression_System_Reflection_FieldInfo_llvm
	mov	r4, r0
	cmp	r4, #0
	beq	.LBB60_16
	ldr	r0, [r4]
	ldr	r1, [r0, #72]
	mov	r0, r4
	blx	r1
	mov	r2, r0
	mov	r0, r5
	mov	r1, r6
	bl	p_119_plt_Newtonsoft_Json_Utilities_ExpressionReflectionDelegateFactory_EnsureCastExpression_System_Linq_Expressions_Expression_System_Type_llvm
	mov	r1, r0
	mov	r0, r4
	bl	p_144_plt_System_Linq_Expressions_Expression_Assign_System_Linq_Expressions_Expression_System_Linq_Expressions_Expression_llvm
	mov	r4, r0
	ldr	r0, [sp, #4]
	bl	p_145_plt__rgctx_fetch_80_llvm
	mov	r5, r0
	ldr	r0, [r7, #224]
	mov	r1, #2
	bl	p_110_plt_wrapper_alloc_object_AllocVector_intptr_intptr_llvm
	mov	r7, r0
	mov	r1, #0
	ldr	r0, [r7]
	mov	r2, r9
	ldr	r3, [r0, #136]
	mov	r0, r7
	blx	r3
	ldr	r0, [r7]
	mov	r1, #1
	mov	r2, r6
	ldr	r3, [r0, #136]
	mov	r0, r7
	blx	r3
	mov	r0, r5
	mov	r1, r4
	mov	r2, r7
	bl	p_111_plt_System_Linq_Expressions_Expression_Lambda_System_Type_System_Linq_Expressions_Expression_System_Linq_Expressions_ParameterExpression___llvm
	cmp	r0, #0
	beq	.LBB60_17
	bl	p_112_plt_System_Linq_Expressions_LambdaExpression_Compile_llvm
	mov	r4, r0
	ldr	r0, [sp, #4]
	bl	p_146_plt__rgctx_fetch_81_llvm
	mov	r2, r0
	mov	r0, r4
	ldr	r1, [r2, #4]
	bl	p_10_plt_wrapper_castclass_object___castclass_with_cache_object_intptr_intptr_llvm
	add	sp, sp, #8
	pop	{r4, r5, r6, r7, r8, r9, r11, pc}
.LBB60_12:
	mov	r0, #832
	mov	r1, r8
	bl	mono_aot_Newtonsoft_Json_init_method_gshared_mrgctx
	b	.LBB60_1
.LBB60_13:
	bl	p_25_plt__jit_icall_mono_generic_class_init_llvm
	b	.LBB60_5
.Ltmp689:
.LBB60_14:
	ldr	r0, .LCPI60_3
.LPC60_3:
	add	r1, pc, r0
	mov	r0, #225
	bl	p_23_plt__jit_icall_llvm_throw_corlib_exception_abs_trampoline_llvm
.Ltmp690:
.LBB60_15:
	ldr	r0, .LCPI60_0
.LPC60_0:
	add	r1, pc, r0
	mov	r0, #225
	bl	p_23_plt__jit_icall_llvm_throw_corlib_exception_abs_trampoline_llvm
.Ltmp691:
.LBB60_16:
	ldr	r0, .LCPI60_2
.LPC60_2:
	add	r1, pc, r0
	mov	r0, #225
	bl	p_23_plt__jit_icall_llvm_throw_corlib_exception_abs_trampoline_llvm
.Ltmp692:
.LBB60_17:
	ldr	r0, .LCPI60_1
.LPC60_1:
	add	r1, pc, r0
	mov	r0, #225
	bl	p_23_plt__jit_icall_llvm_throw_corlib_exception_abs_trampoline_llvm
	.p2align	2
.LCPI60_0:
	.long	.Ltmp690-(.LPC60_0+8)
.LCPI60_1:
	.long	.Ltmp692-(.LPC60_1+8)
.LCPI60_2:
	.long	.Ltmp691-(.LPC60_2+8)
.LCPI60_3:
	.long	.Ltmp689-(.LPC60_3+8)
.LCPI60_4:
	.long	mono_aot_Newtonsoft_Json_llvm_got-(.LPC60_4+8)
.LCPI60_5:
	.long	mono_inited-(.LPC60_5+8)
.Lfunc_end60:
	.size	Newtonsoft_Json_Utilities_ExpressionReflectionDelegateFactory_CreateSet_T_REF_System_Reflection_FieldInfo, .Lfunc_end60-Newtonsoft_Json_Utilities_ExpressionReflectionDelegateFactory_CreateSet_T_REF_System_Reflection_FieldInfo
.Lexception55:
	.fnend

	.hidden	Newtonsoft_Json_Utilities_ExpressionReflectionDelegateFactory_CreateSet_T_REF_System_Reflection_PropertyInfo
	.globl	Newtonsoft_Json_Utilities_ExpressionReflectionDelegateFactory_CreateSet_T_REF_System_Reflection_PropertyInfo
	.p2align	2
	.type	Newtonsoft_Json_Utilities_ExpressionReflectionDelegateFactory_CreateSet_T_REF_System_Reflection_PropertyInfo,%function
	.code	32
Newtonsoft_Json_Utilities_ExpressionReflectionDelegateFactory_CreateSet_T_REF_System_Reflection_PropertyInfo:
.Lfunc_begin61:
	.fnstart
	.save	{r4, r5, r6, r7, r8, r9, r10, r11, lr}
	push	{r4, r5, r6, r7, r8, r9, r10, r11, lr}
.Ltmp693:
.Ltmp694:
.Ltmp695:
.Ltmp696:
.Ltmp697:
.Ltmp698:
.Ltmp699:
.Ltmp700:
.Ltmp701:
.Ltmp702:
	.pad	#12
	sub	sp, sp, #12
.Ltmp703:
	ldr	r7, .LCPI61_4
	mov	r5, r0
	ldr	r0, .LCPI61_5
	mov	r4, r1
.LPC61_4:
	add	r7, pc, r7
.LPC61_5:
	add	r0, pc, r0
	ldr	r1, [r7, #28]
	ldrb	r6, [r0, #833]
	str	r8, [sp, #8]
	ldr	r0, [r1]
	cmp	r0, #0
	blne	mono_aot_Newtonsoft_Json_icall_cold_wrapper_265
	cmp	r6, #0
	beq	.LBB61_12
.LBB61_1:
	ldr	r1, [r7, #232]
	mov	r0, r4
	bl	p_84_plt_Newtonsoft_Json_Utilities_ValidationUtils_ArgumentNotNull_object_string_llvm
	cmp	r4, #0
	beq	.LBB61_14
	ldr	r0, [r4]
	ldr	r1, [r0, #104]
	mov	r0, r4
	blx	r1
	bl	p_105_plt_Newtonsoft_Json_Utilities_TypeExtensions_IsValueType_System_Type_llvm
	tst	r0, #255
	beq	.LBB61_6
	ldr	r0, [r7, #256]
	ldrb	r1, [r0, #25]
	cmp	r1, #0
	beq	.LBB61_13
.LBB61_4:
	ldr	r0, [r7, #260]
	ldr	r5, [r0]
	ldr	r0, [sp, #8]
	bl	p_153_plt__rgctx_fetch_85_llvm
	ldr	r0, [sp, #8]
	bl	p_154_plt__rgctx_fetch_86_llvm
	cmp	r5, #0
	beq	.LBB61_15
	ldr	r1, [r5]
	ldr	r2, [r1, #56]
	mov	r1, r4
	str	r0, [sp, #4]
	mov	r0, r5
	ldr	r8, [sp, #4]
	blx	r2
	add	sp, sp, #12
	pop	{r4, r5, r6, r7, r8, r9, r10, r11, pc}
.LBB61_6:
	ldr	r0, [sp, #8]
	bl	p_147_plt__rgctx_fetch_82_llvm
	ldr	r1, [r7, #240]
	ldr	r6, [r7, #268]
	bl	p_107_plt_System_Linq_Expressions_Expression_Parameter_System_Type_string_llvm
	ldr	r1, [r7, #200]
	mov	r9, r0
	mov	r0, r6
	bl	p_107_plt_System_Linq_Expressions_Expression_Parameter_System_Type_string_llvm
	mov	r10, r0
	ldr	r0, [r4]
	ldr	r1, [r0, #164]
	mov	r0, r4
	blx	r1
	mov	r2, r0
	mov	r0, r5
	mov	r1, r10
	bl	p_119_plt_Newtonsoft_Json_Utilities_ExpressionReflectionDelegateFactory_EnsureCastExpression_System_Linq_Expressions_Expression_System_Type_llvm
	mov	r11, r0
	mov	r0, r4
	mov	r1, #1
	bl	p_148_plt_Newtonsoft_Json_Utilities_TypeExtensions_GetSetMethod_System_Reflection_PropertyInfo_bool_llvm
	mov	r6, r0
	cmp	r6, #0
	beq	.LBB61_16
	mov	r0, r6
	bl	p_130_plt_System_Reflection_MethodBase_get_IsStatic_llvm
	tst	r0, #255
	beq	.LBB61_9
	mov	r0, r6
	mov	r1, r11
	bl	p_152_plt_System_Linq_Expressions_Expression_Call_System_Reflection_MethodInfo_System_Linq_Expressions_Expression_llvm
	b	.LBB61_10
.LBB61_9:
	ldr	r0, [r4]
	ldr	r1, [r0, #104]
	mov	r0, r4
	blx	r1
	mov	r2, r0
	mov	r0, r5
	mov	r1, r9
	bl	p_119_plt_Newtonsoft_Json_Utilities_ExpressionReflectionDelegateFactory_EnsureCastExpression_System_Linq_Expressions_Expression_System_Type_llvm
	mov	r4, r0
	ldr	r0, [r7, #272]
	mov	r1, #1
	bl	p_110_plt_wrapper_alloc_object_AllocVector_intptr_intptr_llvm
	mov	r5, r0
	mov	r1, #0
	ldr	r0, [r5]
	mov	r2, r11
	ldr	r3, [r0, #136]
	mov	r0, r5
	blx	r3
	mov	r0, r4
	mov	r1, r6
	mov	r2, r5
	bl	p_149_plt_System_Linq_Expressions_Expression_Call_System_Linq_Expressions_Expression_System_Reflection_MethodInfo_System_Linq_Expressions_Expression___llvm
.LBB61_10:
	mov	r4, r0
	ldr	r0, [sp, #8]
	bl	p_150_plt__rgctx_fetch_83_llvm
	mov	r5, r0
	ldr	r0, [r7, #224]
	mov	r1, #2
	bl	p_110_plt_wrapper_alloc_object_AllocVector_intptr_intptr_llvm
	mov	r6, r0
	mov	r1, #0
	ldr	r0, [r6]
	mov	r2, r9
	ldr	r3, [r0, #136]
	mov	r0, r6
	blx	r3
	ldr	r0, [r6]
	mov	r1, #1
	mov	r2, r10
	ldr	r3, [r0, #136]
	mov	r0, r6
	blx	r3
	mov	r0, r5
	mov	r1, r4
	mov	r2, r6
	bl	p_111_plt_System_Linq_Expressions_Expression_Lambda_System_Type_System_Linq_Expressions_Expression_System_Linq_Expressions_ParameterExpression___llvm
	cmp	r0, #0
	beq	.LBB61_17
	bl	p_112_plt_System_Linq_Expressions_LambdaExpression_Compile_llvm
	mov	r4, r0
	ldr	r0, [sp, #8]
	bl	p_151_plt__rgctx_fetch_84_llvm
	mov	r2, r0
	mov	r0, r4
	ldr	r1, [r2, #4]
	bl	p_10_plt_wrapper_castclass_object___castclass_with_cache_object_intptr_intptr_llvm
	add	sp, sp, #12
	pop	{r4, r5, r6, r7, r8, r9, r10, r11, pc}
.LBB61_12:
	movw	r0, #833
	mov	r1, r8
	bl	mono_aot_Newtonsoft_Json_init_method_gshared_mrgctx
	b	.LBB61_1
.LBB61_13:
	bl	p_25_plt__jit_icall_mono_generic_class_init_llvm
	b	.LBB61_4
.Ltmp704:
.LBB61_14:
	ldr	r0, .LCPI61_3
.LPC61_3:
	add	r1, pc, r0
	mov	r0, #225
	bl	p_23_plt__jit_icall_llvm_throw_corlib_exception_abs_trampoline_llvm
.Ltmp705:
.LBB61_15:
	ldr	r0, .LCPI61_0
.LPC61_0:
	add	r1, pc, r0
	mov	r0, #225
	bl	p_23_plt__jit_icall_llvm_throw_corlib_exception_abs_trampoline_llvm
.Ltmp706:
.LBB61_16:
	ldr	r0, .LCPI61_2
.LPC61_2:
	add	r1, pc, r0
	mov	r0, #225
	bl	p_23_plt__jit_icall_llvm_throw_corlib_exception_abs_trampoline_llvm
.Ltmp707:
.LBB61_17:
	ldr	r0, .LCPI61_1
.LPC61_1:
	add	r1, pc, r0
	mov	r0, #225
	bl	p_23_plt__jit_icall_llvm_throw_corlib_exception_abs_trampoline_llvm
	.p2align	2
.LCPI61_0:
	.long	.Ltmp705-(.LPC61_0+8)
.LCPI61_1:
	.long	.Ltmp707-(.LPC61_1+8)
.LCPI61_2:
	.long	.Ltmp706-(.LPC61_2+8)
.LCPI61_3:
	.long	.Ltmp704-(.LPC61_3+8)
.LCPI61_4:
	.long	mono_aot_Newtonsoft_Json_llvm_got-(.LPC61_4+8)
.LCPI61_5:
	.long	mono_inited-(.LPC61_5+8)
.Lfunc_end61:
	.size	Newtonsoft_Json_Utilities_ExpressionReflectionDelegateFactory_CreateSet_T_REF_System_Reflection_PropertyInfo, .Lfunc_end61-Newtonsoft_Json_Utilities_ExpressionReflectionDelegateFactory_CreateSet_T_REF_System_Reflection_PropertyInfo
.Lexception56:
	.fnend

	.hidden	Newtonsoft_Json_Utilities_ExpressionReflectionDelegateFactory__c__DisplayClass7_0_1_T_REF__ctor
	.globl	Newtonsoft_Json_Utilities_ExpressionReflectionDelegateFactory__c__DisplayClass7_0_1_T_REF__ctor
	.p2align	2
	.type	Newtonsoft_Json_Utilities_ExpressionReflectionDelegateFactory__c__DisplayClass7_0_1_T_REF__ctor,%function
	.code	32
Newtonsoft_Json_Utilities_ExpressionReflectionDelegateFactory__c__DisplayClass7_0_1_T_REF__ctor:
.Lfunc_begin62:
	.fnstart
	.pad	#4
	sub	sp, sp, #4
.Ltmp708:
	str	r0, [sp]
	add	sp, sp, #4
	bx	lr
.Lfunc_end62:
	.size	Newtonsoft_Json_Utilities_ExpressionReflectionDelegateFactory__c__DisplayClass7_0_1_T_REF__ctor, .Lfunc_end62-Newtonsoft_Json_Utilities_ExpressionReflectionDelegateFactory__c__DisplayClass7_0_1_T_REF__ctor
.Lexception57:
	.fnend

	.hidden	Newtonsoft_Json_Utilities_ExpressionReflectionDelegateFactory__c__DisplayClass7_0_1_T_REF__CreateDefaultConstructorb__0
	.globl	Newtonsoft_Json_Utilities_ExpressionReflectionDelegateFactory__c__DisplayClass7_0_1_T_REF__CreateDefaultConstructorb__0
	.p2align	2
	.type	Newtonsoft_Json_Utilities_ExpressionReflectionDelegateFactory__c__DisplayClass7_0_1_T_REF__CreateDefaultConstructorb__0,%function
	.code	32
Newtonsoft_Json_Utilities_ExpressionReflectionDelegateFactory__c__DisplayClass7_0_1_T_REF__CreateDefaultConstructorb__0:
.Lfunc_begin63:
	.fnstart
	.save	{r4, lr}
	push	{r4, lr}
.Ltmp709:
.Ltmp710:
.Ltmp711:
	.pad	#8
	sub	sp, sp, #8
.Ltmp712:
	ldr	r1, .LCPI63_1
.LPC63_1:
	add	r1, pc, r1
	ldr	r1, [r1, #28]
	str	r0, [sp]
	str	r0, [sp, #4]
	ldr	r4, [sp, #4]
	ldr	r0, [r1]
	cmp	r0, #0
	blne	mono_aot_Newtonsoft_Json_icall_cold_wrapper_265
	cmp	r4, #0
	beq	.LBB63_2
	ldr	r0, [r4, #8]
	bl	p_155_plt_System_Activator_CreateInstance_System_Type_llvm
	mov	r4, r0
	ldr	r0, [sp, #4]
	ldr	r0, [r0]
	bl	p_156_plt__rgctx_fetch_87_llvm
	mov	r2, r0
	mov	r0, r4
	ldr	r1, [r2, #4]
	bl	p_10_plt_wrapper_castclass_object___castclass_with_cache_object_intptr_intptr_llvm
	add	sp, sp, #8
	pop	{r4, pc}
.Ltmp713:
.LBB63_2:
	ldr	r0, .LCPI63_0
.LPC63_0:
	add	r1, pc, r0
	mov	r0, #225
	bl	p_23_plt__jit_icall_llvm_throw_corlib_exception_abs_trampoline_llvm
	.p2align	2
.LCPI63_0:
	.long	.Ltmp713-(.LPC63_0+8)
.LCPI63_1:
	.long	mono_aot_Newtonsoft_Json_llvm_got-(.LPC63_1+8)
.Lfunc_end63:
	.size	Newtonsoft_Json_Utilities_ExpressionReflectionDelegateFactory__c__DisplayClass7_0_1_T_REF__CreateDefaultConstructorb__0, .Lfunc_end63-Newtonsoft_Json_Utilities_ExpressionReflectionDelegateFactory__c__DisplayClass7_0_1_T_REF__CreateDefaultConstructorb__0
.Lexception58:
	.fnend

	.hidden	Newtonsoft_Json_Utilities_ExpressionReflectionDelegateFactory__c__DisplayClass7_0_1_T_REF__CreateDefaultConstructorb__1
	.globl	Newtonsoft_Json_Utilities_ExpressionReflectionDelegateFactory__c__DisplayClass7_0_1_T_REF__CreateDefaultConstructorb__1
	.p2align	2
	.type	Newtonsoft_Json_Utilities_ExpressionReflectionDelegateFactory__c__DisplayClass7_0_1_T_REF__CreateDefaultConstructorb__1,%function
	.code	32
Newtonsoft_Json_Utilities_ExpressionReflectionDelegateFactory__c__DisplayClass7_0_1_T_REF__CreateDefaultConstructorb__1:
.Lfunc_begin64:
	.fnstart
	.save	{r4, lr}
	push	{r4, lr}
.Ltmp714:
.Ltmp715:
.Ltmp716:
	.pad	#8
	sub	sp, sp, #8
.Ltmp717:
	ldr	r1, .LCPI64_1
.LPC64_1:
	add	r1, pc, r1
	ldr	r1, [r1, #28]
	str	r0, [sp]
	str	r0, [sp, #4]
	ldr	r4, [sp, #4]
	ldr	r0, [r1]
	cmp	r0, #0
	blne	mono_aot_Newtonsoft_Json_icall_cold_wrapper_265
	cmp	r4, #0
	beq	.LBB64_2
	ldr	r0, [r4, #8]
	bl	p_155_plt_System_Activator_CreateInstance_System_Type_llvm
	mov	r4, r0
	ldr	r0, [sp, #4]
	ldr	r0, [r0]
	bl	p_156_plt__rgctx_fetch_87_llvm
	mov	r2, r0
	mov	r0, r4
	ldr	r1, [r2, #4]
	bl	p_10_plt_wrapper_castclass_object___castclass_with_cache_object_intptr_intptr_llvm
	add	sp, sp, #8
	pop	{r4, pc}
.Ltmp718:
.LBB64_2:
	ldr	r0, .LCPI64_0
.LPC64_0:
	add	r1, pc, r0
	mov	r0, #225
	bl	p_23_plt__jit_icall_llvm_throw_corlib_exception_abs_trampoline_llvm
	.p2align	2
.LCPI64_0:
	.long	.Ltmp718-(.LPC64_0+8)
.LCPI64_1:
	.long	mono_aot_Newtonsoft_Json_llvm_got-(.LPC64_1+8)
.Lfunc_end64:
	.size	Newtonsoft_Json_Utilities_ExpressionReflectionDelegateFactory__c__DisplayClass7_0_1_T_REF__CreateDefaultConstructorb__1, .Lfunc_end64-Newtonsoft_Json_Utilities_ExpressionReflectionDelegateFactory__c__DisplayClass7_0_1_T_REF__CreateDefaultConstructorb__1
.Lexception59:
	.fnend

	.hidden	Newtonsoft_Json_Utilities_DictionaryWrapper_2_TKey_REF_TValue_REF__ctor_System_Collections_IDictionary
	.globl	Newtonsoft_Json_Utilities_DictionaryWrapper_2_TKey_REF_TValue_REF__ctor_System_Collections_IDictionary
	.p2align	2
	.type	Newtonsoft_Json_Utilities_DictionaryWrapper_2_TKey_REF_TValue_REF__ctor_System_Collections_IDictionary,%function
	.code	32
Newtonsoft_Json_Utilities_DictionaryWrapper_2_TKey_REF_TValue_REF__ctor_System_Collections_IDictionary:
.Lfunc_begin65:
	.fnstart
	.save	{r4, r5, r6, r7, r11, lr}
	push	{r4, r5, r6, r7, r11, lr}
.Ltmp719:
.Ltmp720:
.Ltmp721:
.Ltmp722:
.Ltmp723:
.Ltmp724:
.Ltmp725:
	.pad	#8
	sub	sp, sp, #8
.Ltmp726:
	mov	r5, r0
	ldr	r0, .LCPI65_1
	ldr	r6, .LCPI65_2
	mov	r4, r1
.LPC65_1:
	add	r0, pc, r0
.LPC65_2:
	add	r6, pc, r6
	ldrb	r7, [r0, #883]
	ldr	r0, [r6, #28]
	str	r5, [sp]
	str	r5, [sp, #4]
	ldr	r0, [r0]
	cmp	r0, #0
	blne	mono_aot_Newtonsoft_Json_icall_cold_wrapper_265
	cmp	r7, #0
	beq	.LBB65_3
.LBB65_1:
	ldr	r1, [r6, #276]
	mov	r0, r4
	bl	p_84_plt_Newtonsoft_Json_Utilities_ValidationUtils_ArgumentNotNull_object_string_llvm
	ldr	r0, [sp, #4]
	cmp	r0, #0
	beq	.LBB65_4
	ldr	r1, [r6, #8]
	dmb	ish
	str	r4, [r0, #8]!
	mov	r2, #1
	strb	r2, [r1, r0, lsr #9]
	add	sp, sp, #8
	pop	{r4, r5, r6, r7, r11, pc}
.LBB65_3:
	movw	r0, #883
	mov	r1, r5
	bl	mono_aot_Newtonsoft_Json_init_method_gshared_this
	b	.LBB65_1
.Ltmp727:
.LBB65_4:
	ldr	r0, .LCPI65_0
.LPC65_0:
	add	r1, pc, r0
	mov	r0, #225
	bl	p_23_plt__jit_icall_llvm_throw_corlib_exception_abs_trampoline_llvm
	.p2align	2
.LCPI65_0:
	.long	.Ltmp727-(.LPC65_0+8)
.LCPI65_1:
	.long	mono_inited-(.LPC65_1+8)
.LCPI65_2:
	.long	mono_aot_Newtonsoft_Json_llvm_got-(.LPC65_2+8)
.Lfunc_end65:
	.size	Newtonsoft_Json_Utilities_DictionaryWrapper_2_TKey_REF_TValue_REF__ctor_System_Collections_IDictionary, .Lfunc_end65-Newtonsoft_Json_Utilities_DictionaryWrapper_2_TKey_REF_TValue_REF__ctor_System_Collections_IDictionary
.Lexception60:
	.fnend

	.hidden	Newtonsoft_Json_Utilities_DictionaryWrapper_2_TKey_REF_TValue_REF__ctor_System_Collections_Generic_IDictionary_2_TKey_REF_TValue_REF
	.globl	Newtonsoft_Json_Utilities_DictionaryWrapper_2_TKey_REF_TValue_REF__ctor_System_Collections_Generic_IDictionary_2_TKey_REF_TValue_REF
	.p2align	2
	.type	Newtonsoft_Json_Utilities_DictionaryWrapper_2_TKey_REF_TValue_REF__ctor_System_Collections_Generic_IDictionary_2_TKey_REF_TValue_REF,%function
	.code	32
Newtonsoft_Json_Utilities_DictionaryWrapper_2_TKey_REF_TValue_REF__ctor_System_Collections_Generic_IDictionary_2_TKey_REF_TValue_REF:
.Lfunc_begin66:
	.fnstart
	.save	{r4, r5, r6, r7, r11, lr}
	push	{r4, r5, r6, r7, r11, lr}
.Ltmp728:
.Ltmp729:
.Ltmp730:
.Ltmp731:
.Ltmp732:
.Ltmp733:
.Ltmp734:
	.pad	#8
	sub	sp, sp, #8
.Ltmp735:
	mov	r5, r0
	ldr	r0, .LCPI66_1
	ldr	r6, .LCPI66_2
	mov	r4, r1
.LPC66_1:
	add	r0, pc, r0
.LPC66_2:
	add	r6, pc, r6
	ldrb	r7, [r0, #884]
	ldr	r0, [r6, #28]
	str	r5, [sp]
	str	r5, [sp, #4]
	ldr	r0, [r0]
	cmp	r0, #0
	blne	mono_aot_Newtonsoft_Json_icall_cold_wrapper_265
	cmp	r7, #0
	beq	.LBB66_3
.LBB66_1:
	ldr	r1, [r6, #276]
	mov	r0, r4
	bl	p_84_plt_Newtonsoft_Json_Utilities_ValidationUtils_ArgumentNotNull_object_string_llvm
	ldr	r0, [sp, #4]
	cmp	r0, #0
	beq	.LBB66_4
	ldr	r1, [r6, #8]
	dmb	ish
	str	r4, [r0, #12]!
	mov	r2, #1
	strb	r2, [r1, r0, lsr #9]
	add	sp, sp, #8
	pop	{r4, r5, r6, r7, r11, pc}
.LBB66_3:
	mov	r0, #884
	mov	r1, r5
	bl	mono_aot_Newtonsoft_Json_init_method_gshared_this
	b	.LBB66_1
.Ltmp736:
.LBB66_4:
	ldr	r0, .LCPI66_0
.LPC66_0:
	add	r1, pc, r0
	mov	r0, #225
	bl	p_23_plt__jit_icall_llvm_throw_corlib_exception_abs_trampoline_llvm
	.p2align	2
.LCPI66_0:
	.long	.Ltmp736-(.LPC66_0+8)
.LCPI66_1:
	.long	mono_inited-(.LPC66_1+8)
.LCPI66_2:
	.long	mono_aot_Newtonsoft_Json_llvm_got-(.LPC66_2+8)
.Lfunc_end66:
	.size	Newtonsoft_Json_Utilities_DictionaryWrapper_2_TKey_REF_TValue_REF__ctor_System_Collections_Generic_IDictionary_2_TKey_REF_TValue_REF, .Lfunc_end66-Newtonsoft_Json_Utilities_DictionaryWrapper_2_TKey_REF_TValue_REF__ctor_System_Collections_Generic_IDictionary_2_TKey_REF_TValue_REF
.Lexception61:
	.fnend

	.hidden	Newtonsoft_Json_Utilities_DictionaryWrapper_2_TKey_REF_TValue_REF__ctor_System_Collections_Generic_IReadOnlyDictionary_2_TKey_REF_TValue_REF
	.globl	Newtonsoft_Json_Utilities_DictionaryWrapper_2_TKey_REF_TValue_REF__ctor_System_Collections_Generic_IReadOnlyDictionary_2_TKey_REF_TValue_REF
	.p2align	2
	.type	Newtonsoft_Json_Utilities_DictionaryWrapper_2_TKey_REF_TValue_REF__ctor_System_Collections_Generic_IReadOnlyDictionary_2_TKey_REF_TValue_REF,%function
	.code	32
Newtonsoft_Json_Utilities_DictionaryWrapper_2_TKey_REF_TValue_REF__ctor_System_Collections_Generic_IReadOnlyDictionary_2_TKey_REF_TValue_REF:
.Lfunc_begin67:
	.fnstart
	.save	{r4, r5, r6, r7, r11, lr}
	push	{r4, r5, r6, r7, r11, lr}
.Ltmp737:
.Ltmp738:
.Ltmp739:
.Ltmp740:
.Ltmp741:
.Ltmp742:
.Ltmp743:
	.pad	#8
	sub	sp, sp, #8
.Ltmp744:
	mov	r5, r0
	ldr	r0, .LCPI67_1
	ldr	r6, .LCPI67_2
	mov	r4, r1
.LPC67_1:
	add	r0, pc, r0
.LPC67_2:
	add	r6, pc, r6
	ldrb	r7, [r0, #885]
	ldr	r0, [r6, #28]
	str	r5, [sp]
	str	r5, [sp, #4]
	ldr	r0, [r0]
	cmp	r0, #0
	blne	mono_aot_Newtonsoft_Json_icall_cold_wrapper_265
	cmp	r7, #0
	beq	.LBB67_3
.LBB67_1:
	ldr	r1, [r6, #276]
	mov	r0, r4
	bl	p_84_plt_Newtonsoft_Json_Utilities_ValidationUtils_ArgumentNotNull_object_string_llvm
	ldr	r0, [sp, #4]
	cmp	r0, #0
	beq	.LBB67_4
	ldr	r1, [r6, #8]
	dmb	ish
	str	r4, [r0, #16]!
	mov	r2, #1
	strb	r2, [r1, r0, lsr #9]
	add	sp, sp, #8
	pop	{r4, r5, r6, r7, r11, pc}
.LBB67_3:
	movw	r0, #885
	mov	r1, r5
	bl	mono_aot_Newtonsoft_Json_init_method_gshared_this
	b	.LBB67_1
.Ltmp745:
.LBB67_4:
	ldr	r0, .LCPI67_0
.LPC67_0:
	add	r1, pc, r0
	mov	r0, #225
	bl	p_23_plt__jit_icall_llvm_throw_corlib_exception_abs_trampoline_llvm
	.p2align	2
.LCPI67_0:
	.long	.Ltmp745-(.LPC67_0+8)
.LCPI67_1:
	.long	mono_inited-(.LPC67_1+8)
.LCPI67_2:
	.long	mono_aot_Newtonsoft_Json_llvm_got-(.LPC67_2+8)
.Lfunc_end67:
	.size	Newtonsoft_Json_Utilities_DictionaryWrapper_2_TKey_REF_TValue_REF__ctor_System_Collections_Generic_IReadOnlyDictionary_2_TKey_REF_TValue_REF, .Lfunc_end67-Newtonsoft_Json_Utilities_DictionaryWrapper_2_TKey_REF_TValue_REF__ctor_System_Collections_Generic_IReadOnlyDictionary_2_TKey_REF_TValue_REF
.Lexception62:
	.fnend

	.hidden	Newtonsoft_Json_Utilities_DictionaryWrapper_2_TKey_REF_TValue_REF_Add_TKey_REF_TValue_REF
	.globl	Newtonsoft_Json_Utilities_DictionaryWrapper_2_TKey_REF_TValue_REF_Add_TKey_REF_TValue_REF
	.p2align	2
	.type	Newtonsoft_Json_Utilities_DictionaryWrapper_2_TKey_REF_TValue_REF_Add_TKey_REF_TValue_REF,%function
	.code	32
Newtonsoft_Json_Utilities_DictionaryWrapper_2_TKey_REF_TValue_REF_Add_TKey_REF_TValue_REF:
.Lfunc_begin68:
	.fnstart
	.save	{r4, r5, r6, r7, r8, r9, r11, lr}
	push	{r4, r5, r6, r7, r8, r9, r11, lr}
.Ltmp746:
.Ltmp747:
.Ltmp748:
.Ltmp749:
.Ltmp750:
.Ltmp751:
.Ltmp752:
.Ltmp753:
.Ltmp754:
	.pad	#16
	sub	sp, sp, #16
.Ltmp755:
	mov	r6, r0
	ldr	r0, .LCPI68_6
	ldr	r7, .LCPI68_7
	mov	r9, r2
.LPC68_6:
	add	r0, pc, r0
	mov	r5, r1
.LPC68_7:
	add	r7, pc, r7
	ldrb	r4, [r0, #886]
	ldr	r0, [r7, #28]
	str	r6, [sp, #8]
	str	r6, [sp, #12]
	ldr	r0, [r0]
	cmp	r0, #0
	blne	mono_aot_Newtonsoft_Json_icall_cold_wrapper_265
	cmp	r4, #0
	beq	.LBB68_12
.LBB68_1:
	ldr	r0, [sp, #12]
	cmp	r0, #0
	beq	.LBB68_13
	ldr	r1, [r0, #8]
	ldr	r0, [sp, #12]
	cmp	r1, #0
	beq	.LBB68_6
	cmp	r0, #0
	beq	.LBB68_14
	ldr	r0, [r0, #8]
	cmp	r0, #0
	beq	.LBB68_15
	ldr	r1, [r0]
	ldr	r3, [r1, #-48]
	ldr	r1, [r7, #280]
	str	r1, [sp, #4]
	b	.LBB68_11
.LBB68_6:
	cmp	r0, #0
	beq	.LBB68_16
	ldr	r0, [r0, #12]
	cmp	r0, #0
	beq	.LBB68_17
	ldr	r0, [sp, #12]
	cmp	r0, #0
	beq	.LBB68_18
	ldr	r6, [r0, #12]
	ldr	r0, [sp, #12]
	ldr	r0, [r0]
	bl	p_158_plt__rgctx_fetch_88_llvm
	cmp	r6, #0
	beq	.LBB68_19
	ldr	r1, [r6]
	ldr	r3, [r1, #-68]
	str	r0, [sp, #4]
	mov	r0, r6
.LBB68_11:
	ldr	r8, [sp, #4]
	mov	r1, r5
	mov	r2, r9
	blx	r3
	add	sp, sp, #16
	pop	{r4, r5, r6, r7, r8, r9, r11, pc}
.LBB68_12:
	movw	r0, #886
	mov	r1, r6
	bl	mono_aot_Newtonsoft_Json_init_method_gshared_this
	b	.LBB68_1
.Ltmp756:
.LBB68_13:
	ldr	r0, .LCPI68_5
.LPC68_5:
	add	r1, pc, r0
	mov	r0, #225
	bl	p_23_plt__jit_icall_llvm_throw_corlib_exception_abs_trampoline_llvm
.Ltmp757:
.LBB68_14:
	ldr	r0, .LCPI68_1
.LPC68_1:
	add	r1, pc, r0
	mov	r0, #225
	bl	p_23_plt__jit_icall_llvm_throw_corlib_exception_abs_trampoline_llvm
.Ltmp758:
.LBB68_15:
	ldr	r0, .LCPI68_0
.LPC68_0:
	add	r1, pc, r0
	mov	r0, #225
	bl	p_23_plt__jit_icall_llvm_throw_corlib_exception_abs_trampoline_llvm
.Ltmp759:
.LBB68_16:
	ldr	r0, .LCPI68_4
.LPC68_4:
	add	r1, pc, r0
	mov	r0, #225
	bl	p_23_plt__jit_icall_llvm_throw_corlib_exception_abs_trampoline_llvm
.LBB68_17:
	movw	r0, #224
	movt	r0, #512
	bl	p_157_plt__jit_icall_mono_create_corlib_exception_0_llvm
	bl	p_49_plt__jit_icall_mono_arch_throw_exception_llvm
.Ltmp760:
.LBB68_18:
	ldr	r0, .LCPI68_3
.LPC68_3:
	add	r1, pc, r0
	mov	r0, #225
	bl	p_23_plt__jit_icall_llvm_throw_corlib_exception_abs_trampoline_llvm
.Ltmp761:
.LBB68_19:
	ldr	r0, .LCPI68_2
.LPC68_2:
	add	r1, pc, r0
	mov	r0, #225
	bl	p_23_plt__jit_icall_llvm_throw_corlib_exception_abs_trampoline_llvm
	.p2align	2
.LCPI68_0:
	.long	.Ltmp758-(.LPC68_0+8)
.LCPI68_1:
	.long	.Ltmp757-(.LPC68_1+8)
.LCPI68_2:
	.long	.Ltmp761-(.LPC68_2+8)
.LCPI68_3:
	.long	.Ltmp760-(.LPC68_3+8)
.LCPI68_4:
	.long	.Ltmp759-(.LPC68_4+8)
.LCPI68_5:
	.long	.Ltmp756-(.LPC68_5+8)
.LCPI68_6:
	.long	mono_inited-(.LPC68_6+8)
.LCPI68_7:
	.long	mono_aot_Newtonsoft_Json_llvm_got-(.LPC68_7+8)
.Lfunc_end68:
	.size	Newtonsoft_Json_Utilities_DictionaryWrapper_2_TKey_REF_TValue_REF_Add_TKey_REF_TValue_REF, .Lfunc_end68-Newtonsoft_Json_Utilities_DictionaryWrapper_2_TKey_REF_TValue_REF_Add_TKey_REF_TValue_REF
.Lexception63:
	.fnend

	.hidden	Newtonsoft_Json_Utilities_DictionaryWrapper_2_TKey_REF_TValue_REF_ContainsKey_TKey_REF
	.globl	Newtonsoft_Json_Utilities_DictionaryWrapper_2_TKey_REF_TValue_REF_ContainsKey_TKey_REF
	.p2align	2
	.type	Newtonsoft_Json_Utilities_DictionaryWrapper_2_TKey_REF_TValue_REF_ContainsKey_TKey_REF,%function
	.code	32
Newtonsoft_Json_Utilities_DictionaryWrapper_2_TKey_REF_TValue_REF_ContainsKey_TKey_REF:
.Lfunc_begin69:
	.fnstart
	.save	{r4, r5, r6, r7, r8, lr}
	push	{r4, r5, r6, r7, r8, lr}
.Ltmp762:
.Ltmp763:
.Ltmp764:
.Ltmp765:
.Ltmp766:
.Ltmp767:
.Ltmp768:
	.pad	#16
	sub	sp, sp, #16
.Ltmp769:
	mov	r5, r0
	ldr	r0, .LCPI69_8
	ldr	r6, .LCPI69_9
	mov	r4, r1
.LPC69_8:
	add	r0, pc, r0
.LPC69_9:
	add	r6, pc, r6
	ldrb	r7, [r0, #887]
	ldr	r0, [r6, #28]
	str	r5, [sp, #8]
	str	r5, [sp, #12]
	ldr	r0, [r0]
	cmp	r0, #0
	blne	mono_aot_Newtonsoft_Json_icall_cold_wrapper_265
	cmp	r7, #0
	beq	.LBB69_16
.LBB69_1:
	ldr	r0, [sp, #12]
	cmp	r0, #0
	beq	.LBB69_17
	ldr	r1, [r0, #8]
	ldr	r0, [sp, #12]
	cmp	r1, #0
	beq	.LBB69_6
	cmp	r0, #0
	beq	.LBB69_18
	ldr	r0, [r0, #8]
	cmp	r0, #0
	beq	.LBB69_19
	ldr	r1, [r0]
	ldr	r2, [r1, #-8]
	ldr	r1, [r6, #284]
	str	r1, [sp, #4]
	b	.LBB69_15
.LBB69_6:
	cmp	r0, #0
	beq	.LBB69_20
	ldr	r1, [r0, #16]
	ldr	r0, [sp, #12]
	cmp	r1, #0
	beq	.LBB69_11
	cmp	r0, #0
	beq	.LBB69_21
	ldr	r5, [r0, #16]
	ldr	r0, [sp, #12]
	ldr	r0, [r0]
	bl	p_160_plt__rgctx_fetch_90_llvm
	cmp	r5, #0
	beq	.LBB69_22
	ldr	r1, [r5]
	ldr	r2, [r1, #-72]
	b	.LBB69_14
.LBB69_11:
	cmp	r0, #0
	beq	.LBB69_23
	ldr	r5, [r0, #12]
	ldr	r0, [sp, #12]
	ldr	r0, [r0]
	bl	p_159_plt__rgctx_fetch_89_llvm
	cmp	r5, #0
	beq	.LBB69_24
	ldr	r1, [r5]
	ldr	r2, [r1, #-4]
.LBB69_14:
	str	r0, [sp, #4]
	mov	r0, r5
.LBB69_15:
	ldr	r8, [sp, #4]
	mov	r1, r4
	blx	r2
	add	sp, sp, #16
	pop	{r4, r5, r6, r7, r8, pc}
.LBB69_16:
	movw	r0, #887
	mov	r1, r5
	bl	mono_aot_Newtonsoft_Json_init_method_gshared_this
	b	.LBB69_1
.Ltmp770:
.LBB69_17:
	ldr	r0, .LCPI69_7
.LPC69_7:
	add	r1, pc, r0
	mov	r0, #225
	bl	p_23_plt__jit_icall_llvm_throw_corlib_exception_abs_trampoline_llvm
.Ltmp771:
.LBB69_18:
	ldr	r0, .LCPI69_1
.LPC69_1:
	add	r1, pc, r0
	mov	r0, #225
	bl	p_23_plt__jit_icall_llvm_throw_corlib_exception_abs_trampoline_llvm
.Ltmp772:
.LBB69_19:
	ldr	r0, .LCPI69_0
.LPC69_0:
	add	r1, pc, r0
	mov	r0, #225
	bl	p_23_plt__jit_icall_llvm_throw_corlib_exception_abs_trampoline_llvm
.Ltmp773:
.LBB69_20:
	ldr	r0, .LCPI69_6
.LPC69_6:
	add	r1, pc, r0
	mov	r0, #225
	bl	p_23_plt__jit_icall_llvm_throw_corlib_exception_abs_trampoline_llvm
.Ltmp774:
.LBB69_21:
	ldr	r0, .LCPI69_3
.LPC69_3:
	add	r1, pc, r0
	mov	r0, #225
	bl	p_23_plt__jit_icall_llvm_throw_corlib_exception_abs_trampoline_llvm
.Ltmp775:
.LBB69_22:
	ldr	r0, .LCPI69_2
.LPC69_2:
	add	r1, pc, r0
	mov	r0, #225
	bl	p_23_plt__jit_icall_llvm_throw_corlib_exception_abs_trampoline_llvm
.Ltmp776:
.LBB69_23:
	ldr	r0, .LCPI69_5
.LPC69_5:
	add	r1, pc, r0
	mov	r0, #225
	bl	p_23_plt__jit_icall_llvm_throw_corlib_exception_abs_trampoline_llvm
.Ltmp777:
.LBB69_24:
	ldr	r0, .LCPI69_4
.LPC69_4:
	add	r1, pc, r0
	mov	r0, #225
	bl	p_23_plt__jit_icall_llvm_throw_corlib_exception_abs_trampoline_llvm
	.p2align	2
.LCPI69_0:
	.long	.Ltmp772-(.LPC69_0+8)
.LCPI69_1:
	.long	.Ltmp771-(.LPC69_1+8)
.LCPI69_2:
	.long	.Ltmp775-(.LPC69_2+8)
.LCPI69_3:
	.long	.Ltmp774-(.LPC69_3+8)
.LCPI69_4:
	.long	.Ltmp777-(.LPC69_4+8)
.LCPI69_5:
	.long	.Ltmp776-(.LPC69_5+8)
.LCPI69_6:
	.long	.Ltmp773-(.LPC69_6+8)
.LCPI69_7:
	.long	.Ltmp770-(.LPC69_7+8)
.LCPI69_8:
	.long	mono_inited-(.LPC69_8+8)
.LCPI69_9:
	.long	mono_aot_Newtonsoft_Json_llvm_got-(.LPC69_9+8)
.Lfunc_end69:
	.size	Newtonsoft_Json_Utilities_DictionaryWrapper_2_TKey_REF_TValue_REF_ContainsKey_TKey_REF, .Lfunc_end69-Newtonsoft_Json_Utilities_DictionaryWrapper_2_TKey_REF_TValue_REF_ContainsKey_TKey_REF
.Lexception64:
	.fnend

	.hidden	Newtonsoft_Json_Utilities_DictionaryWrapper_2_TKey_REF_TValue_REF_get_Keys
	.globl	Newtonsoft_Json_Utilities_DictionaryWrapper_2_TKey_REF_TValue_REF_get_Keys
	.p2align	2
	.type	Newtonsoft_Json_Utilities_DictionaryWrapper_2_TKey_REF_TValue_REF_get_Keys,%function
	.code	32
Newtonsoft_Json_Utilities_DictionaryWrapper_2_TKey_REF_TValue_REF_get_Keys:
.Lfunc_begin70:
	.fnstart
	.save	{r4, r5, r6, r8, r11, lr}
	push	{r4, r5, r6, r8, r11, lr}
.Ltmp778:
.Ltmp779:
.Ltmp780:
.Ltmp781:
.Ltmp782:
.Ltmp783:
.Ltmp784:
	.pad	#16
	sub	sp, sp, #16
.Ltmp785:
	mov	r4, r0
	ldr	r0, .LCPI70_8
	ldr	r5, .LCPI70_9
.LPC70_8:
	add	r0, pc, r0
.LPC70_9:
	add	r5, pc, r5
	ldrb	r6, [r0, #888]
	ldr	r0, [r5, #28]
	str	r4, [sp, #8]
	str	r4, [sp, #12]
	ldr	r0, [r0]
	cmp	r0, #0
	blne	mono_aot_Newtonsoft_Json_icall_cold_wrapper_265
	cmp	r6, #0
	beq	.LBB70_15
.LBB70_1:
	ldr	r0, [sp, #12]
	cmp	r0, #0
	beq	.LBB70_16
	ldr	r1, [r0, #8]
	ldr	r0, [sp, #12]
	cmp	r1, #0
	beq	.LBB70_6
	cmp	r0, #0
	beq	.LBB70_17
	ldr	r0, [r0, #8]
	cmp	r0, #0
	beq	.LBB70_18
	ldr	r1, [r0]
	ldr	r2, [r5, #288]
	ldr	r1, [r1, #-76]
	str	r2, [sp, #4]
	ldr	r8, [sp, #4]
	blx	r1
	mov	r4, r0
	ldr	r0, [sp, #12]
	ldr	r0, [r0]
	bl	p_165_plt__rgctx_fetch_94_llvm
	str	r0, [sp, #4]
	mov	r0, r4
	ldr	r8, [sp, #4]
	bl	p_166_plt_System_Linq_Enumerable_Cast_TKey_REF_System_Collections_IEnumerable_llvm
	b	.LBB70_11
.LBB70_6:
	cmp	r0, #0
	beq	.LBB70_19
	ldr	r1, [r0, #16]
	ldr	r0, [sp, #12]
	cmp	r1, #0
	beq	.LBB70_12
	cmp	r0, #0
	beq	.LBB70_20
	ldr	r4, [r0, #16]
	ldr	r0, [sp, #12]
	ldr	r0, [r0]
	bl	p_162_plt__rgctx_fetch_92_llvm
	cmp	r4, #0
	beq	.LBB70_21
	ldr	r1, [r4]
	ldr	r1, [r1, #-52]
	str	r0, [sp, #4]
	mov	r0, r4
	ldr	r8, [sp, #4]
	blx	r1
.LBB70_11:
	mov	r4, r0
	ldr	r0, [sp, #12]
	ldr	r0, [r0]
	bl	p_163_plt__rgctx_fetch_93_llvm
	str	r0, [sp, #4]
	mov	r0, r4
	ldr	r8, [sp, #4]
	bl	p_164_plt_System_Linq_Enumerable_ToList_TKey_REF_System_Collections_Generic_IEnumerable_1_TKey_REF_llvm
	add	sp, sp, #16
	pop	{r4, r5, r6, r8, r11, pc}
.LBB70_12:
	cmp	r0, #0
	beq	.LBB70_22
	ldr	r4, [r0, #12]
	ldr	r0, [sp, #12]
	ldr	r0, [r0]
	bl	p_161_plt__rgctx_fetch_91_llvm
	cmp	r4, #0
	beq	.LBB70_23
	ldr	r1, [r4]
	ldr	r1, [r1, #-40]
	str	r0, [sp, #4]
	mov	r0, r4
	ldr	r8, [sp, #4]
	blx	r1
	add	sp, sp, #16
	pop	{r4, r5, r6, r8, r11, pc}
.LBB70_15:
	mov	r0, #888
	mov	r1, r4
	bl	mono_aot_Newtonsoft_Json_init_method_gshared_this
	b	.LBB70_1
.Ltmp786:
.LBB70_16:
	ldr	r0, .LCPI70_7
.LPC70_7:
	add	r1, pc, r0
	mov	r0, #225
	bl	p_23_plt__jit_icall_llvm_throw_corlib_exception_abs_trampoline_llvm
.Ltmp787:
.LBB70_17:
	ldr	r0, .LCPI70_1
.LPC70_1:
	add	r1, pc, r0
	mov	r0, #225
	bl	p_23_plt__jit_icall_llvm_throw_corlib_exception_abs_trampoline_llvm
.Ltmp788:
.LBB70_18:
	ldr	r0, .LCPI70_0
.LPC70_0:
	add	r1, pc, r0
	mov	r0, #225
	bl	p_23_plt__jit_icall_llvm_throw_corlib_exception_abs_trampoline_llvm
.Ltmp789:
.LBB70_19:
	ldr	r0, .LCPI70_6
.LPC70_6:
	add	r1, pc, r0
	mov	r0, #225
	bl	p_23_plt__jit_icall_llvm_throw_corlib_exception_abs_trampoline_llvm
.Ltmp790:
.LBB70_20:
	ldr	r0, .LCPI70_3
.LPC70_3:
	add	r1, pc, r0
	mov	r0, #225
	bl	p_23_plt__jit_icall_llvm_throw_corlib_exception_abs_trampoline_llvm
.Ltmp791:
.LBB70_21:
	ldr	r0, .LCPI70_2
.LPC70_2:
	add	r1, pc, r0
	mov	r0, #225
	bl	p_23_plt__jit_icall_llvm_throw_corlib_exception_abs_trampoline_llvm
.Ltmp792:
.LBB70_22:
	ldr	r0, .LCPI70_5
.LPC70_5:
	add	r1, pc, r0
	mov	r0, #225
	bl	p_23_plt__jit_icall_llvm_throw_corlib_exception_abs_trampoline_llvm
.Ltmp793:
.LBB70_23:
	ldr	r0, .LCPI70_4
.LPC70_4:
	add	r1, pc, r0
	mov	r0, #225
	bl	p_23_plt__jit_icall_llvm_throw_corlib_exception_abs_trampoline_llvm
	.p2align	2
.LCPI70_0:
	.long	.Ltmp788-(.LPC70_0+8)
.LCPI70_1:
	.long	.Ltmp787-(.LPC70_1+8)
.LCPI70_2:
	.long	.Ltmp791-(.LPC70_2+8)
.LCPI70_3:
	.long	.Ltmp790-(.LPC70_3+8)
.LCPI70_4:
	.long	.Ltmp793-(.LPC70_4+8)
.LCPI70_5:
	.long	.Ltmp792-(.LPC70_5+8)
.LCPI70_6:
	.long	.Ltmp789-(.LPC70_6+8)
.LCPI70_7:
	.long	.Ltmp786-(.LPC70_7+8)
.LCPI70_8:
	.long	mono_inited-(.LPC70_8+8)
.LCPI70_9:
	.long	mono_aot_Newtonsoft_Json_llvm_got-(.LPC70_9+8)
.Lfunc_end70:
	.size	Newtonsoft_Json_Utilities_DictionaryWrapper_2_TKey_REF_TValue_REF_get_Keys, .Lfunc_end70-Newtonsoft_Json_Utilities_DictionaryWrapper_2_TKey_REF_TValue_REF_get_Keys
.Lexception65:
	.fnend

	.hidden	Newtonsoft_Json_Utilities_DictionaryWrapper_2_TKey_REF_TValue_REF_Remove_TKey_REF
	.globl	Newtonsoft_Json_Utilities_DictionaryWrapper_2_TKey_REF_TValue_REF_Remove_TKey_REF
	.p2align	2
	.type	Newtonsoft_Json_Utilities_DictionaryWrapper_2_TKey_REF_TValue_REF_Remove_TKey_REF,%function
	.code	32
Newtonsoft_Json_Utilities_DictionaryWrapper_2_TKey_REF_TValue_REF_Remove_TKey_REF:
.Lfunc_begin71:
	.fnstart
	.save	{r4, r5, r6, r7, r8, lr}
	push	{r4, r5, r6, r7, r8, lr}
.Ltmp794:
.Ltmp795:
.Ltmp796:
.Ltmp797:
.Ltmp798:
.Ltmp799:
.Ltmp800:
	.pad	#16
	sub	sp, sp, #16
.Ltmp801:
	mov	r5, r0
	ldr	r0, .LCPI71_8
	ldr	r6, .LCPI71_9
	mov	r4, r1
.LPC71_8:
	add	r0, pc, r0
.LPC71_9:
	add	r6, pc, r6
	ldrb	r7, [r0, #889]
	ldr	r0, [r6, #28]
	str	r5, [sp, #8]
	str	r5, [sp, #12]
	ldr	r0, [r0]
	cmp	r0, #0
	blne	mono_aot_Newtonsoft_Json_icall_cold_wrapper_265
	cmp	r7, #0
	beq	.LBB71_15
.LBB71_1:
	ldr	r0, [sp, #12]
	cmp	r0, #0
	beq	.LBB71_16
	ldr	r1, [r0, #8]
	ldr	r0, [sp, #12]
	cmp	r1, #0
	beq	.LBB71_9
	cmp	r0, #0
	beq	.LBB71_17
	ldr	r0, [r0, #8]
	cmp	r0, #0
	beq	.LBB71_18
	ldr	r1, [r0]
	ldr	r2, [r1, #-8]
	ldr	r1, [r6, #284]
	str	r1, [sp, #4]
	mov	r1, r4
	ldr	r8, [sp, #4]
	blx	r2
	tst	r0, #255
	beq	.LBB71_14
	ldr	r0, [sp, #12]
	cmp	r0, #0
	beq	.LBB71_19
	ldr	r0, [r0, #8]
	cmp	r0, #0
	beq	.LBB71_20
	ldr	r1, [r0]
	ldr	r2, [r1, #-64]
	ldr	r1, [r6, #292]
	str	r1, [sp, #4]
	mov	r1, r4
	ldr	r8, [sp, #4]
	blx	r2
	mov	r0, #1
	add	sp, sp, #16
	pop	{r4, r5, r6, r7, r8, pc}
.LBB71_9:
	cmp	r0, #0
	beq	.LBB71_21
	ldr	r0, [r0, #16]
	cmp	r0, #0
	bne	.LBB71_22
	ldr	r0, [sp, #12]
	cmp	r0, #0
	beq	.LBB71_23
	ldr	r5, [r0, #12]
	ldr	r0, [sp, #12]
	ldr	r0, [r0]
	bl	p_167_plt__rgctx_fetch_95_llvm
	cmp	r5, #0
	beq	.LBB71_24
	ldr	r1, [r5]
	ldr	r2, [r1, #-4]
	mov	r1, r4
	str	r0, [sp, #4]
	mov	r0, r5
	ldr	r8, [sp, #4]
	blx	r2
	add	sp, sp, #16
	pop	{r4, r5, r6, r7, r8, pc}
.LBB71_14:
	mov	r0, #0
	add	sp, sp, #16
	pop	{r4, r5, r6, r7, r8, pc}
.LBB71_15:
	movw	r0, #889
	mov	r1, r5
	bl	mono_aot_Newtonsoft_Json_init_method_gshared_this
	b	.LBB71_1
.Ltmp802:
.LBB71_16:
	ldr	r0, .LCPI71_7
.LPC71_7:
	add	r1, pc, r0
	mov	r0, #225
	bl	p_23_plt__jit_icall_llvm_throw_corlib_exception_abs_trampoline_llvm
.Ltmp803:
.LBB71_17:
	ldr	r0, .LCPI71_3
.LPC71_3:
	add	r1, pc, r0
	mov	r0, #225
	bl	p_23_plt__jit_icall_llvm_throw_corlib_exception_abs_trampoline_llvm
.Ltmp804:
.LBB71_18:
	ldr	r0, .LCPI71_2
.LPC71_2:
	add	r1, pc, r0
	mov	r0, #225
	bl	p_23_plt__jit_icall_llvm_throw_corlib_exception_abs_trampoline_llvm
.Ltmp805:
.LBB71_19:
	ldr	r0, .LCPI71_1
.LPC71_1:
	add	r1, pc, r0
	mov	r0, #225
	bl	p_23_plt__jit_icall_llvm_throw_corlib_exception_abs_trampoline_llvm
.Ltmp806:
.LBB71_20:
	ldr	r0, .LCPI71_0
.LPC71_0:
	add	r1, pc, r0
	mov	r0, #225
	bl	p_23_plt__jit_icall_llvm_throw_corlib_exception_abs_trampoline_llvm
.Ltmp807:
.LBB71_21:
	ldr	r0, .LCPI71_6
.LPC71_6:
	add	r1, pc, r0
	mov	r0, #225
	bl	p_23_plt__jit_icall_llvm_throw_corlib_exception_abs_trampoline_llvm
.LBB71_22:
	movw	r0, #224
	movt	r0, #512
	bl	p_157_plt__jit_icall_mono_create_corlib_exception_0_llvm
	bl	p_49_plt__jit_icall_mono_arch_throw_exception_llvm
.Ltmp808:
.LBB71_23:
	ldr	r0, .LCPI71_5
.LPC71_5:
	add	r1, pc, r0
	mov	r0, #225
	bl	p_23_plt__jit_icall_llvm_throw_corlib_exception_abs_trampoline_llvm
.Ltmp809:
.LBB71_24:
	ldr	r0, .LCPI71_4
.LPC71_4:
	add	r1, pc, r0
	mov	r0, #225
	bl	p_23_plt__jit_icall_llvm_throw_corlib_exception_abs_trampoline_llvm
	.p2align	2
.LCPI71_0:
	.long	.Ltmp806-(.LPC71_0+8)
.LCPI71_1:
	.long	.Ltmp805-(.LPC71_1+8)
.LCPI71_2:
	.long	.Ltmp804-(.LPC71_2+8)
.LCPI71_3:
	.long	.Ltmp803-(.LPC71_3+8)
.LCPI71_4:
	.long	.Ltmp809-(.LPC71_4+8)
.LCPI71_5:
	.long	.Ltmp808-(.LPC71_5+8)
.LCPI71_6:
	.long	.Ltmp807-(.LPC71_6+8)
.LCPI71_7:
	.long	.Ltmp802-(.LPC71_7+8)
.LCPI71_8:
	.long	mono_inited-(.LPC71_8+8)
.LCPI71_9:
	.long	mono_aot_Newtonsoft_Json_llvm_got-(.LPC71_9+8)
.Lfunc_end71:
	.size	Newtonsoft_Json_Utilities_DictionaryWrapper_2_TKey_REF_TValue_REF_Remove_TKey_REF, .Lfunc_end71-Newtonsoft_Json_Utilities_DictionaryWrapper_2_TKey_REF_TValue_REF_Remove_TKey_REF
.Lexception66:
	.fnend

	.hidden	Newtonsoft_Json_Utilities_DictionaryWrapper_2_TKey_REF_TValue_REF_TryGetValue_TKey_REF_TValue_REF_
	.globl	Newtonsoft_Json_Utilities_DictionaryWrapper_2_TKey_REF_TValue_REF_TryGetValue_TKey_REF_TValue_REF_
	.p2align	2
	.type	Newtonsoft_Json_Utilities_DictionaryWrapper_2_TKey_REF_TValue_REF_TryGetValue_TKey_REF_TValue_REF_,%function
	.code	32
Newtonsoft_Json_Utilities_DictionaryWrapper_2_TKey_REF_TValue_REF_TryGetValue_TKey_REF_TValue_REF_:
.Lfunc_begin72:
	.fnstart
	.save	{r4, r5, r6, r7, r8, r9, r11, lr}
	push	{r4, r5, r6, r7, r8, r9, r11, lr}
.Ltmp810:
.Ltmp811:
.Ltmp812:
.Ltmp813:
.Ltmp814:
.Ltmp815:
.Ltmp816:
.Ltmp817:
.Ltmp818:
	.pad	#16
	sub	sp, sp, #16
.Ltmp819:
	mov	r6, r0
	ldr	r0, .LCPI72_8
	ldr	r9, .LCPI72_9
	mov	r4, r2
.LPC72_8:
	add	r0, pc, r0
	mov	r5, r1
.LPC72_9:
	add	r9, pc, r9
	ldrb	r7, [r0, #890]
	ldr	r0, [r9, #28]
	str	r6, [sp, #8]
	str	r6, [sp, #12]
	ldr	r0, [r0]
	cmp	r0, #0
	blne	mono_aot_Newtonsoft_Json_icall_cold_wrapper_265
	cmp	r7, #0
	beq	.LBB72_15
.LBB72_1:
	ldr	r0, [sp, #12]
	cmp	r0, #0
	beq	.LBB72_16
	ldr	r1, [r0, #8]
	ldr	r0, [sp, #12]
	cmp	r1, #0
	beq	.LBB72_9
	cmp	r0, #0
	beq	.LBB72_17
	ldr	r0, [r0, #8]
	cmp	r0, #0
	beq	.LBB72_18
	ldr	r1, [r0]
	ldr	r2, [r1, #-8]
	ldr	r1, [r9, #284]
	str	r1, [sp, #4]
	mov	r1, r5
	ldr	r8, [sp, #4]
	blx	r2
	tst	r0, #255
	beq	.LBB72_14
	ldr	r0, [sp, #12]
	cmp	r0, #0
	beq	.LBB72_19
	ldr	r0, [r0, #8]
	cmp	r0, #0
	beq	.LBB72_20
	ldr	r1, [r0]
	ldr	r2, [r1, #-44]
	ldr	r1, [r9, #296]
	str	r1, [sp, #4]
	mov	r1, r5
	ldr	r8, [sp, #4]
	blx	r2
	mov	r5, r0
	ldr	r0, [sp, #12]
	ldr	r0, [r0]
	bl	p_169_plt__rgctx_fetch_97_llvm
	mov	r2, r0
	mov	r0, r5
	ldr	r1, [r2, #4]
	bl	p_10_plt_wrapper_castclass_object___castclass_with_cache_object_intptr_intptr_llvm
	ldr	r1, [r9, #8]
	dmb	ish
	str	r0, [r4]
	mov	r0, #1
	strb	r0, [r1, r4, lsr #9]
	add	sp, sp, #16
	pop	{r4, r5, r6, r7, r8, r9, r11, pc}
.LBB72_9:
	cmp	r0, #0
	beq	.LBB72_21
	ldr	r0, [r0, #16]
	cmp	r0, #0
	bne	.LBB72_22
	ldr	r0, [sp, #12]
	cmp	r0, #0
	beq	.LBB72_23
	ldr	r6, [r0, #12]
	ldr	r0, [sp, #12]
	ldr	r0, [r0]
	bl	p_168_plt__rgctx_fetch_96_llvm
	cmp	r6, #0
	beq	.LBB72_24
	ldr	r1, [r6]
	mov	r2, r4
	ldr	r3, [r1, #-68]
	mov	r1, r5
	str	r0, [sp, #4]
	mov	r0, r6
	ldr	r8, [sp, #4]
	blx	r3
	add	sp, sp, #16
	pop	{r4, r5, r6, r7, r8, r9, r11, pc}
.LBB72_14:
	mov	r0, #0
	str	r0, [r4]
	add	sp, sp, #16
	pop	{r4, r5, r6, r7, r8, r9, r11, pc}
.LBB72_15:
	movw	r0, #890
	mov	r1, r6
	bl	mono_aot_Newtonsoft_Json_init_method_gshared_this
	b	.LBB72_1
.Ltmp820:
.LBB72_16:
	ldr	r0, .LCPI72_7
.LPC72_7:
	add	r1, pc, r0
	mov	r0, #225
	bl	p_23_plt__jit_icall_llvm_throw_corlib_exception_abs_trampoline_llvm
.Ltmp821:
.LBB72_17:
	ldr	r0, .LCPI72_3
.LPC72_3:
	add	r1, pc, r0
	mov	r0, #225
	bl	p_23_plt__jit_icall_llvm_throw_corlib_exception_abs_trampoline_llvm
.Ltmp822:
.LBB72_18:
	ldr	r0, .LCPI72_2
.LPC72_2:
	add	r1, pc, r0
	mov	r0, #225
	bl	p_23_plt__jit_icall_llvm_throw_corlib_exception_abs_trampoline_llvm
.Ltmp823:
.LBB72_19:
	ldr	r0, .LCPI72_1
.LPC72_1:
	add	r1, pc, r0
	mov	r0, #225
	bl	p_23_plt__jit_icall_llvm_throw_corlib_exception_abs_trampoline_llvm
.Ltmp824:
.LBB72_20:
	ldr	r0, .LCPI72_0
.LPC72_0:
	add	r1, pc, r0
	mov	r0, #225
	bl	p_23_plt__jit_icall_llvm_throw_corlib_exception_abs_trampoline_llvm
.Ltmp825:
.LBB72_21:
	ldr	r0, .LCPI72_6
.LPC72_6:
	add	r1, pc, r0
	mov	r0, #225
	bl	p_23_plt__jit_icall_llvm_throw_corlib_exception_abs_trampoline_llvm
.LBB72_22:
	movw	r0, #224
	movt	r0, #512
	bl	p_157_plt__jit_icall_mono_create_corlib_exception_0_llvm
	bl	p_49_plt__jit_icall_mono_arch_throw_exception_llvm
.Ltmp826:
.LBB72_23:
	ldr	r0, .LCPI72_5
.LPC72_5:
	add	r1, pc, r0
	mov	r0, #225
	bl	p_23_plt__jit_icall_llvm_throw_corlib_exception_abs_trampoline_llvm
.Ltmp827:
.LBB72_24:
	ldr	r0, .LCPI72_4
.LPC72_4:
	add	r1, pc, r0
	mov	r0, #225
	bl	p_23_plt__jit_icall_llvm_throw_corlib_exception_abs_trampoline_llvm
	.p2align	2
.LCPI72_0:
	.long	.Ltmp824-(.LPC72_0+8)
.LCPI72_1:
	.long	.Ltmp823-(.LPC72_1+8)
.LCPI72_2:
	.long	.Ltmp822-(.LPC72_2+8)
.LCPI72_3:
	.long	.Ltmp821-(.LPC72_3+8)
.LCPI72_4:
	.long	.Ltmp827-(.LPC72_4+8)
.LCPI72_5:
	.long	.Ltmp826-(.LPC72_5+8)
.LCPI72_6:
	.long	.Ltmp825-(.LPC72_6+8)
.LCPI72_7:
	.long	.Ltmp820-(.LPC72_7+8)
.LCPI72_8:
	.long	mono_inited-(.LPC72_8+8)
.LCPI72_9:
	.long	mono_aot_Newtonsoft_Json_llvm_got-(.LPC72_9+8)
.Lfunc_end72:
	.size	Newtonsoft_Json_Utilities_DictionaryWrapper_2_TKey_REF_TValue_REF_TryGetValue_TKey_REF_TValue_REF_, .Lfunc_end72-Newtonsoft_Json_Utilities_DictionaryWrapper_2_TKey_REF_TValue_REF_TryGetValue_TKey_REF_TValue_REF_
.Lexception67:
	.fnend

	.hidden	Newtonsoft_Json_Utilities_DictionaryWrapper_2_TKey_REF_TValue_REF_get_Values
	.globl	Newtonsoft_Json_Utilities_DictionaryWrapper_2_TKey_REF_TValue_REF_get_Values
	.p2align	2
	.type	Newtonsoft_Json_Utilities_DictionaryWrapper_2_TKey_REF_TValue_REF_get_Values,%function
	.code	32
Newtonsoft_Json_Utilities_DictionaryWrapper_2_TKey_REF_TValue_REF_get_Values:
.Lfunc_begin73:
	.fnstart
	.save	{r4, r5, r6, r8, r11, lr}
	push	{r4, r5, r6, r8, r11, lr}
.Ltmp828:
.Ltmp829:
.Ltmp830:
.Ltmp831:
.Ltmp832:
.Ltmp833:
.Ltmp834:
	.pad	#16
	sub	sp, sp, #16
.Ltmp835:
	mov	r4, r0
	ldr	r0, .LCPI73_8
	ldr	r5, .LCPI73_9
.LPC73_8:
	add	r0, pc, r0
.LPC73_9:
	add	r5, pc, r5
	ldrb	r6, [r0, #891]
	ldr	r0, [r5, #28]
	str	r4, [sp, #8]
	str	r4, [sp, #12]
	ldr	r0, [r0]
	cmp	r0, #0
	blne	mono_aot_Newtonsoft_Json_icall_cold_wrapper_265
	cmp	r6, #0
	beq	.LBB73_15
.LBB73_1:
	ldr	r0, [sp, #12]
	cmp	r0, #0
	beq	.LBB73_16
	ldr	r1, [r0, #8]
	ldr	r0, [sp, #12]
	cmp	r1, #0
	beq	.LBB73_6
	cmp	r0, #0
	beq	.LBB73_17
	ldr	r0, [r0, #8]
	cmp	r0, #0
	beq	.LBB73_18
	ldr	r1, [r0]
	ldr	r2, [r5, #300]
	ldr	r1, [r1, #-60]
	str	r2, [sp, #4]
	ldr	r8, [sp, #4]
	blx	r1
	mov	r4, r0
	ldr	r0, [sp, #12]
	ldr	r0, [r0]
	bl	p_174_plt__rgctx_fetch_101_llvm
	str	r0, [sp, #4]
	mov	r0, r4
	ldr	r8, [sp, #4]
	bl	p_175_plt_System_Linq_Enumerable_Cast_TValue_REF_System_Collections_IEnumerable_llvm
	b	.LBB73_11
.LBB73_6:
	cmp	r0, #0
	beq	.LBB73_19
	ldr	r1, [r0, #16]
	ldr	r0, [sp, #12]
	cmp	r1, #0
	beq	.LBB73_12
	cmp	r0, #0
	beq	.LBB73_20
	ldr	r4, [r0, #16]
	ldr	r0, [sp, #12]
	ldr	r0, [r0]
	bl	p_171_plt__rgctx_fetch_99_llvm
	cmp	r4, #0
	beq	.LBB73_21
	ldr	r1, [r4]
	ldr	r1, [r1, #-76]
	str	r0, [sp, #4]
	mov	r0, r4
	ldr	r8, [sp, #4]
	blx	r1
.LBB73_11:
	mov	r4, r0
	ldr	r0, [sp, #12]
	ldr	r0, [r0]
	bl	p_172_plt__rgctx_fetch_100_llvm
	str	r0, [sp, #4]
	mov	r0, r4
	ldr	r8, [sp, #4]
	bl	p_173_plt_System_Linq_Enumerable_ToList_TValue_REF_System_Collections_Generic_IEnumerable_1_TValue_REF_llvm
	add	sp, sp, #16
	pop	{r4, r5, r6, r8, r11, pc}
.LBB73_12:
	cmp	r0, #0
	beq	.LBB73_22
	ldr	r4, [r0, #12]
	ldr	r0, [sp, #12]
	ldr	r0, [r0]
	bl	p_170_plt__rgctx_fetch_98_llvm
	cmp	r4, #0
	beq	.LBB73_23
	ldr	r1, [r4]
	ldr	r1, [r1, #-24]
	str	r0, [sp, #4]
	mov	r0, r4
	ldr	r8, [sp, #4]
	blx	r1
	add	sp, sp, #16
	pop	{r4, r5, r6, r8, r11, pc}
.LBB73_15:
	movw	r0, #891
	mov	r1, r4
	bl	mono_aot_Newtonsoft_Json_init_method_gshared_this
	b	.LBB73_1
.Ltmp836:
.LBB73_16:
	ldr	r0, .LCPI73_7
.LPC73_7:
	add	r1, pc, r0
	mov	r0, #225
	bl	p_23_plt__jit_icall_llvm_throw_corlib_exception_abs_trampoline_llvm
.Ltmp837:
.LBB73_17:
	ldr	r0, .LCPI73_1
.LPC73_1:
	add	r1, pc, r0
	mov	r0, #225
	bl	p_23_plt__jit_icall_llvm_throw_corlib_exception_abs_trampoline_llvm
.Ltmp838:
.LBB73_18:
	ldr	r0, .LCPI73_0
.LPC73_0:
	add	r1, pc, r0
	mov	r0, #225
	bl	p_23_plt__jit_icall_llvm_throw_corlib_exception_abs_trampoline_llvm
.Ltmp839:
.LBB73_19:
	ldr	r0, .LCPI73_6
.LPC73_6:
	add	r1, pc, r0
	mov	r0, #225
	bl	p_23_plt__jit_icall_llvm_throw_corlib_exception_abs_trampoline_llvm
.Ltmp840:
.LBB73_20:
	ldr	r0, .LCPI73_3
.LPC73_3:
	add	r1, pc, r0
	mov	r0, #225
	bl	p_23_plt__jit_icall_llvm_throw_corlib_exception_abs_trampoline_llvm
.Ltmp841:
.LBB73_21:
	ldr	r0, .LCPI73_2
.LPC73_2:
	add	r1, pc, r0
	mov	r0, #225
	bl	p_23_plt__jit_icall_llvm_throw_corlib_exception_abs_trampoline_llvm
.Ltmp842:
.LBB73_22:
	ldr	r0, .LCPI73_5
.LPC73_5:
	add	r1, pc, r0
	mov	r0, #225
	bl	p_23_plt__jit_icall_llvm_throw_corlib_exception_abs_trampoline_llvm
.Ltmp843:
.LBB73_23:
	ldr	r0, .LCPI73_4
.LPC73_4:
	add	r1, pc, r0
	mov	r0, #225
	bl	p_23_plt__jit_icall_llvm_throw_corlib_exception_abs_trampoline_llvm
	.p2align	2
.LCPI73_0:
	.long	.Ltmp838-(.LPC73_0+8)
.LCPI73_1:
	.long	.Ltmp837-(.LPC73_1+8)
.LCPI73_2:
	.long	.Ltmp841-(.LPC73_2+8)
.LCPI73_3:
	.long	.Ltmp840-(.LPC73_3+8)
.LCPI73_4:
	.long	.Ltmp843-(.LPC73_4+8)
.LCPI73_5:
	.long	.Ltmp842-(.LPC73_5+8)
.LCPI73_6:
	.long	.Ltmp839-(.LPC73_6+8)
.LCPI73_7:
	.long	.Ltmp836-(.LPC73_7+8)
.LCPI73_8:
	.long	mono_inited-(.LPC73_8+8)
.LCPI73_9:
	.long	mono_aot_Newtonsoft_Json_llvm_got-(.LPC73_9+8)
.Lfunc_end73:
	.size	Newtonsoft_Json_Utilities_DictionaryWrapper_2_TKey_REF_TValue_REF_get_Values, .Lfunc_end73-Newtonsoft_Json_Utilities_DictionaryWrapper_2_TKey_REF_TValue_REF_get_Values
.Lexception68:
	.fnend

	.hidden	Newtonsoft_Json_Utilities_DictionaryWrapper_2_TKey_REF_TValue_REF_get_Item_TKey_REF
	.globl	Newtonsoft_Json_Utilities_DictionaryWrapper_2_TKey_REF_TValue_REF_get_Item_TKey_REF
	.p2align	2
	.type	Newtonsoft_Json_Utilities_DictionaryWrapper_2_TKey_REF_TValue_REF_get_Item_TKey_REF,%function
	.code	32
Newtonsoft_Json_Utilities_DictionaryWrapper_2_TKey_REF_TValue_REF_get_Item_TKey_REF:
.Lfunc_begin74:
	.fnstart
	.save	{r4, r5, r6, r7, r8, lr}
	push	{r4, r5, r6, r7, r8, lr}
.Ltmp844:
.Ltmp845:
.Ltmp846:
.Ltmp847:
.Ltmp848:
.Ltmp849:
.Ltmp850:
	.pad	#16
	sub	sp, sp, #16
.Ltmp851:
	mov	r5, r0
	ldr	r0, .LCPI74_8
	ldr	r6, .LCPI74_9
	mov	r4, r1
.LPC74_8:
	add	r0, pc, r0
.LPC74_9:
	add	r6, pc, r6
	ldrb	r7, [r0, #892]
	ldr	r0, [r6, #28]
	str	r5, [sp, #8]
	str	r5, [sp, #12]
	ldr	r0, [r0]
	cmp	r0, #0
	blne	mono_aot_Newtonsoft_Json_icall_cold_wrapper_265
	cmp	r7, #0
	beq	.LBB74_15
.LBB74_1:
	ldr	r0, [sp, #12]
	cmp	r0, #0
	beq	.LBB74_16
	ldr	r1, [r0, #8]
	ldr	r0, [sp, #12]
	cmp	r1, #0
	beq	.LBB74_6
	cmp	r0, #0
	beq	.LBB74_17
	ldr	r0, [r0, #8]
	cmp	r0, #0
	beq	.LBB74_18
	ldr	r1, [r0]
	ldr	r2, [r1, #-44]
	ldr	r1, [r6, #296]
	str	r1, [sp, #4]
	mov	r1, r4
	ldr	r8, [sp, #4]
	blx	r2
	mov	r4, r0
	ldr	r0, [sp, #12]
	ldr	r0, [r0]
	bl	p_169_plt__rgctx_fetch_97_llvm
	mov	r2, r0
	mov	r0, r4
	ldr	r1, [r2, #4]
	bl	p_10_plt_wrapper_castclass_object___castclass_with_cache_object_intptr_intptr_llvm
	add	sp, sp, #16
	pop	{r4, r5, r6, r7, r8, pc}
.LBB74_6:
	cmp	r0, #0
	beq	.LBB74_19
	ldr	r1, [r0, #16]
	ldr	r0, [sp, #12]
	cmp	r1, #0
	beq	.LBB74_11
	cmp	r0, #0
	beq	.LBB74_20
	ldr	r5, [r0, #16]
	ldr	r0, [sp, #12]
	ldr	r0, [r0]
	bl	p_177_plt__rgctx_fetch_103_llvm
	cmp	r5, #0
	beq	.LBB74_21
	ldr	r1, [r5]
	ldr	r2, [r1, #-60]
	b	.LBB74_14
.LBB74_11:
	cmp	r0, #0
	beq	.LBB74_22
	ldr	r5, [r0, #12]
	ldr	r0, [sp, #12]
	ldr	r0, [r0]
	bl	p_176_plt__rgctx_fetch_102_llvm
	cmp	r5, #0
	beq	.LBB74_23
	ldr	r1, [r5]
	ldr	r2, [r1, #-12]
.LBB74_14:
	str	r0, [sp, #4]
	mov	r0, r5
	ldr	r8, [sp, #4]
	mov	r1, r4
	blx	r2
	add	sp, sp, #16
	pop	{r4, r5, r6, r7, r8, pc}
.LBB74_15:
	mov	r0, #892
	mov	r1, r5
	bl	mono_aot_Newtonsoft_Json_init_method_gshared_this
	b	.LBB74_1
.Ltmp852:
.LBB74_16:
	ldr	r0, .LCPI74_7
.LPC74_7:
	add	r1, pc, r0
	mov	r0, #225
	bl	p_23_plt__jit_icall_llvm_throw_corlib_exception_abs_trampoline_llvm
.Ltmp853:
.LBB74_17:
	ldr	r0, .LCPI74_1
.LPC74_1:
	add	r1, pc, r0
	mov	r0, #225
	bl	p_23_plt__jit_icall_llvm_throw_corlib_exception_abs_trampoline_llvm
.Ltmp854:
.LBB74_18:
	ldr	r0, .LCPI74_0
.LPC74_0:
	add	r1, pc, r0
	mov	r0, #225
	bl	p_23_plt__jit_icall_llvm_throw_corlib_exception_abs_trampoline_llvm
.Ltmp855:
.LBB74_19:
	ldr	r0, .LCPI74_6
.LPC74_6:
	add	r1, pc, r0
	mov	r0, #225
	bl	p_23_plt__jit_icall_llvm_throw_corlib_exception_abs_trampoline_llvm
.Ltmp856:
.LBB74_20:
	ldr	r0, .LCPI74_3
.LPC74_3:
	add	r1, pc, r0
	mov	r0, #225
	bl	p_23_plt__jit_icall_llvm_throw_corlib_exception_abs_trampoline_llvm
.Ltmp857:
.LBB74_21:
	ldr	r0, .LCPI74_2
.LPC74_2:
	add	r1, pc, r0
	mov	r0, #225
	bl	p_23_plt__jit_icall_llvm_throw_corlib_exception_abs_trampoline_llvm
.Ltmp858:
.LBB74_22:
	ldr	r0, .LCPI74_5
.LPC74_5:
	add	r1, pc, r0
	mov	r0, #225
	bl	p_23_plt__jit_icall_llvm_throw_corlib_exception_abs_trampoline_llvm
.Ltmp859:
.LBB74_23:
	ldr	r0, .LCPI74_4
.LPC74_4:
	add	r1, pc, r0
	mov	r0, #225
	bl	p_23_plt__jit_icall_llvm_throw_corlib_exception_abs_trampoline_llvm
	.p2align	2
.LCPI74_0:
	.long	.Ltmp854-(.LPC74_0+8)
.LCPI74_1:
	.long	.Ltmp853-(.LPC74_1+8)
.LCPI74_2:
	.long	.Ltmp857-(.LPC74_2+8)
.LCPI74_3:
	.long	.Ltmp856-(.LPC74_3+8)
.LCPI74_4:
	.long	.Ltmp859-(.LPC74_4+8)
.LCPI74_5:
	.long	.Ltmp858-(.LPC74_5+8)
.LCPI74_6:
	.long	.Ltmp855-(.LPC74_6+8)
.LCPI74_7:
	.long	.Ltmp852-(.LPC74_7+8)
.LCPI74_8:
	.long	mono_inited-(.LPC74_8+8)
.LCPI74_9:
	.long	mono_aot_Newtonsoft_Json_llvm_got-(.LPC74_9+8)
.Lfunc_end74:
	.size	Newtonsoft_Json_Utilities_DictionaryWrapper_2_TKey_REF_TValue_REF_get_Item_TKey_REF, .Lfunc_end74-Newtonsoft_Json_Utilities_DictionaryWrapper_2_TKey_REF_TValue_REF_get_Item_TKey_REF
.Lexception69:
	.fnend

	.hidden	Newtonsoft_Json_Utilities_DictionaryWrapper_2_TKey_REF_TValue_REF_set_Item_TKey_REF_TValue_REF
	.globl	Newtonsoft_Json_Utilities_DictionaryWrapper_2_TKey_REF_TValue_REF_set_Item_TKey_REF_TValue_REF
	.p2align	2
	.type	Newtonsoft_Json_Utilities_DictionaryWrapper_2_TKey_REF_TValue_REF_set_Item_TKey_REF_TValue_REF,%function
	.code	32
Newtonsoft_Json_Utilities_DictionaryWrapper_2_TKey_REF_TValue_REF_set_Item_TKey_REF_TValue_REF:
.Lfunc_begin75:
	.fnstart
	.save	{r4, r5, r6, r7, r8, r9, r11, lr}
	push	{r4, r5, r6, r7, r8, r9, r11, lr}
.Ltmp860:
.Ltmp861:
.Ltmp862:
.Ltmp863:
.Ltmp864:
.Ltmp865:
.Ltmp866:
.Ltmp867:
.Ltmp868:
	.pad	#16
	sub	sp, sp, #16
.Ltmp869:
	mov	r6, r0
	ldr	r0, .LCPI75_6
	ldr	r7, .LCPI75_7
	mov	r9, r2
.LPC75_6:
	add	r0, pc, r0
	mov	r5, r1
.LPC75_7:
	add	r7, pc, r7
	ldrb	r4, [r0, #893]
	ldr	r0, [r7, #28]
	str	r6, [sp, #8]
	str	r6, [sp, #12]
	ldr	r0, [r0]
	cmp	r0, #0
	blne	mono_aot_Newtonsoft_Json_icall_cold_wrapper_265
	cmp	r4, #0
	beq	.LBB75_12
.LBB75_1:
	ldr	r0, [sp, #12]
	cmp	r0, #0
	beq	.LBB75_13
	ldr	r1, [r0, #8]
	ldr	r0, [sp, #12]
	cmp	r1, #0
	beq	.LBB75_6
	cmp	r0, #0
	beq	.LBB75_14
	ldr	r0, [r0, #8]
	cmp	r0, #0
	beq	.LBB75_15
	ldr	r1, [r0]
	ldr	r3, [r1, #-4]
	ldr	r1, [r7, #304]
	str	r1, [sp, #4]
	b	.LBB75_11
.LBB75_6:
	cmp	r0, #0
	beq	.LBB75_16
	ldr	r0, [r0, #16]
	cmp	r0, #0
	bne	.LBB75_17
	ldr	r0, [sp, #12]
	cmp	r0, #0
	beq	.LBB75_18
	ldr	r6, [r0, #12]
	ldr	r0, [sp, #12]
	ldr	r0, [r0]
	bl	p_178_plt__rgctx_fetch_104_llvm
	cmp	r6, #0
	beq	.LBB75_19
	ldr	r1, [r6]
	ldr	r3, [r1, #-36]
	str	r0, [sp, #4]
	mov	r0, r6
.LBB75_11:
	ldr	r8, [sp, #4]
	mov	r1, r5
	mov	r2, r9
	blx	r3
	add	sp, sp, #16
	pop	{r4, r5, r6, r7, r8, r9, r11, pc}
.LBB75_12:
	movw	r0, #893
	mov	r1, r6
	bl	mono_aot_Newtonsoft_Json_init_method_gshared_this
	b	.LBB75_1
.Ltmp870:
.LBB75_13:
	ldr	r0, .LCPI75_5
.LPC75_5:
	add	r1, pc, r0
	mov	r0, #225
	bl	p_23_plt__jit_icall_llvm_throw_corlib_exception_abs_trampoline_llvm
.Ltmp871:
.LBB75_14:
	ldr	r0, .LCPI75_1
.LPC75_1:
	add	r1, pc, r0
	mov	r0, #225
	bl	p_23_plt__jit_icall_llvm_throw_corlib_exception_abs_trampoline_llvm
.Ltmp872:
.LBB75_15:
	ldr	r0, .LCPI75_0
.LPC75_0:
	add	r1, pc, r0
	mov	r0, #225
	bl	p_23_plt__jit_icall_llvm_throw_corlib_exception_abs_trampoline_llvm
.Ltmp873:
.LBB75_16:
	ldr	r0, .LCPI75_4
.LPC75_4:
	add	r1, pc, r0
	mov	r0, #225
	bl	p_23_plt__jit_icall_llvm_throw_corlib_exception_abs_trampoline_llvm
.LBB75_17:
	movw	r0, #224
	movt	r0, #512
	bl	p_157_plt__jit_icall_mono_create_corlib_exception_0_llvm
	bl	p_49_plt__jit_icall_mono_arch_throw_exception_llvm
.Ltmp874:
.LBB75_18:
	ldr	r0, .LCPI75_3
.LPC75_3:
	add	r1, pc, r0
	mov	r0, #225
	bl	p_23_plt__jit_icall_llvm_throw_corlib_exception_abs_trampoline_llvm
.Ltmp875:
.LBB75_19:
	ldr	r0, .LCPI75_2
.LPC75_2:
	add	r1, pc, r0
	mov	r0, #225
	bl	p_23_plt__jit_icall_llvm_throw_corlib_exception_abs_trampoline_llvm
	.p2align	2
.LCPI75_0:
	.long	.Ltmp872-(.LPC75_0+8)
.LCPI75_1:
	.long	.Ltmp871-(.LPC75_1+8)
.LCPI75_2:
	.long	.Ltmp875-(.LPC75_2+8)
.LCPI75_3:
	.long	.Ltmp874-(.LPC75_3+8)
.LCPI75_4:
	.long	.Ltmp873-(.LPC75_4+8)
.LCPI75_5:
	.long	.Ltmp870-(.LPC75_5+8)
.LCPI75_6:
	.long	mono_inited-(.LPC75_6+8)
.LCPI75_7:
	.long	mono_aot_Newtonsoft_Json_llvm_got-(.LPC75_7+8)
.Lfunc_end75:
	.size	Newtonsoft_Json_Utilities_DictionaryWrapper_2_TKey_REF_TValue_REF_set_Item_TKey_REF_TValue_REF, .Lfunc_end75-Newtonsoft_Json_Utilities_DictionaryWrapper_2_TKey_REF_TValue_REF_set_Item_TKey_REF_TValue_REF
.Lexception70:
	.fnend

	.hidden	Newtonsoft_Json_Utilities_DictionaryWrapper_2_TKey_REF_TValue_REF_Add_System_Collections_Generic_KeyValuePair_2_TKey_REF_TValue_REF
	.globl	Newtonsoft_Json_Utilities_DictionaryWrapper_2_TKey_REF_TValue_REF_Add_System_Collections_Generic_KeyValuePair_2_TKey_REF_TValue_REF
	.p2align	2
	.type	Newtonsoft_Json_Utilities_DictionaryWrapper_2_TKey_REF_TValue_REF_Add_System_Collections_Generic_KeyValuePair_2_TKey_REF_TValue_REF,%function
	.code	32
Newtonsoft_Json_Utilities_DictionaryWrapper_2_TKey_REF_TValue_REF_Add_System_Collections_Generic_KeyValuePair_2_TKey_REF_TValue_REF:
.Lfunc_begin76:
	.fnstart
	.save	{r4, r5, r6, r7, r8, r9, r11, lr}
	push	{r4, r5, r6, r7, r8, r9, r11, lr}
.Ltmp876:
.Ltmp877:
.Ltmp878:
.Ltmp879:
.Ltmp880:
.Ltmp881:
.Ltmp882:
.Ltmp883:
.Ltmp884:
	.pad	#16
	sub	sp, sp, #16
.Ltmp885:
	ldr	r7, .LCPI76_10
	mov	r6, r0
	ldr	r0, .LCPI76_11
	mov	r5, r1
.LPC76_10:
	add	r7, pc, r7
	mov	r9, r2
.LPC76_11:
	add	r0, pc, r0
	ldr	r1, [r7, #28]
	str	r6, [sp, #8]
	str	r6, [sp, #12]
	ldrb	r4, [r0, #894]
	ldr	r0, [r1]
	cmp	r0, #0
	blne	mono_aot_Newtonsoft_Json_icall_cold_wrapper_265
	cmp	r4, #0
	beq	.LBB76_20
.LBB76_1:
	ldr	r0, [sp, #12]
	cmp	r0, #0
	beq	.LBB76_21
	ldr	r1, [r0, #8]
	ldr	r0, [sp, #12]
	cmp	r1, #0
	beq	.LBB76_13
	cmp	r0, #0
	beq	.LBB76_22
	ldr	r6, [r0, #8]
	cmp	r6, #0
	beq	.LBB76_10
	ldr	r0, [r6]
	ldr	r1, [r7, #308]
	ldr	r2, [r0, #20]
	cmp	r2, r1
	blo	.LBB76_7
	ldr	r2, [r0, #16]
	mov	r3, #1
	ldrb	r2, [r2, r1, asr #3]
	and	r1, r1, #7
	tst	r2, r3, lsl r1
	bne	.LBB76_10
.LBB76_7:
	ldr	r0, [r0]
	ldr	r1, [r7, #312]
	cmp	r0, r1
	bne	.LBB76_27
	ldr	r0, [r6, #16]
	cmp	r0, #0
	beq	.LBB76_28
	mov	r0, r6
	bl	p_181_plt_wrapper_proxy_isinst_object___proxy_isinst_wrapper_System_Collections_IList_object_llvm
	cmp	r0, #0
	beq	.LBB76_29
.LBB76_10:
	ldr	r0, [sp, #12]
	ldr	r0, [r0]
	bl	p_180_plt__rgctx_fetch_106_llvm
	mov	r1, #16
	bl	p_17_plt_wrapper_alloc_object_AllocSmall_intptr_intptr_llvm
	mov	r1, r0
	dmb	ish
	mov	r2, r1
	ldr	r0, [r7, #8]
	str	r5, [r2, #8]!
	mov	r3, #1
	cmp	r6, #0
	lsr	r2, r2, #9
	strb	r3, [r2, r0]
	mov	r2, r1
	str	r9, [r2, #12]!
	lsr	r2, r2, #9
	strb	r3, [r2, r0]
	beq	.LBB76_23
	ldr	r0, [r6]
	ldr	r2, [r0, #-32]
	ldr	r0, [r7, #140]
	str	r0, [sp, #4]
	mov	r0, r6
	ldr	r8, [sp, #4]
	blx	r2
.LBB76_12:
	add	sp, sp, #16
	pop	{r4, r5, r6, r7, r8, r9, r11, pc}
.LBB76_13:
	cmp	r0, #0
	beq	.LBB76_24
	ldr	r0, [r0, #16]
	cmp	r0, #0
	bne	.LBB76_25
	ldr	r0, [sp, #12]
	cmp	r0, #0
	beq	.LBB76_26
	ldr	r0, [r0, #12]
	cmp	r0, #0
	beq	.LBB76_12
	ldr	r0, [sp, #12]
	cmp	r0, #0
	beq	.LBB76_30
	ldr	r6, [r0, #12]
	ldr	r0, [sp, #12]
	ldr	r0, [r0]
	bl	p_179_plt__rgctx_fetch_105_llvm
	cmp	r6, #0
	beq	.LBB76_31
	ldr	r1, [r6]
	mov	r2, r9
	ldr	r3, [r1, #-20]
	mov	r1, r5
	str	r0, [sp, #4]
	mov	r0, r6
	ldr	r8, [sp, #4]
	blx	r3
	add	sp, sp, #16
	pop	{r4, r5, r6, r7, r8, r9, r11, pc}
.LBB76_20:
	movw	r0, #894
	mov	r1, r6
	bl	mono_aot_Newtonsoft_Json_init_method_gshared_this
	b	.LBB76_1
.Ltmp886:
.LBB76_21:
	ldr	r0, .LCPI76_9
.LPC76_9:
	add	r1, pc, r0
	mov	r0, #225
	bl	p_23_plt__jit_icall_llvm_throw_corlib_exception_abs_trampoline_llvm
.Ltmp887:
.LBB76_22:
	ldr	r0, .LCPI76_4
.LPC76_4:
	add	r1, pc, r0
	mov	r0, #225
	bl	p_23_plt__jit_icall_llvm_throw_corlib_exception_abs_trampoline_llvm
.Ltmp888:
.LBB76_23:
	ldr	r0, .LCPI76_3
.LPC76_3:
	add	r1, pc, r0
	mov	r0, #225
	bl	p_23_plt__jit_icall_llvm_throw_corlib_exception_abs_trampoline_llvm
.Ltmp889:
.LBB76_24:
	ldr	r0, .LCPI76_8
.LPC76_8:
	add	r1, pc, r0
	mov	r0, #225
	bl	p_23_plt__jit_icall_llvm_throw_corlib_exception_abs_trampoline_llvm
.LBB76_25:
	movw	r0, #224
	movt	r0, #512
	bl	p_157_plt__jit_icall_mono_create_corlib_exception_0_llvm
	bl	p_49_plt__jit_icall_mono_arch_throw_exception_llvm
.Ltmp890:
.LBB76_26:
	ldr	r0, .LCPI76_7
.LPC76_7:
	add	r1, pc, r0
	mov	r0, #225
	bl	p_23_plt__jit_icall_llvm_throw_corlib_exception_abs_trampoline_llvm
.Ltmp891:
.LBB76_27:
	ldr	r0, .LCPI76_0
.LPC76_0:
	add	r1, pc, r0
	mov	r0, #203
	bl	p_23_plt__jit_icall_llvm_throw_corlib_exception_abs_trampoline_llvm
.Ltmp892:
.LBB76_28:
	ldr	r0, .LCPI76_2
.LPC76_2:
	add	r1, pc, r0
	mov	r0, #203
	bl	p_23_plt__jit_icall_llvm_throw_corlib_exception_abs_trampoline_llvm
.Ltmp893:
.LBB76_29:
	ldr	r0, .LCPI76_1
.LPC76_1:
	add	r1, pc, r0
	mov	r0, #203
	bl	p_23_plt__jit_icall_llvm_throw_corlib_exception_abs_trampoline_llvm
.Ltmp894:
.LBB76_30:
	ldr	r0, .LCPI76_6
.LPC76_6:
	add	r1, pc, r0
	mov	r0, #225
	bl	p_23_plt__jit_icall_llvm_throw_corlib_exception_abs_trampoline_llvm
.Ltmp895:
.LBB76_31:
	ldr	r0, .LCPI76_5
.LPC76_5:
	add	r1, pc, r0
	mov	r0, #225
	bl	p_23_plt__jit_icall_llvm_throw_corlib_exception_abs_trampoline_llvm
	.p2align	2
.LCPI76_0:
	.long	.Ltmp891-(.LPC76_0+8)
.LCPI76_1:
	.long	.Ltmp893-(.LPC76_1+8)
.LCPI76_2:
	.long	.Ltmp892-(.LPC76_2+8)
.LCPI76_3:
	.long	.Ltmp888-(.LPC76_3+8)
.LCPI76_4:
	.long	.Ltmp887-(.LPC76_4+8)
.LCPI76_5:
	.long	.Ltmp895-(.LPC76_5+8)
.LCPI76_6:
	.long	.Ltmp894-(.LPC76_6+8)
.LCPI76_7:
	.long	.Ltmp890-(.LPC76_7+8)
.LCPI76_8:
	.long	.Ltmp889-(.LPC76_8+8)
.LCPI76_9:
	.long	.Ltmp886-(.LPC76_9+8)
.LCPI76_10:
	.long	mono_aot_Newtonsoft_Json_llvm_got-(.LPC76_10+8)
.LCPI76_11:
	.long	mono_inited-(.LPC76_11+8)
.Lfunc_end76:
	.size	Newtonsoft_Json_Utilities_DictionaryWrapper_2_TKey_REF_TValue_REF_Add_System_Collections_Generic_KeyValuePair_2_TKey_REF_TValue_REF, .Lfunc_end76-Newtonsoft_Json_Utilities_DictionaryWrapper_2_TKey_REF_TValue_REF_Add_System_Collections_Generic_KeyValuePair_2_TKey_REF_TValue_REF
.Lexception71:
	.fnend

	.hidden	Newtonsoft_Json_Utilities_DictionaryWrapper_2_TKey_REF_TValue_REF_Clear
	.globl	Newtonsoft_Json_Utilities_DictionaryWrapper_2_TKey_REF_TValue_REF_Clear
	.p2align	2
	.type	Newtonsoft_Json_Utilities_DictionaryWrapper_2_TKey_REF_TValue_REF_Clear,%function
	.code	32
Newtonsoft_Json_Utilities_DictionaryWrapper_2_TKey_REF_TValue_REF_Clear:
.Lfunc_begin77:
	.fnstart
	.save	{r4, r5, r6, r8, r11, lr}
	push	{r4, r5, r6, r8, r11, lr}
.Ltmp896:
.Ltmp897:
.Ltmp898:
.Ltmp899:
.Ltmp900:
.Ltmp901:
.Ltmp902:
	.pad	#16
	sub	sp, sp, #16
.Ltmp903:
	mov	r4, r0
	ldr	r0, .LCPI77_6
	ldr	r5, .LCPI77_7
.LPC77_6:
	add	r0, pc, r0
.LPC77_7:
	add	r5, pc, r5
	ldrb	r6, [r0, #895]
	ldr	r0, [r5, #28]
	str	r4, [sp, #8]
	str	r4, [sp, #12]
	ldr	r0, [r0]
	cmp	r0, #0
	blne	mono_aot_Newtonsoft_Json_icall_cold_wrapper_265
	cmp	r6, #0
	beq	.LBB77_12
.LBB77_1:
	ldr	r0, [sp, #12]
	cmp	r0, #0
	beq	.LBB77_13
	ldr	r1, [r0, #8]
	ldr	r0, [sp, #12]
	cmp	r1, #0
	beq	.LBB77_6
	cmp	r0, #0
	beq	.LBB77_14
	ldr	r0, [r0, #8]
	cmp	r0, #0
	beq	.LBB77_15
	ldr	r1, [r0]
	ldr	r2, [r5, #316]
	ldr	r1, [r1, #-60]
	str	r2, [sp, #4]
	b	.LBB77_11
.LBB77_6:
	cmp	r0, #0
	beq	.LBB77_16
	ldr	r0, [r0, #16]
	cmp	r0, #0
	bne	.LBB77_17
	ldr	r0, [sp, #12]
	cmp	r0, #0
	beq	.LBB77_18
	ldr	r4, [r0, #12]
	ldr	r0, [sp, #12]
	ldr	r0, [r0]
	bl	p_182_plt__rgctx_fetch_107_llvm
	cmp	r4, #0
	beq	.LBB77_19
	ldr	r1, [r4]
	ldr	r1, [r1, #-4]
	str	r0, [sp, #4]
	mov	r0, r4
.LBB77_11:
	ldr	r8, [sp, #4]
	blx	r1
	add	sp, sp, #16
	pop	{r4, r5, r6, r8, r11, pc}
.LBB77_12:
	movw	r0, #895
	mov	r1, r4
	bl	mono_aot_Newtonsoft_Json_init_method_gshared_this
	b	.LBB77_1
.Ltmp904:
.LBB77_13:
	ldr	r0, .LCPI77_5
.LPC77_5:
	add	r1, pc, r0
	mov	r0, #225
	bl	p_23_plt__jit_icall_llvm_throw_corlib_exception_abs_trampoline_llvm
.Ltmp905:
.LBB77_14:
	ldr	r0, .LCPI77_1
.LPC77_1:
	add	r1, pc, r0
	mov	r0, #225
	bl	p_23_plt__jit_icall_llvm_throw_corlib_exception_abs_trampoline_llvm
.Ltmp906:
.LBB77_15:
	ldr	r0, .LCPI77_0
.LPC77_0:
	add	r1, pc, r0
	mov	r0, #225
	bl	p_23_plt__jit_icall_llvm_throw_corlib_exception_abs_trampoline_llvm
.Ltmp907:
.LBB77_16:
	ldr	r0, .LCPI77_4
.LPC77_4:
	add	r1, pc, r0
	mov	r0, #225
	bl	p_23_plt__jit_icall_llvm_throw_corlib_exception_abs_trampoline_llvm
.LBB77_17:
	movw	r0, #224
	movt	r0, #512
	bl	p_157_plt__jit_icall_mono_create_corlib_exception_0_llvm
	bl	p_49_plt__jit_icall_mono_arch_throw_exception_llvm
.Ltmp908:
.LBB77_18:
	ldr	r0, .LCPI77_3
.LPC77_3:
	add	r1, pc, r0
	mov	r0, #225
	bl	p_23_plt__jit_icall_llvm_throw_corlib_exception_abs_trampoline_llvm
.Ltmp909:
.LBB77_19:
	ldr	r0, .LCPI77_2
.LPC77_2:
	add	r1, pc, r0
	mov	r0, #225
	bl	p_23_plt__jit_icall_llvm_throw_corlib_exception_abs_trampoline_llvm
	.p2align	2
.LCPI77_0:
	.long	.Ltmp906-(.LPC77_0+8)
.LCPI77_1:
	.long	.Ltmp905-(.LPC77_1+8)
.LCPI77_2:
	.long	.Ltmp909-(.LPC77_2+8)
.LCPI77_3:
	.long	.Ltmp908-(.LPC77_3+8)
.LCPI77_4:
	.long	.Ltmp907-(.LPC77_4+8)
.LCPI77_5:
	.long	.Ltmp904-(.LPC77_5+8)
.LCPI77_6:
	.long	mono_inited-(.LPC77_6+8)
.LCPI77_7:
	.long	mono_aot_Newtonsoft_Json_llvm_got-(.LPC77_7+8)
.Lfunc_end77:
	.size	Newtonsoft_Json_Utilities_DictionaryWrapper_2_TKey_REF_TValue_REF_Clear, .Lfunc_end77-Newtonsoft_Json_Utilities_DictionaryWrapper_2_TKey_REF_TValue_REF_Clear
.Lexception72:
	.fnend

	.hidden	Newtonsoft_Json_Utilities_DictionaryWrapper_2_TKey_REF_TValue_REF_Contains_System_Collections_Generic_KeyValuePair_2_TKey_REF_TValue_REF
	.globl	Newtonsoft_Json_Utilities_DictionaryWrapper_2_TKey_REF_TValue_REF_Contains_System_Collections_Generic_KeyValuePair_2_TKey_REF_TValue_REF
	.p2align	2
	.type	Newtonsoft_Json_Utilities_DictionaryWrapper_2_TKey_REF_TValue_REF_Contains_System_Collections_Generic_KeyValuePair_2_TKey_REF_TValue_REF,%function
	.code	32
Newtonsoft_Json_Utilities_DictionaryWrapper_2_TKey_REF_TValue_REF_Contains_System_Collections_Generic_KeyValuePair_2_TKey_REF_TValue_REF:
.Lfunc_begin78:
	.fnstart
	.save	{r4, r5, r6, r7, r8, r9, r11, lr}
	push	{r4, r5, r6, r7, r8, r9, r11, lr}
.Ltmp910:
.Ltmp911:
.Ltmp912:
.Ltmp913:
.Ltmp914:
.Ltmp915:
.Ltmp916:
.Ltmp917:
.Ltmp918:
	.pad	#16
	sub	sp, sp, #16
.Ltmp919:
	ldr	r7, .LCPI78_10
	mov	r6, r0
	ldr	r0, .LCPI78_11
	mov	r5, r1
.LPC78_10:
	add	r7, pc, r7
	mov	r9, r2
.LPC78_11:
	add	r0, pc, r0
	ldr	r1, [r7, #28]
	str	r6, [sp, #8]
	str	r6, [sp, #12]
	ldrb	r4, [r0, #896]
	ldr	r0, [r1]
	cmp	r0, #0
	blne	mono_aot_Newtonsoft_Json_icall_cold_wrapper_265
	cmp	r4, #0
	beq	.LBB78_19
.LBB78_1:
	ldr	r0, [sp, #12]
	cmp	r0, #0
	beq	.LBB78_20
	ldr	r1, [r0, #8]
	ldr	r0, [sp, #12]
	cmp	r1, #0
	beq	.LBB78_12
	cmp	r0, #0
	beq	.LBB78_21
	ldr	r6, [r0, #8]
	cmp	r6, #0
	beq	.LBB78_10
	ldr	r0, [r6]
	ldr	r1, [r7, #308]
	ldr	r2, [r0, #20]
	cmp	r2, r1
	blo	.LBB78_7
	ldr	r2, [r0, #16]
	mov	r3, #1
	ldrb	r2, [r2, r1, asr #3]
	and	r1, r1, #7
	tst	r2, r3, lsl r1
	bne	.LBB78_10
.LBB78_7:
	ldr	r0, [r0]
	ldr	r1, [r7, #312]
	cmp	r0, r1
	bne	.LBB78_24
	ldr	r0, [r6, #16]
	cmp	r0, #0
	beq	.LBB78_25
	mov	r0, r6
	bl	p_181_plt_wrapper_proxy_isinst_object___proxy_isinst_wrapper_System_Collections_IList_object_llvm
	cmp	r0, #0
	beq	.LBB78_26
.LBB78_10:
	ldr	r0, [sp, #12]
	ldr	r0, [r0]
	bl	p_180_plt__rgctx_fetch_106_llvm
	mov	r1, #16
	bl	p_17_plt_wrapper_alloc_object_AllocSmall_intptr_intptr_llvm
	mov	r1, r0
	dmb	ish
	mov	r2, r1
	ldr	r0, [r7, #8]
	str	r5, [r2, #8]!
	mov	r3, #1
	cmp	r6, #0
	lsr	r2, r2, #9
	strb	r3, [r2, r0]
	mov	r2, r1
	str	r9, [r2, #12]!
	lsr	r2, r2, #9
	strb	r3, [r2, r0]
	beq	.LBB78_22
	ldr	r0, [r6]
	ldr	r2, [r0, #-68]
	ldr	r0, [r7, #148]
	str	r0, [sp, #4]
	mov	r0, r6
	ldr	r8, [sp, #4]
	blx	r2
	add	sp, sp, #16
	pop	{r4, r5, r6, r7, r8, r9, r11, pc}
.LBB78_12:
	cmp	r0, #0
	beq	.LBB78_23
	ldr	r1, [r0, #16]
	ldr	r0, [sp, #12]
	cmp	r1, #0
	beq	.LBB78_16
	cmp	r0, #0
	beq	.LBB78_27
	ldr	r6, [r0, #16]
	ldr	r0, [sp, #12]
	ldr	r0, [r0]
	bl	p_184_plt__rgctx_fetch_109_llvm
	mov	r3, r0
	mov	r0, r6
	mov	r1, r5
	mov	r2, r9
	blx	r3
	add	sp, sp, #16
	pop	{r4, r5, r6, r7, r8, r9, r11, pc}
.LBB78_16:
	cmp	r0, #0
	beq	.LBB78_28
	ldr	r6, [r0, #12]
	ldr	r0, [sp, #12]
	ldr	r0, [r0]
	bl	p_183_plt__rgctx_fetch_108_llvm
	cmp	r6, #0
	beq	.LBB78_29
	ldr	r1, [r6]
	mov	r2, r9
	ldr	r3, [r1, #-28]
	mov	r1, r5
	str	r0, [sp, #4]
	mov	r0, r6
	ldr	r8, [sp, #4]
	blx	r3
	add	sp, sp, #16
	pop	{r4, r5, r6, r7, r8, r9, r11, pc}
.LBB78_19:
	mov	r0, #896
	mov	r1, r6
	bl	mono_aot_Newtonsoft_Json_init_method_gshared_this
	b	.LBB78_1
.Ltmp920:
.LBB78_20:
	ldr	r0, .LCPI78_9
.LPC78_9:
	add	r1, pc, r0
	mov	r0, #225
	bl	p_23_plt__jit_icall_llvm_throw_corlib_exception_abs_trampoline_llvm
.Ltmp921:
.LBB78_21:
	ldr	r0, .LCPI78_4
.LPC78_4:
	add	r1, pc, r0
	mov	r0, #225
	bl	p_23_plt__jit_icall_llvm_throw_corlib_exception_abs_trampoline_llvm
.Ltmp922:
.LBB78_22:
	ldr	r0, .LCPI78_3
.LPC78_3:
	add	r1, pc, r0
	mov	r0, #225
	bl	p_23_plt__jit_icall_llvm_throw_corlib_exception_abs_trampoline_llvm
.Ltmp923:
.LBB78_23:
	ldr	r0, .LCPI78_8
.LPC78_8:
	add	r1, pc, r0
	mov	r0, #225
	bl	p_23_plt__jit_icall_llvm_throw_corlib_exception_abs_trampoline_llvm
.Ltmp924:
.LBB78_24:
	ldr	r0, .LCPI78_0
.LPC78_0:
	add	r1, pc, r0
	mov	r0, #203
	bl	p_23_plt__jit_icall_llvm_throw_corlib_exception_abs_trampoline_llvm
.Ltmp925:
.LBB78_25:
	ldr	r0, .LCPI78_2
.LPC78_2:
	add	r1, pc, r0
	mov	r0, #203
	bl	p_23_plt__jit_icall_llvm_throw_corlib_exception_abs_trampoline_llvm
.Ltmp926:
.LBB78_26:
	ldr	r0, .LCPI78_1
.LPC78_1:
	add	r1, pc, r0
	mov	r0, #203
	bl	p_23_plt__jit_icall_llvm_throw_corlib_exception_abs_trampoline_llvm
.Ltmp927:
.LBB78_27:
	ldr	r0, .LCPI78_5
.LPC78_5:
	add	r1, pc, r0
	mov	r0, #225
	bl	p_23_plt__jit_icall_llvm_throw_corlib_exception_abs_trampoline_llvm
.Ltmp928:
.LBB78_28:
	ldr	r0, .LCPI78_7
.LPC78_7:
	add	r1, pc, r0
	mov	r0, #225
	bl	p_23_plt__jit_icall_llvm_throw_corlib_exception_abs_trampoline_llvm
.Ltmp929:
.LBB78_29:
	ldr	r0, .LCPI78_6
.LPC78_6:
	add	r1, pc, r0
	mov	r0, #225
	bl	p_23_plt__jit_icall_llvm_throw_corlib_exception_abs_trampoline_llvm
	.p2align	2
.LCPI78_0:
	.long	.Ltmp924-(.LPC78_0+8)
.LCPI78_1:
	.long	.Ltmp926-(.LPC78_1+8)
.LCPI78_2:
	.long	.Ltmp925-(.LPC78_2+8)
.LCPI78_3:
	.long	.Ltmp922-(.LPC78_3+8)
.LCPI78_4:
	.long	.Ltmp921-(.LPC78_4+8)
.LCPI78_5:
	.long	.Ltmp927-(.LPC78_5+8)
.LCPI78_6:
	.long	.Ltmp929-(.LPC78_6+8)
.LCPI78_7:
	.long	.Ltmp928-(.LPC78_7+8)
.LCPI78_8:
	.long	.Ltmp923-(.LPC78_8+8)
.LCPI78_9:
	.long	.Ltmp920-(.LPC78_9+8)
.LCPI78_10:
	.long	mono_aot_Newtonsoft_Json_llvm_got-(.LPC78_10+8)
.LCPI78_11:
	.long	mono_inited-(.LPC78_11+8)
.Lfunc_end78:
	.size	Newtonsoft_Json_Utilities_DictionaryWrapper_2_TKey_REF_TValue_REF_Contains_System_Collections_Generic_KeyValuePair_2_TKey_REF_TValue_REF, .Lfunc_end78-Newtonsoft_Json_Utilities_DictionaryWrapper_2_TKey_REF_TValue_REF_Contains_System_Collections_Generic_KeyValuePair_2_TKey_REF_TValue_REF
.Lexception73:
	.fnend

	.hidden	Newtonsoft_Json_Utilities_DictionaryWrapper_2_TKey_REF_TValue_REF_CopyTo_System_Collections_Generic_KeyValuePair_2_TKey_REF_TValue_REF___int
	.globl	Newtonsoft_Json_Utilities_DictionaryWrapper_2_TKey_REF_TValue_REF_CopyTo_System_Collections_Generic_KeyValuePair_2_TKey_REF_TValue_REF___int
	.p2align	2
	.type	Newtonsoft_Json_Utilities_DictionaryWrapper_2_TKey_REF_TValue_REF_CopyTo_System_Collections_Generic_KeyValuePair_2_TKey_REF_TValue_REF___int,%function
	.code	32
Newtonsoft_Json_Utilities_DictionaryWrapper_2_TKey_REF_TValue_REF_CopyTo_System_Collections_Generic_KeyValuePair_2_TKey_REF_TValue_REF___int:
.Lfunc_begin79:
	.fnstart
	.save	{r4, r5, r6, r7, r8, r9, r10, r11, lr}
	push	{r4, r5, r6, r7, r8, r9, r10, r11, lr}
.Ltmp958:
.Ltmp959:
.Ltmp960:
.Ltmp961:
.Ltmp962:
.Ltmp963:
.Ltmp964:
.Ltmp965:
.Ltmp966:
	.setfp	r11, sp, #28
	add	r11, sp, #28
.Ltmp967:
	.pad	#84
	sub	sp, sp, #84
	mov	r6, r0
	ldr	r0, .LCPI79_11
	ldr	r9, .LCPI79_12
	mov	r4, r2
.LPC79_11:
	add	r0, pc, r0
	mov	r7, r1
.LPC79_12:
	add	r9, pc, r9
	ldrb	r5, [r0, #897]
	ldr	r0, [r9, #28]
	str	r6, [r11, #-92]
	str	r6, [r11, #-88]
	ldr	r0, [r0]
	cmp	r0, #0
	blne	mono_aot_Newtonsoft_Json_icall_cold_wrapper_265
	cmp	r5, #0
	beq	.LBB79_28
.LBB79_1:
	mov	r0, sp
	sub	r10, r0, #8
	mov	sp, r10
	mov	r1, #0
	str	r1, [r0, #-8]
	ldr	r0, [r11, #-88]
	str	r1, [r11, #-76]
	cmp	r0, #0
	str	r1, [r11, #-80]
	str	r1, [r11, #-84]
	beq	.LBB79_35
	ldr	r1, [r0, #8]
	ldr	r0, [r11, #-88]
	cmp	r1, #0
	beq	.LBB79_22
	cmp	r0, #0
	beq	.LBB79_36
	ldr	r0, [r0, #8]
	str	r7, [r11, #-100]
	cmp	r0, #0
	beq	.LBB79_37
	ldr	r1, [r0]
	ldr	r2, [r9, #320]
	ldr	r1, [r1, #-52]
	str	r2, [r11, #-96]
	ldr	r8, [r11, #-96]
	blx	r1
	str	r0, [r11, #-84]
	ldr	r7, [r11, #-84]
	cmp	r7, #0
	beq	.LBB79_20
	ldr	r0, [r11, #-100]
	ldr	r1, [r9, #8]
	add	r0, r0, r4, lsl #3
	str	r1, [r11, #-112]
	ldr	r1, [r9, #124]
	add	r5, r0, #20
	str	r1, [r11, #-104]
	ldr	r1, [r9, #324]
	str	r1, [r11, #-108]
.LBB79_7:
	ldr	r0, [r7]
	ldr	r1, [r0, #-60]
	ldr	r0, [r11, #-104]
	str	r0, [r11, #-96]
	ldr	r8, [r11, #-96]
.Ltmp930:
	mov	r0, r7
	blx	r1
.Ltmp931:
	tst	r0, #255
	beq	.LBB79_27
	ldr	r0, [r11, #-84]
	cmp	r0, #0
	beq	.LBB79_29
	ldr	r1, [r0]
	ldr	r2, [r1, #-8]
	ldr	r1, [r11, #-108]
	str	r1, [r11, #-96]
	ldr	r8, [r11, #-96]
.Ltmp932:
	sub	r1, r11, #80
	blx	r2
.Ltmp933:
	ldr	r0, [r11, #-88]
	ldr	r6, [r11, #-80]
	ldr	r0, [r0]
.Ltmp934:
	bl	p_186_plt__rgctx_fetch_111_llvm
	mov	r2, r0
.Ltmp935:
	ldr	r1, [r2, #4]
.Ltmp936:
	mov	r0, r6
	bl	p_10_plt_wrapper_castclass_object___castclass_with_cache_object_intptr_intptr_llvm
	mov	r7, r0
.Ltmp937:
	ldr	r0, [r11, #-88]
	ldr	r6, [r11, #-76]
	ldr	r0, [r0]
.Ltmp938:
	bl	p_169_plt__rgctx_fetch_97_llvm
	mov	r2, r0
.Ltmp939:
	ldr	r1, [r2, #4]
.Ltmp940:
	mov	r0, r6
	bl	p_10_plt_wrapper_castclass_object___castclass_with_cache_object_intptr_intptr_llvm
	mov	r6, r0
.Ltmp941:
	ldr	r0, [r11, #-88]
	mov	r1, #0
	str	r1, [r11, #-60]
	str	r1, [r11, #-64]
	ldr	r0, [r0]
.Ltmp942:
	bl	p_180_plt__rgctx_fetch_106_llvm
.Ltmp943:
	str	r0, [r11, #-96]
	ldr	r8, [r11, #-96]
.Ltmp944:
	sub	r0, r11, #64
	mov	r1, r7
	mov	r2, r6
	bl	p_187_plt_System_Collections_Generic_KeyValuePair_2_TKey_REF_TValue_REF__ctor_TKey_REF_TValue_REF_llvm
.Ltmp945:
	ldr	r0, [r11, #-100]
	cmp	r0, #0
	beq	.LBB79_31
	ldr	r0, [r0, #12]
	cmp	r0, r4
	bls	.LBB79_33
	ldr	r0, [r11, #-64]
	mov	r2, r5
	ldr	r1, [r11, #-60]
	dmb	ish
	str	r0, [r2, #-4]!
	mov	r3, #1
	ldr	r0, [r11, #-112]
	strb	r3, [r0, r2, lsr #9]
	str	r1, [r5]
	strb	r3, [r0, r5, lsr #9]
	ldr	r0, [r9, #28]
	ldr	r7, [r11, #-84]
	ldr	r0, [r0]
	cmp	r0, #0
	blne	mono_aot_Newtonsoft_Json_icall_cold_wrapper_265
	add	r4, r4, #1
	add	r5, r5, #8
	cmp	r7, #0
	bne	.LBB79_7
.Ltmp968:
.LBB79_20:
	ldr	r0, .LCPI79_3
.Ltmp953:
.LPC79_3:
	add	r1, pc, r0
	mov	r0, #225
	bl	p_23_plt__jit_icall_llvm_throw_corlib_exception_abs_trampoline_llvm
.Ltmp954:
.LBB79_22:
	cmp	r0, #0
	beq	.LBB79_38
	ldr	r0, [r0, #16]
	cmp	r0, #0
	bne	.LBB79_39
	ldr	r0, [r11, #-88]
	cmp	r0, #0
	beq	.LBB79_40
	ldr	r6, [r0, #12]
	ldr	r0, [r11, #-88]
	ldr	r0, [r0]
	bl	p_185_plt__rgctx_fetch_110_llvm
	cmp	r6, #0
	beq	.LBB79_41
	ldr	r1, [r6]
	mov	r2, r4
	ldr	r3, [r1, #-32]
	mov	r1, r7
	str	r0, [r11, #-96]
	mov	r0, r6
	ldr	r8, [r11, #-96]
	blx	r3
	sub	sp, r11, #28
	pop	{r4, r5, r6, r7, r8, r9, r10, r11, pc}
.LBB79_27:
	mov	r0, #0
	str	r0, [r11, #-68]
	mov	r0, #1
	str	r0, [r10]
	b	.LBB79_43
.LBB79_28:
	movw	r0, #897
	mov	r1, r6
	bl	mono_aot_Newtonsoft_Json_init_method_gshared_this
	b	.LBB79_1
.Ltmp969:
.LBB79_29:
	ldr	r0, .LCPI79_2
.Ltmp951:
.LPC79_2:
	add	r1, pc, r0
	mov	r0, #225
	bl	p_23_plt__jit_icall_llvm_throw_corlib_exception_abs_trampoline_llvm
.Ltmp952:
.Ltmp970:
.LBB79_31:
	ldr	r0, .LCPI79_1
.Ltmp949:
.LPC79_1:
	add	r1, pc, r0
	mov	r0, #225
	bl	p_23_plt__jit_icall_llvm_throw_corlib_exception_abs_trampoline_llvm
.Ltmp950:
.Ltmp971:
.LBB79_33:
	ldr	r0, .LCPI79_0
.Ltmp947:
.LPC79_0:
	add	r1, pc, r0
	mov	r0, #198
	bl	p_23_plt__jit_icall_llvm_throw_corlib_exception_abs_trampoline_llvm
.Ltmp948:
.Ltmp972:
.LBB79_35:
	ldr	r0, .LCPI79_10
.LPC79_10:
	add	r1, pc, r0
	mov	r0, #225
	bl	p_23_plt__jit_icall_llvm_throw_corlib_exception_abs_trampoline_llvm
.Ltmp973:
.LBB79_36:
	ldr	r0, .LCPI79_6
.LPC79_6:
	add	r1, pc, r0
	mov	r0, #225
	bl	p_23_plt__jit_icall_llvm_throw_corlib_exception_abs_trampoline_llvm
.Ltmp974:
.LBB79_37:
	ldr	r0, .LCPI79_5
.LPC79_5:
	add	r1, pc, r0
	mov	r0, #225
	bl	p_23_plt__jit_icall_llvm_throw_corlib_exception_abs_trampoline_llvm
.Ltmp975:
.LBB79_38:
	ldr	r0, .LCPI79_9
.LPC79_9:
	add	r1, pc, r0
	mov	r0, #225
	bl	p_23_plt__jit_icall_llvm_throw_corlib_exception_abs_trampoline_llvm
.LBB79_39:
	movw	r0, #224
	movt	r0, #512
	bl	p_157_plt__jit_icall_mono_create_corlib_exception_0_llvm
	bl	p_49_plt__jit_icall_mono_arch_throw_exception_llvm
.Ltmp976:
.LBB79_40:
	ldr	r0, .LCPI79_8
.LPC79_8:
	add	r1, pc, r0
	mov	r0, #225
	bl	p_23_plt__jit_icall_llvm_throw_corlib_exception_abs_trampoline_llvm
.Ltmp977:
.LBB79_41:
	ldr	r0, .LCPI79_7
.LPC79_7:
	add	r1, pc, r0
	mov	r0, #225
	bl	p_23_plt__jit_icall_llvm_throw_corlib_exception_abs_trampoline_llvm
.LBB79_42:
.Ltmp946:
.LBB79_43:
	ldr	r0, [r11, #-84]
	str	r0, [r11, #-44]
	ldr	r4, [r11, #-44]
	ldr	r0, [r11, #-44]
	cmp	r0, #0
	beq	.LBB79_50
	ldr	r0, [r11, #-44]
	ldr	r0, [r0]
	str	r0, [r11, #-40]
	ldr	r1, [r11, #-40]
	ldr	r0, [r9, #328]
	ldr	r1, [r1, #20]
	cmp	r1, r0
	blo	.LBB79_46
	ldr	r1, [r11, #-40]
	mov	r2, #1
	ldr	r1, [r1, #16]
	ldrb	r1, [r1, r0, asr #3]
	and	r0, r0, #7
	tst	r1, r2, lsl r0
	bne	.LBB79_50
.LBB79_46:
	ldr	r0, [r11, #-40]
	ldr	r1, [r9, #312]
	ldr	r0, [r0]
	cmp	r0, r1
	beq	.LBB79_48
.LBB79_47:
	mov	r4, #0
	b	.LBB79_50
.LBB79_48:
	ldr	r0, [r11, #-44]
	ldr	r0, [r0, #16]
	cmp	r0, #0
	beq	.LBB79_47
	ldr	r0, [r11, #-44]
	bl	p_188_plt_wrapper_proxy_isinst_object___proxy_isinst_wrapper_System_IDisposable_object_llvm
	cmp	r0, #0
	moveq	r4, #0
.LBB79_50:
	str	r4, [r11, #-36]
	ldr	r0, [r11, #-36]
	str	r0, [r11, #-52]
	ldr	r0, [r11, #-52]
	ldr	r1, [r11, #-52]
	str	r0, [r11, #-48]
	cmp	r1, #0
	beq	.LBB79_53
	ldr	r0, [r11, #-48]
	cmp	r0, #0
	beq	.LBB79_58
	ldr	r1, [r0]
	ldr	r2, [r9, #128]
	ldr	r1, [r1, #-20]
	str	r2, [r11, #-96]
	ldr	r8, [r11, #-96]
	blx	r1
.LBB79_53:
	ldr	r0, [r10]
	mov	r1, #0
	str	r1, [r10]
	cmp	r0, #1
	bne	.LBB79_57
	ldr	r0, [r11, #-68]
	cmp	r0, #0
	beq	.LBB79_56
.Ltmp956:
	bl	p_54_plt__jit_icall_ves_icall_thread_finish_async_abort_llvm
.Ltmp957:
.LBB79_56:
	sub	sp, r11, #28
	pop	{r4, r5, r6, r7, r8, r9, r10, r11, pc}
.LBB79_57:
	bl	p_57_plt__jit_icall_llvm_resume_unwind_trampoline_llvm
.Ltmp978:
.LBB79_58:
	ldr	r0, .LCPI79_4
.LPC79_4:
	add	r1, pc, r0
	mov	r0, #225
	bl	p_23_plt__jit_icall_llvm_throw_corlib_exception_abs_trampoline_llvm
.LBB79_59:
.Ltmp955:
	b	.LBB79_43
	.p2align	2
.LCPI79_0:
	.long	.Ltmp971-(.LPC79_0+8)
.LCPI79_1:
	.long	.Ltmp970-(.LPC79_1+8)
.LCPI79_2:
	.long	.Ltmp969-(.LPC79_2+8)
.LCPI79_3:
	.long	.Ltmp968-(.LPC79_3+8)
.LCPI79_4:
	.long	.Ltmp978-(.LPC79_4+8)
.LCPI79_5:
	.long	.Ltmp974-(.LPC79_5+8)
.LCPI79_6:
	.long	.Ltmp973-(.LPC79_6+8)
.LCPI79_7:
	.long	.Ltmp977-(.LPC79_7+8)
.LCPI79_8:
	.long	.Ltmp976-(.LPC79_8+8)
.LCPI79_9:
	.long	.Ltmp975-(.LPC79_9+8)
.LCPI79_10:
	.long	.Ltmp972-(.LPC79_10+8)
.LCPI79_11:
	.long	mono_inited-(.LPC79_11+8)
.LCPI79_12:
	.long	mono_aot_Newtonsoft_Json_llvm_got-(.LPC79_12+8)
.Lfunc_end79:
	.size	Newtonsoft_Json_Utilities_DictionaryWrapper_2_TKey_REF_TValue_REF_CopyTo_System_Collections_Generic_KeyValuePair_2_TKey_REF_TValue_REF___int, .Lfunc_end79-Newtonsoft_Json_Utilities_DictionaryWrapper_2_TKey_REF_TValue_REF_CopyTo_System_Collections_Generic_KeyValuePair_2_TKey_REF_TValue_REF___int
.Lexception74:
	.fnend

	.hidden	Newtonsoft_Json_Utilities_DictionaryWrapper_2_TKey_REF_TValue_REF_get_Count
	.globl	Newtonsoft_Json_Utilities_DictionaryWrapper_2_TKey_REF_TValue_REF_get_Count
	.p2align	2
	.type	Newtonsoft_Json_Utilities_DictionaryWrapper_2_TKey_REF_TValue_REF_get_Count,%function
	.code	32
Newtonsoft_Json_Utilities_DictionaryWrapper_2_TKey_REF_TValue_REF_get_Count:
.Lfunc_begin80:
	.fnstart
	.save	{r4, r5, r6, r8, r11, lr}
	push	{r4, r5, r6, r8, r11, lr}
.Ltmp979:
.Ltmp980:
.Ltmp981:
.Ltmp982:
.Ltmp983:
.Ltmp984:
.Ltmp985:
	.pad	#16
	sub	sp, sp, #16
.Ltmp986:
	mov	r4, r0
	ldr	r0, .LCPI80_8
	ldr	r5, .LCPI80_9
.LPC80_8:
	add	r0, pc, r0
.LPC80_9:
	add	r5, pc, r5
	ldrb	r6, [r0, #898]
	ldr	r0, [r5, #28]
	str	r4, [sp, #8]
	str	r4, [sp, #12]
	ldr	r0, [r0]
	cmp	r0, #0
	blne	mono_aot_Newtonsoft_Json_icall_cold_wrapper_265
	cmp	r6, #0
	beq	.LBB80_15
.LBB80_1:
	ldr	r0, [sp, #12]
	cmp	r0, #0
	beq	.LBB80_16
	ldr	r1, [r0, #8]
	ldr	r0, [sp, #12]
	cmp	r1, #0
	beq	.LBB80_6
	cmp	r0, #0
	beq	.LBB80_17
	ldr	r0, [r0, #8]
	cmp	r0, #0
	beq	.LBB80_18
	ldr	r1, [r0]
	ldr	r2, [r5, #156]
	ldr	r1, [r1, #-28]
	str	r2, [sp, #4]
	b	.LBB80_14
.LBB80_6:
	cmp	r0, #0
	beq	.LBB80_19
	ldr	r1, [r0, #16]
	ldr	r0, [sp, #12]
	cmp	r1, #0
	beq	.LBB80_11
	cmp	r0, #0
	beq	.LBB80_20
	ldr	r4, [r0, #16]
	ldr	r0, [sp, #12]
	ldr	r0, [r0]
	bl	p_190_plt__rgctx_fetch_113_llvm
	cmp	r4, #0
	bne	.LBB80_13
.Ltmp987:
	ldr	r0, .LCPI80_2
.LPC80_2:
	add	r1, pc, r0
	mov	r0, #225
	bl	p_23_plt__jit_icall_llvm_throw_corlib_exception_abs_trampoline_llvm
.LBB80_11:
	cmp	r0, #0
	beq	.LBB80_21
	ldr	r4, [r0, #12]
	ldr	r0, [sp, #12]
	ldr	r0, [r0]
	bl	p_189_plt__rgctx_fetch_112_llvm
	cmp	r4, #0
	beq	.LBB80_22
.LBB80_13:
	ldr	r1, [r4]
	ldr	r1, [r1, #-76]
	str	r0, [sp, #4]
	mov	r0, r4
.LBB80_14:
	ldr	r8, [sp, #4]
	blx	r1
	add	sp, sp, #16
	pop	{r4, r5, r6, r8, r11, pc}
.LBB80_15:
	movw	r0, #898
	mov	r1, r4
	bl	mono_aot_Newtonsoft_Json_init_method_gshared_this
	b	.LBB80_1
.Ltmp988:
.LBB80_16:
	ldr	r0, .LCPI80_7
.LPC80_7:
	add	r1, pc, r0
	mov	r0, #225
	bl	p_23_plt__jit_icall_llvm_throw_corlib_exception_abs_trampoline_llvm
.Ltmp989:
.LBB80_17:
	ldr	r0, .LCPI80_1
.LPC80_1:
	add	r1, pc, r0
	mov	r0, #225
	bl	p_23_plt__jit_icall_llvm_throw_corlib_exception_abs_trampoline_llvm
.Ltmp990:
.LBB80_18:
	ldr	r0, .LCPI80_0
.LPC80_0:
	add	r1, pc, r0
	mov	r0, #225
	bl	p_23_plt__jit_icall_llvm_throw_corlib_exception_abs_trampoline_llvm
.Ltmp991:
.LBB80_19:
	ldr	r0, .LCPI80_6
.LPC80_6:
	add	r1, pc, r0
	mov	r0, #225
	bl	p_23_plt__jit_icall_llvm_throw_corlib_exception_abs_trampoline_llvm
.Ltmp992:
.LBB80_20:
	ldr	r0, .LCPI80_3
.LPC80_3:
	add	r1, pc, r0
	mov	r0, #225
	bl	p_23_plt__jit_icall_llvm_throw_corlib_exception_abs_trampoline_llvm
.Ltmp993:
.LBB80_21:
	ldr	r0, .LCPI80_5
.LPC80_5:
	add	r1, pc, r0
	mov	r0, #225
	bl	p_23_plt__jit_icall_llvm_throw_corlib_exception_abs_trampoline_llvm
.Ltmp994:
.LBB80_22:
	ldr	r0, .LCPI80_4
.LPC80_4:
	add	r1, pc, r0
	mov	r0, #225
	bl	p_23_plt__jit_icall_llvm_throw_corlib_exception_abs_trampoline_llvm
	.p2align	2
.LCPI80_0:
	.long	.Ltmp990-(.LPC80_0+8)
.LCPI80_1:
	.long	.Ltmp989-(.LPC80_1+8)
.LCPI80_2:
	.long	.Ltmp987-(.LPC80_2+8)
.LCPI80_3:
	.long	.Ltmp992-(.LPC80_3+8)
.LCPI80_4:
	.long	.Ltmp994-(.LPC80_4+8)
.LCPI80_5:
	.long	.Ltmp993-(.LPC80_5+8)
.LCPI80_6:
	.long	.Ltmp991-(.LPC80_6+8)
.LCPI80_7:
	.long	.Ltmp988-(.LPC80_7+8)
.LCPI80_8:
	.long	mono_inited-(.LPC80_8+8)
.LCPI80_9:
	.long	mono_aot_Newtonsoft_Json_llvm_got-(.LPC80_9+8)
.Lfunc_end80:
	.size	Newtonsoft_Json_Utilities_DictionaryWrapper_2_TKey_REF_TValue_REF_get_Count, .Lfunc_end80-Newtonsoft_Json_Utilities_DictionaryWrapper_2_TKey_REF_TValue_REF_get_Count
.Lexception75:
	.fnend

	.hidden	Newtonsoft_Json_Utilities_DictionaryWrapper_2_TKey_REF_TValue_REF_get_IsReadOnly
	.globl	Newtonsoft_Json_Utilities_DictionaryWrapper_2_TKey_REF_TValue_REF_get_IsReadOnly
	.p2align	2
	.type	Newtonsoft_Json_Utilities_DictionaryWrapper_2_TKey_REF_TValue_REF_get_IsReadOnly,%function
	.code	32
Newtonsoft_Json_Utilities_DictionaryWrapper_2_TKey_REF_TValue_REF_get_IsReadOnly:
.Lfunc_begin81:
	.fnstart
	.save	{r4, r5, r6, r8, r11, lr}
	push	{r4, r5, r6, r8, r11, lr}
.Ltmp995:
.Ltmp996:
.Ltmp997:
.Ltmp998:
.Ltmp999:
.Ltmp1000:
.Ltmp1001:
	.pad	#16
	sub	sp, sp, #16
.Ltmp1002:
	mov	r4, r0
	ldr	r0, .LCPI81_6
	ldr	r5, .LCPI81_7
.LPC81_6:
	add	r0, pc, r0
.LPC81_7:
	add	r5, pc, r5
	ldrb	r6, [r0, #899]
	ldr	r0, [r5, #28]
	str	r4, [sp, #8]
	str	r4, [sp, #12]
	ldr	r0, [r0]
	cmp	r0, #0
	blne	mono_aot_Newtonsoft_Json_icall_cold_wrapper_265
	cmp	r6, #0
	beq	.LBB81_13
.LBB81_1:
	ldr	r0, [sp, #12]
	cmp	r0, #0
	beq	.LBB81_14
	ldr	r1, [r0, #8]
	ldr	r0, [sp, #12]
	cmp	r1, #0
	beq	.LBB81_7
	cmp	r0, #0
	beq	.LBB81_15
	ldr	r0, [r0, #8]
	cmp	r0, #0
	beq	.LBB81_16
	ldr	r1, [r0]
	ldr	r2, [r5, #332]
	ldr	r1, [r1, #-48]
	str	r2, [sp, #4]
.LBB81_6:
	ldr	r8, [sp, #4]
	blx	r1
	add	sp, sp, #16
	pop	{r4, r5, r6, r8, r11, pc}
.LBB81_7:
	cmp	r0, #0
	beq	.LBB81_17
	ldr	r1, [r0, #16]
	mov	r0, #1
	cmp	r1, #0
	beq	.LBB81_10
	add	sp, sp, #16
	pop	{r4, r5, r6, r8, r11, pc}
.LBB81_10:
	ldr	r0, [sp, #12]
	cmp	r0, #0
	beq	.LBB81_18
	ldr	r4, [r0, #12]
	ldr	r0, [sp, #12]
	ldr	r0, [r0]
	bl	p_191_plt__rgctx_fetch_114_llvm
	cmp	r4, #0
	beq	.LBB81_19
	ldr	r1, [r4]
	ldr	r1, [r1, #-52]
	str	r0, [sp, #4]
	mov	r0, r4
	b	.LBB81_6
.LBB81_13:
	movw	r0, #899
	mov	r1, r4
	bl	mono_aot_Newtonsoft_Json_init_method_gshared_this
	b	.LBB81_1
.Ltmp1003:
.LBB81_14:
	ldr	r0, .LCPI81_5
.LPC81_5:
	add	r1, pc, r0
	mov	r0, #225
	bl	p_23_plt__jit_icall_llvm_throw_corlib_exception_abs_trampoline_llvm
.Ltmp1004:
.LBB81_15:
	ldr	r0, .LCPI81_1
.LPC81_1:
	add	r1, pc, r0
	mov	r0, #225
	bl	p_23_plt__jit_icall_llvm_throw_corlib_exception_abs_trampoline_llvm
.Ltmp1005:
.LBB81_16:
	ldr	r0, .LCPI81_0
.LPC81_0:
	add	r1, pc, r0
	mov	r0, #225
	bl	p_23_plt__jit_icall_llvm_throw_corlib_exception_abs_trampoline_llvm
.Ltmp1006:
.LBB81_17:
	ldr	r0, .LCPI81_4
.LPC81_4:
	add	r1, pc, r0
	mov	r0, #225
	bl	p_23_plt__jit_icall_llvm_throw_corlib_exception_abs_trampoline_llvm
.Ltmp1007:
.LBB81_18:
	ldr	r0, .LCPI81_3
.LPC81_3:
	add	r1, pc, r0
	mov	r0, #225
	bl	p_23_plt__jit_icall_llvm_throw_corlib_exception_abs_trampoline_llvm
.Ltmp1008:
.LBB81_19:
	ldr	r0, .LCPI81_2
.LPC81_2:
	add	r1, pc, r0
	mov	r0, #225
	bl	p_23_plt__jit_icall_llvm_throw_corlib_exception_abs_trampoline_llvm
	.p2align	2
.LCPI81_0:
	.long	.Ltmp1005-(.LPC81_0+8)
.LCPI81_1:
	.long	.Ltmp1004-(.LPC81_1+8)
.LCPI81_2:
	.long	.Ltmp1008-(.LPC81_2+8)
.LCPI81_3:
	.long	.Ltmp1007-(.LPC81_3+8)
.LCPI81_4:
	.long	.Ltmp1006-(.LPC81_4+8)
.LCPI81_5:
	.long	.Ltmp1003-(.LPC81_5+8)
.LCPI81_6:
	.long	mono_inited-(.LPC81_6+8)
.LCPI81_7:
	.long	mono_aot_Newtonsoft_Json_llvm_got-(.LPC81_7+8)
.Lfunc_end81:
	.size	Newtonsoft_Json_Utilities_DictionaryWrapper_2_TKey_REF_TValue_REF_get_IsReadOnly, .Lfunc_end81-Newtonsoft_Json_Utilities_DictionaryWrapper_2_TKey_REF_TValue_REF_get_IsReadOnly
.Lexception76:
	.fnend

	.hidden	Newtonsoft_Json_Utilities_DictionaryWrapper_2_TKey_REF_TValue_REF_Remove_System_Collections_Generic_KeyValuePair_2_TKey_REF_TValue_REF
	.globl	Newtonsoft_Json_Utilities_DictionaryWrapper_2_TKey_REF_TValue_REF_Remove_System_Collections_Generic_KeyValuePair_2_TKey_REF_TValue_REF
	.p2align	2
	.type	Newtonsoft_Json_Utilities_DictionaryWrapper_2_TKey_REF_TValue_REF_Remove_System_Collections_Generic_KeyValuePair_2_TKey_REF_TValue_REF,%function
	.code	32
Newtonsoft_Json_Utilities_DictionaryWrapper_2_TKey_REF_TValue_REF_Remove_System_Collections_Generic_KeyValuePair_2_TKey_REF_TValue_REF:
.Lfunc_begin82:
	.fnstart
	.save	{r4, r5, r6, r7, r8, r9, r11, lr}
	push	{r4, r5, r6, r7, r8, r9, r11, lr}
.Ltmp1009:
.Ltmp1010:
.Ltmp1011:
.Ltmp1012:
.Ltmp1013:
.Ltmp1014:
.Ltmp1015:
.Ltmp1016:
.Ltmp1017:
	.pad	#16
	sub	sp, sp, #16
.Ltmp1018:
	ldr	r9, .LCPI82_10
	mov	r6, r0
	ldr	r0, .LCPI82_11
	mov	r4, r1
.LPC82_10:
	add	r9, pc, r9
	mov	r5, r2
.LPC82_11:
	add	r0, pc, r0
	ldr	r1, [r9, #28]
	str	r6, [sp, #8]
	str	r6, [sp, #12]
	ldrb	r7, [r0, #900]
	ldr	r0, [r1]
	cmp	r0, #0
	blne	mono_aot_Newtonsoft_Json_icall_cold_wrapper_265
	cmp	r7, #0
	beq	.LBB82_19
.LBB82_1:
	ldr	r0, [sp, #12]
	cmp	r0, #0
	beq	.LBB82_20
	ldr	r1, [r0, #8]
	ldr	r0, [sp, #12]
	cmp	r1, #0
	beq	.LBB82_12
	cmp	r0, #0
	beq	.LBB82_21
	ldr	r6, [r0, #8]
	ldr	r0, [sp, #12]
	ldr	r0, [r0]
	bl	p_180_plt__rgctx_fetch_106_llvm
	cmp	r6, #0
	beq	.LBB82_22
	ldr	r0, [r6]
	mov	r1, r4
	ldr	r2, [r0, #-8]
	ldr	r0, [r9, #284]
	str	r0, [sp, #4]
	mov	r0, r6
	ldr	r8, [sp, #4]
	blx	r2
	mov	r6, #1
	tst	r0, #255
	beq	.LBB82_18
	ldr	r0, [sp, #12]
	cmp	r0, #0
	beq	.LBB82_23
	ldr	r7, [r0, #8]
	ldr	r0, [sp, #12]
	ldr	r0, [r0]
	bl	p_180_plt__rgctx_fetch_106_llvm
	cmp	r7, #0
	beq	.LBB82_24
	ldr	r0, [r7]
	mov	r1, r4
	ldr	r2, [r0, #-44]
	ldr	r0, [r9, #296]
	str	r0, [sp, #4]
	mov	r0, r7
	ldr	r8, [sp, #4]
	blx	r2
	mov	r7, r0
	ldr	r0, [sp, #12]
	ldr	r0, [r0]
	bl	p_180_plt__rgctx_fetch_106_llvm
	mov	r0, r7
	mov	r1, r5
	bl	p_193_plt_object_Equals_object_object_llvm
	tst	r0, #255
	beq	.LBB82_17
	ldr	r0, [sp, #12]
	cmp	r0, #0
	beq	.LBB82_29
	ldr	r5, [r0, #8]
	ldr	r0, [sp, #12]
	ldr	r0, [r0]
	bl	p_180_plt__rgctx_fetch_106_llvm
	cmp	r5, #0
	beq	.LBB82_30
	ldr	r0, [r5]
	mov	r1, r4
	ldr	r2, [r0, #-64]
	ldr	r0, [r9, #292]
	str	r0, [sp, #4]
	mov	r0, r5
	ldr	r8, [sp, #4]
	blx	r2
	b	.LBB82_18
.LBB82_12:
	cmp	r0, #0
	beq	.LBB82_25
	ldr	r0, [r0, #16]
	cmp	r0, #0
	bne	.LBB82_26
	ldr	r0, [sp, #12]
	cmp	r0, #0
	beq	.LBB82_27
	ldr	r6, [r0, #12]
	ldr	r0, [sp, #12]
	ldr	r0, [r0]
	bl	p_192_plt__rgctx_fetch_115_llvm
	cmp	r6, #0
	beq	.LBB82_28
	ldr	r1, [r6]
	mov	r2, r5
	ldr	r3, [r1, #-32]
	mov	r1, r4
	str	r0, [sp, #4]
	mov	r0, r6
	ldr	r8, [sp, #4]
	blx	r3
	mov	r6, r0
	b	.LBB82_18
.LBB82_17:
	mov	r6, #0
.LBB82_18:
	mov	r0, r6
	add	sp, sp, #16
	pop	{r4, r5, r6, r7, r8, r9, r11, pc}
.LBB82_19:
	mov	r0, #900
	mov	r1, r6
	bl	mono_aot_Newtonsoft_Json_init_method_gshared_this
	b	.LBB82_1
.Ltmp1019:
.LBB82_20:
	ldr	r0, .LCPI82_9
.LPC82_9:
	add	r1, pc, r0
	mov	r0, #225
	bl	p_23_plt__jit_icall_llvm_throw_corlib_exception_abs_trampoline_llvm
.Ltmp1020:
.LBB82_21:
	ldr	r0, .LCPI82_5
.LPC82_5:
	add	r1, pc, r0
	mov	r0, #225
	bl	p_23_plt__jit_icall_llvm_throw_corlib_exception_abs_trampoline_llvm
.Ltmp1021:
.LBB82_22:
	ldr	r0, .LCPI82_4
.LPC82_4:
	add	r1, pc, r0
	mov	r0, #225
	bl	p_23_plt__jit_icall_llvm_throw_corlib_exception_abs_trampoline_llvm
.Ltmp1022:
.LBB82_23:
	ldr	r0, .LCPI82_3
.LPC82_3:
	add	r1, pc, r0
	mov	r0, #225
	bl	p_23_plt__jit_icall_llvm_throw_corlib_exception_abs_trampoline_llvm
.Ltmp1023:
.LBB82_24:
	ldr	r0, .LCPI82_2
.LPC82_2:
	add	r1, pc, r0
	mov	r0, #225
	bl	p_23_plt__jit_icall_llvm_throw_corlib_exception_abs_trampoline_llvm
.Ltmp1024:
.LBB82_25:
	ldr	r0, .LCPI82_8
.LPC82_8:
	add	r1, pc, r0
	mov	r0, #225
	bl	p_23_plt__jit_icall_llvm_throw_corlib_exception_abs_trampoline_llvm
.LBB82_26:
	movw	r0, #224
	movt	r0, #512
	bl	p_157_plt__jit_icall_mono_create_corlib_exception_0_llvm
	bl	p_49_plt__jit_icall_mono_arch_throw_exception_llvm
.Ltmp1025:
.LBB82_27:
	ldr	r0, .LCPI82_7
.LPC82_7:
	add	r1, pc, r0
	mov	r0, #225
	bl	p_23_plt__jit_icall_llvm_throw_corlib_exception_abs_trampoline_llvm
.Ltmp1026:
.LBB82_28:
	ldr	r0, .LCPI82_6
.LPC82_6:
	add	r1, pc, r0
	mov	r0, #225
	bl	p_23_plt__jit_icall_llvm_throw_corlib_exception_abs_trampoline_llvm
.Ltmp1027:
.LBB82_29:
	ldr	r0, .LCPI82_1
.LPC82_1:
	add	r1, pc, r0
	mov	r0, #225
	bl	p_23_plt__jit_icall_llvm_throw_corlib_exception_abs_trampoline_llvm
.Ltmp1028:
.LBB82_30:
	ldr	r0, .LCPI82_0
.LPC82_0:
	add	r1, pc, r0
	mov	r0, #225
	bl	p_23_plt__jit_icall_llvm_throw_corlib_exception_abs_trampoline_llvm
	.p2align	2
.LCPI82_0:
	.long	.Ltmp1028-(.LPC82_0+8)
.LCPI82_1:
	.long	.Ltmp1027-(.LPC82_1+8)
.LCPI82_2:
	.long	.Ltmp1023-(.LPC82_2+8)
.LCPI82_3:
	.long	.Ltmp1022-(.LPC82_3+8)
.LCPI82_4:
	.long	.Ltmp1021-(.LPC82_4+8)
.LCPI82_5:
	.long	.Ltmp1020-(.LPC82_5+8)
.LCPI82_6:
	.long	.Ltmp1026-(.LPC82_6+8)
.LCPI82_7:
	.long	.Ltmp1025-(.LPC82_7+8)
.LCPI82_8:
	.long	.Ltmp1024-(.LPC82_8+8)
.LCPI82_9:
	.long	.Ltmp1019-(.LPC82_9+8)
.LCPI82_10:
	.long	mono_aot_Newtonsoft_Json_llvm_got-(.LPC82_10+8)
.LCPI82_11:
	.long	mono_inited-(.LPC82_11+8)
.Lfunc_end82:
	.size	Newtonsoft_Json_Utilities_DictionaryWrapper_2_TKey_REF_TValue_REF_Remove_System_Collections_Generic_KeyValuePair_2_TKey_REF_TValue_REF, .Lfunc_end82-Newtonsoft_Json_Utilities_DictionaryWrapper_2_TKey_REF_TValue_REF_Remove_System_Collections_Generic_KeyValuePair_2_TKey_REF_TValue_REF
.Lexception77:
	.fnend

	.hidden	Newtonsoft_Json_Utilities_DictionaryWrapper_2_TKey_REF_TValue_REF_GetEnumerator
	.globl	Newtonsoft_Json_Utilities_DictionaryWrapper_2_TKey_REF_TValue_REF_GetEnumerator
	.p2align	2
	.type	Newtonsoft_Json_Utilities_DictionaryWrapper_2_TKey_REF_TValue_REF_GetEnumerator,%function
	.code	32
Newtonsoft_Json_Utilities_DictionaryWrapper_2_TKey_REF_TValue_REF_GetEnumerator:
.Lfunc_begin83:
	.fnstart
	.save	{r4, r5, r6, r7, r8, lr}
	push	{r4, r5, r6, r7, r8, lr}
.Ltmp1029:
.Ltmp1030:
.Ltmp1031:
.Ltmp1032:
.Ltmp1033:
.Ltmp1034:
.Ltmp1035:
	.pad	#16
	sub	sp, sp, #16
.Ltmp1036:
	ldr	r6, .LCPI83_9
.LPC83_9:
	add	r6, pc, r6
	ldr	r1, [r6, #28]
	str	r0, [sp, #8]
	str	r0, [sp, #12]
	ldr	r4, [sp, #12]
	ldr	r0, [r1]
	cmp	r0, #0
	blne	mono_aot_Newtonsoft_Json_icall_cold_wrapper_265
	cmp	r4, #0
	beq	.LBB83_22
	ldr	r1, [r4, #8]
	ldr	r0, [sp, #12]
	cmp	r1, #0
	beq	.LBB83_11
	cmp	r0, #0
	beq	.LBB83_23
	ldr	r0, [r0, #8]
	bl	p_195_plt_System_Linq_Enumerable_Cast_System_Collections_DictionaryEntry_System_Collections_IEnumerable_llvm
	mov	r4, r0
	ldr	r0, [sp, #12]
	ldr	r0, [r0]
	bl	p_196_plt__rgctx_fetch_117_llvm
	ldrb	r1, [r0, #25]
	cmp	r1, #0
	beq	.LBB83_19
.LBB83_4:
	ldr	r0, [sp, #12]
	ldr	r0, [r0]
	bl	p_197_plt__rgctx_fetch_118_llvm
	ldr	r5, [r0, #4]
	cmp	r5, #0
	bne	.LBB83_9
	ldr	r0, [sp, #12]
	ldr	r0, [r0]
	bl	p_196_plt__rgctx_fetch_117_llvm
	ldrb	r1, [r0, #25]
	cmp	r1, #0
	beq	.LBB83_20
.LBB83_6:
	ldr	r0, [sp, #12]
	ldr	r0, [r0]
	bl	p_197_plt__rgctx_fetch_118_llvm
	ldr	r7, [r0]
	cmp	r7, #0
	beq	.LBB83_25
	ldr	r0, [sp, #12]
	ldr	r0, [r0]
	bl	p_199_plt__rgctx_fetch_120_llvm
	mov	r1, #64
	bl	p_17_plt_wrapper_alloc_object_AllocSmall_intptr_intptr_llvm
	mov	r5, r0
	dmb	ish
	mov	r1, r5
	ldr	r0, [r6, #8]
	str	r7, [r1, #16]!
	mov	r2, #1
	lsr	r1, r1, #9
	strb	r2, [r1, r0]
	ldr	r0, [sp, #12]
	ldr	r0, [r0]
	bl	p_200_plt__rgctx_fetch_121_llvm
	str	r0, [r5, #32]
	ldr	r0, [sp, #12]
	ldr	r0, [r0]
	bl	p_201_plt__rgctx_fetch_122_llvm
	ldr	r1, [r0, #4]
	str	r1, [r5, #20]
	ldr	r1, [r0, #20]
	str	r1, [r5, #12]
	mov	r1, #0
	ldr	r0, [r0, #16]
	strb	r1, [r5, #56]
	str	r0, [r5, #8]
	ldr	r0, [sp, #12]
	ldr	r0, [r0]
	bl	p_196_plt__rgctx_fetch_117_llvm
	ldrb	r1, [r0, #25]
	cmp	r1, #0
	beq	.LBB83_21
.LBB83_8:
	ldr	r0, [sp, #12]
	ldr	r0, [r0]
	bl	p_197_plt__rgctx_fetch_118_llvm
	dmb	ish
	str	r5, [r0, #4]
.LBB83_9:
	ldr	r0, [sp, #12]
	ldr	r0, [r0]
	bl	p_198_plt__rgctx_fetch_119_llvm
	mov	r2, r0
	mov	r0, r4
	mov	r1, r5
	blx	r2
	mov	r4, r0
	ldr	r0, [sp, #12]
	ldr	r0, [r0]
	bl	p_194_plt__rgctx_fetch_116_llvm
	cmp	r4, #0
	bne	.LBB83_18
.Ltmp1037:
	ldr	r0, .LCPI83_0
.LPC83_0:
	add	r1, pc, r0
	mov	r0, #225
	bl	p_23_plt__jit_icall_llvm_throw_corlib_exception_abs_trampoline_llvm
.LBB83_11:
	cmp	r0, #0
	beq	.LBB83_24
	ldr	r1, [r0, #16]
	ldr	r0, [sp, #12]
	cmp	r1, #0
	beq	.LBB83_16
	cmp	r0, #0
	beq	.LBB83_26
	ldr	r4, [r0, #16]
	ldr	r0, [sp, #12]
	ldr	r0, [r0]
	bl	p_194_plt__rgctx_fetch_116_llvm
	cmp	r4, #0
	bne	.LBB83_18
.Ltmp1038:
	ldr	r0, .LCPI83_3
.LPC83_3:
	add	r1, pc, r0
	mov	r0, #225
	bl	p_23_plt__jit_icall_llvm_throw_corlib_exception_abs_trampoline_llvm
.LBB83_16:
	cmp	r0, #0
	beq	.LBB83_27
	ldr	r4, [r0, #12]
	ldr	r0, [sp, #12]
	ldr	r0, [r0]
	bl	p_194_plt__rgctx_fetch_116_llvm
	cmp	r4, #0
	beq	.LBB83_28
.LBB83_18:
	ldr	r1, [r4]
	ldr	r1, [r1, #-40]
	str	r0, [sp, #4]
	mov	r0, r4
	ldr	r8, [sp, #4]
	blx	r1
	add	sp, sp, #16
	pop	{r4, r5, r6, r7, r8, pc}
.LBB83_19:
	bl	p_25_plt__jit_icall_mono_generic_class_init_llvm
	b	.LBB83_4
.LBB83_20:
	bl	p_25_plt__jit_icall_mono_generic_class_init_llvm
	b	.LBB83_6
.LBB83_21:
	bl	p_25_plt__jit_icall_mono_generic_class_init_llvm
	b	.LBB83_8
.Ltmp1039:
.LBB83_22:
	ldr	r0, .LCPI83_8
.LPC83_8:
	add	r1, pc, r0
	mov	r0, #225
	bl	p_23_plt__jit_icall_llvm_throw_corlib_exception_abs_trampoline_llvm
.Ltmp1040:
.LBB83_23:
	ldr	r0, .LCPI83_2
.LPC83_2:
	add	r1, pc, r0
	mov	r0, #225
	bl	p_23_plt__jit_icall_llvm_throw_corlib_exception_abs_trampoline_llvm
.Ltmp1041:
.LBB83_24:
	ldr	r0, .LCPI83_7
.LPC83_7:
	add	r1, pc, r0
	mov	r0, #225
	bl	p_23_plt__jit_icall_llvm_throw_corlib_exception_abs_trampoline_llvm
.Ltmp1042:
.LBB83_25:
	ldr	r0, .LCPI83_1
.LPC83_1:
	add	r1, pc, r0
	mov	r0, #123
	bl	p_23_plt__jit_icall_llvm_throw_corlib_exception_abs_trampoline_llvm
.Ltmp1043:
.LBB83_26:
	ldr	r0, .LCPI83_4
.LPC83_4:
	add	r1, pc, r0
	mov	r0, #225
	bl	p_23_plt__jit_icall_llvm_throw_corlib_exception_abs_trampoline_llvm
.Ltmp1044:
.LBB83_27:
	ldr	r0, .LCPI83_6
.LPC83_6:
	add	r1, pc, r0
	mov	r0, #225
	bl	p_23_plt__jit_icall_llvm_throw_corlib_exception_abs_trampoline_llvm
.Ltmp1045:
.LBB83_28:
	ldr	r0, .LCPI83_5
.LPC83_5:
	add	r1, pc, r0
	mov	r0, #225
	bl	p_23_plt__jit_icall_llvm_throw_corlib_exception_abs_trampoline_llvm
	.p2align	2
.LCPI83_0:
	.long	.Ltmp1037-(.LPC83_0+8)
.LCPI83_1:
	.long	.Ltmp1042-(.LPC83_1+8)
.LCPI83_2:
	.long	.Ltmp1040-(.LPC83_2+8)
.LCPI83_3:
	.long	.Ltmp1038-(.LPC83_3+8)
.LCPI83_4:
	.long	.Ltmp1043-(.LPC83_4+8)
.LCPI83_5:
	.long	.Ltmp1045-(.LPC83_5+8)
.LCPI83_6:
	.long	.Ltmp1044-(.LPC83_6+8)
.LCPI83_7:
	.long	.Ltmp1041-(.LPC83_7+8)
.LCPI83_8:
	.long	.Ltmp1039-(.LPC83_8+8)
.LCPI83_9:
	.long	mono_aot_Newtonsoft_Json_llvm_got-(.LPC83_9+8)
.Lfunc_end83:
	.size	Newtonsoft_Json_Utilities_DictionaryWrapper_2_TKey_REF_TValue_REF_GetEnumerator, .Lfunc_end83-Newtonsoft_Json_Utilities_DictionaryWrapper_2_TKey_REF_TValue_REF_GetEnumerator
.Lexception78:
	.fnend

	.hidden	Newtonsoft_Json_Utilities_DictionaryWrapper_2_TKey_REF_TValue_REF_System_Collections_IEnumerable_GetEnumerator
	.globl	Newtonsoft_Json_Utilities_DictionaryWrapper_2_TKey_REF_TValue_REF_System_Collections_IEnumerable_GetEnumerator
	.p2align	2
	.type	Newtonsoft_Json_Utilities_DictionaryWrapper_2_TKey_REF_TValue_REF_System_Collections_IEnumerable_GetEnumerator,%function
	.code	32
Newtonsoft_Json_Utilities_DictionaryWrapper_2_TKey_REF_TValue_REF_System_Collections_IEnumerable_GetEnumerator:
.Lfunc_begin84:
	.fnstart
	.save	{r4, lr}
	push	{r4, lr}
.Ltmp1046:
.Ltmp1047:
.Ltmp1048:
	.pad	#8
	sub	sp, sp, #8
.Ltmp1049:
	ldr	r1, .LCPI84_0
.LPC84_0:
	add	r1, pc, r1
	ldr	r1, [r1, #28]
	str	r0, [sp]
	str	r0, [sp, #4]
	ldr	r4, [sp, #4]
	ldr	r0, [r1]
	cmp	r0, #0
	blne	mono_aot_Newtonsoft_Json_icall_cold_wrapper_265
	mov	r0, r4
	bl	p_202_plt_Newtonsoft_Json_Utilities_DictionaryWrapper_2_TKey_REF_TValue_REF_GetEnumerator_llvm
	add	sp, sp, #8
	pop	{r4, pc}
	.p2align	2
.LCPI84_0:
	.long	mono_aot_Newtonsoft_Json_llvm_got-(.LPC84_0+8)
.Lfunc_end84:
	.size	Newtonsoft_Json_Utilities_DictionaryWrapper_2_TKey_REF_TValue_REF_System_Collections_IEnumerable_GetEnumerator, .Lfunc_end84-Newtonsoft_Json_Utilities_DictionaryWrapper_2_TKey_REF_TValue_REF_System_Collections_IEnumerable_GetEnumerator
.Lexception79:
	.fnend

	.hidden	Newtonsoft_Json_Utilities_DictionaryWrapper_2_TKey_REF_TValue_REF_System_Collections_IDictionary_Add_object_object
	.globl	Newtonsoft_Json_Utilities_DictionaryWrapper_2_TKey_REF_TValue_REF_System_Collections_IDictionary_Add_object_object
	.p2align	2
	.type	Newtonsoft_Json_Utilities_DictionaryWrapper_2_TKey_REF_TValue_REF_System_Collections_IDictionary_Add_object_object,%function
	.code	32
Newtonsoft_Json_Utilities_DictionaryWrapper_2_TKey_REF_TValue_REF_System_Collections_IDictionary_Add_object_object:
.Lfunc_begin85:
	.fnstart
	.save	{r4, r5, r6, r7, r8, r9, r11, lr}
	push	{r4, r5, r6, r7, r8, r9, r11, lr}
.Ltmp1050:
.Ltmp1051:
.Ltmp1052:
.Ltmp1053:
.Ltmp1054:
.Ltmp1055:
.Ltmp1056:
.Ltmp1057:
.Ltmp1058:
	.pad	#16
	sub	sp, sp, #16
.Ltmp1059:
	mov	r6, r0
	ldr	r0, .LCPI85_6
	ldr	r7, .LCPI85_7
	mov	r9, r2
.LPC85_6:
	add	r0, pc, r0
	mov	r5, r1
.LPC85_7:
	add	r7, pc, r7
	ldrb	r4, [r0, #903]
	ldr	r0, [r7, #28]
	str	r6, [sp, #8]
	str	r6, [sp, #12]
	ldr	r0, [r0]
	cmp	r0, #0
	blne	mono_aot_Newtonsoft_Json_icall_cold_wrapper_265
	cmp	r4, #0
	beq	.LBB85_12
.LBB85_1:
	ldr	r0, [sp, #12]
	cmp	r0, #0
	beq	.LBB85_13
	ldr	r1, [r0, #8]
	ldr	r0, [sp, #12]
	cmp	r1, #0
	beq	.LBB85_6
	cmp	r0, #0
	beq	.LBB85_14
	ldr	r0, [r0, #8]
	cmp	r0, #0
	beq	.LBB85_15
	ldr	r1, [r0]
	mov	r2, r9
	ldr	r3, [r1, #-48]
	ldr	r1, [r7, #280]
	str	r1, [sp, #4]
	mov	r1, r5
	b	.LBB85_11
.LBB85_6:
	cmp	r0, #0
	beq	.LBB85_16
	ldr	r0, [r0, #16]
	cmp	r0, #0
	bne	.LBB85_17
	ldr	r0, [sp, #12]
	cmp	r0, #0
	beq	.LBB85_18
	ldr	r6, [r0, #12]
	ldr	r0, [sp, #12]
	ldr	r0, [r0]
	bl	p_186_plt__rgctx_fetch_111_llvm
	mov	r2, r0
	mov	r0, r5
	ldr	r1, [r2, #4]
	bl	p_10_plt_wrapper_castclass_object___castclass_with_cache_object_intptr_intptr_llvm
	mov	r5, r0
	ldr	r0, [sp, #12]
	ldr	r0, [r0]
	bl	p_169_plt__rgctx_fetch_97_llvm
	mov	r2, r0
	mov	r0, r9
	ldr	r1, [r2, #4]
	bl	p_10_plt_wrapper_castclass_object___castclass_with_cache_object_intptr_intptr_llvm
	mov	r4, r0
	ldr	r0, [sp, #12]
	ldr	r0, [r0]
	bl	p_158_plt__rgctx_fetch_88_llvm
	cmp	r6, #0
	beq	.LBB85_19
	ldr	r1, [r6]
	mov	r2, r4
	ldr	r3, [r1, #-68]
	mov	r1, r5
	str	r0, [sp, #4]
	mov	r0, r6
.LBB85_11:
	ldr	r8, [sp, #4]
	blx	r3
	add	sp, sp, #16
	pop	{r4, r5, r6, r7, r8, r9, r11, pc}
.LBB85_12:
	movw	r0, #903
	mov	r1, r6
	bl	mono_aot_Newtonsoft_Json_init_method_gshared_this
	b	.LBB85_1
.Ltmp1060:
.LBB85_13:
	ldr	r0, .LCPI85_5
.LPC85_5:
	add	r1, pc, r0
	mov	r0, #225
	bl	p_23_plt__jit_icall_llvm_throw_corlib_exception_abs_trampoline_llvm
.Ltmp1061:
.LBB85_14:
	ldr	r0, .LCPI85_1
.LPC85_1:
	add	r1, pc, r0
	mov	r0, #225
