	.text
	.syntax unified
	.eabi_attribute	67, "2.09"
	.eabi_attribute	6, 10
	.eabi_attribute	7, 65
	.eabi_attribute	8, 1
	.eabi_attribute	9, 2
	.fpu	vfpv3-d16
	.eabi_attribute	34, 1
	.eabi_attribute	15, 1
	.eabi_attribute	16, 1
	.eabi_attribute	17, 2
	.eabi_attribute	20, 1
	.eabi_attribute	21, 1
	.eabi_attribute	23, 3
	.eabi_attribute	24, 1
	.eabi_attribute	25, 1
	.eabi_attribute	38, 1
	.eabi_attribute	14, 0
	.file	"aot"
	.weak	gc.safepoint_poll
	.p2align	2
	.type	gc.safepoint_poll,%function
	.code	32
gc.safepoint_poll:
.Lfunc_begin0:
	.fnstart
	ldr	r0, .LCPI0_0
.LPC0_0:
	add	r0, pc, r0
	ldr	r0, [r0, #28]
	ldr	r0, [r0]
	cmp	r0, #0
	bxeq	lr
	.save	{r11, lr}
	push	{r11, lr}
.Ltmp0:
.Ltmp1:
.Ltmp2:
	bl	mono_aot_System_icall_cold_wrapper_265
	pop	{r11, lr}
	bx	lr
	.p2align	2
.LCPI0_0:
	.long	mono_aot_System_llvm_got-(.LPC0_0+8)
.Lfunc_end0:
	.size	gc.safepoint_poll, .Lfunc_end0-gc.safepoint_poll
	.fnend

	.p2align	2
	.type	mono_aot_System_icall_cold_wrapper_265,%function
	.code	32
mono_aot_System_icall_cold_wrapper_265:
.Lfunc_begin1:
	.fnstart
	.save	{r11, lr}
	push	{r11, lr}
.Ltmp3:
.Ltmp4:
.Ltmp5:
	ldr	r0, .LCPI1_0
.LPC1_0:
	add	r0, pc, r0
	ldr	r0, [r0, #80]
	blx	r0
	pop	{r11, pc}
	.p2align	2
.LCPI1_0:
	.long	mono_aot_System_llvm_got-(.LPC1_0+8)
.Lfunc_end1:
	.size	mono_aot_System_icall_cold_wrapper_265, .Lfunc_end1-mono_aot_System_icall_cold_wrapper_265
	.fnend

	.p2align	2
	.type	mono_aot_System_init_method,%function
	.code	32
mono_aot_System_init_method:
.Lfunc_begin2:
	.fnstart
	.save	{r4, r5, r11, lr}
	push	{r4, r5, r11, lr}
.Ltmp6:
.Ltmp7:
.Ltmp8:
.Ltmp9:
.Ltmp10:
	ldr	r5, .LCPI2_0
	mov	r4, r0
.LPC2_0:
	add	r5, pc, r5
	ldrb	r0, [r5, r4]
	cmp	r0, #0
	popne	{r4, r5, r11, pc}
	ldr	r0, .LCPI2_1
	mov	r2, r4
.LPC2_1:
	add	r0, pc, r0
	ldr	r1, [r0, #16]
	ldr	r3, [r0, #56]
	ldr	r0, .LCPI2_2
.LPC2_2:
	ldr	r0, [pc, r0]
	blx	r3
	mov	r0, #1
	strb	r0, [r5, r4]
	pop	{r4, r5, r11, pc}
	.p2align	2
.LCPI2_0:
	.long	mono_inited-(.LPC2_0+8)
.LCPI2_1:
	.long	mono_aot_System_llvm_got-(.LPC2_1+8)
.LCPI2_2:
.Ltmp11:
	.long	mono_aot_file_info(GOT_PREL)-((.LPC2_2+8)-.Ltmp11)
.Lfunc_end2:
	.size	mono_aot_System_init_method, .Lfunc_end2-mono_aot_System_init_method
	.fnend

	.p2align	2
	.type	mono_aot_System_init_method_gshared_mrgctx,%function
	.code	32
mono_aot_System_init_method_gshared_mrgctx:
.Lfunc_begin3:
	.fnstart
	.save	{r4, r5, r11, lr}
	push	{r4, r5, r11, lr}
.Ltmp12:
.Ltmp13:
.Ltmp14:
.Ltmp15:
.Ltmp16:
	ldr	r5, .LCPI3_0
	mov	r4, r0
	mov	r3, r1
.LPC3_0:
	add	r5, pc, r5
	ldrb	r0, [r5, r4]
	cmp	r0, #0
	popne	{r4, r5, r11, pc}
	ldr	r0, .LCPI3_1
	mov	r2, r4
.LPC3_1:
	add	r0, pc, r0
	ldr	r1, [r0, #16]
	ldr	r12, [r0, #64]
	ldr	r0, .LCPI3_2
.LPC3_2:
	ldr	r0, [pc, r0]
	blx	r12
	mov	r0, #1
	strb	r0, [r5, r4]
	pop	{r4, r5, r11, pc}
	.p2align	2
.LCPI3_0:
	.long	mono_inited-(.LPC3_0+8)
.LCPI3_1:
	.long	mono_aot_System_llvm_got-(.LPC3_1+8)
.LCPI3_2:
.Ltmp17:
	.long	mono_aot_file_info(GOT_PREL)-((.LPC3_2+8)-.Ltmp17)
.Lfunc_end3:
	.size	mono_aot_System_init_method_gshared_mrgctx, .Lfunc_end3-mono_aot_System_init_method_gshared_mrgctx
	.fnend

	.p2align	2
	.type	mono_aot_System_init_method_gshared_this,%function
	.code	32
mono_aot_System_init_method_gshared_this:
.Lfunc_begin4:
	.fnstart
	.save	{r4, r5, r11, lr}
	push	{r4, r5, r11, lr}
.Ltmp18:
.Ltmp19:
.Ltmp20:
.Ltmp21:
.Ltmp22:
	ldr	r5, .LCPI4_0
	mov	r4, r0
	mov	r3, r1
.LPC4_0:
	add	r5, pc, r5
	ldrb	r0, [r5, r4]
	cmp	r0, #0
	popne	{r4, r5, r11, pc}
	ldr	r0, .LCPI4_1
	mov	r2, r4
.LPC4_1:
	add	r0, pc, r0
	ldr	r1, [r0, #16]
	ldr	r12, [r0, #60]
	ldr	r0, .LCPI4_2
.LPC4_2:
	ldr	r0, [pc, r0]
	blx	r12
	mov	r0, #1
	strb	r0, [r5, r4]
	pop	{r4, r5, r11, pc}
	.p2align	2
.LCPI4_0:
	.long	mono_inited-(.LPC4_0+8)
.LCPI4_1:
	.long	mono_aot_System_llvm_got-(.LPC4_1+8)
.LCPI4_2:
.Ltmp23:
	.long	mono_aot_file_info(GOT_PREL)-((.LPC4_2+8)-.Ltmp23)
.Lfunc_end4:
	.size	mono_aot_System_init_method_gshared_this, .Lfunc_end4-mono_aot_System_init_method_gshared_this
	.fnend

	.p2align	2
	.type	mono_aot_System_init_method_gshared_vtable,%function
	.code	32
mono_aot_System_init_method_gshared_vtable:
.Lfunc_begin5:
	.fnstart
	.save	{r4, r5, r11, lr}
	push	{r4, r5, r11, lr}
.Ltmp24:
.Ltmp25:
.Ltmp26:
.Ltmp27:
.Ltmp28:
	ldr	r5, .LCPI5_0
	mov	r4, r0
	mov	r3, r1
.LPC5_0:
	add	r5, pc, r5
	ldrb	r0, [r5, r4]
	cmp	r0, #0
	popne	{r4, r5, r11, pc}
	ldr	r0, .LCPI5_1
	mov	r2, r4
.LPC5_1:
	add	r0, pc, r0
	ldr	r1, [r0, #16]
	ldr	r12, [r0, #68]
	ldr	r0, .LCPI5_2
.LPC5_2:
	ldr	r0, [pc, r0]
	blx	r12
	mov	r0, #1
	strb	r0, [r5, r4]
	pop	{r4, r5, r11, pc}
	.p2align	2
.LCPI5_0:
	.long	mono_inited-(.LPC5_0+8)
.LCPI5_1:
	.long	mono_aot_System_llvm_got-(.LPC5_1+8)
.LCPI5_2:
.Ltmp29:
	.long	mono_aot_file_info(GOT_PREL)-((.LPC5_2+8)-.Ltmp29)
.Lfunc_end5:
	.size	mono_aot_System_init_method_gshared_vtable, .Lfunc_end5-mono_aot_System_init_method_gshared_vtable
	.fnend

	.hidden	Mono_SystemCertificateProvider__ctor
	.globl	Mono_SystemCertificateProvider__ctor
	.p2align	2
	.type	Mono_SystemCertificateProvider__ctor,%function
	.code	32
Mono_SystemCertificateProvider__ctor:
.Lfunc_begin6:
	.fnstart
	ldr	r0, .LCPI6_0
.LPC6_0:
	add	r0, pc, r0
	ldrb	r0, [r0, #24]
	cmp	r0, #0
	bxne	lr
	.save	{r11, lr}
	push	{r11, lr}
.Ltmp30:
.Ltmp31:
.Ltmp32:
	mov	r0, #24
	bl	mono_aot_System_init_method
	pop	{r11, lr}
	bx	lr
	.p2align	2
.LCPI6_0:
	.long	mono_inited-(.LPC6_0+8)
.Lfunc_end6:
	.size	Mono_SystemCertificateProvider__ctor, .Lfunc_end6-Mono_SystemCertificateProvider__ctor
.Lexception0:
	.fnend

	.hidden	Mono_SystemCertificateProvider__cctor
	.globl	Mono_SystemCertificateProvider__cctor
	.p2align	2
	.type	Mono_SystemCertificateProvider__cctor,%function
	.code	32
Mono_SystemCertificateProvider__cctor:
.Lfunc_begin7:
	.fnstart
	.save	{r4, r5, r11, lr}
	push	{r4, r5, r11, lr}
.Ltmp33:
.Ltmp34:
.Ltmp35:
.Ltmp36:
.Ltmp37:
	ldr	r4, .LCPI7_0
	ldr	r0, .LCPI7_1
.LPC7_0:
	add	r4, pc, r4
.LPC7_1:
	add	r0, pc, r0
	ldr	r1, [r4, #28]
	ldrb	r5, [r0, #25]
	ldr	r0, [r1]
	cmp	r0, #0
	blne	mono_aot_System_icall_cold_wrapper_265
	cmp	r5, #0
	beq	.LBB7_2
.LBB7_1:
	ldr	r0, [r4, #100]
	mov	r1, #8
	bl	p_1_plt_wrapper_alloc_object_AllocSmall_intptr_intptr_llvm
	ldr	r1, [r4, #104]
	dmb	ish
	str	r0, [r1]
	pop	{r4, r5, r11, pc}
.LBB7_2:
	mov	r0, #25
	bl	mono_aot_System_init_method
	b	.LBB7_1
	.p2align	2
.LCPI7_0:
	.long	mono_aot_System_llvm_got-(.LPC7_0+8)
.LCPI7_1:
	.long	mono_inited-(.LPC7_1+8)
.Lfunc_end7:
	.size	Mono_SystemCertificateProvider__cctor, .Lfunc_end7-Mono_SystemCertificateProvider__cctor
.Lexception1:
	.fnend

	.hidden	Mono_SystemDependencyProvider_Initialize
	.globl	Mono_SystemDependencyProvider_Initialize
	.p2align	2
	.type	Mono_SystemDependencyProvider_Initialize,%function
	.code	32
Mono_SystemDependencyProvider_Initialize:
.Lfunc_begin8:
	.fnstart
	.save	{r4, r5, r6, lr}
	push	{r4, r5, r6, lr}
.Ltmp51:
.Ltmp52:
.Ltmp53:
.Ltmp54:
.Ltmp55:
	.pad	#16
	sub	sp, sp, #16
.Ltmp56:
	ldr	r5, .LCPI8_0
	ldr	r0, .LCPI8_1
.LPC8_0:
	add	r5, pc, r5
.LPC8_1:
	add	r0, pc, r0
	ldr	r1, [r5, #28]
	ldrb	r4, [r0, #27]
	ldr	r0, [r1]
	cmp	r0, #0
	blne	mono_aot_System_icall_cold_wrapper_265
	cmp	r4, #0
	beq	.LBB8_9
.LBB8_1:
	ldr	r0, [r5, #108]
	mov	r1, #0
	str	r1, [sp, #4]
	ldr	r0, [r0]
	str	r0, [sp, #4]
	ldr	r4, [sp, #4]
	strb	r1, [sp, #11]
.Ltmp38:
	add	r1, sp, #11
	mov	r0, r4
	bl	p_2_plt__jit_icall_mono_monitor_enter_v4_fast_llvm
.Ltmp39:
	cmp	r0, #0
	bne	.LBB8_4
.Ltmp40:
	add	r1, sp, #11
	mov	r0, r4
	bl	p_5_plt__jit_icall_mono_monitor_enter_v4_internal_llvm
.Ltmp41:
.LBB8_4:
	ldr	r6, [r5, #112]
	ldr	r0, [r6]
	cmp	r0, #0
	beq	.LBB8_6
	mov	r0, #0
	mov	r4, #2
	str	r0, [sp, #12]
	b	.LBB8_10
.LBB8_6:
	ldr	r0, [r5, #116]
.Ltmp42:
	mov	r1, #12
	bl	p_1_plt_wrapper_alloc_object_AllocSmall_intptr_intptr_llvm
	mov	r4, r0
.Ltmp43:
.Ltmp44:
	mov	r0, r4
	bl	Mono_SystemDependencyProvider__ctor
.Ltmp45:
	mov	r0, #0
	dmb	ish
	str	r4, [r6]
	mov	r4, #1
	str	r0, [sp, #12]
	b	.LBB8_10
.LBB8_9:
	mov	r0, #27
	bl	mono_aot_System_init_method
	b	.LBB8_1
.LBB8_10:
	ldrb	r0, [sp, #11]
	cmp	r0, #0
	beq	.LBB8_12
	ldr	r0, [sp, #4]
	bl	p_6_plt_System_Threading_Monitor_Exit_object_llvm
.LBB8_12:
	and	r0, r4, #3
	cmp	r0, #1
	beq	.LBB8_16
	cmp	r0, #2
	bne	.LBB8_19
	ldr	r0, [sp, #12]
	cmp	r0, #0
	beq	.LBB8_18
.Ltmp46:
	bl	p_4_plt__jit_icall_ves_icall_thread_finish_async_abort_llvm
.Ltmp47:
	b	.LBB8_18
.LBB8_16:
	ldr	r0, [sp, #12]
	cmp	r0, #0
	beq	.LBB8_18
.Ltmp48:
	bl	p_4_plt__jit_icall_ves_icall_thread_finish_async_abort_llvm
.Ltmp49:
.LBB8_18:
	add	sp, sp, #16
	pop	{r4, r5, r6, pc}
.LBB8_19:
	bl	p_7_plt__jit_icall_llvm_resume_unwind_trampoline_llvm
.LBB8_20:
.Ltmp50:
	mov	r4, #0
	b	.LBB8_10
	.p2align	2
.LCPI8_0:
	.long	mono_aot_System_llvm_got-(.LPC8_0+8)
.LCPI8_1:
	.long	mono_inited-(.LPC8_1+8)
.Lfunc_end8:
	.size	Mono_SystemDependencyProvider_Initialize, .Lfunc_end8-Mono_SystemDependencyProvider_Initialize
.Lexception2:
	.fnend

	.hidden	Mono_SystemDependencyProvider__ctor
	.globl	Mono_SystemDependencyProvider__ctor
	.p2align	2
	.type	Mono_SystemDependencyProvider__ctor,%function
	.code	32
Mono_SystemDependencyProvider__ctor:
.Lfunc_begin9:
	.fnstart
	.save	{r4, r5, r6, lr}
	push	{r4, r5, r6, lr}
.Ltmp57:
.Ltmp58:
.Ltmp59:
.Ltmp60:
.Ltmp61:
	ldr	r5, .LCPI9_1
	mov	r4, r0
	ldr	r0, .LCPI9_2
.LPC9_1:
	add	r5, pc, r5
.LPC9_2:
	add	r0, pc, r0
	ldr	r1, [r5, #28]
	ldrb	r6, [r0, #31]
	ldr	r0, [r1]
	cmp	r0, #0
	blne	mono_aot_System_icall_cold_wrapper_265
	cmp	r6, #0
	beq	.LBB9_3
.LBB9_1:
	ldr	r0, [r5, #120]
	mov	r1, #8
	bl	p_1_plt_wrapper_alloc_object_AllocSmall_intptr_intptr_llvm
	cmp	r4, #0
	beq	.LBB9_4
	ldr	r1, [r5, #8]
	mov	r2, r4
	dmb	ish
	str	r0, [r2, #8]!
	mov	r0, #1
	strb	r0, [r1, r2, lsr #9]
	mov	r0, r4
	bl	p_9_plt_Mono_DependencyInjector_Register_Mono_ISystemDependencyProvider_llvm
	pop	{r4, r5, r6, pc}
.LBB9_3:
	mov	r0, #31
	bl	mono_aot_System_init_method
	b	.LBB9_1
.Ltmp62:
.LBB9_4:
	ldr	r0, .LCPI9_0
.LPC9_0:
	add	r1, pc, r0
	mov	r0, #225
	bl	p_8_plt__jit_icall_llvm_throw_corlib_exception_abs_trampoline_llvm
	.p2align	2
.LCPI9_0:
	.long	.Ltmp62-(.LPC9_0+8)
.LCPI9_1:
	.long	mono_aot_System_llvm_got-(.LPC9_1+8)
.LCPI9_2:
	.long	mono_inited-(.LPC9_2+8)
.Lfunc_end9:
	.size	Mono_SystemDependencyProvider__ctor, .Lfunc_end9-Mono_SystemDependencyProvider__ctor
.Lexception3:
	.fnend

	.hidden	Mono_SystemDependencyProvider__cctor
	.globl	Mono_SystemDependencyProvider__cctor
	.p2align	2
	.type	Mono_SystemDependencyProvider__cctor,%function
	.code	32
Mono_SystemDependencyProvider__cctor:
.Lfunc_begin10:
	.fnstart
	.save	{r4, r5, r11, lr}
	push	{r4, r5, r11, lr}
.Ltmp63:
.Ltmp64:
.Ltmp65:
.Ltmp66:
.Ltmp67:
	ldr	r4, .LCPI10_0
	ldr	r0, .LCPI10_1
.LPC10_0:
	add	r4, pc, r4
.LPC10_1:
	add	r0, pc, r0
	ldr	r1, [r4, #28]
	ldrb	r5, [r0, #32]
	ldr	r0, [r1]
	cmp	r0, #0
	blne	mono_aot_System_icall_cold_wrapper_265
	cmp	r5, #0
	beq	.LBB10_2
.LBB10_1:
	ldr	r0, [r4, #100]
	mov	r1, #8
	bl	p_1_plt_wrapper_alloc_object_AllocSmall_intptr_intptr_llvm
	ldr	r1, [r4, #108]
	dmb	ish
	str	r0, [r1]
	pop	{r4, r5, r11, pc}
.LBB10_2:
	mov	r0, #32
	bl	mono_aot_System_init_method
	b	.LBB10_1
	.p2align	2
.LCPI10_0:
	.long	mono_aot_System_llvm_got-(.LPC10_0+8)
.LCPI10_1:
	.long	mono_inited-(.LPC10_1+8)
.Lfunc_end10:
	.size	Mono_SystemDependencyProvider__cctor, .Lfunc_end10-Mono_SystemDependencyProvider__cctor
.Lexception4:
	.fnend

	.hidden	System_Uri_IriParsingStatic_System_UriParser
	.globl	System_Uri_IriParsingStatic_System_UriParser
	.p2align	2
	.type	System_Uri_IriParsingStatic_System_UriParser,%function
	.code	32
System_Uri_IriParsingStatic_System_UriParser:
.Lfunc_begin11:
	.fnstart
	.save	{r4, r5, r6, lr}
	push	{r4, r5, r6, lr}
.Ltmp68:
.Ltmp69:
.Ltmp70:
.Ltmp71:
.Ltmp72:
	ldr	r5, .LCPI11_0
	mov	r4, r0
	ldr	r0, .LCPI11_1
.LPC11_0:
	add	r5, pc, r5
.LPC11_1:
	add	r0, pc, r0
	ldr	r1, [r5, #28]
	ldrb	r6, [r0, #802]
	ldr	r0, [r1]
	cmp	r0, #0
	blne	mono_aot_System_icall_cold_wrapper_265
	cmp	r6, #0
	beq	.LBB11_6
.LBB11_1:
	ldr	r0, [r5, #124]
	ldrb	r0, [r0]
	dmb	ish
	cmp	r0, #0
	beq	.LBB11_5
	cmp	r4, #0
	beq	.LBB11_4
	mov	r0, r4
	mov	r1, #268435456
	bl	p_10_plt_System_UriParser_InFact_System_UriSyntaxFlags_llvm
	mov	r1, r0
	mov	r0, #1
	tst	r1, #255
	popne	{r4, r5, r6, pc}
.LBB11_4:
	mov	r0, #0
	cmp	r4, #0
	movweq	r0, #1
	pop	{r4, r5, r6, pc}
.LBB11_5:
	mov	r0, #0
	pop	{r4, r5, r6, pc}
.LBB11_6:
	movw	r0, #802
	bl	mono_aot_System_init_method
	b	.LBB11_1
	.p2align	2
.LCPI11_0:
	.long	mono_aot_System_llvm_got-(.LPC11_0+8)
.LCPI11_1:
	.long	mono_inited-(.LPC11_1+8)
.Lfunc_end11:
	.size	System_Uri_IriParsingStatic_System_UriParser, .Lfunc_end11-System_Uri_IriParsingStatic_System_UriParser
.Lexception5:
	.fnend

	.hidden	System_Uri__ctor_string_System_UriKind
	.globl	System_Uri__ctor_string_System_UriKind
	.p2align	2
	.type	System_Uri__ctor_string_System_UriKind,%function
	.code	32
System_Uri__ctor_string_System_UriKind:
.Lfunc_begin12:
	.fnstart
	.save	{r4, r5, r6, r7, r11, lr}
	push	{r4, r5, r6, r7, r11, lr}
.Ltmp73:
.Ltmp74:
.Ltmp75:
.Ltmp76:
.Ltmp77:
.Ltmp78:
.Ltmp79:
	mov	r6, r0
	ldr	r0, .LCPI12_0
	mov	r5, r1
	ldr	r1, .LCPI12_1
.LPC12_0:
	add	r0, pc, r0
	mov	r4, r2
.LPC12_1:
	add	r1, pc, r1
	ldr	r0, [r0, #28]
	ldrb	r7, [r1, #817]
	ldr	r0, [r0]
	cmp	r0, #0
	blne	mono_aot_System_icall_cold_wrapper_265
	cmp	r7, #0
	beq	.LBB12_3
	cmp	r5, #0
	beq	.LBB12_4
.LBB12_2:
	mov	r0, r6
	mov	r1, r5
	mov	r2, #0
	mov	r3, r4
	bl	System_Uri_CreateThis_string_bool_System_UriKind
	pop	{r4, r5, r6, r7, r11, pc}
.LBB12_3:
	movw	r0, #817
	bl	mono_aot_System_init_method
	cmp	r5, #0
	bne	.LBB12_2
.LBB12_4:
	ldr	r0, .LCPI12_2
	movw	r1, #11517
.LPC12_2:
	ldr	r0, [pc, r0]
	bl	p_12_plt__jit_icall_mono_helper_ldstr_llvm
	mov	r1, r0
	movw	r0, #124
	movt	r0, #512
	bl	p_13_plt__jit_icall_mono_create_corlib_exception_1_llvm
	bl	p_14_plt__jit_icall_mono_arch_throw_exception_llvm
	.p2align	2
.LCPI12_0:
	.long	mono_aot_System_llvm_got-(.LPC12_0+8)
.LCPI12_1:
	.long	mono_inited-(.LPC12_1+8)
.LCPI12_2:
	.long	mono_aot_System_llvm_got-(.LPC12_2+8)
.Lfunc_end12:
	.size	System_Uri__ctor_string_System_UriKind, .Lfunc_end12-System_Uri__ctor_string_System_UriKind
.Lexception6:
	.fnend

	.hidden	System_Uri_op_Inequality_System_Uri_System_Uri
	.globl	System_Uri_op_Inequality_System_Uri_System_Uri
	.p2align	2
	.type	System_Uri_op_Inequality_System_Uri_System_Uri,%function
	.code	32
System_Uri_op_Inequality_System_Uri_System_Uri:
.Lfunc_begin13:
	.fnstart
	.save	{r4, r5, r6, lr}
	push	{r4, r5, r6, lr}
.Ltmp80:
.Ltmp81:
.Ltmp82:
.Ltmp83:
.Ltmp84:
	mov	r4, r0
	ldr	r0, .LCPI13_0
	mov	r5, r1
	ldr	r1, .LCPI13_1
.LPC13_0:
	add	r0, pc, r0
.LPC13_1:
	add	r1, pc, r1
	ldr	r0, [r0, #28]
	ldrb	r6, [r1, #861]
	ldr	r0, [r0]
	cmp	r0, #0
	blne	mono_aot_System_icall_cold_wrapper_265
	cmp	r6, #0
	beq	.LBB13_5
	cmp	r4, r5
	beq	.LBB13_6
.LBB13_2:
	cmp	r4, #0
	mov	r0, #1
	cmpne	r5, #0
	bne	.LBB13_4
	pop	{r4, r5, r6, pc}
.LBB13_4:
	ldr	r0, [r5]
	mov	r1, r4
	ldr	r2, [r0, #52]
	mov	r0, r5
	blx	r2
	mov	r1, r0
	mov	r0, #0
	tst	r1, #255
	movweq	r0, #1
	pop	{r4, r5, r6, pc}
.LBB13_5:
	movw	r0, #861
	bl	mono_aot_System_init_method
	cmp	r4, r5
	bne	.LBB13_2
.LBB13_6:
	mov	r0, #0
	pop	{r4, r5, r6, pc}
	.p2align	2
.LCPI13_0:
	.long	mono_aot_System_llvm_got-(.LPC13_0+8)
.LCPI13_1:
	.long	mono_inited-(.LPC13_1+8)
.Lfunc_end13:
	.size	System_Uri_op_Inequality_System_Uri_System_Uri, .Lfunc_end13-System_Uri_op_Inequality_System_Uri_System_Uri
.Lexception7:
	.fnend

	.hidden	System_Uri_ParseScheme_string_System_Uri_Flags__System_UriParser_
	.globl	System_Uri_ParseScheme_string_System_Uri_Flags__System_UriParser_
	.p2align	2
	.type	System_Uri_ParseScheme_string_System_Uri_Flags__System_UriParser_,%function
	.code	32
System_Uri_ParseScheme_string_System_Uri_Flags__System_UriParser_:
.Lfunc_begin14:
	.fnstart
	.save	{r4, r5, r6, r7, r11, lr}
	push	{r4, r5, r6, r7, r11, lr}
.Ltmp85:
.Ltmp86:
.Ltmp87:
.Ltmp88:
.Ltmp89:
.Ltmp90:
.Ltmp91:
	.pad	#8
	sub	sp, sp, #8
.Ltmp92:
	mov	r6, r0
	ldr	r0, .LCPI14_1
	mov	r4, r1
	ldr	r1, .LCPI14_2
.LPC14_1:
	add	r0, pc, r0
	mov	r5, r2
.LPC14_2:
	add	r1, pc, r1
	ldr	r0, [r0, #28]
	ldrb	r7, [r1, #864]
	ldr	r0, [r0]
	cmp	r0, #0
	blne	mono_aot_System_icall_cold_wrapper_265
	cmp	r7, #0
	beq	.LBB14_9
.LBB14_1:
	mov	r0, #0
	cmp	r6, #0
	str	r0, [sp, #4]
	beq	.LBB14_10
	ldr	r1, [r6, #8]
	cmp	r1, #0
	beq	.LBB14_6
	movw	r0, #65519
	mov	r7, #6
	cmp	r1, r0
	bgt	.LBB14_8
	add	r0, r6, #12
	add	r2, sp, #4
	mov	r7, #0
	uxth	r1, r1
	mov	r3, r4
	stm	sp, {r5, r7}
	bl	System_Uri_ParseSchemeCheckImplicitFile_char__uint16_System_ParsingError__System_Uri_Flags__System_UriParser_
	ldr	r1, [sp, #4]
	cmp	r1, #0
	beq	.LBB14_7
	ldr	r7, [sp, #4]
	b	.LBB14_8
.LBB14_6:
	mov	r7, #4
	b	.LBB14_8
.LBB14_7:
	ldr	r1, [r4]
	uxth	r0, r0
	orr	r0, r1, r0
	str	r0, [r4]
.LBB14_8:
	mov	r0, r7
	add	sp, sp, #8
	pop	{r4, r5, r6, r7, r11, pc}
.LBB14_9:
	mov	r0, #864
	bl	mono_aot_System_init_method
	b	.LBB14_1
.Ltmp93:
.LBB14_10:
	ldr	r0, .LCPI14_0
.LPC14_0:
	add	r1, pc, r0
	mov	r0, #225
	bl	p_8_plt__jit_icall_llvm_throw_corlib_exception_abs_trampoline_llvm
	.p2align	2
.LCPI14_0:
	.long	.Ltmp93-(.LPC14_0+8)
.LCPI14_1:
	.long	mono_aot_System_llvm_got-(.LPC14_1+8)
.LCPI14_2:
	.long	mono_inited-(.LPC14_2+8)
.Lfunc_end14:
	.size	System_Uri_ParseScheme_string_System_Uri_Flags__System_UriParser_, .Lfunc_end14-System_Uri_ParseScheme_string_System_Uri_Flags__System_UriParser_
.Lexception8:
	.fnend

	.hidden	System_Uri_ParseSchemeCheckImplicitFile_char__uint16_System_ParsingError__System_Uri_Flags__System_UriParser_
	.globl	System_Uri_ParseSchemeCheckImplicitFile_char__uint16_System_ParsingError__System_Uri_Flags__System_UriParser_
	.p2align	2
	.type	System_Uri_ParseSchemeCheckImplicitFile_char__uint16_System_ParsingError__System_Uri_Flags__System_UriParser_,%function
	.code	32
System_Uri_ParseSchemeCheckImplicitFile_char__uint16_System_ParsingError__System_Uri_Flags__System_UriParser_:
.Lfunc_begin15:
	.fnstart
	.save	{r4, r5, r6, r7, r9, r10, r11, lr}
	push	{r4, r5, r6, r7, r9, r10, r11, lr}
.Ltmp94:
.Ltmp95:
.Ltmp96:
.Ltmp97:
.Ltmp98:
.Ltmp99:
.Ltmp100:
.Ltmp101:
	.setfp	r11, sp, #24
	add	r11, sp, #24
.Ltmp102:
	.pad	#16
	sub	sp, sp, #16
	str	r2, [r11, #-32]
	mov	r5, r0
	ldr	r9, .LCPI15_0
	mov	r7, r1
	ldr	r0, .LCPI15_1
	mov	r6, r3
.LPC15_0:
	add	r9, pc, r9
.LPC15_1:
	add	r0, pc, r0
	ldr	r1, [r9, #28]
	ldrb	r4, [r0, #878]
	ldr	r0, [r1]
	cmp	r0, #0
	blne	mono_aot_System_icall_cold_wrapper_265
	cmp	r4, #0
	beq	.LBB15_55
.LBB15_1:
	mov	r10, #0
	cmp	r7, #1
	blt	.LBB15_4
.LBB15_2:
	add	r0, r5, r10, lsl #1
	ldrh	r0, [r0]
	bl	System_Uri_IsLWS_char
	tst	r0, #255
	beq	.LBB15_4
	ldr	r0, [r9, #28]
	add	r1, r10, #1
	uxth	r10, r1
	ldr	r0, [r0]
	cmp	r0, #0
	blne	mono_aot_System_icall_cold_wrapper_265
	cmp	r10, r7
	blt	.LBB15_2
.LBB15_4:
	cmp	r10, r7
	bge	.LBB15_39
	ldr	r2, [r11, #8]
	mov	r4, r10
.LBB15_6:
	add	r0, r5, r4, lsl #1
	ldrh	r0, [r0]
	cmp	r0, #58
	beq	.LBB15_10
	ldr	r0, [r9, #28]
	add	r1, r4, #1
	uxth	r4, r1
	ldr	r0, [r0]
	cmp	r0, #0
	bne	.LBB15_9
	cmp	r4, r7
	blt	.LBB15_6
	b	.LBB15_10
.LBB15_9:
	str	r6, [r11, #-36]
	mov	r6, r2
	bl	mono_aot_System_icall_cold_wrapper_265
	mov	r2, r6
	ldr	r6, [r11, #-36]
	cmp	r4, r7
	blt	.LBB15_6
.LBB15_10:
	add	r12, r10, #2
	cmp	r4, r7
	beq	.LBB15_14
	cmp	r4, r12
	blt	.LBB15_14
	sub	r1, r4, r10
	add	r0, r5, r10, lsl #1
	str	r6, [r11, #-36]
	mov	r6, r12
	uxth	r1, r1
	bl	p_20_plt_System_Uri_CheckKnownSchemes_long__uint16_System_UriParser__llvm
	mov	r12, r6
	ldr	r2, [r11, #8]
	ldr	r6, [r11, #-36]
	tst	r0, #255
	beq	.LBB15_14
.LBB15_13:
	add	r0, r4, #1
	uxth	r10, r0
	b	.LBB15_41
.LBB15_14:
	cmp	r12, r7
	bge	.LBB15_39
	cmp	r4, r10
	beq	.LBB15_39
	lsl	r1, r10, #1
	ldrh	r0, [r1, r5]!
	ldrh	r3, [r1, #2]
	cmp	r3, #124
	cmpne	r3, #58
	bne	.LBB15_21
	mov	r4, r3
	mov	r7, r12
	bl	p_16_plt_System_Uri_IsAsciiLetter_char_llvm
	tst	r0, #255
	beq	.LBB15_29
	add	r0, r5, r7, lsl #1
	ldrh	r0, [r0]
	cmp	r0, #47
	cmpne	r0, #92
	bne	.LBB15_31
	movw	r2, #0
	ldr	r1, [r6]
	movt	r2, #8208
	ldr	r0, [r9, #128]
	add	r2, r2, #134217728
	orr	r1, r1, r2
	str	r1, [r6]
	ldrb	r1, [r0, #25]
	cmp	r1, #0
	beq	.LBB15_56
.LBB15_20:
	ldr	r0, [r9, #132]
	ldr	r4, [r11, #8]
	ldr	r1, [r9, #8]
	ldr	r0, [r0]
	dmb	ish
	str	r0, [r4]
	mov	r0, #1
	strb	r0, [r1, r4, lsr #9]
	b	.LBB15_41
.LBB15_21:
	cmp	r0, #92
	beq	.LBB15_24
	cmp	r0, #47
	bne	.LBB15_38
	ldr	r0, [r9, #136]
	ldrb	r0, [r0]
	cmp	r0, #0
	beq	.LBB15_32
.LBB15_24:
	cmp	r3, #47
	cmpne	r3, #92
	bne	.LBB15_39
	movw	r3, #0
	ldr	r1, [r6]
	movt	r3, #8208
	ldr	r0, [r9, #128]
	add	r3, r3, #268435456
	orr	r1, r1, r3
	str	r1, [r6]
	ldrb	r1, [r0, #25]
	cmp	r1, #0
	beq	.LBB15_57
.LBB15_26:
	ldr	r0, [r9, #132]
	uxth	r10, r12
	ldr	r1, [r9, #8]
	ldr	r0, [r0]
	dmb	ish
	str	r0, [r2]
	mov	r0, #1
	strb	r0, [r1, r2, lsr #9]
	cmp	r10, r7
	blt	.LBB15_28
	b	.LBB15_41
.LBB15_27:
	ldr	r0, [r9, #28]
	add	r1, r10, #1
	uxth	r10, r1
	ldr	r0, [r0]
	cmp	r0, #0
	blne	mono_aot_System_icall_cold_wrapper_265
	cmp	r10, r7
	bge	.LBB15_41
.LBB15_28:
	add	r0, r5, r10, lsl #1
	ldrh	r0, [r0]
	cmp	r0, #92
	cmpne	r0, #47
	beq	.LBB15_27
	b	.LBB15_41
.LBB15_29:
	cmp	r4, #58
	bne	.LBB15_39
	mov	r0, #2
	b	.LBB15_40
.LBB15_31:
	mov	r0, #7
	b	.LBB15_40
.LBB15_32:
	cmp	r10, #0
	beq	.LBB15_52
	ldrh	r0, [r1, #-2]
	cmp	r0, #58
	bne	.LBB15_52
	cmp	r3, #47
	bne	.LBB15_38
	add	r0, r5, r12, lsl #1
	ldrh	r0, [r0]
	cmp	r0, #47
	bne	.LBB15_38
	ldr	r1, [r6]
	ldr	r0, [r9, #128]
	orr	r1, r1, #1048576
	orr	r1, r1, #536870912
	str	r1, [r6]
	ldrb	r1, [r0, #25]
	cmp	r1, #0
	beq	.LBB15_59
.LBB15_37:
	ldr	r0, [r9, #132]
	uxth	r10, r12
	b	.LBB15_54
.LBB15_38:
	cmp	r4, r7
	bne	.LBB15_42
.LBB15_39:
	mov	r0, #1
.LBB15_40:
	ldr	r1, [r11, #-32]
	mov	r10, #0
	str	r0, [r1]
.LBB15_41:
	mov	r0, r10
	sub	sp, r11, #24
	pop	{r4, r5, r6, r7, r9, r10, r11, pc}
.LBB15_42:
	sub	r0, r4, r10
	cmp	r0, #1024
	bgt	.LBB15_51
	mov	r1, #2
	bl	p_18_plt__jit_icall___emul_op_imul_ovf_un_llvm
	mov	r7, #0
	cmp	r0, #0
	mov	r6, #0
	beq	.LBB15_45
	add	r0, r0, #7
	bic	r2, r0, #7
	sub	r6, sp, r2
	mov	sp, r6
	mov	r0, r6
	mov	r1, #0
	bl	memset
.LBB15_45:
	ldr	r2, [r11, #8]
	cmp	r4, r10
	ble	.LBB15_50
	mov	r7, #0
.LBB15_47:
	add	r1, r5, r10, lsl #1
	add	r0, r6, r7, lsl #1
	ldrh	r1, [r1]
	strh	r1, [r0]
	add	r0, r10, #1
	ldr	r1, [r9, #28]
	uxth	r10, r0
	add	r0, r7, #1
	ldr	r1, [r1]
	uxth	r7, r0
	cmp	r1, #0
	bne	.LBB15_49
	cmp	r10, r4
	blt	.LBB15_47
	b	.LBB15_50
.LBB15_49:
	bl	mono_aot_System_icall_cold_wrapper_265
	ldr	r2, [r11, #8]
	cmp	r10, r4
	blt	.LBB15_47
.LBB15_50:
	mov	r0, r6
	mov	r1, r7
	bl	p_19_plt_System_Uri_CheckSchemeSyntax_char__uint16_System_UriParser__llvm
	ldr	r1, [r11, #-32]
	mov	r10, #0
	cmp	r0, #0
	str	r0, [r1]
	bne	.LBB15_41
	b	.LBB15_13
.LBB15_51:
	mov	r0, #5
	b	.LBB15_40
.LBB15_52:
	ldr	r1, [r6]
	ldr	r0, [r9, #128]
	orr	r1, r1, #1048576
	orr	r1, r1, #536870912
	str	r1, [r6]
	ldrb	r1, [r0, #25]
	cmp	r1, #0
	beq	.LBB15_58
.LBB15_53:
	ldr	r0, [r9, #132]
.LBB15_54:
	ldr	r1, [r9, #8]
	ldr	r0, [r0]
	dmb	ish
	str	r0, [r2]
	mov	r0, #1
	strb	r0, [r1, r2, lsr #9]
	b	.LBB15_41
.LBB15_55:
	movw	r0, #878
	bl	mono_aot_System_init_method
	b	.LBB15_1
.LBB15_56:
	bl	p_17_plt__jit_icall_mono_generic_class_init_llvm
	b	.LBB15_20
.LBB15_57:
	mov	r4, r2
	mov	r6, r12
	bl	p_17_plt__jit_icall_mono_generic_class_init_llvm
	mov	r12, r6
	mov	r2, r4
	b	.LBB15_26
.LBB15_58:
	mov	r4, r2
	bl	p_17_plt__jit_icall_mono_generic_class_init_llvm
	mov	r2, r4
	b	.LBB15_53
.LBB15_59:
	mov	r4, r2
	mov	r5, r12
	bl	p_17_plt__jit_icall_mono_generic_class_init_llvm
	mov	r12, r5
	mov	r2, r4
	b	.LBB15_37
	.p2align	2
.LCPI15_0:
	.long	mono_aot_System_llvm_got-(.LPC15_0+8)
.LCPI15_1:
	.long	mono_inited-(.LPC15_1+8)
.Lfunc_end15:
	.size	System_Uri_ParseSchemeCheckImplicitFile_char__uint16_System_ParsingError__System_Uri_Flags__System_UriParser_, .Lfunc_end15-System_Uri_ParseSchemeCheckImplicitFile_char__uint16_System_ParsingError__System_Uri_Flags__System_UriParser_
.Lexception9:
	.fnend

	.hidden	System_Uri_IsLWS_char
	.globl	System_Uri_IsLWS_char
	.p2align	2
	.type	System_Uri_IsLWS_char,%function
	.code	32
System_Uri_IsLWS_char:
.Lfunc_begin16:
	.fnstart
	.save	{r4, lr}
	push	{r4, lr}
.Ltmp103:
.Ltmp104:
.Ltmp105:
	mov	r4, r0
	ldr	r0, .LCPI16_0
.LPC16_0:
	add	r0, pc, r0
	ldrb	r0, [r0, #893]
	cmp	r0, #0
	beq	.LBB16_6
.LBB16_1:
	mov	r0, #0
	cmp	r4, #32
	bgt	.LBB16_5
	sub	r1, r4, #10
	cmp	r1, #22
	bhi	.LBB16_4
	movw	r2, #9
	mov	r3, #1
	movt	r2, #64
	mov	r0, #1
	tst	r2, r3, lsl r1
	popne	{r4, pc}
.LBB16_4:
	mov	r0, #0
	cmp	r4, #9
	movweq	r0, #1
.LBB16_5:
	pop	{r4, pc}
.LBB16_6:
	movw	r0, #893
	bl	mono_aot_System_init_method
	b	.LBB16_1
	.p2align	2
.LCPI16_0:
	.long	mono_inited-(.LPC16_0+8)
.Lfunc_end16:
	.size	System_Uri_IsLWS_char, .Lfunc_end16-System_Uri_IsLWS_char
.Lexception10:
	.fnend

	.hidden	System_Uri_CreateThis_string_bool_System_UriKind
	.globl	System_Uri_CreateThis_string_bool_System_UriKind
	.p2align	2
	.type	System_Uri_CreateThis_string_bool_System_UriKind,%function
	.code	32
System_Uri_CreateThis_string_bool_System_UriKind:
.Lfunc_begin17:
	.fnstart
	.save	{r4, r5, r6, r7, r9, r10, r11, lr}
	push	{r4, r5, r6, r7, r9, r10, r11, lr}
.Ltmp106:
.Ltmp107:
.Ltmp108:
.Ltmp109:
.Ltmp110:
.Ltmp111:
.Ltmp112:
.Ltmp113:
.Ltmp114:
	.pad	#8
	sub	sp, sp, #8
.Ltmp115:
	ldr	r9, .LCPI17_1
	mov	r5, r0
	ldr	r0, .LCPI17_2
	mov	r7, r1
.LPC17_1:
	add	r9, pc, r9
	mov	r4, r3
.LPC17_2:
	add	r0, pc, r0
	mov	r10, r2
	ldr	r1, [r9, #28]
	ldrb	r6, [r0, #898]
	ldr	r0, [r1]
	cmp	r0, #0
	blne	mono_aot_System_icall_cold_wrapper_265
	cmp	r6, #0
	beq	.LBB17_5
.LBB17_1:
	mov	r0, #0
	cmp	r4, #3
	str	r0, [sp, #4]
	blo	.LBB17_3
	cmp	r4, #300
	bne	.LBB17_6
.LBB17_3:
	cmp	r7, #0
	ldreq	r0, [r9, #140]
	ldreq	r7, [r0]
	cmp	r5, #0
	beq	.LBB17_7
	ldr	r0, [r9, #8]
	mov	r1, r5
	dmb	ish
	str	r7, [r1, #8]!
	mov	r2, #1
	cmp	r10, #0
	strb	r2, [r0, r1, lsr #9]
	add	r1, r5, #32
	add	r2, r5, #16
	ldrne	r0, [r5, #32]
	orrne	r0, r0, #524288
	strne	r0, [r5, #32]
	ldr	r0, [r5, #8]
	bl	System_Uri_ParseScheme_string_System_Uri_Flags__System_UriParser_
	add	r3, sp, #4
	mov	r1, r0
	mov	r0, r5
	mov	r2, r4
	bl	System_Uri_InitializeUri_System_ParsingError_System_UriKind_System_UriFormatException_
	ldr	r0, [sp, #4]
	cmp	r0, #0
	addeq	sp, sp, #8
	popeq	{r4, r5, r6, r7, r9, r10, r11, pc}
	ldr	r0, [sp, #4]
	bl	p_14_plt__jit_icall_mono_arch_throw_exception_llvm
.LBB17_5:
	movw	r0, #898
	bl	mono_aot_System_init_method
	b	.LBB17_1
.LBB17_6:
	ldr	r0, .LCPI17_3
	movw	r1, #13000
.LPC17_3:
	ldr	r0, [pc, r0]
	bl	p_12_plt__jit_icall_mono_helper_ldstr_llvm
	mov	r5, r0
	ldr	r0, [r9, #144]
	mov	r1, #1
	bl	p_24_plt_wrapper_alloc_object_AllocVector_intptr_intptr_llvm
	mov	r6, r0
	ldr	r0, [r9, #148]
	mov	r1, #12
	bl	p_1_plt_wrapper_alloc_object_AllocSmall_intptr_intptr_llvm
	mov	r2, r0
	ldr	r0, [r6]
	str	r4, [r2, #8]
	mov	r1, #0
	ldr	r3, [r0, #136]
	mov	r0, r6
	blx	r3
	mov	r0, r5
	mov	r1, r6
	bl	p_25_plt_SR_GetString_string_object___llvm
	mov	r1, r0
	movw	r0, #123
	movt	r0, #512
	bl	p_13_plt__jit_icall_mono_create_corlib_exception_1_llvm
	bl	p_14_plt__jit_icall_mono_arch_throw_exception_llvm
.Ltmp116:
.LBB17_7:
	ldr	r0, .LCPI17_0
.LPC17_0:
	add	r1, pc, r0
	mov	r0, #225
	bl	p_8_plt__jit_icall_llvm_throw_corlib_exception_abs_trampoline_llvm
	.p2align	2
.LCPI17_0:
	.long	.Ltmp116-(.LPC17_0+8)
.LCPI17_1:
	.long	mono_aot_System_llvm_got-(.LPC17_1+8)
.LCPI17_2:
	.long	mono_inited-(.LPC17_2+8)
.LCPI17_3:
	.long	mono_aot_System_llvm_got-(.LPC17_3+8)
.Lfunc_end17:
	.size	System_Uri_CreateThis_string_bool_System_UriKind, .Lfunc_end17-System_Uri_CreateThis_string_bool_System_UriKind
.Lexception11:
	.fnend

	.hidden	System_Uri_InitializeUri_System_ParsingError_System_UriKind_System_UriFormatException_
	.globl	System_Uri_InitializeUri_System_ParsingError_System_UriKind_System_UriFormatException_
	.p2align	2
	.type	System_Uri_InitializeUri_System_ParsingError_System_UriKind_System_UriFormatException_,%function
	.code	32
System_Uri_InitializeUri_System_ParsingError_System_UriKind_System_UriFormatException_:
.Lfunc_begin18:
	.fnstart
	.save	{r4, r5, r6, r7, r9, r10, r11, lr}
	push	{r4, r5, r6, r7, r9, r10, r11, lr}
.Ltmp124:
.Ltmp125:
.Ltmp126:
.Ltmp127:
.Ltmp128:
.Ltmp129:
.Ltmp130:
.Ltmp131:
.Ltmp132:
	.pad	#16
	sub	sp, sp, #16
.Ltmp133:
	ldr	r9, .LCPI18_11
	mov	r4, r0
	ldr	r0, .LCPI18_12
	mov	r6, r1
.LPC18_11:
	add	r9, pc, r9
	str	r3, [sp, #8]
.LPC18_12:
	add	r0, pc, r0
	mov	r10, r2
	ldr	r1, [r9, #28]
	ldrb	r5, [r0, #899]
	ldr	r0, [r1]
	cmp	r0, #0
	blne	mono_aot_System_icall_cold_wrapper_265
	cmp	r5, #0
	beq	.LBB18_5
	cmp	r6, #0
	beq	.LBB18_6
.LBB18_2:
	cmp	r6, #5
	blt	.LBB18_8
	cmp	r4, #0
	bne	.LBB18_38
.Ltmp134:
	ldr	r0, .LCPI18_3
.LPC18_3:
	add	r1, pc, r0
	mov	r0, #225
	bl	p_8_plt__jit_icall_llvm_throw_corlib_exception_abs_trampoline_llvm
.LBB18_5:
	movw	r0, #899
	bl	mono_aot_System_init_method
	cmp	r6, #0
	bne	.LBB18_2
.LBB18_6:
	cmp	r4, #0
	beq	.LBB18_70
	mov	r0, r4
	ldr	r1, [r0, #32]!
	tst	r1, #536870912
	bne	.LBB18_18
.LBB18_8:
	ldr	r0, [r9, #152]
	ldrb	r0, [r0]
	dmb	ish
	cmp	r0, #0
	bne	.LBB18_12
	cmp	r4, #0
	beq	.LBB18_72
	ldr	r1, [r4, #8]
	bl	System_Uri_CheckForConfigLoad_string
	tst	r0, #255
	beq	.LBB18_12
	bl	p_39_plt_System_Uri_InitializeUriConfig_llvm
.LBB18_12:
	ldr	r0, [r9, #124]
	ldrb	r0, [r0]
	dmb	ish
	cmp	r0, #0
	beq	.LBB18_16
	cmp	r4, #0
	beq	.LBB18_71
	mov	r5, r4
	ldr	r0, [r5, #16]!
	cmp	r0, #0
	beq	.LBB18_26
	mov	r1, #268435456
	bl	p_10_plt_System_UriParser_InFact_System_UriSyntaxFlags_llvm
	mov	r7, r4
	tst	r0, #255
	strb	r0, [r7, #40]!
	bne	.LBB18_27
	b	.LBB18_30
.LBB18_16:
	cmp	r4, #0
	beq	.LBB18_73
	mov	r11, #0
	mov	r7, r4
	strb	r11, [r7, #40]!
	sub	r5, r7, #24
	b	.LBB18_31
.LBB18_18:
	cmp	r10, #0
	beq	.LBB18_59
.LBB18_19:
	and	r2, r1, #134217728
	cmp	r10, #1
	beq	.LBB18_52
	cmp	r2, #0
	bne	.LBB18_52
	cmp	r10, #2
	beq	.LBB18_54
	ldr	r2, [r4, #8]
	cmp	r2, #0
	beq	.LBB18_78
	ldr	r3, [r2, #8]
	cmp	r3, #2
	blt	.LBB18_8
	ldrh	r3, [r2, #12]
	cmp	r3, #92
	bne	.LBB18_54
	ldrh	r2, [r2, #14]
	cmp	r2, #92
	beq	.LBB18_8
	b	.LBB18_54
.LBB18_26:
	mov	r0, #1
	mov	r7, r4
	strb	r0, [r7, #40]!
.LBB18_27:
	ldr	r1, [r4, #8]
	bl	System_Uri_CheckForUnicode_string
	tst	r0, #255
	bne	.LBB18_29
	ldr	r1, [r4, #8]
	bl	System_Uri_CheckForEscapedUnreserved_string
	tst	r0, #255
	beq	.LBB18_30
.LBB18_29:
	ldr	r1, [r4, #36]
	mov	r11, #1
	ldr	r0, [r4, #8]
	orr	r1, r1, #2
	str	r1, [r4, #36]
	ldr	r1, [r9, #8]
	dmb	ish
	str	r0, [r4, #12]
	add	r0, r4, #12
	strb	r11, [r1, r0, lsr #9]
	b	.LBB18_31
.LBB18_30:
	mov	r11, #0
.LBB18_31:
	ldr	r0, [r5]
	cmp	r0, #0
	beq	.LBB18_37
	bl	p_30_plt_System_UriParser_get_IsSimple_llvm
	tst	r0, #255
	beq	.LBB18_40
	mov	r0, r4
	bl	p_35_plt_System_Uri_PrivateParseMinimal_llvm
	cmp	r0, #0
	beq	.LBB18_55
	cmp	r10, #1
	beq	.LBB18_57
	cmp	r0, #4
	bgt	.LBB18_57
	mov	r0, #0
	str	r0, [r4, #16]
	ldr	r1, [sp, #8]
	dmb	ish
	str	r0, [r1]
	ldr	r1, [r4, #32]
	str	r0, [r4, #36]
	and	r1, r1, #524288
	str	r1, [r4, #32]
	b	.LBB18_66
.LBB18_37:
	cmp	r6, #0
	cmpne	r10, #1
	bne	.LBB18_45
.LBB18_38:
	mov	r0, #0
	str	r0, [r4, #8]
	mov	r0, r6
	ldr	r4, [sp, #8]
	bl	p_26_plt_System_Uri_GetException_System_ParsingError_llvm
	ldr	r1, [r9, #8]
	dmb	ish
	str	r0, [r4]
	mov	r0, #1
	strb	r0, [r1, r4, lsr #9]
.LBB18_39:
	add	sp, sp, #16
	pop	{r4, r5, r6, r7, r9, r10, r11, pc}
.LBB18_40:
	ldr	r0, [r5]
	cmp	r0, #0
	beq	.LBB18_74
	bl	p_31_plt_System_UriParser_InternalOnNewUri_llvm
	ldr	r3, [r9, #8]
	mov	r1, r4
	dmb	ish
	str	r0, [r1, #16]!
	mov	r0, #1
	mov	r9, r4
	strb	r0, [r3, r1, lsr #9]
	mov	r2, r3
	str	r2, [sp, #4]
	ldr	r2, [r9, #32]!
	ldr	r0, [r1]
	orr	r1, r2, #16777216
	str	r1, [r9]
	ldr	r2, [sp, #8]
	cmp	r0, #0
	beq	.LBB18_75
	mov	r1, r4
	bl	p_32_plt_System_UriParser_InternalValidate_System_Uri_System_UriFormatException__llvm
	ldr	r0, [sp, #8]
	ldr	r0, [r0]
	cmp	r0, #0
	beq	.LBB18_63
	cmp	r6, #0
	cmpne	r10, #1
	beq	.LBB18_39
	mov	r0, #0
	str	r0, [r5]
	ldr	r1, [sp, #8]
	dmb	ish
	str	r0, [r1]
	ldr	r1, [r9]
	str	r0, [r9, #4]
	and	r1, r1, #524288
	str	r1, [r9]
	add	sp, sp, #16
	pop	{r4, r5, r6, r7, r9, r10, r11, pc}
.LBB18_45:
	ldr	r0, [sp, #8]
	mov	r1, #0
	dmb	ish
	str	r1, [r0]
	ldrb	r2, [r4, #40]
	ldr	r0, [r4, #32]
	ldr	r1, [r4, #36]
	tst	r11, r2
	and	r0, r0, #524288
	str	r0, [r4, #32]
	and	r1, r1, #2
	str	r1, [r4, #36]
	beq	.LBB18_39
	ldr	r1, [r4, #12]
	cmp	r1, #0
	beq	.LBB18_77
	ldr	r3, [r1, #8]
	mov	r0, #0
	str	r0, [sp]
	mov	r0, r4
	mov	r2, #0
	bl	p_27_plt_System_Uri_EscapeUnescapeIri_string_int_int_System_UriComponents_llvm
	ldr	r5, [r9, #8]
	add	r7, r4, #8
	mov	r6, #1
	dmb	ish
	str	r0, [r4, #8]
	strb	r6, [r5, r7, lsr #9]
.Ltmp117:
	bl	System_UriParser_get_ShouldUseLegacyV2Quirks
.Ltmp118:
	tst	r0, #255
	beq	.LBB18_39
	ldr	r0, [r4, #8]
	cmp	r0, #0
	beq	.LBB18_79
.Ltmp119:
	mov	r1, #1
	mov	r4, #1
	bl	p_29_plt_string_Normalize_System_Text_NormalizationForm_llvm
.Ltmp120:
	lsr	r1, r7, #9
	dmb	ish
	str	r0, [r7]
	strb	r4, [r1, r5]
	add	sp, sp, #16
	pop	{r4, r5, r6, r7, r9, r10, r11, pc}
.LBB18_52:
	cmp	r2, #0
	beq	.LBB18_8
	cmp	r10, #2
	bne	.LBB18_8
.LBB18_54:
	mov	r2, #0
	and	r1, r1, #524288
	str	r2, [r4, #16]
	str	r1, [r0]
	str	r2, [r0, #4]
	ldr	r0, [sp, #8]
	dmb	ish
	str	r2, [r0]
	add	sp, sp, #16
	pop	{r4, r5, r6, r7, r9, r10, r11, pc}
.LBB18_55:
	ldr	r5, [sp, #8]
	cmp	r10, #2
	bne	.LBB18_65
	mov	r0, #12
	b	.LBB18_58
.LBB18_57:
	ldr	r5, [sp, #8]
.LBB18_58:
	bl	p_26_plt_System_Uri_GetException_System_ParsingError_llvm
	ldr	r1, [r9, #8]
	dmb	ish
	str	r0, [r5]
	mov	r0, #1
	strb	r0, [r1, r5, lsr #9]
	b	.LBB18_66
.LBB18_59:
	ldr	r2, [r4, #8]
	cmp	r2, #0
	beq	.LBB18_76
	ldr	r3, [r2, #8]
	cmp	r3, #1
	blt	.LBB18_19
	ldrh	r2, [r2, #12]
	cmp	r2, #47
	bne	.LBB18_19
	ldr	r2, [r9, #156]
	ldrb	r2, [r2]
	cmp	r2, #0
	bne	.LBB18_19
	b	.LBB18_8
.LBB18_63:
	cmp	r6, #0
	ldrbeq	r0, [r9, #3]
	tsteq	r0, #4
	beq	.LBB18_68
	mov	r0, r4
	bl	p_33_plt_System_Uri_SetUserDrivenParsing_llvm
	b	.LBB18_66
.LBB18_65:
	mov	r0, #0
	dmb	ish
	str	r0, [r5]
.LBB18_66:
	ldrb	r0, [r7]
	tst	r11, r0
	beq	.LBB18_39
	mov	r0, r4
	bl	p_34_plt_System_Uri_EnsureParseRemaining_llvm
	add	sp, sp, #16
	pop	{r4, r5, r6, r7, r9, r10, r11, pc}
.LBB18_68:
	cmp	r10, #2
	bne	.LBB18_66
	mov	r0, #12
	ldr	r5, [sp, #8]
	bl	p_26_plt_System_Uri_GetException_System_ParsingError_llvm
	dmb	ish
	str	r0, [r5]
	ldr	r2, [sp, #4]
	lsr	r0, r5, #9
	mov	r1, #1
	strb	r1, [r0, r2]
	b	.LBB18_66
.Ltmp135:
.LBB18_70:
	ldr	r0, .LCPI18_2
.LPC18_2:
	add	r1, pc, r0
	mov	r0, #225
	bl	p_8_plt__jit_icall_llvm_throw_corlib_exception_abs_trampoline_llvm
.Ltmp136:
.LBB18_71:
	ldr	r0, .LCPI18_4
.LPC18_4:
	add	r1, pc, r0
	mov	r0, #225
	bl	p_8_plt__jit_icall_llvm_throw_corlib_exception_abs_trampoline_llvm
.Ltmp137:
.LBB18_72:
	ldr	r0, .LCPI18_10
.LPC18_10:
	add	r1, pc, r0
	mov	r0, #225
	bl	p_8_plt__jit_icall_llvm_throw_corlib_exception_abs_trampoline_llvm
.Ltmp138:
.LBB18_73:
	ldr	r0, .LCPI18_9
.LPC18_9:
	add	r1, pc, r0
	mov	r0, #225
	bl	p_8_plt__jit_icall_llvm_throw_corlib_exception_abs_trampoline_llvm
.Ltmp139:
.LBB18_74:
	ldr	r0, .LCPI18_6
.LPC18_6:
	add	r1, pc, r0
	mov	r0, #225
	bl	p_8_plt__jit_icall_llvm_throw_corlib_exception_abs_trampoline_llvm
.Ltmp140:
.LBB18_75:
	ldr	r0, .LCPI18_5
.LPC18_5:
	add	r1, pc, r0
	mov	r0, #225
	bl	p_8_plt__jit_icall_llvm_throw_corlib_exception_abs_trampoline_llvm
.Ltmp141:
.LBB18_76:
	ldr	r0, .LCPI18_1
.LPC18_1:
	add	r1, pc, r0
	mov	r0, #225
	bl	p_8_plt__jit_icall_llvm_throw_corlib_exception_abs_trampoline_llvm
.Ltmp142:
.LBB18_77:
	ldr	r0, .LCPI18_8
.LPC18_8:
	add	r1, pc, r0
	mov	r0, #225
	bl	p_8_plt__jit_icall_llvm_throw_corlib_exception_abs_trampoline_llvm
.Ltmp143:
.LBB18_78:
	ldr	r0, .LCPI18_0
.LPC18_0:
	add	r1, pc, r0
	mov	r0, #225
	bl	p_8_plt__jit_icall_llvm_throw_corlib_exception_abs_trampoline_llvm
.Ltmp144:
.LBB18_79:
	ldr	r0, .LCPI18_7
.Ltmp121:
.LPC18_7:
	add	r1, pc, r0
	mov	r0, #225
	bl	p_8_plt__jit_icall_llvm_throw_corlib_exception_abs_trampoline_llvm
.Ltmp122:
.LBB18_81:
.Ltmp123:
	mov	r0, #1
	ldr	r4, [sp, #8]
	bl	p_26_plt_System_Uri_GetException_System_ParsingError_llvm
	dmb	ish
	str	r0, [r4]
	lsr	r0, r4, #9
	strb	r6, [r0, r5]
	bl	p_40_plt__jit_icall_mono_thread_get_undeniable_exception_llvm
	str	r0, [sp, #12]
	ldr	r0, [sp, #12]
	cmp	r0, #0
	beq	.LBB18_39
	ldr	r0, [sp, #12]
	bl	p_14_plt__jit_icall_mono_arch_throw_exception_llvm
	add	sp, sp, #16
	pop	{r4, r5, r6, r7, r9, r10, r11, pc}
	.p2align	2
.LCPI18_0:
	.long	.Ltmp143-(.LPC18_0+8)
.LCPI18_1:
	.long	.Ltmp141-(.LPC18_1+8)
.LCPI18_2:
	.long	.Ltmp135-(.LPC18_2+8)
.LCPI18_3:
	.long	.Ltmp134-(.LPC18_3+8)
.LCPI18_4:
	.long	.Ltmp136-(.LPC18_4+8)
.LCPI18_5:
	.long	.Ltmp140-(.LPC18_5+8)
.LCPI18_6:
	.long	.Ltmp139-(.LPC18_6+8)
.LCPI18_7:
	.long	.Ltmp144-(.LPC18_7+8)
.LCPI18_8:
	.long	.Ltmp142-(.LPC18_8+8)
.LCPI18_9:
	.long	.Ltmp138-(.LPC18_9+8)
.LCPI18_10:
	.long	.Ltmp137-(.LPC18_10+8)
.LCPI18_11:
	.long	mono_aot_System_llvm_got-(.LPC18_11+8)
.LCPI18_12:
	.long	mono_inited-(.LPC18_12+8)
.Lfunc_end18:
	.size	System_Uri_InitializeUri_System_ParsingError_System_UriKind_System_UriFormatException_, .Lfunc_end18-System_Uri_InitializeUri_System_ParsingError_System_UriKind_System_UriFormatException_
.Lexception12:
	.fnend

	.hidden	System_Uri_CheckForConfigLoad_string
	.globl	System_Uri_CheckForConfigLoad_string
	.p2align	2
	.type	System_Uri_CheckForConfigLoad_string,%function
	.code	32
System_Uri_CheckForConfigLoad_string:
.Lfunc_begin19:
	.fnstart
	.save	{r4, r5, r6, r7, r11, lr}
	push	{r4, r5, r6, r7, r11, lr}
.Ltmp145:
.Ltmp146:
.Ltmp147:
.Ltmp148:
.Ltmp149:
.Ltmp150:
.Ltmp151:
	ldr	r5, .LCPI19_1
	mov	r4, r1
.LPC19_1:
	add	r5, pc, r5
	ldr	r0, [r5, #28]
	ldr	r0, [r0]
	cmp	r0, #0
	blne	mono_aot_System_icall_cold_wrapper_265
	cmp	r4, #0
	beq	.LBB19_12
	ldr	r6, [r4, #8]
	cmp	r6, #1
	blt	.LBB19_10
	add	r4, r4, #18
	mov	r7, #0
.LBB19_3:
	ldrh	r1, [r4, #-6]
	mov	r0, #1
	cmp	r1, #127
	bhi	.LBB19_11
	cmp	r1, #37
	beq	.LBB19_11
	add	r2, r7, #3
	cmp	r2, r6
	bge	.LBB19_8
	cmp	r1, #120
	ldrheq	r1, [r4, #-4]
	cmpeq	r1, #110
	bne	.LBB19_8
	ldrh	r1, [r4, #-2]
	cmp	r1, #45
	ldrheq	r1, [r4]
	cmpeq	r1, #45
	beq	.LBB19_11
.LBB19_8:
	ldr	r0, [r5, #28]
	add	r7, r7, #1
	ldr	r0, [r0]
	cmp	r0, #0
	blne	mono_aot_System_icall_cold_wrapper_265
	add	r4, r4, #2
	cmp	r7, r6
	blt	.LBB19_3
	mov	r0, #0
	pop	{r4, r5, r6, r7, r11, pc}
.LBB19_10:
	mov	r0, #0
	pop	{r4, r5, r6, r7, r11, pc}
.LBB19_11:
	pop	{r4, r5, r6, r7, r11, pc}
.Ltmp152:
.LBB19_12:
	ldr	r0, .LCPI19_0
.LPC19_0:
	add	r1, pc, r0
	mov	r0, #225
	bl	p_8_plt__jit_icall_llvm_throw_corlib_exception_abs_trampoline_llvm
	.p2align	2
.LCPI19_0:
	.long	.Ltmp152-(.LPC19_0+8)
.LCPI19_1:
	.long	mono_aot_System_llvm_got-(.LPC19_1+8)
.Lfunc_end19:
	.size	System_Uri_CheckForConfigLoad_string, .Lfunc_end19-System_Uri_CheckForConfigLoad_string
.Lexception13:
	.fnend

	.hidden	System_Uri_CheckForUnicode_string
	.globl	System_Uri_CheckForUnicode_string
	.p2align	2
	.type	System_Uri_CheckForUnicode_string,%function
	.code	32
System_Uri_CheckForUnicode_string:
.Lfunc_begin20:
	.fnstart
	.save	{r4, r5, r6, r7, r9, lr}
	push	{r4, r5, r6, r7, r9, lr}
.Ltmp153:
.Ltmp154:
.Ltmp155:
.Ltmp156:
.Ltmp157:
.Ltmp158:
.Ltmp159:
	.pad	#32
	sub	sp, sp, #32
.Ltmp160:
	ldr	r9, .LCPI20_2
	mov	r4, r1
	ldr	r0, .LCPI20_3
.LPC20_2:
	add	r9, pc, r9
.LPC20_3:
	add	r0, pc, r0
	ldr	r1, [r9, #28]
	ldrb	r5, [r0, #901]
	ldr	r0, [r1]
	cmp	r0, #0
	blne	mono_aot_System_icall_cold_wrapper_265
	cmp	r5, #0
	beq	.LBB20_11
.LBB20_1:
	mov	r5, #0
	cmp	r4, #0
	str	r5, [sp, #28]
	beq	.LBB20_13
	ldr	r1, [r4, #8]
	ldr	r0, [r9, #160]
	bl	p_24_plt_wrapper_alloc_object_AllocVector_intptr_intptr_llvm
	str	r5, [sp, #28]
	mov	r3, r0
	ldr	r2, [r4, #8]
	movw	r1, #65535
	mov	r0, #10
	str	r1, [sp, #4]
	str	r0, [sp, #16]
	mov	r0, r4
	str	r1, [sp, #8]
	add	r7, sp, #28
	str	r1, [sp, #12]
	mov	r1, #0
	str	r7, [sp]
	str	r5, [sp, #20]
	str	r5, [sp, #24]
	bl	System_UriHelper_UnescapeString_string_int_int_char___int__char_char_char_System_UnescapeMode_System_UriParser_bool
	ldr	r1, [sp, #28]
	cmp	r1, #1
	blt	.LBB20_10
	cmp	r0, #0
	beq	.LBB20_14
	ldr	r5, [r0, #12]
	add	r4, r0, #16
	mov	r7, #0
.LBB20_5:
	cmp	r5, r7
	bls	.LBB20_12
	ldrh	r0, [r4]
	cmp	r0, #128
	bhs	.LBB20_9
	ldr	r0, [r9, #28]
	add	r7, r7, #1
	ldr	r6, [sp, #28]
	ldr	r0, [r0]
	cmp	r0, #0
	blne	mono_aot_System_icall_cold_wrapper_265
	add	r4, r4, #2
	cmp	r7, r6
	blt	.LBB20_5
	mov	r5, #0
	b	.LBB20_10
.LBB20_9:
	mov	r5, #1
.LBB20_10:
	mov	r0, r5
	add	sp, sp, #32
	pop	{r4, r5, r6, r7, r9, pc}
.LBB20_11:
	movw	r0, #901
	bl	mono_aot_System_init_method
	b	.LBB20_1
.Ltmp161:
.LBB20_12:
	ldr	r0, .LCPI20_0
.LPC20_0:
	add	r1, pc, r0
	mov	r0, #198
	bl	p_8_plt__jit_icall_llvm_throw_corlib_exception_abs_trampoline_llvm
.Ltmp162:
.LBB20_13:
	ldr	r0, .LCPI20_1
.LPC20_1:
	add	r1, pc, r0
	mov	r0, #225
	bl	p_8_plt__jit_icall_llvm_throw_corlib_exception_abs_trampoline_llvm
.LBB20_14:
	mov	r0, #225
	mov	r1, #1
	bl	p_8_plt__jit_icall_llvm_throw_corlib_exception_abs_trampoline_llvm
	.p2align	2
.LCPI20_0:
	.long	.Ltmp161-(.LPC20_0+8)
.LCPI20_1:
	.long	.Ltmp162-(.LPC20_1+8)
.LCPI20_2:
	.long	mono_aot_System_llvm_got-(.LPC20_2+8)
.LCPI20_3:
	.long	mono_inited-(.LPC20_3+8)
.Lfunc_end20:
	.size	System_Uri_CheckForUnicode_string, .Lfunc_end20-System_Uri_CheckForUnicode_string
.Lexception14:
	.fnend

	.hidden	System_Uri_CheckForEscapedUnreserved_string
	.globl	System_Uri_CheckForEscapedUnreserved_string
	.p2align	2
	.type	System_Uri_CheckForEscapedUnreserved_string,%function
	.code	32
System_Uri_CheckForEscapedUnreserved_string:
.Lfunc_begin21:
	.fnstart
	.save	{r4, r5, r6, r7, r9, r10, r11, lr}
	push	{r4, r5, r6, r7, r9, r10, r11, lr}
.Ltmp163:
.Ltmp164:
.Ltmp165:
.Ltmp166:
.Ltmp167:
.Ltmp168:
.Ltmp169:
.Ltmp170:
.Ltmp171:
	ldr	r5, .LCPI21_1
	mov	r4, r1
.LPC21_1:
	add	r5, pc, r5
	ldr	r0, [r5, #28]
	ldr	r0, [r0]
	cmp	r0, #0
	blne	mono_aot_System_icall_cold_wrapper_265
	cmp	r4, #0
	beq	.LBB21_13
	ldr	r0, [r4, #8]
	sub	r6, r0, #2
	cmp	r6, #1
	blt	.LBB21_11
	add	r4, r4, #16
	mov	r7, #0
	movw	r9, #65528
	movw	r10, #65535
.LBB21_3:
	ldrh	r0, [r4, #-4]
	cmp	r0, #37
	bne	.LBB21_9
	ldrh	r0, [r4, #-2]
	bl	p_42_plt_System_Uri_IsHexDigit_char_llvm
	tst	r0, #255
	beq	.LBB21_9
	ldrh	r0, [r4]
	bl	p_42_plt_System_Uri_IsHexDigit_char_llvm
	tst	r0, #255
	beq	.LBB21_9
	ldrh	r0, [r4, #-2]
	and	r1, r0, r9
	cmp	r1, #48
	bne	.LBB21_9
	ldrh	r1, [r4]
	bl	p_43_plt_System_UriHelper_EscapedAscii_char_char_llvm
	uxth	r0, r0
	cmp	r0, r10
	beq	.LBB21_9
	bl	p_44_plt_System_UriHelper_Is3986Unreserved_char_llvm
	tst	r0, #255
	bne	.LBB21_12
.LBB21_9:
	ldr	r0, [r5, #28]
	add	r7, r7, #1
	ldr	r0, [r0]
	cmp	r0, #0
	blne	mono_aot_System_icall_cold_wrapper_265
	add	r4, r4, #2
	cmp	r7, r6
	blt	.LBB21_3
	mov	r0, #0
	pop	{r4, r5, r6, r7, r9, r10, r11, pc}
.LBB21_11:
	mov	r0, #0
	pop	{r4, r5, r6, r7, r9, r10, r11, pc}
.LBB21_12:
	mov	r0, #1
	pop	{r4, r5, r6, r7, r9, r10, r11, pc}
.Ltmp172:
.LBB21_13:
	ldr	r0, .LCPI21_0
.LPC21_0:
	add	r1, pc, r0
	mov	r0, #225
	bl	p_8_plt__jit_icall_llvm_throw_corlib_exception_abs_trampoline_llvm
	.p2align	2
.LCPI21_0:
	.long	.Ltmp172-(.LPC21_0+8)
.LCPI21_1:
	.long	mono_aot_System_llvm_got-(.LPC21_1+8)
.Lfunc_end21:
	.size	System_Uri_CheckForEscapedUnreserved_string, .Lfunc_end21-System_Uri_CheckForEscapedUnreserved_string
.Lexception15:
	.fnend

	.hidden	System_Uri_TryCreate_string_System_UriKind_System_Uri_
	.globl	System_Uri_TryCreate_string_System_UriKind_System_Uri_
	.p2align	2
	.type	System_Uri_TryCreate_string_System_UriKind_System_Uri_,%function
	.code	32
System_Uri_TryCreate_string_System_UriKind_System_Uri_:
.Lfunc_begin22:
	.fnstart
	.save	{r4, r5, r6, r7, r9, lr}
	push	{r4, r5, r6, r7, r9, lr}
.Ltmp173:
.Ltmp174:
.Ltmp175:
.Ltmp176:
.Ltmp177:
.Ltmp178:
.Ltmp179:
	.pad	#8
	sub	sp, sp, #8
.Ltmp180:
	ldr	r9, .LCPI22_0
	mov	r7, r0
	ldr	r0, .LCPI22_1
	mov	r5, r1
.LPC22_0:
	add	r9, pc, r9
	mov	r4, r2
.LPC22_1:
	add	r0, pc, r0
	ldr	r1, [r9, #28]
	ldrb	r6, [r0, #903]
	ldr	r0, [r1]
	cmp	r0, #0
	blne	mono_aot_System_icall_cold_wrapper_265
	cmp	r6, #0
	beq	.LBB22_6
.LBB22_1:
	mov	r6, #0
	cmp	r7, #0
	str	r6, [sp, #4]
	beq	.LBB22_4
	add	r3, sp, #4
	mov	r0, r7
	mov	r1, #0
	mov	r2, r5
	str	r6, [sp, #4]
	bl	System_Uri_CreateHelper_string_bool_System_UriKind_System_UriFormatException_
	ldr	r1, [r9, #8]
	dmb	ish
	str	r0, [r4]
	mov	r0, #1
	strb	r0, [r1, r4, lsr #9]
	ldr	r0, [sp, #4]
	cmp	r0, #0
	bne	.LBB22_5
	ldr	r0, [r4]
	mov	r1, #0
	bl	System_Uri_op_Inequality_System_Uri_System_Uri
	mov	r6, r0
	b	.LBB22_5
.LBB22_4:
	mov	r6, #0
	dmb	ish
	str	r6, [r4]
.LBB22_5:
	mov	r0, r6
	add	sp, sp, #8
	pop	{r4, r5, r6, r7, r9, pc}
.LBB22_6:
	movw	r0, #903
	bl	mono_aot_System_init_method
	b	.LBB22_1
	.p2align	2
.LCPI22_0:
	.long	mono_aot_System_llvm_got-(.LPC22_0+8)
.LCPI22_1:
	.long	mono_inited-(.LPC22_1+8)
.Lfunc_end22:
	.size	System_Uri_TryCreate_string_System_UriKind_System_Uri_, .Lfunc_end22-System_Uri_TryCreate_string_System_UriKind_System_Uri_
.Lexception16:
	.fnend

	.hidden	System_Uri_CreateHelper_string_bool_System_UriKind_System_UriFormatException_
	.globl	System_Uri_CreateHelper_string_bool_System_UriKind_System_UriFormatException_
	.p2align	2
	.type	System_Uri_CreateHelper_string_bool_System_UriKind_System_UriFormatException_,%function
	.code	32
System_Uri_CreateHelper_string_bool_System_UriKind_System_UriFormatException_:
.Lfunc_begin23:
	.fnstart
	.save	{r4, r5, r6, r7, r9, r10, r11, lr}
	push	{r4, r5, r6, r7, r9, r10, r11, lr}
.Ltmp184:
.Ltmp185:
.Ltmp186:
.Ltmp187:
.Ltmp188:
.Ltmp189:
.Ltmp190:
.Ltmp191:
.Ltmp192:
	.pad	#48
	sub	sp, sp, #48
.Ltmp193:
	ldr	r10, .LCPI23_0
	mov	r5, r0
	ldr	r0, .LCPI23_1
	mov	r6, r1
.LPC23_0:
	add	r10, pc, r10
	str	r3, [sp, #16]
.LPC23_1:
	add	r0, pc, r0
	mov	r4, r2
	ldr	r1, [r10, #28]
	ldrb	r7, [r0, #911]
	ldr	r0, [r1]
	cmp	r0, #0
	blne	mono_aot_System_icall_cold_wrapper_265
	cmp	r7, #0
	beq	.LBB23_13
.LBB23_1:
	mov	r0, #0
	cmp	r4, #3
	str	r0, [sp, #28]
	str	r0, [sp, #24]
	str	r0, [sp, #20]
	str	r0, [sp, #32]
	str	r0, [sp, #36]
	blo	.LBB23_3
	cmp	r4, #300
	bne	.LBB23_14
.LBB23_3:
	add	r1, sp, #24
	add	r2, sp, #20
	str	r0, [sp, #28]
	str	r0, [sp, #24]
	str	r0, [sp, #20]
	mov	r0, r5
	bl	System_Uri_ParseScheme_string_System_Uri_Flags__System_UriParser_
	cmp	r6, #0
	ldrne	r1, [sp, #24]
	ldrne	r2, [sp, #28]
	orrne	r1, r1, #524288
	strne	r1, [sp, #24]
	cmp	r0, #0
	beq	.LBB23_7
	cmp	r4, #1
	beq	.LBB23_10
	cmp	r0, #4
	bgt	.LBB23_10
	ldr	r6, [sp, #24]
	mov	r1, #48
	ldr	r0, [sp, #28]
	ldr	r0, [r10, #164]
	bl	p_1_plt_wrapper_alloc_object_AllocSmall_intptr_intptr_llvm
	mov	r4, r0
	mov	r0, #0
	and	r2, r6, #524288
	stm	sp, {r0, r5}
	mov	r0, r4
	mov	r3, #0
	bl	p_47_plt_System_Uri__ctor_System_Uri_Flags_System_UriParser_string_llvm
	str	r4, [sp, #12]
	b	.LBB23_12
.LBB23_7:
	ldr	r0, [r10, #164]
	mov	r1, #48
	ldr	r11, [sp, #24]
	ldr	r9, [sp, #28]
	ldr	r7, [sp, #20]
	bl	p_1_plt_wrapper_alloc_object_AllocSmall_intptr_intptr_llvm
	mov	r2, r11
	mov	r3, r9
	mov	r6, r0
	str	r7, [sp]
	str	r5, [sp, #4]
	bl	p_47_plt_System_Uri__ctor_System_Uri_Flags_System_UriParser_string_llvm
	ldr	r3, [sp, #16]
.Ltmp181:
	mov	r0, r6
	mov	r1, #0
	mov	r2, r4
	mov	r5, #0
	bl	System_Uri_InitializeUri_System_ParsingError_System_UriKind_System_UriFormatException_
.Ltmp182:
	ldr	r0, [sp, #16]
	ldr	r0, [r0]
	cmp	r0, #0
	movne	r0, #0
	strne	r0, [sp, #32]
	streq	r6, [sp, #32]
.LBB23_9:
	ldr	r0, [sp, #32]
	b	.LBB23_11
.LBB23_10:
	mov	r0, #0
.LBB23_11:
	str	r0, [sp, #12]
.LBB23_12:
	ldr	r0, [sp, #12]
	add	sp, sp, #48
	pop	{r4, r5, r6, r7, r9, r10, r11, pc}
.LBB23_13:
	movw	r0, #911
	bl	mono_aot_System_init_method
	b	.LBB23_1
.LBB23_14:
	ldr	r0, .LCPI23_2
	movw	r1, #13000
.LPC23_2:
	ldr	r0, [pc, r0]
	bl	p_12_plt__jit_icall_mono_helper_ldstr_llvm
	mov	r5, r0
	ldr	r0, [r10, #144]
	mov	r1, #1
	bl	p_24_plt_wrapper_alloc_object_AllocVector_intptr_intptr_llvm
	mov	r6, r0
	ldr	r0, [r10, #148]
	mov	r1, #12
	bl	p_1_plt_wrapper_alloc_object_AllocSmall_intptr_intptr_llvm
	mov	r2, r0
	ldr	r0, [r6]
	str	r4, [r2, #8]
	mov	r1, #0
	ldr	r3, [r0, #136]
	mov	r0, r6
	blx	r3
	mov	r0, r5
	mov	r1, r6
	bl	p_25_plt_SR_GetString_string_object___llvm
	mov	r1, r0
	movw	r0, #123
	movt	r0, #512
	bl	p_13_plt__jit_icall_mono_create_corlib_exception_1_llvm
	bl	p_14_plt__jit_icall_mono_arch_throw_exception_llvm
.LBB23_15:
.Ltmp183:
	str	r0, [sp, #40]
	ldr	r0, [sp, #40]
	ldr	r1, [sp, #16]
	str	r0, [sp, #36]
	ldr	r2, [r10, #8]
	ldr	r0, [sp, #36]
	dmb	ish
	str	r0, [r1]
	mov	r0, #1
	strb	r0, [r2, r1, lsr #9]
	str	r5, [sp, #32]
	bl	p_40_plt__jit_icall_mono_thread_get_undeniable_exception_llvm
	str	r0, [sp, #44]
	ldr	r0, [sp, #44]
	cmp	r0, #0
	beq	.LBB23_9
	ldr	r0, [sp, #44]
	bl	p_14_plt__jit_icall_mono_arch_throw_exception_llvm
	b	.LBB23_9
	.p2align	2
.LCPI23_0:
	.long	mono_aot_System_llvm_got-(.LPC23_0+8)
.LCPI23_1:
	.long	mono_inited-(.LPC23_1+8)
.LCPI23_2:
	.long	mono_aot_System_llvm_got-(.LPC23_2+8)
.Lfunc_end23:
	.size	System_Uri_CreateHelper_string_bool_System_UriKind_System_UriFormatException_, .Lfunc_end23-System_Uri_CreateHelper_string_bool_System_UriKind_System_UriFormatException_
.Lexception17:
	.fnend

	.hidden	System_Uri__cctor
	.globl	System_Uri__cctor
	.p2align	2
	.type	System_Uri__cctor,%function
	.code	32
System_Uri__cctor:
.Lfunc_begin24:
	.fnstart
	.save	{r4, r5, r6, lr}
	push	{r4, r5, r6, lr}
.Ltmp194:
.Ltmp195:
.Ltmp196:
.Ltmp197:
.Ltmp198:
	ldr	r6, .LCPI24_12
	ldr	r0, .LCPI24_13
.LPC24_12:
	add	r6, pc, r6
.LPC24_13:
	add	r0, pc, r0
	ldr	r1, [r6, #28]
	ldrb	r4, [r0, #918]
	ldr	r0, [r1]
	cmp	r0, #0
	blne	mono_aot_System_icall_cold_wrapper_265
	cmp	r4, #0
	beq	.LBB24_16
.LBB24_1:
	ldr	r0, [r6, #128]
	ldrb	r1, [r0, #25]
	cmp	r1, #0
	beq	.LBB24_17
.LBB24_2:
	ldr	r0, [r6, #132]
	ldr	r0, [r0]
	cmp	r0, #0
	beq	.LBB24_19
	bl	System_UriParser_get_SchemeName
	ldr	r1, [r6, #168]
	dmb	ish
	ldr	r2, [r6, #172]
	str	r0, [r1]
	ldr	r0, [r2]
	cmp	r0, #0
	beq	.LBB24_20
	bl	System_UriParser_get_SchemeName
	ldr	r1, [r6, #176]
	dmb	ish
	ldr	r2, [r6, #180]
	str	r0, [r1]
	ldr	r0, [r2]
	cmp	r0, #0
	beq	.LBB24_21
	bl	System_UriParser_get_SchemeName
	ldr	r1, [r6, #184]
	dmb	ish
	ldr	r2, [r6, #188]
	str	r0, [r1]
	ldr	r0, [r2]
	cmp	r0, #0
	beq	.LBB24_22
	bl	System_UriParser_get_SchemeName
	ldr	r1, [r6, #192]
	dmb	ish
	ldr	r2, [r6, #196]
	str	r0, [r1]
	ldr	r0, [r2]
	cmp	r0, #0
	beq	.LBB24_23
	bl	System_UriParser_get_SchemeName
	ldr	r1, [r6, #200]
	dmb	ish
	ldr	r2, [r6, #204]
	str	r0, [r1]
	ldr	r0, [r2]
	cmp	r0, #0
	beq	.LBB24_24
	bl	System_UriParser_get_SchemeName
	ldr	r1, [r6, #208]
	dmb	ish
	ldr	r2, [r6, #212]
	str	r0, [r1]
	ldr	r0, [r2]
	cmp	r0, #0
	beq	.LBB24_25
	bl	System_UriParser_get_SchemeName
	ldr	r1, [r6, #216]
	dmb	ish
	ldr	r2, [r6, #220]
	str	r0, [r1]
	ldr	r0, [r2]
	cmp	r0, #0
	beq	.LBB24_26
	bl	System_UriParser_get_SchemeName
	ldr	r1, [r6, #224]
	dmb	ish
	ldr	r2, [r6, #228]
	str	r0, [r1]
	ldr	r0, [r2]
	cmp	r0, #0
	beq	.LBB24_27
	bl	System_UriParser_get_SchemeName
	ldr	r1, [r6, #232]
	dmb	ish
	ldr	r2, [r6, #236]
	str	r0, [r1]
	ldr	r0, [r2]
	cmp	r0, #0
	beq	.LBB24_28
	bl	System_UriParser_get_SchemeName
	ldr	r1, [r6, #240]
	dmb	ish
	ldr	r2, [r6, #244]
	str	r0, [r1]
	ldr	r0, [r2]
	cmp	r0, #0
	beq	.LBB24_29
	bl	System_UriParser_get_SchemeName
	ldr	r1, [r6, #248]
	dmb	ish
	ldr	r2, [r6, #252]
	str	r0, [r1]
	ldr	r0, [r2]
	cmp	r0, #0
	beq	.LBB24_30
	bl	System_UriParser_get_SchemeName
	ldr	r1, [r6, #256]
	dmb	ish
	ldr	r3, [r6, #264]
	mov	r5, #0
	ldr	r2, [r6, #260]
	str	r0, [r1]
	ldr	r0, [r6, #272]
	dmb	ish
	ldr	r1, [r6, #268]
	str	r2, [r3]
	dmb	ish
	str	r5, [r1]
	bl	p_49_plt_System_Environment_GetEnvironmentVariable_string_llvm
	ldr	r1, [r6, #276]
	bl	p_50_plt_string_op_Equality_string_string_llvm
	ldr	r2, [r6, #124]
	tst	r0, #255
	ldr	r1, [r6, #280]
	mov	r0, #0
	movweq	r0, #1
	dmb	ish
	strb	r0, [r2]
	mov	r0, r1
	bl	p_49_plt_System_Environment_GetEnvironmentVariable_string_llvm
	ldr	r1, [r6, #284]
	bl	p_50_plt_string_op_Equality_string_string_llvm
	ldr	r2, [r6, #156]
	mov	r1, r0
	ldr	r0, [r6, #288]
	strb	r1, [r2]
	ldrb	r1, [r0, #25]
	cmp	r1, #0
	beq	.LBB24_18
.LBB24_15:
	ldr	r1, [r6, #292]
	ldr	r0, [r6, #136]
	ldr	r4, [r6, #160]
	ldrh	r1, [r1]
	cmp	r1, #92
	mov	r1, #16
	movweq	r5, #1
	strb	r5, [r0]
	mov	r0, r4
	bl	p_24_plt_wrapper_alloc_object_AllocVector_intptr_intptr_llvm
	ldr	r1, [r6, #296]
	mov	r5, r0
	add	r0, r5, #16
	mov	r2, #32
	bl	p_51_plt_string_memcpy_byte__byte__int_llvm
	ldr	r0, [r6, #300]
	dmb	ish
	mov	r1, #4
	str	r5, [r0]
	mov	r0, r4
	bl	p_24_plt_wrapper_alloc_object_AllocVector_intptr_intptr_llvm
	ldr	r1, [r6, #304]
	mov	r4, r0
	add	r0, r4, #16
	mov	r2, #8
	bl	p_51_plt_string_memcpy_byte__byte__int_llvm
	ldr	r0, [r6, #308]
	dmb	ish
	str	r4, [r0]
	pop	{r4, r5, r6, pc}
.LBB24_16:
	movw	r0, #918
	bl	mono_aot_System_init_method
	b	.LBB24_1
.LBB24_17:
	bl	p_17_plt__jit_icall_mono_generic_class_init_llvm
	b	.LBB24_2
.LBB24_18:
	bl	p_17_plt__jit_icall_mono_generic_class_init_llvm
	b	.LBB24_15
.Ltmp199:
.LBB24_19:
	ldr	r0, .LCPI24_11
.LPC24_11:
	add	r1, pc, r0
	mov	r0, #225
	bl	p_8_plt__jit_icall_llvm_throw_corlib_exception_abs_trampoline_llvm
.Ltmp200:
.LBB24_20:
	ldr	r0, .LCPI24_10
.LPC24_10:
	add	r1, pc, r0
	mov	r0, #225
	bl	p_8_plt__jit_icall_llvm_throw_corlib_exception_abs_trampoline_llvm
.Ltmp201:
.LBB24_21:
	ldr	r0, .LCPI24_9
.LPC24_9:
	add	r1, pc, r0
	mov	r0, #225
	bl	p_8_plt__jit_icall_llvm_throw_corlib_exception_abs_trampoline_llvm
.Ltmp202:
.LBB24_22:
	ldr	r0, .LCPI24_8
.LPC24_8:
	add	r1, pc, r0
	mov	r0, #225
	bl	p_8_plt__jit_icall_llvm_throw_corlib_exception_abs_trampoline_llvm
.Ltmp203:
.LBB24_23:
	ldr	r0, .LCPI24_7
.LPC24_7:
	add	r1, pc, r0
	mov	r0, #225
	bl	p_8_plt__jit_icall_llvm_throw_corlib_exception_abs_trampoline_llvm
.Ltmp204:
.LBB24_24:
	ldr	r0, .LCPI24_6
.LPC24_6:
	add	r1, pc, r0
	mov	r0, #225
	bl	p_8_plt__jit_icall_llvm_throw_corlib_exception_abs_trampoline_llvm
.Ltmp205:
.LBB24_25:
	ldr	r0, .LCPI24_5
.LPC24_5:
	add	r1, pc, r0
	mov	r0, #225
	bl	p_8_plt__jit_icall_llvm_throw_corlib_exception_abs_trampoline_llvm
.Ltmp206:
.LBB24_26:
	ldr	r0, .LCPI24_4
.LPC24_4:
	add	r1, pc, r0
	mov	r0, #225
	bl	p_8_plt__jit_icall_llvm_throw_corlib_exception_abs_trampoline_llvm
.Ltmp207:
.LBB24_27:
	ldr	r0, .LCPI24_3
.LPC24_3:
	add	r1, pc, r0
	mov	r0, #225
	bl	p_8_plt__jit_icall_llvm_throw_corlib_exception_abs_trampoline_llvm
.Ltmp208:
.LBB24_28:
	ldr	r0, .LCPI24_2
.LPC24_2:
	add	r1, pc, r0
	mov	r0, #225
	bl	p_8_plt__jit_icall_llvm_throw_corlib_exception_abs_trampoline_llvm
.Ltmp209:
.LBB24_29:
	ldr	r0, .LCPI24_1
.LPC24_1:
	add	r1, pc, r0
	mov	r0, #225
	bl	p_8_plt__jit_icall_llvm_throw_corlib_exception_abs_trampoline_llvm
.Ltmp210:
.LBB24_30:
	ldr	r0, .LCPI24_0
.LPC24_0:
	add	r1, pc, r0
	mov	r0, #225
	bl	p_8_plt__jit_icall_llvm_throw_corlib_exception_abs_trampoline_llvm
	.p2align	2
.LCPI24_0:
	.long	.Ltmp210-(.LPC24_0+8)
.LCPI24_1:
	.long	.Ltmp209-(.LPC24_1+8)
.LCPI24_2:
	.long	.Ltmp208-(.LPC24_2+8)
.LCPI24_3:
	.long	.Ltmp207-(.LPC24_3+8)
.LCPI24_4:
	.long	.Ltmp206-(.LPC24_4+8)
.LCPI24_5:
	.long	.Ltmp205-(.LPC24_5+8)
.LCPI24_6:
	.long	.Ltmp204-(.LPC24_6+8)
.LCPI24_7:
	.long	.Ltmp203-(.LPC24_7+8)
.LCPI24_8:
	.long	.Ltmp202-(.LPC24_8+8)
.LCPI24_9:
	.long	.Ltmp201-(.LPC24_9+8)
.LCPI24_10:
	.long	.Ltmp200-(.LPC24_10+8)
.LCPI24_11:
	.long	.Ltmp199-(.LPC24_11+8)
.LCPI24_12:
	.long	mono_aot_System_llvm_got-(.LPC24_12+8)
.LCPI24_13:
	.long	mono_inited-(.LPC24_13+8)
.Lfunc_end24:
	.size	System_Uri__cctor, .Lfunc_end24-System_Uri__cctor
.Lexception18:
	.fnend

	.hidden	System_UriHelper_UnescapeString_string_int_int_char___int__char_char_char_System_UnescapeMode_System_UriParser_bool
	.globl	System_UriHelper_UnescapeString_string_int_int_char___int__char_char_char_System_UnescapeMode_System_UriParser_bool
	.p2align	2
	.type	System_UriHelper_UnescapeString_string_int_int_char___int__char_char_char_System_UnescapeMode_System_UriParser_bool,%function
	.code	32
System_UriHelper_UnescapeString_string_int_int_char___int__char_char_char_System_UnescapeMode_System_UriParser_bool:
.Lfunc_begin25:
	.fnstart
	.save	{r4, r5, r6, r7, r9, r10, r11, lr}
	push	{r4, r5, r6, r7, r9, r10, r11, lr}
.Ltmp211:
.Ltmp212:
.Ltmp213:
.Ltmp214:
.Ltmp215:
.Ltmp216:
.Ltmp217:
.Ltmp218:
.Ltmp219:
	.pad	#32
	sub	sp, sp, #32
.Ltmp220:
	mov	r7, r0
	ldr	r0, .LCPI25_0
	mov	r9, r1
	ldr	r1, .LCPI25_1
.LPC25_0:
	add	r0, pc, r0
	mov	r12, r3
.LPC25_1:
	add	r1, pc, r1
	mov	r10, r2
	ldr	r0, [r0, #28]
	ldrb	r11, [r1, #929]
	ldr	r0, [r0]
	cmp	r0, #0
	bne	.LBB25_3
.LBB25_1:
	ldr	r0, [sp, #88]
	cmp	r11, #0
	ldr	r1, [sp, #84]
	ldr	r2, [sp, #80]
	ldr	r3, [sp, #76]
	ldr	r4, [sp, #72]
	ldr	r5, [sp, #68]
	ldr	r6, [sp, #64]
	beq	.LBB25_4
.LBB25_2:
	cmp	r7, #0
	str	r3, [sp, #12]
	addne	r7, r7, #12
	str	r2, [sp, #16]
	str	r1, [sp, #20]
	mov	r1, r9
	str	r0, [sp, #24]
	mov	r0, r7
	mov	r2, r10
	mov	r3, r12
	str	r6, [sp]
	str	r5, [sp, #4]
	str	r4, [sp, #8]
	bl	System_UriHelper_UnescapeString_char__int_int_char___int__char_char_char_System_UnescapeMode_System_UriParser_bool
	add	sp, sp, #32
	pop	{r4, r5, r6, r7, r9, r10, r11, pc}
.LBB25_3:
	mov	r4, r12
	bl	mono_aot_System_icall_cold_wrapper_265
	mov	r12, r4
	b	.LBB25_1
.LBB25_4:
	movw	r0, #929
	mov	r11, r12
	bl	mono_aot_System_init_method
	ldr	r3, [sp, #76]
	mov	r12, r11
	ldr	r2, [sp, #80]
	ldr	r1, [sp, #84]
	ldr	r0, [sp, #88]
	b	.LBB25_2
	.p2align	2
.LCPI25_0:
	.long	mono_aot_System_llvm_got-(.LPC25_0+8)
.LCPI25_1:
	.long	mono_inited-(.LPC25_1+8)
.Lfunc_end25:
	.size	System_UriHelper_UnescapeString_string_int_int_char___int__char_char_char_System_UnescapeMode_System_UriParser_bool, .Lfunc_end25-System_UriHelper_UnescapeString_string_int_int_char___int__char_char_char_System_UnescapeMode_System_UriParser_bool
.Lexception19:
	.fnend

	.hidden	System_UriHelper_UnescapeString_char__int_int_char___int__char_char_char_System_UnescapeMode_System_UriParser_bool
	.globl	System_UriHelper_UnescapeString_char__int_int_char___int__char_char_char_System_UnescapeMode_System_UriParser_bool
	.p2align	2
	.type	System_UriHelper_UnescapeString_char__int_int_char___int__char_char_char_System_UnescapeMode_System_UriParser_bool,%function
	.code	32
System_UriHelper_UnescapeString_char__int_int_char___int__char_char_char_System_UnescapeMode_System_UriParser_bool:
.Lfunc_begin26:
	.fnstart
	.save	{r4, r5, r6, r7, r9, r10, r11, lr}
	push	{r4, r5, r6, r7, r9, r10, r11, lr}
.Ltmp323:
.Ltmp324:
.Ltmp325:
.Ltmp326:
.Ltmp327:
.Ltmp328:
.Ltmp329:
.Ltmp330:
	.setfp	r11, sp, #24
	add	r11, sp, #24
.Ltmp331:
	.pad	#288
	sub	sp, sp, #288
	ldr	r7, .LCPI26_19
	add	r12, r11, #8
	ldr	r10, .LCPI26_20
	ldm	r12, {r5, r6, r9, r12}
.LPC26_19:
	add	r7, pc, r7
.LPC26_20:
	add	r10, pc, r10
	str	r0, [r11, #-192]
	ldr	r0, [r10, #28]
	ldr	lr, [r11, #32]
	str	r1, [r11, #-184]
	str	r2, [r11, #-180]
	str	r3, [r11, #-176]
	str	r5, [r11, #-172]
	strh	r6, [r11, #-168]
	strh	r9, [r11, #-166]
	strh	r12, [r11, #-164]
	strb	lr, [r11, #-161]
	ldr	r0, [r0]
	ldrb	r4, [r7, #930]
	cmp	r0, #0
	blne	mono_aot_System_icall_cold_wrapper_265
	ldr	r5, [r11, #28]
	cmp	r4, #0
	beq	.LBB26_156
.LBB26_1:
	mov	r0, sp
	sub	r1, r0, #8
	mov	r7, r1
	mov	sp, r1
	mov	r6, #0
	str	r6, [r0, #-8]
	ldr	r0, [r11, #-184]
	str	r0, [r11, #-152]
	mov	r0, r5
	str	r6, [r11, #-144]
	strb	r6, [r11, #-145]
	str	r6, [r11, #-136]
	str	r6, [r11, #-132]
	str	r6, [r11, #-128]
	strh	r6, [r11, #-122]
	str	r6, [r11, #-120]
	str	r6, [r11, #-116]
	str	r6, [r11, #-112]
	str	r6, [r11, #-108]
	str	r6, [r11, #-104]
	str	r6, [r11, #-100]
	str	r6, [r11, #-96]
	str	r6, [r11, #-160]
	strb	r6, [r11, #-154]
	strb	r6, [r11, #-153]
	bl	System_Uri_IriParsingStatic_System_UriParser
	tst	r0, #255
	mov	r0, #0
	beq	.LBB26_3
	ldr	r0, [r11, #24]
	and	r1, r0, #3
	mov	r0, #0
	cmp	r1, #3
	movweq	r0, #1
.LBB26_3:
	strb	r0, [r11, #-145]
	ldr	r0, .LCPI26_21
.LPC26_21:
	ldr	r0, [pc, r0]
	str	r0, [r11, #-232]
	ldr	r0, [r10, #160]
	str	r0, [r11, #-228]
	ldr	r0, [r10, #332]
	str	r0, [r11, #-236]
	ldr	r0, .LCPI26_18
	str	r7, [r11, #-200]
.LPC26_18:
	add	r0, pc, r0
	str	r0, [r11, #-240]
	ldr	r0, .LCPI26_17
.LPC26_17:
	add	r0, pc, r0
	str	r0, [r11, #-244]
	ldr	r0, .LCPI26_10
.LPC26_10:
	add	r0, pc, r0
	str	r0, [r11, #-248]
	ldr	r0, .LCPI26_9
.LPC26_9:
	add	r0, pc, r0
	str	r0, [r11, #-252]
	ldr	r0, .LCPI26_16
.LPC26_16:
	add	r0, pc, r0
	str	r0, [r11, #-256]
	ldr	r0, .LCPI26_15
.LPC26_15:
	add	r0, pc, r0
	str	r0, [r11, #-260]
	ldr	r0, .LCPI26_14
.LPC26_14:
	add	r0, pc, r0
	str	r0, [r11, #-264]
	ldr	r0, .LCPI26_13
.LPC26_13:
	add	r0, pc, r0
	str	r0, [r11, #-268]
	ldr	r0, .LCPI26_12
.LPC26_12:
	add	r0, pc, r0
	str	r0, [r11, #-272]
	ldr	r0, .LCPI26_11
.LPC26_11:
	add	r0, pc, r0
	str	r0, [r11, #-276]
	ldr	r0, .LCPI26_8
.LPC26_8:
	add	r0, pc, r0
	str	r0, [r11, #-280]
	ldr	r0, .LCPI26_7
.LPC26_7:
	add	r0, pc, r0
	str	r0, [r11, #-284]
	ldr	r0, .LCPI26_6
.LPC26_6:
	add	r0, pc, r0
	str	r0, [r11, #-288]
	ldr	r0, .LCPI26_5
.LPC26_5:
	add	r0, pc, r0
	str	r0, [r11, #-292]
	ldr	r0, .LCPI26_4
.LPC26_4:
	add	r0, pc, r0
	str	r0, [r11, #-296]
	ldr	r0, .LCPI26_3
.LPC26_3:
	add	r0, pc, r0
	str	r0, [r11, #-300]
	ldr	r0, .LCPI26_2
.LPC26_2:
	add	r0, pc, r0
	str	r0, [r11, #-304]
	ldr	r0, .LCPI26_1
.LPC26_1:
	add	r0, pc, r0
	str	r0, [r11, #-308]
	ldr	r0, .LCPI26_0
.LPC26_0:
	add	r0, pc, r0
	str	r0, [r11, #-312]
	b	.LBB26_5
.LBB26_4:
	bl	mono_aot_System_icall_cold_wrapper_265
.LBB26_5:
	ldr	r0, [r11, #-176]
	str	r0, [r11, #-88]
	ldr	r1, [r11, #-88]
	ldr	r0, [r11, #-88]
	str	r0, [r11, #-136]
	mov	r0, #0
	cmp	r1, #0
	beq	.LBB26_11
	ldr	r1, [r11, #-136]
	cmp	r1, #0
	beq	.LBB26_127
	ldr	r1, [r1, #12]
	cmp	r1, #0
	beq	.LBB26_11
	ldr	r0, [r11, #-136]
	cmp	r0, #0
	beq	.LBB26_131
	ldr	r1, [r0, #12]
	cmp	r1, #0
	beq	.LBB26_132
	add	r0, r0, #16
.LBB26_11:
	ldr	r1, [r11, #24]
	str	r0, [r11, #-144]
	tst	r1, #3
	beq	.LBB26_13
	ldr	r0, [r10, #160]
	str	r0, [r11, #-216]
	ldr	r0, [r10, #312]
	str	r0, [r11, #-204]
	ldr	r0, [r10, #316]
	str	r0, [r11, #-208]
	ldr	r0, [r10, #320]
	ldr	r7, [r11, #-200]
	str	r0, [r11, #-212]
	ldr	r0, [r10, #324]
	str	r0, [r11, #-220]
	ldr	r0, [r10, #328]
	str	r0, [r11, #-224]
	b	.LBB26_18
.LBB26_13:
	ldr	r0, [r11, #-184]
	ldr	r1, [r11, #-180]
	cmp	r0, r1
	bge	.LBB26_15
.LBB26_14:
	ldr	r0, [r11, #-144]
	ldr	r1, [r11, #-172]
	ldr	r2, [r11, #-172]
	ldr	r2, [r2]
	str	r2, [r11, #-132]
	ldr	r2, [r11, #-132]
	add	r2, r2, #1
	str	r2, [r1]
	ldr	r1, [r11, #-132]
	ldr	r2, [r11, #-192]
	ldr	r3, [r11, #-184]
	str	r3, [r11, #-84]
	add	r0, r0, r1, lsl #1
	ldr	r3, [r11, #-84]
	ldr	r7, [r11, #-84]
	add	r2, r2, r3, lsl #1
	add	r7, r7, #1
	str	r7, [r11, #-184]
	ldrh	r2, [r2]
	strh	r2, [r0]
	ldr	r0, [r10, #28]
	ldr	r4, [r11, #-184]
	ldr	r5, [r11, #-180]
	ldr	r0, [r0]
	cmp	r0, #0
	blne	mono_aot_System_icall_cold_wrapper_265
	cmp	r4, r5
	blt	.LBB26_14
.LBB26_15:
	ldr	r0, [r11, #-176]
	ldr	r7, [r11, #-200]
	str	r0, [r11, #-128]
	mov	r0, #3
.LBB26_16:
	str	r6, [r11, #-92]
	str	r0, [r7]
	b	.LBB26_142
.LBB26_17:
	bl	mono_aot_System_icall_cold_wrapper_265
.LBB26_18:
	ldr	r0, [r11, #-152]
	ldr	r1, [r11, #-180]
	strh	r6, [r11, #-122]
	cmp	r0, r1
	bge	.LBB26_53
.LBB26_19:
	ldr	r0, [r11, #-192]
	ldr	r1, [r11, #-152]
	add	r0, r0, r1, lsl #1
	ldrh	r0, [r0]
	str	r0, [r11, #-80]
	ldr	r1, [r11, #-80]
	ldr	r2, [r11, #-80]
	ldr	r0, [r11, #24]
	cmp	r1, #37
	strh	r2, [r11, #-122]
	bne	.LBB26_40
	tst	r0, #2
	beq	.LBB26_52
	ldr	r0, [r11, #-152]
	ldr	r1, [r11, #-180]
	add	r0, r0, #2
	cmp	r0, r1
	bge	.LBB26_46
	ldr	r0, [r11, #-192]
	ldr	r1, [r11, #-152]
	add	r0, r0, r1, lsl #1
	ldrh	r0, [r0, #2]
	ldr	r1, [r11, #-192]
	ldr	r2, [r11, #-152]
	add	r1, r1, r2, lsl #1
	ldrh	r1, [r1, #4]
.Ltmp235:
	bl	p_43_plt_System_UriHelper_EscapedAscii_char_char_llvm
.Ltmp236:
	ldr	r1, [r11, #24]
	strh	r0, [r11, #-122]
	ldrh	r0, [r11, #-122]
	cmp	r1, #8
	bge	.LBB26_48
	movw	r1, #65535
	cmp	r0, r1
	beq	.LBB26_50
	ldrh	r0, [r11, #-122]
	cmp	r0, #37
	beq	.LBB26_39
	ldrh	r0, [r11, #-122]
	ldrh	r1, [r11, #-168]
	cmp	r0, r1
	beq	.LBB26_39
	ldrh	r0, [r11, #-122]
	ldrh	r1, [r11, #-166]
	cmp	r0, r1
	beq	.LBB26_39
	ldrh	r0, [r11, #-122]
	ldrh	r1, [r11, #-164]
	cmp	r0, r1
	beq	.LBB26_39
	ldr	r0, [r11, #24]
	tst	r0, #4
	bne	.LBB26_32
	ldrh	r0, [r11, #-122]
.Ltmp245:
	bl	p_63_plt_System_UriHelper_IsNotSafeForUnescape_char_llvm
.Ltmp246:
	tst	r0, #255
	bne	.LBB26_39
.LBB26_32:
	ldrb	r0, [r11, #-145]
	cmp	r0, #0
	beq	.LBB26_53
	ldrh	r0, [r11, #-122]
	cmp	r0, #159
	bhi	.LBB26_36
	ldrh	r0, [r11, #-122]
.Ltmp247:
	bl	p_63_plt_System_UriHelper_IsNotSafeForUnescape_char_llvm
.Ltmp248:
	tst	r0, #255
	bne	.LBB26_39
.LBB26_36:
	ldrh	r0, [r11, #-122]
	cmp	r0, #160
	blo	.LBB26_53
	ldrh	r0, [r11, #-122]
	ldrb	r1, [r11, #-161]
.Ltmp249:
	bl	p_62_plt_System_IriHelper_CheckIriUnicodeRange_char_bool_llvm
.Ltmp250:
	tst	r0, #255
	bne	.LBB26_53
.LBB26_39:
	ldr	r0, [r11, #-152]
	add	r0, r0, #2
	str	r0, [r11, #-152]
	b	.LBB26_51
.LBB26_40:
	and	r0, r0, #10
	cmp	r0, #10
	ldrne	r0, [r11, #24]
	tstne	r0, #1
	beq	.LBB26_51
	ldrh	r0, [r11, #-122]
	ldrh	r1, [r11, #-168]
	cmp	r0, r1
	ldrhne	r0, [r11, #-122]
	ldrhne	r1, [r11, #-166]
	cmpne	r0, r1
	ldrhne	r0, [r11, #-122]
	ldrhne	r1, [r11, #-164]
	cmpne	r0, r1
	beq	.LBB26_52
	ldr	r0, [r11, #24]
	tst	r0, #4
	bne	.LBB26_51
	ldrh	r0, [r11, #-122]
	cmp	r0, #32
	blo	.LBB26_52
	ldrh	r0, [r11, #-122]
	cmp	r0, #127
	blo	.LBB26_51
	ldrh	r0, [r11, #-122]
	cmp	r0, #159
	bhi	.LBB26_51
	b	.LBB26_52
.LBB26_46:
	ldr	r0, [r11, #24]
	cmp	r0, #8
	blt	.LBB26_52
	ldr	r0, [r11, #24]
	cmp	r0, #24
	blt	.LBB26_51
	b	.LBB26_110
.LBB26_48:
	movw	r1, #65535
	cmp	r0, r1
	bne	.LBB26_53
	ldr	r0, [r11, #24]
	cmp	r0, #24
	blt	.LBB26_51
	b	.LBB26_114
.LBB26_50:
	ldr	r0, [r11, #24]
	tst	r0, #1
	bne	.LBB26_52
.LBB26_51:
	ldr	r0, [r11, #-152]
	ldr	r1, [r10, #28]
	add	r0, r0, #1
	str	r0, [r11, #-152]
	ldr	r4, [r11, #-152]
	ldr	r5, [r11, #-180]
	ldr	r0, [r1]
	cmp	r0, #0
	blne	mono_aot_System_icall_cold_wrapper_265
	cmp	r4, r5
	blt	.LBB26_19
	b	.LBB26_53
.LBB26_52:
	mov	r0, #1
	strb	r0, [r11, #-153]
.LBB26_53:
	ldr	r0, [r11, #-184]
	ldr	r1, [r11, #-152]
	cmp	r0, r1
	bge	.LBB26_55
.LBB26_54:
	ldr	r0, [r11, #-144]
	ldr	r1, [r11, #-172]
	ldr	r2, [r11, #-172]
	ldr	r2, [r2]
	str	r2, [r11, #-132]
	ldr	r2, [r11, #-132]
	add	r2, r2, #1
	str	r2, [r1]
	ldr	r1, [r11, #-132]
	ldr	r2, [r11, #-192]
	ldr	r3, [r11, #-184]
	str	r3, [r11, #-60]
	add	r0, r0, r1, lsl #1
	ldr	r3, [r11, #-60]
	ldr	r6, [r11, #-60]
	add	r2, r2, r3, lsl #1
	add	r6, r6, #1
	str	r6, [r11, #-184]
	ldrh	r2, [r2]
	strh	r2, [r0]
	ldr	r0, [r10, #28]
	ldr	r4, [r11, #-184]
	ldr	r5, [r11, #-152]
	ldr	r0, [r0]
	cmp	r0, #0
	blne	mono_aot_System_icall_cold_wrapper_265
	cmp	r4, r5
	blt	.LBB26_54
.LBB26_55:
	ldr	r0, [r11, #-152]
	ldr	r1, [r11, #-180]
	cmp	r0, r1
	bne	.LBB26_57
.LBB26_56:
	ldr	r0, [r11, #-152]
	mov	r6, #0
	ldr	r1, [r11, #-180]
	cmp	r0, r1
	bne	.LBB26_97
	b	.LBB26_98
.LBB26_57:
	ldrb	r0, [r11, #-153]
	cmp	r0, #0
	beq	.LBB26_61
	ldrb	r0, [r11, #-154]
	cmp	r0, #0
	beq	.LBB26_99
	ldrb	r0, [r11, #-154]
	ldr	r1, [r11, #-192]
	ldr	r2, [r11, #-152]
	add	r0, r0, #255
	strb	r0, [r11, #-154]
	add	r0, r1, r2, lsl #1
	ldrh	r0, [r0]
	ldr	r1, [r11, #-176]
	ldr	r2, [r11, #-172]
.Ltmp252:
	bl	p_60_plt_System_UriHelper_EscapeAsciiChar_char_char___int__llvm
.Ltmp253:
	ldr	r0, [r11, #-152]
	mov	r6, #0
	add	r0, r0, #1
	str	r0, [r11, #-52]
	ldr	r0, [r11, #-52]
	ldr	r1, [r11, #-52]
	strb	r6, [r11, #-153]
	str	r0, [r11, #-184]
	str	r1, [r11, #-152]
	b	.LBB26_97
.LBB26_61:
	ldrh	r0, [r11, #-122]
	cmp	r0, #127
	bls	.LBB26_94
	ldr	r0, [r11, #-160]
	mov	r1, #1
	str	r1, [r11, #-120]
	cmp	r0, #0
	bne	.LBB26_65
	ldr	r0, [r11, #-180]
	ldr	r1, [r11, #-152]
	sub	r1, r0, r1
.Ltmp268:
	ldr	r0, [r11, #-224]
	bl	p_24_plt_wrapper_alloc_object_AllocVector_intptr_intptr_llvm
.Ltmp269:
	str	r0, [r11, #-160]
.LBB26_65:
	ldr	r0, [r11, #-160]
	ldrh	r1, [r11, #-122]
	cmp	r0, #0
	beq	.LBB26_118
	ldr	r2, [r0, #12]
	cmp	r2, #0
	beq	.LBB26_119
	strb	r1, [r0, #16]
	ldr	r0, [r11, #-152]
	add	r0, r0, #3
	str	r0, [r11, #-152]
	ldr	r0, [r11, #-152]
	ldr	r1, [r11, #-180]
	cmp	r0, r1
	bge	.LBB26_76
.LBB26_68:
	ldr	r0, [r11, #-192]
	ldr	r1, [r11, #-152]
	add	r0, r0, r1, lsl #1
	ldrh	r0, [r0]
	str	r0, [r11, #-48]
	ldr	r0, [r11, #-48]
	ldr	r1, [r11, #-48]
	cmp	r0, #37
	strh	r1, [r11, #-122]
	bne	.LBB26_76
	ldr	r0, [r11, #-152]
	ldr	r1, [r11, #-180]
	add	r0, r0, #2
	cmp	r0, r1
	bge	.LBB26_76
	ldr	r0, [r11, #-192]
	ldr	r1, [r11, #-152]
	add	r0, r0, r1, lsl #1
	ldrh	r0, [r0, #2]
	ldr	r1, [r11, #-192]
	ldr	r2, [r11, #-152]
	add	r1, r1, r2, lsl #1
	ldrh	r1, [r1, #4]
.Ltmp270:
	bl	p_43_plt_System_UriHelper_EscapedAscii_char_char_llvm
.Ltmp271:
	strh	r0, [r11, #-122]
	movw	r1, #65535
	ldrh	r0, [r11, #-122]
	cmp	r0, r1
	beq	.LBB26_76
	ldrh	r0, [r11, #-122]
	cmp	r0, #128
	blo	.LBB26_76
	ldr	r0, [r11, #-160]
	ldr	r1, [r11, #-120]
	str	r1, [r11, #-44]
	cmp	r0, #0
	ldr	r1, [r11, #-44]
	ldr	r3, [r11, #-44]
	ldrh	r2, [r11, #-122]
	add	r3, r3, #1
	str	r3, [r11, #-120]
	beq	.LBB26_128
	ldr	r3, [r0, #12]
	cmp	r3, r1
	bls	.LBB26_129
	add	r0, r0, r1
	strb	r2, [r0, #16]
	ldr	r0, [r11, #-152]
	ldr	r1, [r10, #28]
	add	r0, r0, #3
	str	r0, [r11, #-152]
	ldr	r4, [r11, #-152]
	ldr	r5, [r11, #-180]
	ldr	r0, [r1]
	cmp	r0, #0
	blne	mono_aot_System_icall_cold_wrapper_265
	cmp	r4, r5
	blt	.LBB26_68
.LBB26_76:
.Ltmp277:
	bl	p_54_plt_System_Text_Encoding_get_UTF8_llvm
.Ltmp278:
	cmp	r0, #0
	beq	.LBB26_120
	ldr	r1, [r0]
	ldr	r1, [r1, #176]
.Ltmp279:
	blx	r1
.Ltmp280:
	str	r0, [r11, #-32]
	ldr	r0, [r11, #-32]
	cmp	r0, #0
	beq	.LBB26_81
	ldr	r0, [r11, #-32]
	ldr	r1, [r11, #-220]
	ldr	r0, [r0]
	ldr	r0, [r0]
	ldr	r0, [r0, #8]
	ldr	r0, [r0, #4]
	cmp	r0, r1
	bne	.LBB26_130
.LBB26_81:
	ldr	r0, [r11, #-32]
	str	r0, [r11, #-40]
	ldr	r4, [r11, #-40]
	ldr	r5, [r11, #-40]
.Ltmp283:
	ldr	r0, [r11, #-208]
	mov	r1, #12
	bl	p_1_plt_wrapper_alloc_object_AllocSmall_intptr_intptr_llvm
	mov	r6, r0
.Ltmp284:
.Ltmp285:
	ldr	r1, [r11, #-204]
	mov	r0, r6
	bl	p_55_plt_System_Text_EncoderReplacementFallback__ctor_string_llvm
.Ltmp286:
	cmp	r5, #0
	beq	.LBB26_121
.Ltmp287:
	mov	r0, r5
	mov	r1, r6
	bl	p_56_plt_System_Text_Encoding_set_EncoderFallback_System_Text_EncoderFallback_llvm
.Ltmp288:
	str	r4, [r11, #-36]
	ldr	r5, [r11, #-36]
	ldr	r9, [r11, #-36]
.Ltmp289:
	ldr	r0, [r11, #-212]
	mov	r1, #12
	bl	p_1_plt_wrapper_alloc_object_AllocSmall_intptr_intptr_llvm
	mov	r6, r0
.Ltmp290:
.Ltmp291:
	ldr	r1, [r11, #-204]
	mov	r0, r6
	bl	p_57_plt_System_Text_DecoderReplacementFallback__ctor_string_llvm
.Ltmp292:
	cmp	r9, #0
	beq	.LBB26_122
.Ltmp293:
	mov	r0, r9
	mov	r1, r6
	bl	p_58_plt_System_Text_Encoding_set_DecoderFallback_System_Text_DecoderFallback_llvm
.Ltmp294:
	ldr	r0, [r11, #-160]
	cmp	r0, #0
	beq	.LBB26_123
	ldr	r1, [r0, #12]
.Ltmp295:
	ldr	r0, [r11, #-216]
	bl	p_24_plt_wrapper_alloc_object_AllocVector_intptr_intptr_llvm
.Ltmp296:
	ldr	r1, [r11, #-160]
	cmp	r5, #0
	ldr	r3, [r11, #-120]
	str	r0, [r11, #-116]
	ldr	r0, [r11, #-116]
	beq	.LBB26_124
	ldr	r2, [r5]
	ldr	r6, [r2, #112]
.Ltmp297:
	sub	sp, sp, #8
	str	r0, [sp]
	mov	r0, #0
	str	r0, [sp, #4]
	mov	r0, r5
	mov	r2, #0
	blx	r6
	add	sp, sp, #8
.Ltmp298:
	ldr	r5, [r11, #-152]
	ldr	r12, [r11, #-144]
	ldr	r1, [r11, #-176]
	ldr	r2, [r11, #-172]
	ldr	r3, [r11, #-116]
	str	r0, [r11, #-112]
	ldr	r0, [r11, #-112]
	ldr	r4, [r11, #-160]
	ldr	r7, [r11, #-120]
	str	r5, [r11, #-184]
	ldrb	r5, [r11, #-161]
	ldrb	r6, [r11, #-145]
.Ltmp299:
	sub	sp, sp, #24
	stm	sp, {r0, r4, r7}
	mov	r0, r12
	ldr	r7, [r11, #-200]
	str	r5, [sp, #12]
	str	r6, [sp, #16]
	bl	p_59_plt_System_UriHelper_MatchUTF8Sequence_char__char___int__char___int_byte___int_bool_bool_llvm
	add	sp, sp, #24
.Ltmp300:
	b	.LBB26_56
.LBB26_94:
	ldr	r0, [r11, #-176]
	ldr	r1, [r11, #-172]
	ldr	r2, [r11, #-172]
	cmp	r0, #0
	ldr	r2, [r2]
	str	r2, [r11, #-132]
	ldr	r2, [r11, #-132]
	add	r2, r2, #1
	str	r2, [r1]
	ldr	r1, [r11, #-132]
	ldrh	r2, [r11, #-122]
	beq	.LBB26_125
	ldr	r3, [r0, #12]
	mov	r6, #0
	cmp	r3, r1
	bls	.LBB26_126
	add	r0, r0, r1, lsl #1
	strh	r2, [r0, #16]
	ldr	r0, [r11, #-152]
	add	r0, r0, #3
	str	r0, [r11, #-152]
	ldr	r0, [r11, #-152]
	str	r0, [r11, #-184]
.LBB26_97:
	ldr	r0, [r10, #28]
	ldr	r0, [r0]
	cmp	r0, #0
	beq	.LBB26_18
	b	.LBB26_17
.LBB26_98:
	mov	r0, #1
	b	.LBB26_16
.LBB26_99:
	ldr	r0, [r11, #-176]
	mov	r1, #30
	strb	r1, [r11, #-154]
	cmp	r0, #0
	beq	.LBB26_133
	ldr	r0, [r0, #12]
	ldrb	r1, [r11, #-154]
	add	r1, r1, r1, lsl #1
	add	r1, r1, r0
.Ltmp254:
	ldr	r0, [r11, #-228]
	mov	r6, #0
	bl	p_24_plt_wrapper_alloc_object_AllocVector_intptr_intptr_llvm
.Ltmp255:
	str	r0, [r11, #-108]
	ldr	r0, [r11, #-108]
	str	r0, [r11, #-56]
	ldr	r1, [r11, #-56]
	ldr	r0, [r11, #-56]
	str	r0, [r11, #-100]
	mov	r0, #0
	cmp	r1, #0
	beq	.LBB26_107
	ldr	r1, [r11, #-100]
	cmp	r1, #0
	beq	.LBB26_134
	ldr	r1, [r1, #12]
	cmp	r1, #0
	beq	.LBB26_107
	ldr	r0, [r11, #-100]
	cmp	r0, #0
	beq	.LBB26_135
	ldr	r1, [r0, #12]
	cmp	r1, #0
	beq	.LBB26_136
	add	r0, r0, #16
.LBB26_107:
	str	r6, [r11, #-96]
	ldr	r1, [r11, #-96]
	ldr	r2, [r11, #-172]
	str	r0, [r11, #-104]
	ldr	r0, [r2]
	cmp	r1, r0
	bge	.LBB26_109
.LBB26_108:
	ldr	r0, [r11, #-104]
	ldr	r1, [r11, #-96]
	ldr	r2, [r11, #-144]
	ldr	r3, [r11, #-96]
	add	r0, r0, r1, lsl #1
	add	r2, r2, r3, lsl #1
	ldrh	r2, [r2]
	strh	r2, [r0]
	ldr	r0, [r11, #-96]
	ldr	r1, [r10, #28]
	add	r0, r0, #1
	str	r0, [r11, #-96]
	ldr	r4, [r11, #-96]
	ldr	r0, [r11, #-172]
	ldr	r1, [r1]
	cmp	r1, #0
	ldr	r5, [r0]
	blne	mono_aot_System_icall_cold_wrapper_265
	cmp	r4, r5
	blt	.LBB26_108
.LBB26_109:
	ldr	r0, [r11, #-108]
	str	r0, [r11, #-176]
	mov	r0, #2
	str	r6, [r11, #-100]
	b	.LBB26_16
.LBB26_110:
.Ltmp227:
	ldr	r0, [r11, #-232]
	movw	r1, #13567
	bl	p_12_plt__jit_icall_mono_helper_ldstr_llvm
.Ltmp228:
	str	r0, [r11, #-64]
	ldr	r0, [r11, #-64]
	str	r0, [r11, #-68]
	ldr	r5, [r11, #-68]
.Ltmp229:
	ldr	r0, [r11, #-236]
	mov	r1, #72
	bl	p_1_plt_wrapper_alloc_object_AllocSmall_intptr_intptr_llvm
	mov	r4, r0
.Ltmp230:
.Ltmp231:
	mov	r0, r4
	mov	r1, r5
	bl	p_61_plt_System_UriFormatException__ctor_string_llvm
.Ltmp232:
.Ltmp233:
	mov	r0, r4
	bl	p_14_plt__jit_icall_mono_arch_throw_exception_llvm
.Ltmp234:
	b	.LBB26_158
.LBB26_114:
.Ltmp237:
	ldr	r0, [r11, #-232]
	movw	r1, #13567
	bl	p_12_plt__jit_icall_mono_helper_ldstr_llvm
.Ltmp238:
	str	r0, [r11, #-72]
	ldr	r0, [r11, #-72]
	str	r0, [r11, #-76]
	ldr	r5, [r11, #-76]
.Ltmp239:
	ldr	r0, [r11, #-236]
	mov	r1, #72
	bl	p_1_plt_wrapper_alloc_object_AllocSmall_intptr_intptr_llvm
	mov	r4, r0
.Ltmp240:
.Ltmp241:
	mov	r0, r4
	mov	r1, r5
	bl	p_61_plt_System_UriFormatException__ctor_string_llvm
.Ltmp242:
.Ltmp243:
	mov	r0, r4
	bl	p_14_plt__jit_icall_mono_arch_throw_exception_llvm
.Ltmp244:
	b	.LBB26_159
.Ltmp332:
.LBB26_118:
.Ltmp314:
	ldr	r1, [r11, #-240]
	mov	r0, #225
	mov	r6, #0
	bl	p_8_plt__jit_icall_llvm_throw_corlib_exception_abs_trampoline_llvm
.Ltmp315:
	b	.LBB26_160
.Ltmp333:
.LBB26_119:
.Ltmp312:
	ldr	r1, [r11, #-244]
	mov	r0, #198
	mov	r6, #0
	bl	p_8_plt__jit_icall_llvm_throw_corlib_exception_abs_trampoline_llvm
.Ltmp313:
	b	.LBB26_161
.Ltmp334:
.LBB26_120:
.Ltmp310:
	ldr	r1, [r11, #-256]
	mov	r0, #225
	mov	r6, #0
	bl	p_8_plt__jit_icall_llvm_throw_corlib_exception_abs_trampoline_llvm
.Ltmp311:
	b	.LBB26_162
.Ltmp335:
.LBB26_121:
.Ltmp308:
	ldr	r1, [r11, #-260]
	mov	r0, #225
	mov	r6, #0
	bl	p_8_plt__jit_icall_llvm_throw_corlib_exception_abs_trampoline_llvm
.Ltmp309:
	b	.LBB26_163
.Ltmp336:
.LBB26_122:
.Ltmp306:
	ldr	r1, [r11, #-264]
	mov	r0, #225
	mov	r6, #0
	bl	p_8_plt__jit_icall_llvm_throw_corlib_exception_abs_trampoline_llvm
.Ltmp307:
	b	.LBB26_164
.Ltmp337:
.LBB26_123:
.Ltmp304:
	ldr	r1, [r11, #-268]
	mov	r0, #225
	mov	r6, #0
	bl	p_8_plt__jit_icall_llvm_throw_corlib_exception_abs_trampoline_llvm
.Ltmp305:
	b	.LBB26_165
.Ltmp338:
.LBB26_124:
.Ltmp302:
	ldr	r1, [r11, #-272]
	mov	r0, #225
	mov	r6, #0
	bl	p_8_plt__jit_icall_llvm_throw_corlib_exception_abs_trampoline_llvm
.Ltmp303:
	b	.LBB26_166
.Ltmp339:
.LBB26_125:
.Ltmp266:
	ldr	r1, [r11, #-280]
	mov	r0, #225
	mov	r6, #0
	bl	p_8_plt__jit_icall_llvm_throw_corlib_exception_abs_trampoline_llvm
.Ltmp267:
	b	.LBB26_167
.Ltmp340:
.LBB26_126:
.Ltmp264:
	ldr	r1, [r11, #-284]
	mov	r0, #198
	bl	p_8_plt__jit_icall_llvm_throw_corlib_exception_abs_trampoline_llvm
.Ltmp265:
	b	.LBB26_168
.Ltmp341:
.LBB26_127:
.Ltmp225:
	ldr	r1, [r11, #-304]
	mov	r0, #225
	bl	p_8_plt__jit_icall_llvm_throw_corlib_exception_abs_trampoline_llvm
.Ltmp226:
	b	.LBB26_169
.Ltmp342:
.LBB26_128:
.Ltmp275:
	ldr	r1, [r11, #-248]
	mov	r0, #225
	mov	r6, #0
	bl	p_8_plt__jit_icall_llvm_throw_corlib_exception_abs_trampoline_llvm
.Ltmp276:
	b	.LBB26_170
.Ltmp343:
.LBB26_129:
.Ltmp273:
	ldr	r1, [r11, #-252]
	mov	r0, #198
	mov	r6, #0
	bl	p_8_plt__jit_icall_llvm_throw_corlib_exception_abs_trampoline_llvm
.Ltmp274:
	b	.LBB26_171
.Ltmp344:
.LBB26_130:
.Ltmp281:
	ldr	r1, [r11, #-276]
	mov	r0, #203
	mov	r6, #0
	bl	p_8_plt__jit_icall_llvm_throw_corlib_exception_abs_trampoline_llvm
.Ltmp282:
	b	.LBB26_172
.Ltmp345:
.LBB26_131:
.Ltmp223:
	ldr	r1, [r11, #-308]
	mov	r0, #225
	ldr	r7, [r11, #-200]
	bl	p_8_plt__jit_icall_llvm_throw_corlib_exception_abs_trampoline_llvm
.Ltmp224:
	b	.LBB26_173
.Ltmp346:
.LBB26_132:
.Ltmp221:
	ldr	r1, [r11, #-312]
	mov	r0, #198
	ldr	r7, [r11, #-200]
	bl	p_8_plt__jit_icall_llvm_throw_corlib_exception_abs_trampoline_llvm
.Ltmp222:
	b	.LBB26_174
.Ltmp347:
.LBB26_133:
.Ltmp262:
	ldr	r1, [r11, #-288]
	mov	r0, #225
	mov	r6, #0
	bl	p_8_plt__jit_icall_llvm_throw_corlib_exception_abs_trampoline_llvm
.Ltmp263:
	b	.LBB26_175
.Ltmp348:
.LBB26_134:
.Ltmp260:
	ldr	r1, [r11, #-292]
	mov	r0, #225
	bl	p_8_plt__jit_icall_llvm_throw_corlib_exception_abs_trampoline_llvm
.Ltmp261:
	b	.LBB26_176
.Ltmp349:
.LBB26_135:
.Ltmp258:
	ldr	r1, [r11, #-296]
	mov	r0, #225
	bl	p_8_plt__jit_icall_llvm_throw_corlib_exception_abs_trampoline_llvm
.Ltmp259:
	b	.LBB26_177
.Ltmp350:
.LBB26_136:
.Ltmp256:
	ldr	r1, [r11, #-300]
	mov	r0, #198
	bl	p_8_plt__jit_icall_llvm_throw_corlib_exception_abs_trampoline_llvm
.Ltmp257:
	b	.LBB26_178
.LBB26_137:
.Ltmp272:
	b	.LBB26_139
.LBB26_138:
.Ltmp301:
.LBB26_139:
	ldr	r0, [r7]
	mov	r6, #0
	b	.LBB26_142
.LBB26_140:
.Ltmp251:
.LBB26_141:
	ldr	r0, [r7]
.LBB26_142:
	cmp	r0, #1
	str	r6, [r11, #-136]
	str	r6, [r7]
	beq	.LBB26_150
	cmp	r0, #2
	beq	.LBB26_147
	cmp	r0, #3
	bne	.LBB26_157
	ldr	r0, [r11, #-92]
	cmp	r0, #0
	beq	.LBB26_154
.Ltmp316:
	bl	p_4_plt__jit_icall_ves_icall_thread_finish_async_abort_llvm
.Ltmp317:
	b	.LBB26_154
.LBB26_147:
	ldr	r0, [r11, #-92]
	cmp	r0, #0
	beq	.LBB26_149
.Ltmp318:
	bl	p_4_plt__jit_icall_ves_icall_thread_finish_async_abort_llvm
.Ltmp319:
.LBB26_149:
	ldr	r0, [r10, #28]
	ldr	r0, [r0]
	cmp	r0, #0
	beq	.LBB26_5
	b	.LBB26_4
.LBB26_150:
	ldr	r0, [r11, #-92]
	cmp	r0, #0
	beq	.LBB26_153
.Ltmp320:
	bl	p_4_plt__jit_icall_ves_icall_thread_finish_async_abort_llvm
.Ltmp321:
	b	.LBB26_153
.LBB26_152:
.Ltmp322:
	b	.LBB26_141
.LBB26_153:
	ldr	r0, [r11, #-176]
	b	.LBB26_155
.LBB26_154:
	ldr	r0, [r11, #-128]
.LBB26_155:
	str	r0, [r11, #-196]
	ldr	r0, [r11, #-196]
	sub	sp, r11, #24
	pop	{r4, r5, r6, r7, r9, r10, r11, pc}
.LBB26_156:
	movw	r0, #930
	bl	mono_aot_System_init_method
	b	.LBB26_1
.LBB26_157:
	bl	p_7_plt__jit_icall_llvm_resume_unwind_trampoline_llvm
.LBB26_158:
.LBB26_159:
.LBB26_160:
.LBB26_161:
.LBB26_162:
.LBB26_163:
.LBB26_164:
.LBB26_165:
.LBB26_166:
.LBB26_167:
.LBB26_168:
.LBB26_169:
.LBB26_170:
.LBB26_171:
.LBB26_172:
.LBB26_173:
.LBB26_174:
.LBB26_175:
.LBB26_176:
.LBB26_177:
.LBB26_178:
	.p2align	2
.LCPI26_0:
	.long	.Ltmp346-(.LPC26_0+8)
.LCPI26_1:
	.long	.Ltmp345-(.LPC26_1+8)
.LCPI26_2:
	.long	.Ltmp341-(.LPC26_2+8)
.LCPI26_3:
	.long	.Ltmp350-(.LPC26_3+8)
.LCPI26_4:
	.long	.Ltmp349-(.LPC26_4+8)
.LCPI26_5:
	.long	.Ltmp348-(.LPC26_5+8)
.LCPI26_6:
	.long	.Ltmp347-(.LPC26_6+8)
.LCPI26_7:
	.long	.Ltmp340-(.LPC26_7+8)
.LCPI26_8:
	.long	.Ltmp339-(.LPC26_8+8)
.LCPI26_9:
	.long	.Ltmp343-(.LPC26_9+8)
.LCPI26_10:
	.long	.Ltmp342-(.LPC26_10+8)
.LCPI26_11:
	.long	.Ltmp344-(.LPC26_11+8)
.LCPI26_12:
	.long	.Ltmp338-(.LPC26_12+8)
.LCPI26_13:
	.long	.Ltmp337-(.LPC26_13+8)
.LCPI26_14:
	.long	.Ltmp336-(.LPC26_14+8)
.LCPI26_15:
	.long	.Ltmp335-(.LPC26_15+8)
.LCPI26_16:
	.long	.Ltmp334-(.LPC26_16+8)
.LCPI26_17:
	.long	.Ltmp333-(.LPC26_17+8)
.LCPI26_18:
	.long	.Ltmp332-(.LPC26_18+8)
.LCPI26_19:
	.long	mono_inited-(.LPC26_19+8)
.LCPI26_20:
	.long	mono_aot_System_llvm_got-(.LPC26_20+8)
.LCPI26_21:
	.long	mono_aot_System_llvm_got-(.LPC26_21+8)
.Lfunc_end26:
	.size	System_UriHelper_UnescapeString_char__int_int_char___int__char_char_char_System_UnescapeMode_System_UriParser_bool, .Lfunc_end26-System_UriHelper_UnescapeString_char__int_int_char___int__char_char_char_System_UnescapeMode_System_UriParser_bool
.Lexception20:
	.fnend

	.hidden	System_UriHelper__cctor
	.globl	System_UriHelper__cctor
	.p2align	2
	.type	System_UriHelper__cctor,%function
	.code	32
System_UriHelper__cctor:
.Lfunc_begin27:
	.fnstart
	.save	{r4, r5, r11, lr}
	push	{r4, r5, r11, lr}
.Ltmp351:
.Ltmp352:
.Ltmp353:
.Ltmp354:
.Ltmp355:
	ldr	r5, .LCPI27_0
	ldr	r0, .LCPI27_1
.LPC27_0:
	add	r5, pc, r5
.LPC27_1:
	add	r0, pc, r0
	ldr	r1, [r5, #28]
	ldrb	r4, [r0, #938]
	ldr	r0, [r1]
	cmp	r0, #0
	blne	mono_aot_System_icall_cold_wrapper_265
	cmp	r4, #0
	beq	.LBB27_2
.LBB27_1:
	ldr	r0, [r5, #160]
	mov	r1, #16
	bl	p_24_plt_wrapper_alloc_object_AllocVector_intptr_intptr_llvm
	ldr	r1, [r5, #336]
	mov	r4, r0
	add	r0, r4, #16
	mov	r2, #32
	bl	p_51_plt_string_memcpy_byte__byte__int_llvm
	ldr	r0, [r5, #340]
	dmb	ish
	str	r4, [r0]
	pop	{r4, r5, r11, pc}
.LBB27_2:
	movw	r0, #938
	bl	mono_aot_System_init_method
	b	.LBB27_1
	.p2align	2
.LCPI27_0:
	.long	mono_aot_System_llvm_got-(.LPC27_0+8)
.LCPI27_1:
	.long	mono_inited-(.LPC27_1+8)
.Lfunc_end27:
	.size	System_UriHelper__cctor, .Lfunc_end27-System_UriHelper__cctor
.Lexception21:
	.fnend

	.hidden	System_UriParser_get_SchemeName
	.globl	System_UriParser_get_SchemeName
	.p2align	2
	.type	System_UriParser_get_SchemeName,%function
	.code	32
System_UriParser_get_SchemeName:
.Lfunc_begin28:
	.fnstart
	cmp	r0, #0
	ldrne	r0, [r0, #8]
	bxne	lr
.Ltmp356:
.LBB28_1:
	.save	{r11, lr}
	push	{r11, lr}
.Ltmp357:
.Ltmp358:
.Ltmp359:
	ldr	r0, .LCPI28_0
.LPC28_0:
	add	r1, pc, r0
	mov	r0, #225
	bl	p_8_plt__jit_icall_llvm_throw_corlib_exception_abs_trampoline_llvm
	.p2align	2
.LCPI28_0:
	.long	.Ltmp356-(.LPC28_0+8)
.Lfunc_end28:
	.size	System_UriParser_get_SchemeName, .Lfunc_end28-System_UriParser_get_SchemeName
.Lexception22:
	.fnend

	.hidden	System_UriParser_get_ShouldUseLegacyV2Quirks
	.globl	System_UriParser_get_ShouldUseLegacyV2Quirks
	.p2align	2
	.type	System_UriParser_get_ShouldUseLegacyV2Quirks,%function
	.code	32
System_UriParser_get_ShouldUseLegacyV2Quirks:
.Lfunc_begin29:
	.fnstart
	.save	{r4, r5, r11, lr}
	push	{r4, r5, r11, lr}
.Ltmp360:
.Ltmp361:
.Ltmp362:
.Ltmp363:
.Ltmp364:
	ldr	r4, .LCPI29_0
	ldr	r0, .LCPI29_1
.LPC29_0:
	add	r4, pc, r4
.LPC29_1:
	add	r0, pc, r0
	ldr	r1, [r4, #28]
	ldrb	r5, [r0, #946]
	ldr	r0, [r1]
	cmp	r0, #0
	blne	mono_aot_System_icall_cold_wrapper_265
	cmp	r5, #0
	beq	.LBB29_3
.LBB29_1:
	ldr	r0, [r4, #128]
	ldrb	r1, [r0, #25]
	cmp	r1, #0
	beq	.LBB29_4
.LBB29_2:
	ldr	r0, [r4, #344]
	ldr	r1, [r0]
	mov	r0, #0
	cmp	r1, #3
	movwlt	r0, #1
	pop	{r4, r5, r11, pc}
.LBB29_3:
	movw	r0, #946
	bl	mono_aot_System_init_method
	b	.LBB29_1
.LBB29_4:
	bl	p_17_plt__jit_icall_mono_generic_class_init_llvm
	b	.LBB29_2
	.p2align	2
.LCPI29_0:
	.long	mono_aot_System_llvm_got-(.LPC29_0+8)
.LCPI29_1:
	.long	mono_inited-(.LPC29_1+8)
.Lfunc_end29:
	.size	System_UriParser_get_ShouldUseLegacyV2Quirks, .Lfunc_end29-System_UriParser_get_ShouldUseLegacyV2Quirks
.Lexception23:
	.fnend

	.hidden	System_UriParser__cctor
	.globl	System_UriParser__cctor
	.p2align	2
	.type	System_UriParser__cctor,%function
	.code	32
System_UriParser__cctor:
.Lfunc_begin30:
	.fnstart
	.save	{r4, r5, r6, r7, r9, r10, r11, lr}
	push	{r4, r5, r6, r7, r9, r10, r11, lr}
.Ltmp365:
.Ltmp366:
.Ltmp367:
.Ltmp368:
.Ltmp369:
.Ltmp370:
.Ltmp371:
.Ltmp372:
.Ltmp373:
	.pad	#8
	sub	sp, sp, #8
.Ltmp374:
	ldr	r6, .LCPI30_18
	ldr	r0, .LCPI30_19
.LPC30_18:
	add	r6, pc, r6
.LPC30_19:
	add	r0, pc, r0
	ldr	r1, [r6, #28]
	ldrb	r4, [r0, #947]
	ldr	r0, [r1]
	cmp	r0, #0
	blne	mono_aot_System_icall_cold_wrapper_265
	cmp	r4, #0
	beq	.LBB30_20
.LBB30_1:
	ldr	r1, [r6, #348]
	mov	r2, #3
	ldr	r0, [r6, #344]
	ldrb	r1, [r1]
	cmp	r1, #0
	movweq	r2, #2
	str	r2, [r0]
	bl	System_UriParser_get_ShouldUseLegacyV2Quirks
	movw	r1, #3965
	ldr	r10, [r6, #352]
	movt	r1, #6112
	tst	r0, #255
	movweq	r1, #3965
	movteq	r1, #5600
	str	r1, [r10]
	bl	System_UriParser_get_ShouldUseLegacyV2Quirks
	movw	r1, #12241
	ldr	r2, [r6, #356]
	ldr	r4, [r6, #360]
	tst	r0, #255
	movt	r1, #6128
	str	r2, [sp, #4]
	addeq	r1, r1, #32
	str	r1, [r2]
	mov	r0, r4
	mov	r1, #48
	bl	p_1_plt_wrapper_alloc_object_AllocSmall_intptr_intptr_llvm
	mov	r1, #25
	mov	r5, r0
	bl	p_64_plt_System_Collections_Generic_Dictionary_2_string_System_UriParser__ctor_int_llvm
	ldr	r7, [r6, #364]
	mov	r0, r4
	mov	r1, #48
	dmb	ish
	str	r5, [r7]
	bl	p_1_plt_wrapper_alloc_object_AllocSmall_intptr_intptr_llvm
	mov	r1, #25
	mov	r5, r0
	bl	p_64_plt_System_Collections_Generic_Dictionary_2_string_System_UriParser__ctor_int_llvm
	ldr	r0, [r6, #368]
	dmb	ish
	ldr	r11, [r6, #376]
	mov	r1, #28
	ldr	r9, [r6, #372]
	str	r5, [r0]
	mov	r0, r11
	str	r10, [sp]
	ldr	r4, [r10]
	bl	p_1_plt_wrapper_alloc_object_AllocSmall_intptr_intptr_llvm
	orr	r1, r4, #393216
	mov	r5, r0
	bl	System_UriParser__ctor_System_UriSyntaxFlags
	ldr	r10, [r6, #8]
	mov	r0, r5
	dmb	ish
	str	r9, [r0, #8]!
	mov	r1, #1
	ldr	r6, [r6, #188]
	strb	r1, [r10, r0, lsr #9]
	mov	r0, #80
	str	r0, [r5, #24]
	dmb	ish
	str	r5, [r6]
	ldr	r0, [r7]
	cmp	r0, #0
	beq	.LBB30_21
	ldr	r1, [r5, #8]
	mov	r2, r5
	bl	p_66_plt_System_Collections_Generic_Dictionary_2_string_System_UriParser_set_Item_string_System_UriParser_llvm
	ldr	r0, [r6]
	cmp	r0, #0
	beq	.LBB30_22
	ldr	r4, [r0, #12]
	mov	r1, #28
	ldr	r0, .LCPI30_20
.LPC30_20:
	add	r0, pc, r0
	mov	r9, r0
	mov	r0, r11
	ldr	r6, [r9, #380]
	bl	p_1_plt_wrapper_alloc_object_AllocSmall_intptr_intptr_llvm
	orr	r1, r4, #393216
	mov	r5, r0
	bl	System_UriParser__ctor_System_UriSyntaxFlags
	mov	r0, r5
	dmb	ish
	str	r6, [r0, #8]!
	mov	r2, #1
	ldr	r1, [r9, #196]
	lsr	r0, r0, #9
	strb	r2, [r0, r10]
	movw	r0, #443
	str	r0, [r5, #24]
	dmb	ish
	str	r5, [r1]
	ldr	r0, [r7]
	cmp	r0, #0
	beq	.LBB30_23
	ldr	r1, [r5, #8]
	mov	r2, r5
	bl	p_66_plt_System_Collections_Generic_Dictionary_2_string_System_UriParser_set_Item_string_System_UriParser_llvm
	ldr	r4, [r9, #384]
	mov	r0, r11
	ldr	r9, [sp]
	mov	r1, #28
	ldr	r6, [r9]
	bl	p_1_plt_wrapper_alloc_object_AllocSmall_intptr_intptr_llvm
	orr	r1, r6, #393216
	mov	r5, r0
	bl	System_UriParser__ctor_System_UriSyntaxFlags
	mov	r0, r5
	dmb	ish
	str	r4, [r0, #8]!
	mov	r2, #1
	ldr	r1, .LCPI30_21
	lsr	r0, r0, #9
.LPC30_21:
	add	r1, pc, r1
	strb	r2, [r0, r10]
	mov	r0, #80
	mov	r4, r1
	ldr	r1, [r1, #204]
	str	r0, [r5, #24]
	dmb	ish
	str	r5, [r1]
	ldr	r0, [r7]
	cmp	r0, #0
	beq	.LBB30_24
	ldr	r1, [r5, #8]
	mov	r2, r5
	bl	p_66_plt_System_Collections_Generic_Dictionary_2_string_System_UriParser_set_Item_string_System_UriParser_llvm
	mov	r0, r4
	ldr	r6, [r9]
	ldr	r4, [r0, #388]
	mov	r9, r0
	mov	r0, r11
	mov	r1, #28
	bl	p_1_plt_wrapper_alloc_object_AllocSmall_intptr_intptr_llvm
	orr	r1, r6, #393216
	mov	r5, r0
	bl	System_UriParser__ctor_System_UriSyntaxFlags
	mov	r0, r5
	dmb	ish
	str	r4, [r0, #8]!
	mov	r6, #1
	ldr	r1, [r9, #212]
	lsr	r0, r0, #9
	strb	r6, [r0, r10]
	movw	r0, #443
	str	r0, [r5, #24]
	dmb	ish
	str	r5, [r1]
	ldr	r0, [r7]
	cmp	r0, #0
	beq	.LBB30_25
	ldr	r1, [r5, #8]
	mov	r2, r5
	bl	p_66_plt_System_Collections_Generic_Dictionary_2_string_System_UriParser_set_Item_string_System_UriParser_llvm
	mov	r0, r11
	mov	r1, #28
	ldr	r4, [r9, #392]
	bl	p_1_plt_wrapper_alloc_object_AllocSmall_intptr_intptr_llvm
	movw	r1, #3933
	mov	r5, r0
	movt	r1, #5606
	bl	System_UriParser__ctor_System_UriSyntaxFlags
	mov	r0, r5
	dmb	ish
	str	r4, [r0, #8]!
	ldr	r1, [r9, #172]
	lsr	r0, r0, #9
	strb	r6, [r0, r10]
	mov	r0, #21
	str	r0, [r5, #24]
	dmb	ish
	str	r5, [r1]
	ldr	r0, [r7]
	cmp	r0, #0
	beq	.LBB30_26
	ldr	r1, [r5, #8]
	mov	r2, r5
	bl	p_66_plt_System_Collections_Generic_Dictionary_2_string_System_UriParser_set_Item_string_System_UriParser_llvm
	ldr	r0, [sp, #4]
	mov	r1, #28
	ldr	r4, [r9, #396]
	ldr	r6, [r0]
	mov	r0, r11
	bl	p_1_plt_wrapper_alloc_object_AllocSmall_intptr_intptr_llvm
	orr	r1, r6, #393216
	mov	r5, r0
	bl	System_UriParser__ctor_System_UriSyntaxFlags
	mov	r0, r5
	dmb	ish
	str	r4, [r0, #8]!
	mov	r4, #1
	ldr	r1, [r9, #132]
	lsr	r0, r0, #9
	strb	r4, [r0, r10]
	mvn	r0, #0
	str	r0, [r5, #24]
	dmb	ish
	str	r5, [r1]
	ldr	r0, [r7]
	cmp	r0, #0
	beq	.LBB30_27
	ldr	r1, [r5, #8]
	mov	r2, r5
	bl	p_66_plt_System_Collections_Generic_Dictionary_2_string_System_UriParser_set_Item_string_System_UriParser_llvm
	mov	r0, r11
	mov	r1, #28
	ldr	r5, [r9, #400]
	bl	p_1_plt_wrapper_alloc_object_AllocSmall_intptr_intptr_llvm
	movw	r1, #3933
	mov	r6, r0
	movt	r1, #5158
	bl	System_UriParser__ctor_System_UriSyntaxFlags
	mov	r0, r6
	dmb	ish
	str	r5, [r0, #8]!
	mov	r5, r9
	ldr	r1, [r9, #180]
	lsr	r0, r0, #9
	strb	r4, [r0, r10]
	mov	r0, #70
	str	r0, [r6, #24]
	dmb	ish
	str	r6, [r1]
	ldr	r0, [r7]
	cmp	r0, #0
	beq	.LBB30_28
	ldr	r1, [r6, #8]
	mov	r2, r6
	bl	p_66_plt_System_Collections_Generic_Dictionary_2_string_System_UriParser_set_Item_string_System_UriParser_llvm
	mov	r0, r11
	mov	r1, #28
	ldr	r4, [r5, #404]
	bl	p_1_plt_wrapper_alloc_object_AllocSmall_intptr_intptr_llvm
	movw	r1, #3933
	mov	r6, r0
	movt	r1, #5158
	bl	System_UriParser__ctor_System_UriSyntaxFlags
	mov	r0, r6
	dmb	ish
	str	r4, [r0, #8]!
	mov	r9, #1
	ldr	r1, [r5, #236]
	mov	r4, r5
	lsr	r0, r0, #9
	strb	r9, [r0, r10]
	mov	r0, #119
	str	r0, [r6, #24]
	dmb	ish
	str	r6, [r1]
	ldr	r0, [r7]
	cmp	r0, #0
	beq	.LBB30_29
	ldr	r1, [r6, #8]
	mov	r2, r6
	bl	p_66_plt_System_Collections_Generic_Dictionary_2_string_System_UriParser_set_Item_string_System_UriParser_llvm
	mov	r0, r11
	mov	r1, #28
	ldr	r5, [r4, #408]
	bl	p_1_plt_wrapper_alloc_object_AllocSmall_intptr_intptr_llvm
	movw	r1, #80
	mov	r6, r0
	movt	r1, #4102
	bl	System_UriParser__ctor_System_UriSyntaxFlags
	mov	r0, r6
	dmb	ish
	str	r5, [r0, #8]!
	mov	r1, r11
	ldr	r11, [r4, #228]
	mov	r5, r4
	lsr	r0, r0, #9
	strb	r9, [r0, r10]
	mvn	r0, #0
	mov	r9, r1
	str	r0, [r6, #24]
	dmb	ish
	str	r6, [r11]
	ldr	r0, [r7]
	cmp	r0, #0
	beq	.LBB30_30
	ldr	r1, [r6, #8]
	mov	r2, r6
	bl	p_66_plt_System_Collections_Generic_Dictionary_2_string_System_UriParser_set_Item_string_System_UriParser_llvm
	mov	r0, r9
	mov	r1, #28
	ldr	r4, [r5, #412]
	bl	p_1_plt_wrapper_alloc_object_AllocSmall_intptr_intptr_llvm
	movw	r1, #20476
	mov	r6, r0
	movt	r1, #5126
	bl	System_UriParser__ctor_System_UriSyntaxFlags
	mov	r0, r6
	dmb	ish
	str	r4, [r0, #8]!
	mov	r1, #1
	ldr	r2, [r5, #220]
	lsr	r0, r0, #9
	strb	r1, [r0, r10]
	mov	r0, #25
	str	r0, [r6, #24]
	dmb	ish
	str	r6, [r2]
	ldr	r0, [r7]
	cmp	r0, #0
	beq	.LBB30_31
	ldr	r1, [r6, #8]
	mov	r2, r6
	bl	p_66_plt_System_Collections_Generic_Dictionary_2_string_System_UriParser_set_Item_string_System_UriParser_llvm
	ldr	r0, [r11]
	cmp	r0, #0
	beq	.LBB30_32
	ldr	r4, [r0, #12]
	mov	r1, #28
	ldr	r0, .LCPI30_22
.LPC30_22:
	add	r0, pc, r0
	mov	r11, r0
	mov	r0, r9
	ldr	r5, [r11, #416]
	bl	p_1_plt_wrapper_alloc_object_AllocSmall_intptr_intptr_llvm
	orr	r1, r4, #393216
	mov	r6, r0
	bl	System_UriParser__ctor_System_UriSyntaxFlags
	mov	r0, r6
	dmb	ish
	str	r5, [r0, #8]!
	mov	r4, r10
	mov	r2, #1
	ldr	r1, [r11, #420]
	lsr	r0, r0, #9
	mov	r10, r9
	strb	r2, [r0, r4]
	mvn	r0, #0
	str	r0, [r6, #24]
	dmb	ish
	str	r6, [r1]
	ldr	r0, [r7]
	cmp	r0, #0
	beq	.LBB30_33
	ldr	r1, [r6, #8]
	mov	r2, r6
	bl	p_66_plt_System_Collections_Generic_Dictionary_2_string_System_UriParser_set_Item_string_System_UriParser_llvm
	ldr	r0, .LCPI30_23
	mov	r1, #28
.LPC30_23:
	add	r0, pc, r0
	ldr	r11, [r0, #424]
	mov	r0, r10
	bl	p_1_plt_wrapper_alloc_object_AllocSmall_intptr_intptr_llvm
	movw	r5, #3933
	mov	r6, r0
	movt	r5, #5158
	mov	r1, r5
	bl	System_UriParser__ctor_System_UriSyntaxFlags
	mov	r0, r6
	dmb	ish
	str	r11, [r0, #8]!
	mov	r2, #1
	ldr	r11, .LCPI30_24
	mov	r9, r4
	lsr	r0, r0, #9
.LPC30_24:
	add	r11, pc, r11
	strb	r2, [r0, r4]
	mov	r0, #23
	ldr	r1, [r11, #428]
	str	r0, [r6, #24]
	dmb	ish
	str	r6, [r1]
	ldr	r0, [r7]
	cmp	r0, #0
	beq	.LBB30_34
	ldr	r1, [r6, #8]
	mov	r2, r6
	bl	p_66_plt_System_Collections_Generic_Dictionary_2_string_System_UriParser_set_Item_string_System_UriParser_llvm
	mov	r0, r10
	mov	r1, #28
	ldr	r4, [r11, #432]
	bl	p_1_plt_wrapper_alloc_object_AllocSmall_intptr_intptr_llvm
	add	r1, r5, #160
	mov	r6, r0
	bl	System_UriParser__ctor_System_UriSyntaxFlags
	mov	r0, r6
	dmb	ish
	str	r4, [r0, #8]!
	mov	r2, #1
	ldr	r1, [r11, #436]
	mov	r5, r10
	lsr	r0, r0, #9
	strb	r2, [r0, r9]
	movw	r0, #389
	str	r0, [r6, #24]
	dmb	ish
	str	r6, [r1]
	ldr	r0, [r7]
	cmp	r0, #0
	beq	.LBB30_35
	ldr	r1, [r6, #8]
	mov	r2, r6
	bl	p_66_plt_System_Collections_Generic_Dictionary_2_string_System_UriParser_set_Item_string_System_UriParser_llvm
	mov	r0, r5
	mov	r1, #28
	ldr	r4, [r11, #440]
	bl	p_1_plt_wrapper_alloc_object_AllocSmall_intptr_intptr_llvm
	movw	r10, #3697
	mov	r6, r0
	movt	r10, #6118
	add	r1, r10, #8
	bl	System_UriParser__ctor_System_UriSyntaxFlags
	mov	r0, r6
	dmb	ish
	str	r4, [r0, #8]!
	mov	r2, #1
	ldr	r1, [r11, #244]
	lsr	r0, r0, #9
	strb	r2, [r0, r9]
	mov	r0, #808
	str	r0, [r6, #24]
	dmb	ish
	str	r6, [r1]
	ldr	r0, [r7]
	cmp	r0, #0
	beq	.LBB30_36
	ldr	r1, [r6, #8]
	mov	r2, r6
	bl	p_66_plt_System_Collections_Generic_Dictionary_2_string_System_UriParser_set_Item_string_System_UriParser_llvm
	mov	r0, r5
	mov	r1, #28
	ldr	r4, [r11, #444]
	bl	p_1_plt_wrapper_alloc_object_AllocSmall_intptr_intptr_llvm
	mov	r1, r10
	mov	r6, r0
	bl	System_UriParser__ctor_System_UriSyntaxFlags
	mov	r0, r6
	dmb	ish
	str	r4, [r0, #8]!
	mov	r2, #1
	ldr	r1, [r11, #252]
	mvn	r10, #0
	lsr	r0, r0, #9
	strb	r2, [r0, r9]
	str	r10, [r6, #24]
	dmb	ish
	str	r6, [r1]
	ldr	r0, [r7]
	cmp	r0, #0
	beq	.LBB30_37
	ldr	r1, [r6, #8]
	mov	r2, r6
	bl	p_66_plt_System_Collections_Generic_Dictionary_2_string_System_UriParser_set_Item_string_System_UriParser_llvm
	mov	r0, r5
	mov	r1, #28
	ldr	r6, [r11, #448]
	bl	p_1_plt_wrapper_alloc_object_AllocSmall_intptr_intptr_llvm
	movw	r1, #12241
	mov	r4, r0
	movt	r1, #6102
	bl	System_UriParser__ctor_System_UriSyntaxFlags
	mov	r0, r4
	dmb	ish
	str	r6, [r0, #8]!
	mov	r2, #1
	ldr	r1, [r11, #452]
	lsr	r0, r0, #9
	strb	r2, [r0, r9]
	str	r10, [r4, #24]
	dmb	ish
	str	r4, [r1]
	ldr	r0, [r7]
	cmp	r0, #0
	beq	.LBB30_38
	ldr	r1, [r4, #8]
	mov	r2, r4
	bl	p_66_plt_System_Collections_Generic_Dictionary_2_string_System_UriParser_set_Item_string_System_UriParser_llvm
	add	sp, sp, #8
	pop	{r4, r5, r6, r7, r9, r10, r11, pc}
.LBB30_20:
	movw	r0, #947
	bl	mono_aot_System_init_method
	b	.LBB30_1
.Ltmp375:
.LBB30_21:
	ldr	r0, .LCPI30_17
.LPC30_17:
	add	r1, pc, r0
	mov	r0, #225
	bl	p_8_plt__jit_icall_llvm_throw_corlib_exception_abs_trampoline_llvm
.Ltmp376:
.LBB30_22:
	ldr	r0, .LCPI30_16
.LPC30_16:
	add	r1, pc, r0
	mov	r0, #225
	bl	p_8_plt__jit_icall_llvm_throw_corlib_exception_abs_trampoline_llvm
.Ltmp377:
.LBB30_23:
	ldr	r0, .LCPI30_15
.LPC30_15:
	add	r1, pc, r0
	mov	r0, #225
	bl	p_8_plt__jit_icall_llvm_throw_corlib_exception_abs_trampoline_llvm
.Ltmp378:
.LBB30_24:
	ldr	r0, .LCPI30_14
.LPC30_14:
	add	r1, pc, r0
	mov	r0, #225
	bl	p_8_plt__jit_icall_llvm_throw_corlib_exception_abs_trampoline_llvm
.Ltmp379:
.LBB30_25:
	ldr	r0, .LCPI30_13
.LPC30_13:
	add	r1, pc, r0
	mov	r0, #225
	bl	p_8_plt__jit_icall_llvm_throw_corlib_exception_abs_trampoline_llvm
.Ltmp380:
.LBB30_26:
	ldr	r0, .LCPI30_12
.LPC30_12:
	add	r1, pc, r0
	mov	r0, #225
	bl	p_8_plt__jit_icall_llvm_throw_corlib_exception_abs_trampoline_llvm
.Ltmp381:
.LBB30_27:
	ldr	r0, .LCPI30_11
.LPC30_11:
	add	r1, pc, r0
	mov	r0, #225
	bl	p_8_plt__jit_icall_llvm_throw_corlib_exception_abs_trampoline_llvm
.Ltmp382:
.LBB30_28:
	ldr	r0, .LCPI30_10
.LPC30_10:
	add	r1, pc, r0
	mov	r0, #225
	bl	p_8_plt__jit_icall_llvm_throw_corlib_exception_abs_trampoline_llvm
.Ltmp383:
.LBB30_29:
	ldr	r0, .LCPI30_9
.LPC30_9:
	add	r1, pc, r0
	mov	r0, #225
	bl	p_8_plt__jit_icall_llvm_throw_corlib_exception_abs_trampoline_llvm
.Ltmp384:
.LBB30_30:
	ldr	r0, .LCPI30_8
.LPC30_8:
	add	r1, pc, r0
	mov	r0, #225
	bl	p_8_plt__jit_icall_llvm_throw_corlib_exception_abs_trampoline_llvm
.Ltmp385:
.LBB30_31:
	ldr	r0, .LCPI30_7
.LPC30_7:
	add	r1, pc, r0
	mov	r0, #225
	bl	p_8_plt__jit_icall_llvm_throw_corlib_exception_abs_trampoline_llvm
.Ltmp386:
.LBB30_32:
	ldr	r0, .LCPI30_6
.LPC30_6:
	add	r1, pc, r0
	mov	r0, #225
	bl	p_8_plt__jit_icall_llvm_throw_corlib_exception_abs_trampoline_llvm
.Ltmp387:
.LBB30_33:
	ldr	r0, .LCPI30_5
.LPC30_5:
	add	r1, pc, r0
	mov	r0, #225
	bl	p_8_plt__jit_icall_llvm_throw_corlib_exception_abs_trampoline_llvm
.Ltmp388:
.LBB30_34:
	ldr	r0, .LCPI30_4
.LPC30_4:
	add	r1, pc, r0
	mov	r0, #225
	bl	p_8_plt__jit_icall_llvm_throw_corlib_exception_abs_trampoline_llvm
.Ltmp389:
.LBB30_35:
	ldr	r0, .LCPI30_3
.LPC30_3:
	add	r1, pc, r0
	mov	r0, #225
	bl	p_8_plt__jit_icall_llvm_throw_corlib_exception_abs_trampoline_llvm
.Ltmp390:
.LBB30_36:
	ldr	r0, .LCPI30_2
.LPC30_2:
	add	r1, pc, r0
	mov	r0, #225
	bl	p_8_plt__jit_icall_llvm_throw_corlib_exception_abs_trampoline_llvm
.Ltmp391:
.LBB30_37:
	ldr	r0, .LCPI30_1
.LPC30_1:
	add	r1, pc, r0
	mov	r0, #225
	bl	p_8_plt__jit_icall_llvm_throw_corlib_exception_abs_trampoline_llvm
.Ltmp392:
.LBB30_38:
	ldr	r0, .LCPI30_0
.LPC30_0:
	add	r1, pc, r0
	mov	r0, #225
	bl	p_8_plt__jit_icall_llvm_throw_corlib_exception_abs_trampoline_llvm
	.p2align	2
.LCPI30_0:
	.long	.Ltmp392-(.LPC30_0+8)
.LCPI30_1:
	.long	.Ltmp391-(.LPC30_1+8)
.LCPI30_2:
	.long	.Ltmp390-(.LPC30_2+8)
.LCPI30_3:
	.long	.Ltmp389-(.LPC30_3+8)
.LCPI30_4:
	.long	.Ltmp388-(.LPC30_4+8)
.LCPI30_5:
	.long	.Ltmp387-(.LPC30_5+8)
.LCPI30_6:
	.long	.Ltmp386-(.LPC30_6+8)
.LCPI30_7:
	.long	.Ltmp385-(.LPC30_7+8)
.LCPI30_8:
	.long	.Ltmp384-(.LPC30_8+8)
.LCPI30_9:
	.long	.Ltmp383-(.LPC30_9+8)
.LCPI30_10:
	.long	.Ltmp382-(.LPC30_10+8)
.LCPI30_11:
	.long	.Ltmp381-(.LPC30_11+8)
.LCPI30_12:
	.long	.Ltmp380-(.LPC30_12+8)
.LCPI30_13:
	.long	.Ltmp379-(.LPC30_13+8)
.LCPI30_14:
	.long	.Ltmp378-(.LPC30_14+8)
.LCPI30_15:
	.long	.Ltmp377-(.LPC30_15+8)
.LCPI30_16:
	.long	.Ltmp376-(.LPC30_16+8)
.LCPI30_17:
	.long	.Ltmp375-(.LPC30_17+8)
.LCPI30_18:
	.long	mono_aot_System_llvm_got-(.LPC30_18+8)
.LCPI30_19:
	.long	mono_inited-(.LPC30_19+8)
.LCPI30_20:
	.long	mono_aot_System_llvm_got-(.LPC30_20+8)
.LCPI30_21:
	.long	mono_aot_System_llvm_got-(.LPC30_21+8)
.LCPI30_22:
	.long	mono_aot_System_llvm_got-(.LPC30_22+8)
.LCPI30_23:
	.long	mono_aot_System_llvm_got-(.LPC30_23+8)
.LCPI30_24:
	.long	mono_aot_System_llvm_got-(.LPC30_24+8)
.Lfunc_end30:
	.size	System_UriParser__cctor, .Lfunc_end30-System_UriParser__cctor
.Lexception24:
	.fnend

	.hidden	System_UriParser__ctor_System_UriSyntaxFlags
	.globl	System_UriParser__ctor_System_UriSyntaxFlags
	.p2align	2
	.type	System_UriParser__ctor_System_UriSyntaxFlags,%function
	.code	32
System_UriParser__ctor_System_UriSyntaxFlags:
.Lfunc_begin31:
	.fnstart
	.save	{r4, r5, r11, lr}
	push	{r4, r5, r11, lr}
.Ltmp393:
.Ltmp394:
.Ltmp395:
.Ltmp396:
.Ltmp397:
	mov	r4, r0
	ldr	r0, .LCPI31_1
	mov	r5, r1
.LPC31_1:
	add	r0, pc, r0
	ldrb	r0, [r0, #953]
	cmp	r0, #0
	beq	.LBB31_3
	cmp	r4, #0
	beq	.LBB31_4
.LBB31_2:
	ldr	r0, .LCPI31_2
	mov	r2, #1
	str	r5, [r4, #12]
.LPC31_2:
	add	r0, pc, r0
	ldr	r1, [r0, #140]
	ldr	r0, [r0, #8]
	ldr	r1, [r1]
	dmb	ish
	str	r1, [r4, #8]
	add	r1, r4, #8
	strb	r2, [r0, r1, lsr #9]
	pop	{r4, r5, r11, pc}
.LBB31_3:
	movw	r0, #953
	bl	mono_aot_System_init_method
	cmp	r4, #0
	bne	.LBB31_2
.Ltmp398:
.LBB31_4:
	ldr	r0, .LCPI31_0
.LPC31_0:
	add	r1, pc, r0
	mov	r0, #225
	bl	p_8_plt__jit_icall_llvm_throw_corlib_exception_abs_trampoline_llvm
	.p2align	2
.LCPI31_0:
	.long	.Ltmp398-(.LPC31_0+8)
.LCPI31_1:
	.long	mono_inited-(.LPC31_1+8)
.LCPI31_2:
	.long	mono_aot_System_llvm_got-(.LPC31_2+8)
.Lfunc_end31:
	.size	System_UriParser__ctor_System_UriSyntaxFlags, .Lfunc_end31-System_UriParser__ctor_System_UriSyntaxFlags
.Lexception25:
	.fnend

	.hidden	System_UriParser_BuiltInUriParser__ctor_string_int_System_UriSyntaxFlags
	.globl	System_UriParser_BuiltInUriParser__ctor_string_int_System_UriSyntaxFlags
	.p2align	2
	.type	System_UriParser_BuiltInUriParser__ctor_string_int_System_UriSyntaxFlags,%function
	.code	32
System_UriParser_BuiltInUriParser__ctor_string_int_System_UriSyntaxFlags:
.Lfunc_begin32:
	.fnstart
	.save	{r4, r5, r6, r7, r9, lr}
	push	{r4, r5, r6, r7, r9, lr}
.Ltmp399:
.Ltmp400:
.Ltmp401:
.Ltmp402:
.Ltmp403:
.Ltmp404:
.Ltmp405:
	ldr	r9, .LCPI32_1
	mov	r5, r0
	mov	r4, r2
	mov	r6, r1
.LPC32_1:
	add	r9, pc, r9
	orr	r7, r3, #393216
	ldr	r0, [r9, #28]
	ldr	r0, [r0]
	cmp	r0, #0
	blne	mono_aot_System_icall_cold_wrapper_265
	mov	r0, r5
	mov	r1, r7
	bl	System_UriParser__ctor_System_UriSyntaxFlags
	cmp	r5, #0
	beq	.LBB32_2
	ldr	r0, [r9, #8]
	dmb	ish
	str	r6, [r5, #8]!
	mov	r1, #1
	strb	r1, [r0, r5, lsr #9]
	str	r4, [r5, #16]
	pop	{r4, r5, r6, r7, r9, pc}
.Ltmp406:
.LBB32_2:
	ldr	r0, .LCPI32_0
.LPC32_0:
	add	r1, pc, r0
	mov	r0, #225
	bl	p_8_plt__jit_icall_llvm_throw_corlib_exception_abs_trampoline_llvm
	.p2align	2
.LCPI32_0:
	.long	.Ltmp406-(.LPC32_0+8)
.LCPI32_1:
	.long	mono_aot_System_llvm_got-(.LPC32_1+8)
.Lfunc_end32:
	.size	System_UriParser_BuiltInUriParser__ctor_string_int_System_UriSyntaxFlags, .Lfunc_end32-System_UriParser_BuiltInUriParser__ctor_string_int_System_UriSyntaxFlags
.Lexception26:
	.fnend

	.hidden	System_Text_RegularExpressions_Capture__ctor_string_int_int
	.globl	System_Text_RegularExpressions_Capture__ctor_string_int_int
	.p2align	2
	.type	System_Text_RegularExpressions_Capture__ctor_string_int_int,%function
	.code	32
System_Text_RegularExpressions_Capture__ctor_string_int_int:
.Lfunc_begin33:
	.fnstart
	cmp	r0, #0
	beq	.LBB33_2
	ldr	r12, .LCPI33_1
	dmb	ish
	str	r1, [r0, #8]!
	mov	r1, #1
.LPC33_1:
	add	r12, pc, r12
	ldr	r12, [r12, #8]
	strb	r1, [r12, r0, lsr #9]
	stmib	r0, {r2, r3}
	bx	lr
.Ltmp407:
.LBB33_2:
	.save	{r11, lr}
	push	{r11, lr}
.Ltmp408:
.Ltmp409:
.Ltmp410:
	ldr	r0, .LCPI33_0
.LPC33_0:
	add	r1, pc, r0
	mov	r0, #225
	bl	p_8_plt__jit_icall_llvm_throw_corlib_exception_abs_trampoline_llvm
	.p2align	2
.LCPI33_0:
	.long	.Ltmp407-(.LPC33_0+8)
.LCPI33_1:
	.long	mono_aot_System_llvm_got-(.LPC33_1+8)
.Lfunc_end33:
	.size	System_Text_RegularExpressions_Capture__ctor_string_int_int, .Lfunc_end33-System_Text_RegularExpressions_Capture__ctor_string_int_int
.Lexception27:
	.fnend

	.hidden	System_Text_RegularExpressions_Group__ctor_string_int___int_string
	.globl	System_Text_RegularExpressions_Group__ctor_string_int___int_string
	.p2align	2
	.type	System_Text_RegularExpressions_Group__ctor_string_int___int_string,%function
	.code	32
System_Text_RegularExpressions_Group__ctor_string_int___int_string:
.Lfunc_begin34:
	.fnstart
	.save	{r4, r5, r6, r7, r9, r10, r11, lr}
	push	{r4, r5, r6, r7, r9, r10, r11, lr}
.Ltmp411:
.Ltmp412:
.Ltmp413:
.Ltmp414:
.Ltmp415:
.Ltmp416:
.Ltmp417:
.Ltmp418:
.Ltmp419:
	ldr	r9, .LCPI34_4
	mov	r4, r0
	ldr	r0, .LCPI34_5
	mov	r10, r1
.LPC34_4:
	add	r9, pc, r9
	mov	r5, r3
.LPC34_5:
	add	r0, pc, r0
	mov	r6, r2
	ldr	r1, [r9, #28]
	ldrb	r7, [r0, #1053]
	ldr	r0, [r1]
	cmp	r0, #0
	blne	mono_aot_System_icall_cold_wrapper_265
	cmp	r7, #0
	beq	.LBB34_6
	cmp	r5, #0
	beq	.LBB34_7
.LBB34_2:
	cmp	r6, #0
	beq	.LBB34_11
	mvn	r0, #1
	ldr	r1, [r6, #12]
	add	r0, r0, r5, lsl #1
	cmp	r1, r0
	bls	.LBB34_12
	lsl	r2, r5, #1
	sub	r2, r2, #1
	cmp	r1, r2
	bls	.LBB34_13
	add	r1, r6, #16
	ldr	r3, [r1, r2, lsl #2]
	ldr	r2, [r1, r0, lsl #2]
	b	.LBB34_8
.LBB34_6:
	movw	r0, #1053
	bl	mono_aot_System_init_method
	cmp	r5, #0
	bne	.LBB34_2
.LBB34_7:
	mov	r2, #0
	mov	r3, #0
.LBB34_8:
	mov	r0, r4
	mov	r1, r10
	bl	System_Text_RegularExpressions_Capture__ctor_string_int_int
	cmp	r4, #0
	beq	.LBB34_10
	ldr	r1, [r9, #8]
	mov	r2, r4
	dmb	ish
	str	r6, [r2, #20]!
	mov	r3, #1
	ldr	r0, [sp, #32]
	strb	r3, [r1, r2, lsr #9]
	str	r5, [r4, #28]
	dmb	ish
	str	r0, [r4, #24]!
	strb	r3, [r1, r4, lsr #9]
	pop	{r4, r5, r6, r7, r9, r10, r11, pc}
.Ltmp420:
.LBB34_10:
	ldr	r0, .LCPI34_3
.LPC34_3:
	add	r1, pc, r0
	mov	r0, #225
	bl	p_8_plt__jit_icall_llvm_throw_corlib_exception_abs_trampoline_llvm
.Ltmp421:
.LBB34_11:
	ldr	r0, .LCPI34_2
.LPC34_2:
	add	r1, pc, r0
	mov	r0, #225
	bl	p_8_plt__jit_icall_llvm_throw_corlib_exception_abs_trampoline_llvm
.Ltmp422:
.LBB34_12:
	ldr	r0, .LCPI34_0
.LPC34_0:
	add	r1, pc, r0
	mov	r0, #198
	bl	p_8_plt__jit_icall_llvm_throw_corlib_exception_abs_trampoline_llvm
.Ltmp423:
.LBB34_13:
	ldr	r0, .LCPI34_1
.LPC34_1:
	add	r1, pc, r0
	mov	r0, #198
	bl	p_8_plt__jit_icall_llvm_throw_corlib_exception_abs_trampoline_llvm
	.p2align	2
.LCPI34_0:
	.long	.Ltmp422-(.LPC34_0+8)
.LCPI34_1:
	.long	.Ltmp423-(.LPC34_1+8)
.LCPI34_2:
	.long	.Ltmp421-(.LPC34_2+8)
.LCPI34_3:
	.long	.Ltmp420-(.LPC34_3+8)
.LCPI34_4:
	.long	mono_aot_System_llvm_got-(.LPC34_4+8)
.LCPI34_5:
	.long	mono_inited-(.LPC34_5+8)
.Lfunc_end34:
	.size	System_Text_RegularExpressions_Group__ctor_string_int___int_string, .Lfunc_end34-System_Text_RegularExpressions_Group__ctor_string_int___int_string
.Lexception28:
	.fnend

	.hidden	System_Text_RegularExpressions_Group__cctor
	.globl	System_Text_RegularExpressions_Group__cctor
	.p2align	2
	.type	System_Text_RegularExpressions_Group__cctor,%function
	.code	32
System_Text_RegularExpressions_Group__cctor:
.Lfunc_begin35:
	.fnstart
	.save	{r4, r5, r6, r7, r9, lr}
	push	{r4, r5, r6, r7, r9, lr}
.Ltmp424:
.Ltmp425:
.Ltmp426:
.Ltmp427:
.Ltmp428:
.Ltmp429:
.Ltmp430:
	.pad	#8
	sub	sp, sp, #8
.Ltmp431:
	ldr	r9, .LCPI35_0
	ldr	r0, .LCPI35_1
.LPC35_0:
	add	r9, pc, r9
.LPC35_1:
	add	r0, pc, r0
	ldr	r1, [r9, #28]
	ldrb	r4, [r0, #1055]
	ldr	r0, [r1]
	cmp	r0, #0
	blne	mono_aot_System_icall_cold_wrapper_265
	cmp	r4, #0
	beq	.LBB35_3
.LBB35_1:
	ldr	r5, [r9, #140]
	ldr	r0, [r9, #456]
	ldr	r4, [r5]
	ldrb	r1, [r0, #25]
	cmp	r1, #0
	mov	r7, r4
	beq	.LBB35_4
.LBB35_2:
	ldr	r1, [r9, #460]
	ldr	r0, [r9, #464]
	ldr	r5, [r1]
	mov	r1, #32
	bl	p_1_plt_wrapper_alloc_object_AllocSmall_intptr_intptr_llvm
	mov	r1, r4
	mov	r2, r5
	mov	r3, #0
	mov	r6, r0
	str	r7, [sp]
	bl	System_Text_RegularExpressions_Group__ctor_string_int___int_string
	ldr	r0, [r9, #468]
	dmb	ish
	str	r6, [r0]
	add	sp, sp, #8
	pop	{r4, r5, r6, r7, r9, pc}
.LBB35_3:
	movw	r0, #1055
	bl	mono_aot_System_init_method
	b	.LBB35_1
.LBB35_4:
	bl	p_17_plt__jit_icall_mono_generic_class_init_llvm
	ldr	r7, [r5]
	b	.LBB35_2
	.p2align	2
.LCPI35_0:
	.long	mono_aot_System_llvm_got-(.LPC35_0+8)
.LCPI35_1:
	.long	mono_inited-(.LPC35_1+8)
.Lfunc_end35:
	.size	System_Text_RegularExpressions_Group__cctor, .Lfunc_end35-System_Text_RegularExpressions_Group__cctor
.Lexception29:
	.fnend

	.hidden	System_Text_RegularExpressions_Match__ctor_System_Text_RegularExpressions_Regex_int_string_int_int_int
	.globl	System_Text_RegularExpressions_Match__ctor_System_Text_RegularExpressions_Regex_int_string_int_int_int
	.p2align	2
	.type	System_Text_RegularExpressions_Match__ctor_System_Text_RegularExpressions_Regex_int_string_int_int_int,%function
	.code	32
System_Text_RegularExpressions_Match__ctor_System_Text_RegularExpressions_Regex_int_string_int_int_int:
.Lfunc_begin36:
	.fnstart
	.save	{r4, r5, r6, r7, r9, r10, r11, lr}
	push	{r4, r5, r6, r7, r9, r10, r11, lr}
.Ltmp432:
.Ltmp433:
.Ltmp434:
.Ltmp435:
.Ltmp436:
.Ltmp437:
.Ltmp438:
.Ltmp439:
.Ltmp440:
	.pad	#8
	sub	sp, sp, #8
.Ltmp441:
	ldr	r10, .LCPI36_2
	mov	r9, r0
	ldr	r0, .LCPI36_3
	mov	r7, r1
.LPC36_2:
	add	r10, pc, r10
	mov	r4, r3
.LPC36_3:
	add	r0, pc, r0
	mov	r11, r2
	ldr	r1, [r10, #28]
	ldrb	r6, [r0, #1056]
	ldr	r0, [r1]
	cmp	r0, #0
	blne	mono_aot_System_icall_cold_wrapper_265
	cmp	r6, #0
	beq	.LBB36_4
.LBB36_1:
	ldr	r6, [r10, #472]
	mov	r1, #2
	mov	r0, r6
	bl	p_24_plt_wrapper_alloc_object_AllocVector_intptr_intptr_llvm
	mov	r2, r0
	ldr	r0, [r10, #476]
	str	r0, [sp]
	mov	r0, r9
	mov	r1, r4
	mov	r3, #0
	bl	System_Text_RegularExpressions_Group__ctor_string_int___int_string
	cmp	r9, #0
	beq	.LBB36_5
	ldr	r5, [r10, #8]
	mov	r4, r9
	dmb	ish
	str	r7, [r4, #32]!
	mov	r7, #1
	mov	r0, r6
	mov	r1, r11
	strb	r7, [r5, r4, lsr #9]
	bl	p_24_plt_wrapper_alloc_object_AllocVector_intptr_intptr_llvm
	dmb	ish
	str	r0, [r4, #8]
	add	r1, r4, #8
	ldr	r0, [r10, #480]
	strb	r7, [r5, r1, lsr #9]
	mov	r1, r11
	bl	p_24_plt_wrapper_alloc_object_AllocVector_intptr_intptr_llvm
	dmb	ish
	str	r0, [r4, #4]
	add	r0, r4, #4
	strb	r7, [r5, r0, lsr #9]
	ldr	r0, [r4, #4]
	cmp	r0, #0
	beq	.LBB36_6
	ldr	r1, [r0]
	mov	r7, #0
	ldr	r2, [r9, #20]
	ldr	r4, [sp, #48]
	ldr	r3, [r1, #136]
	mov	r1, #0
	ldr	r5, [sp, #44]
	ldr	r6, [sp, #40]
	blx	r3
	add	r0, r5, r6
	str	r6, [r9, #44]
	str	r0, [r9, #52]
	str	r4, [r9, #56]
	strb	r7, [r9, #60]
	add	sp, sp, #8
	pop	{r4, r5, r6, r7, r9, r10, r11, pc}
.LBB36_4:
	mov	r0, #1056
	bl	mono_aot_System_init_method
	b	.LBB36_1
.Ltmp442:
.LBB36_5:
	ldr	r0, .LCPI36_1
.LPC36_1:
	add	r1, pc, r0
	mov	r0, #225
	bl	p_8_plt__jit_icall_llvm_throw_corlib_exception_abs_trampoline_llvm
.Ltmp443:
.LBB36_6:
	ldr	r0, .LCPI36_0
.LPC36_0:
	add	r1, pc, r0
	mov	r0, #225
	bl	p_8_plt__jit_icall_llvm_throw_corlib_exception_abs_trampoline_llvm
	.p2align	2
.LCPI36_0:
	.long	.Ltmp443-(.LPC36_0+8)
.LCPI36_1:
	.long	.Ltmp442-(.LPC36_1+8)
.LCPI36_2:
	.long	mono_aot_System_llvm_got-(.LPC36_2+8)
.LCPI36_3:
	.long	mono_inited-(.LPC36_3+8)
.Lfunc_end36:
	.size	System_Text_RegularExpressions_Match__ctor_System_Text_RegularExpressions_Regex_int_string_int_int_int, .Lfunc_end36-System_Text_RegularExpressions_Match__ctor_System_Text_RegularExpressions_Regex_int_string_int_int_int
.Lexception30:
	.fnend

	.hidden	System_Text_RegularExpressions_Match_get_Empty
	.globl	System_Text_RegularExpressions_Match_get_Empty
	.p2align	2
	.type	System_Text_RegularExpressions_Match_get_Empty,%function
	.code	32
System_Text_RegularExpressions_Match_get_Empty:
.Lfunc_begin37:
	.fnstart
	ldr	r0, .LCPI37_0
.LPC37_0:
	add	r0, pc, r0
	ldrb	r0, [r0, #1057]
	cmp	r0, #0
	beq	.LBB37_2
.LBB37_1:
	ldr	r0, .LCPI37_1
.LPC37_1:
	add	r0, pc, r0
	ldr	r0, [r0, #484]
	ldr	r0, [r0]
	bx	lr
.LBB37_2:
	.save	{r11, lr}
	push	{r11, lr}
.Ltmp444:
.Ltmp445:
.Ltmp446:
	movw	r0, #1057
	bl	mono_aot_System_init_method
	pop	{r11, lr}
	b	.LBB37_1
	.p2align	2
.LCPI37_0:
	.long	mono_inited-(.LPC37_0+8)
.LCPI37_1:
	.long	mono_aot_System_llvm_got-(.LPC37_1+8)
.Lfunc_end37:
	.size	System_Text_RegularExpressions_Match_get_Empty, .Lfunc_end37-System_Text_RegularExpressions_Match_get_Empty
.Lexception31:
	.fnend

	.hidden	System_Text_RegularExpressions_Match__cctor
	.globl	System_Text_RegularExpressions_Match__cctor
	.p2align	2
	.type	System_Text_RegularExpressions_Match__cctor,%function
	.code	32
System_Text_RegularExpressions_Match__cctor:
.Lfunc_begin38:
	.fnstart
	.save	{r4, r5, r6, lr}
	push	{r4, r5, r6, lr}
.Ltmp447:
.Ltmp448:
.Ltmp449:
.Ltmp450:
.Ltmp451:
	.pad	#16
	sub	sp, sp, #16
.Ltmp452:
	ldr	r6, .LCPI38_0
	ldr	r0, .LCPI38_1
.LPC38_0:
	add	r6, pc, r6
.LPC38_1:
	add	r0, pc, r0
	ldr	r1, [r6, #28]
	ldrb	r4, [r0, #1069]
	ldr	r0, [r1]
	cmp	r0, #0
	blne	mono_aot_System_icall_cold_wrapper_265
	cmp	r4, #0
	beq	.LBB38_2
.LBB38_1:
	ldr	r1, [r6, #140]
	ldr	r0, [r6, #488]
	ldr	r4, [r1]
	mov	r1, #64
	bl	p_1_plt_wrapper_alloc_object_AllocSmall_intptr_intptr_llvm
	mov	r5, r0
	mov	r0, #0
	str	r0, [sp]
	mov	r1, #0
	str	r0, [sp, #4]
	mov	r2, #1
	str	r0, [sp, #8]
	mov	r0, r5
	mov	r3, r4
	bl	System_Text_RegularExpressions_Match__ctor_System_Text_RegularExpressions_Regex_int_string_int_int_int
	ldr	r0, [r6, #484]
	dmb	ish
	str	r5, [r0]
	add	sp, sp, #16
	pop	{r4, r5, r6, pc}
.LBB38_2:
	movw	r0, #1069
	bl	mono_aot_System_init_method
	b	.LBB38_1
	.p2align	2
.LCPI38_0:
	.long	mono_aot_System_llvm_got-(.LPC38_0+8)
.LCPI38_1:
	.long	mono_inited-(.LPC38_1+8)
.Lfunc_end38:
	.size	System_Text_RegularExpressions_Match__cctor, .Lfunc_end38-System_Text_RegularExpressions_Match__cctor
.Lexception32:
	.fnend

	.hidden	System_Text_RegularExpressions_ExclusiveReference_Get
	.globl	System_Text_RegularExpressions_ExclusiveReference_Get
	.p2align	2
	.type	System_Text_RegularExpressions_ExclusiveReference_Get,%function
	.code	32
System_Text_RegularExpressions_ExclusiveReference_Get:
.Lfunc_begin39:
	.fnstart
	cmp	r0, #0
	beq	.LBB39_8
	add	r1, r0, #16
	mov	r12, #1
	dmb	ish
.LBB39_2:
	ldrex	r2, [r1]
	strex	r3, r12, [r1]
	cmp	r3, #0
	bne	.LBB39_2
	mov	r1, #0
	cmp	r2, #0
	dmb	ish
	beq	.LBB39_5
	mov	r0, r1
	bx	lr
.LBB39_5:
	ldr	r1, [r0, #8]
	cmp	r1, #0
	beq	.LBB39_7
	ldr	r2, .LCPI39_1
	dmb	ish
	str	r1, [r0, #12]!
	mov	r3, #1
.LPC39_1:
	add	r2, pc, r2
	ldr	r2, [r2, #8]
	strb	r3, [r2, r0, lsr #9]
	mov	r0, r1
	bx	lr
.LBB39_7:
	mov	r1, #0
	dmb	ish
	str	r1, [r0, #16]
	mov	r0, r1
	bx	lr
.Ltmp453:
.LBB39_8:
	.save	{r11, lr}
	push	{r11, lr}
.Ltmp454:
.Ltmp455:
.Ltmp456:
	ldr	r0, .LCPI39_0
.LPC39_0:
	add	r1, pc, r0
	mov	r0, #225
	bl	p_8_plt__jit_icall_llvm_throw_corlib_exception_abs_trampoline_llvm
	.p2align	2
.LCPI39_0:
	.long	.Ltmp453-(.LPC39_0+8)
.LCPI39_1:
	.long	mono_aot_System_llvm_got-(.LPC39_1+8)
.Lfunc_end39:
	.size	System_Text_RegularExpressions_ExclusiveReference_Get, .Lfunc_end39-System_Text_RegularExpressions_ExclusiveReference_Get
.Lexception33:
	.fnend

	.hidden	System_Text_RegularExpressions_ExclusiveReference_Release_System_Text_RegularExpressions_RegexRunner
	.globl	System_Text_RegularExpressions_ExclusiveReference_Release_System_Text_RegularExpressions_RegexRunner
	.p2align	2
	.type	System_Text_RegularExpressions_ExclusiveReference_Release_System_Text_RegularExpressions_RegexRunner,%function
	.code	32
System_Text_RegularExpressions_ExclusiveReference_Release_System_Text_RegularExpressions_RegexRunner:
.Lfunc_begin40:
	.fnstart
	.save	{r4, r5, r6, lr}
	push	{r4, r5, r6, lr}
.Ltmp457:
.Ltmp458:
.Ltmp459:
.Ltmp460:
.Ltmp461:
	ldr	r6, .LCPI40_1
	mov	r4, r0
	mov	r5, r1
.LPC40_1:
	add	r6, pc, r6
	ldr	r0, [r6, #28]
	ldr	r0, [r0]
	cmp	r0, #0
	blne	mono_aot_System_icall_cold_wrapper_265
	cmp	r5, #0
	beq	.LBB40_11
	cmp	r4, #0
	beq	.LBB40_12
	ldr	r0, [r4, #12]
	cmp	r0, r5
	bne	.LBB40_4
	mov	r0, #0
	str	r0, [r4, #12]
	dmb	ish
	str	r0, [r4, #16]
	pop	{r4, r5, r6, pc}
.LBB40_4:
	cmp	r0, #0
	beq	.LBB40_6
	pop	{r4, r5, r6, pc}
.LBB40_6:
	add	r0, r4, #16
	mov	r2, #1
	dmb	ish
.LBB40_7:
	ldrex	r1, [r0]
	strex	r3, r2, [r0]
	cmp	r3, #0
	bne	.LBB40_7
	cmp	r1, #0
	dmb	ish
	popne	{r4, r5, r6, pc}
	ldr	r0, [r4, #8]
	cmp	r0, #0
	bne	.LBB40_10
	ldr	r0, [r6, #8]
	mov	r1, r4
	dmb	ish
	str	r5, [r1, #8]!
	mov	r2, #1
	strb	r2, [r0, r1, lsr #9]
.LBB40_10:
	mov	r0, #0
	dmb	ish
	str	r0, [r4, #16]
	pop	{r4, r5, r6, pc}
.LBB40_11:
	ldr	r0, .LCPI40_2
	movw	r1, #15988
.LPC40_2:
	ldr	r0, [pc, r0]
	bl	p_12_plt__jit_icall_mono_helper_ldstr_llvm
	mov	r1, r0
	movw	r0, #124
	movt	r0, #512
	bl	p_13_plt__jit_icall_mono_create_corlib_exception_1_llvm
	bl	p_14_plt__jit_icall_mono_arch_throw_exception_llvm
.Ltmp462:
.LBB40_12:
	ldr	r0, .LCPI40_0
.LPC40_0:
	add	r1, pc, r0
	mov	r0, #225
	bl	p_8_plt__jit_icall_llvm_throw_corlib_exception_abs_trampoline_llvm
	.p2align	2
.LCPI40_0:
	.long	.Ltmp462-(.LPC40_0+8)
.LCPI40_1:
	.long	mono_aot_System_llvm_got-(.LPC40_1+8)
.LCPI40_2:
	.long	mono_aot_System_llvm_got-(.LPC40_2+8)
.Lfunc_end40:
	.size	System_Text_RegularExpressions_ExclusiveReference_Release_System_Text_RegularExpressions_RegexRunner, .Lfunc_end40-System_Text_RegularExpressions_ExclusiveReference_Release_System_Text_RegularExpressions_RegexRunner
.Lexception34:
	.fnend

	.hidden	System_Text_RegularExpressions_Regex_GetCachedCodeEntryInternal_System_Text_RegularExpressions_Regex_CachedCodeEntryKey_bool
	.globl	System_Text_RegularExpressions_Regex_GetCachedCodeEntryInternal_System_Text_RegularExpressions_Regex_CachedCodeEntryKey_bool
	.p2align	2
	.type	System_Text_RegularExpressions_Regex_GetCachedCodeEntryInternal_System_Text_RegularExpressions_Regex_CachedCodeEntryKey_bool,%function
	.code	32
System_Text_RegularExpressions_Regex_GetCachedCodeEntryInternal_System_Text_RegularExpressions_Regex_CachedCodeEntryKey_bool:
.Lfunc_begin41:
	.fnstart
	.save	{r4, r5, r6, r7, r9, r10, r11, lr}
	push	{r4, r5, r6, r7, r9, r10, r11, lr}
.Ltmp488:
.Ltmp489:
.Ltmp490:
.Ltmp491:
.Ltmp492:
.Ltmp493:
.Ltmp494:
.Ltmp495:
	.setfp	r11, sp, #24
	add	r11, sp, #24
.Ltmp496:
	.pad	#64
	sub	sp, sp, #64
	str	r2, [r11, #-52]
	mov	r9, r0
	str	r1, [r11, #-56]
	mov	r6, r3
	ldr	r2, .LCPI41_4
	ldr	r0, .LCPI41_5
.LPC41_4:
	add	r2, pc, r2
.LPC41_5:
	add	r0, pc, r0
	ldr	r1, [r2, #28]
	ldrb	r4, [r0, #1112]
	ldr	r0, [r1]
	cmp	r0, #0
	bne	.LBB41_27
	cmp	r4, #0
	beq	.LBB41_28
.LBB41_2:
	mov	r0, sp
	sub	r5, r0, #8
	mov	sp, r5
	ldr	r2, [r2, #492]
	mov	r1, #0
	str	r1, [r0, #-8]
	str	r1, [r11, #-36]
	str	r1, [r11, #-44]
	ldr	r0, [r2]
	str	r2, [r11, #-60]
	str	r0, [r11, #-44]
	ldr	r4, [r11, #-44]
	strb	r1, [r11, #-37]
.Ltmp463:
	sub	r1, r11, #37
	mov	r0, r4
	bl	p_2_plt__jit_icall_mono_monitor_enter_v4_fast_llvm
.Ltmp464:
	cmp	r0, #0
	bne	.LBB41_5
.Ltmp465:
	sub	r1, r11, #37
	mov	r0, r4
	bl	p_5_plt__jit_icall_mono_monitor_enter_v4_internal_llvm
.Ltmp466:
.LBB41_5:
.Ltmp467:
	ldr	r0, [r11, #-56]
	mov	r2, r6
	ldr	r1, [r11, #-52]
	bl	System_Text_RegularExpressions_Regex_LookupCachedAndPromote_System_Text_RegularExpressions_Regex_CachedCodeEntryKey
	mov	r4, r0
.Ltmp468:
	ldr	r0, [r11, #8]
	cmp	r4, #0
	mov	r1, #0
	mov	r2, #0
	movweq	r1, #1
	tst	r1, r0
	beq	.LBB41_26
	ldr	r1, .LCPI41_6
.LPC41_6:
	add	r1, pc, r1
	ldr	r3, [r1, #496]
	ldr	r0, [r3]
	cmp	r0, #0
	beq	.LBB41_26
	cmp	r9, #0
	str	r3, [r11, #-84]
	beq	.LBB41_29
	ldr	r0, [r9, #16]
	str	r0, [r11, #-72]
	ldr	r0, [r9, #28]
	str	r0, [r11, #-68]
	ldr	r0, [r9, #32]
	str	r0, [r11, #-64]
	ldr	r0, [r9, #36]
	str	r0, [r11, #-80]
	ldr	r0, [r9, #52]
	str	r0, [r11, #-76]
	ldr	r10, [r9, #20]
	ldr	r7, [r9, #24]
	ldr	r0, [r1, #500]
.Ltmp469:
	mov	r1, #60
	bl	p_1_plt_wrapper_alloc_object_AllocSmall_intptr_intptr_llvm
	mov	r4, r0
.Ltmp470:
	ldr	r0, [r11, #-56]
	mov	r3, r6
	str	r0, [r4, #16]
	mov	r2, r4
	ldr	r6, .LCPI41_7
	mov	r12, r3
	ldr	r1, [r11, #-52]
.LPC41_7:
	add	r6, pc, r6
	str	r1, [r2, #20]!
	mov	r1, #1
	ldr	r0, [r6, #8]
	strb	r1, [r0, r2, lsr #9]
	mov	r2, r4
	str	r3, [r2, #24]!
	strb	r1, [r0, r2, lsr #9]
	mov	r2, r4
	dmb	ish
	str	r10, [r2, #36]!
	strb	r1, [r0, r2, lsr #9]
	mov	r2, r4
	dmb	ish
	str	r7, [r2, #40]!
	strb	r1, [r0, r2, lsr #9]
	mov	r2, r4
	dmb	ish
	ldr	r3, [r11, #-80]
	str	r3, [r2, #28]!
	strb	r1, [r0, r2, lsr #9]
	mov	r2, r4
	dmb	ish
	ldr	r3, [r11, #-72]
	str	r3, [r2, #32]!
	strb	r1, [r0, r2, lsr #9]
	ldr	r2, [r11, #-76]
	str	r2, [r4, #56]
	mov	r2, r4
	dmb	ish
	ldr	r3, [r11, #-68]
	str	r3, [r2, #48]!
	mov	r3, r4
	strb	r1, [r0, r2, lsr #9]
	dmb	ish
	ldr	r7, [r11, #-64]
	str	r7, [r3, #52]!
	ldr	r2, [r6, #504]
	strb	r1, [r0, r3, lsr #9]
	ldr	r3, [r2]
	cmp	r3, #0
	beq	.LBB41_12
	dmb	ish
	str	r4, [r3, #8]!
	lsr	r3, r3, #9
	strb	r1, [r3, r0]
	ldr	r3, [r2]
	dmb	ish
	str	r3, [r4, #12]
	add	r3, r4, #12
	strb	r1, [r0, r3, lsr #9]
.LBB41_12:
	ldr	r10, [r6, #508]
	dmb	ish
	str	r4, [r2]
	mov	r3, r12
	ldr	r0, [r10]
	add	r0, r0, #1
	str	r0, [r10]
	cmp	r0, #10
	blt	.LBB41_17
	bne	.LBB41_15
.Ltmp475:
	mov	r0, r9
	bl	p_75_plt_System_Text_RegularExpressions_Regex_FillCacheDictionary_llvm
.Ltmp476:
	b	.LBB41_17
.LBB41_15:
	ldr	r0, [r11, #-60]
	ldr	r0, [r0]
	cmp	r0, #0
	beq	.LBB41_33
.Ltmp471:
	sub	sp, sp, #8
	ldr	r1, [r11, #-56]
	ldr	r2, [r11, #-52]
	str	r4, [sp]
	bl	p_74_plt_System_Collections_Generic_Dictionary_2_System_Text_RegularExpressions_Regex_CachedCodeEntryKey_System_Text_RegularExpressions_Regex_CachedCodeEntry_Add_System_Text_RegularExpressions_Regex_CachedCodeEntryKey_System_Text_RegularExpressions_Regex_CachedCodeEntry_llvm
	add	sp, sp, #8
.Ltmp472:
.LBB41_17:
	ldr	r0, .LCPI41_8
.LPC41_8:
	add	r0, pc, r0
	ldr	r6, [r0, #512]
	ldr	r7, [r6]
	cmp	r7, #0
	beq	.LBB41_24
	ldr	r1, [r11, #-84]
	ldr	r0, [r10]
	ldr	r1, [r1]
	cmp	r0, r1
	ble	.LBB41_25
	cmp	r0, #9
	ble	.LBB41_22
	ldr	r0, [r11, #-60]
	ldr	r0, [r0]
	cmp	r0, #0
	beq	.LBB41_35
	ldr	r1, [r7, #16]
	ldr	r2, [r7, #20]
	ldr	r3, [r7, #24]
.Ltmp477:
	bl	p_73_plt_System_Collections_Generic_Dictionary_2_System_Text_RegularExpressions_Regex_CachedCodeEntryKey_System_Text_RegularExpressions_Regex_CachedCodeEntry_Remove_System_Text_RegularExpressions_Regex_CachedCodeEntryKey_llvm
.Ltmp478:
.LBB41_22:
	ldr	r0, [r7, #8]
	cmp	r0, #0
	beq	.LBB41_31
	mov	r1, #0
	mov	r2, #0
	str	r1, [r0, #12]
	ldr	r0, [r7, #8]
	dmb	ish
	str	r0, [r6]
	ldr	r0, [r10]
	sub	r0, r0, #1
	str	r0, [r10]
	b	.LBB41_26
.LBB41_24:
	dmb	ish
	str	r4, [r6]
.LBB41_25:
	mov	r2, #0
.LBB41_26:
	mov	r0, #1
	str	r2, [r11, #-32]
	str	r4, [r11, #-36]
	str	r0, [r5]
	b	.LBB41_37
.LBB41_27:
	mov	r5, r2
	bl	mono_aot_System_icall_cold_wrapper_265
	mov	r2, r5
	cmp	r4, #0
	bne	.LBB41_2
.LBB41_28:
	movw	r0, #1112
	mov	r4, r2
	bl	mono_aot_System_init_method
	mov	r2, r4
	b	.LBB41_2
.Ltmp497:
.LBB41_29:
	ldr	r0, .LCPI41_3
.Ltmp483:
.LPC41_3:
	add	r1, pc, r0
	mov	r0, #225
	bl	p_8_plt__jit_icall_llvm_throw_corlib_exception_abs_trampoline_llvm
.Ltmp484:
.Ltmp498:
.LBB41_31:
	ldr	r0, .LCPI41_2
.Ltmp481:
.LPC41_2:
	add	r1, pc, r0
	mov	r0, #225
	bl	p_8_plt__jit_icall_llvm_throw_corlib_exception_abs_trampoline_llvm
.Ltmp482:
.Ltmp499:
.LBB41_33:
	ldr	r0, .LCPI41_0
.Ltmp473:
.LPC41_0:
	add	r1, pc, r0
	mov	r0, #225
	bl	p_8_plt__jit_icall_llvm_throw_corlib_exception_abs_trampoline_llvm
.Ltmp474:
.Ltmp500:
.LBB41_35:
	ldr	r0, .LCPI41_1
.Ltmp479:
.LPC41_1:
	add	r1, pc, r0
	mov	r0, #225
	bl	p_8_plt__jit_icall_llvm_throw_corlib_exception_abs_trampoline_llvm
.Ltmp480:
.LBB41_37:
	ldrb	r0, [r11, #-37]
	cmp	r0, #0
	beq	.LBB41_39
	ldr	r0, [r11, #-44]
	bl	p_6_plt_System_Threading_Monitor_Exit_object_llvm
.LBB41_39:
	ldr	r0, [r5]
	mov	r1, #0
	str	r1, [r5]
	cmp	r0, #1
	bne	.LBB41_43
	ldr	r0, [r11, #-32]
	cmp	r0, #0
	beq	.LBB41_42
.Ltmp485:
	bl	p_4_plt__jit_icall_ves_icall_thread_finish_async_abort_llvm
.Ltmp486:
.LBB41_42:
	ldr	r0, [r11, #-36]
	str	r0, [r11, #-48]
	ldr	r0, [r11, #-48]
	sub	sp, r11, #24
	pop	{r4, r5, r6, r7, r9, r10, r11, pc}
.LBB41_43:
	bl	p_7_plt__jit_icall_llvm_resume_unwind_trampoline_llvm
.LBB41_44:
.Ltmp487:
	b	.LBB41_37
	.p2align	2
.LCPI41_0:
	.long	.Ltmp499-(.LPC41_0+8)
.LCPI41_1:
	.long	.Ltmp500-(.LPC41_1+8)
.LCPI41_2:
	.long	.Ltmp498-(.LPC41_2+8)
.LCPI41_3:
	.long	.Ltmp497-(.LPC41_3+8)
.LCPI41_4:
	.long	mono_aot_System_llvm_got-(.LPC41_4+8)
.LCPI41_5:
	.long	mono_inited-(.LPC41_5+8)
.LCPI41_6:
	.long	mono_aot_System_llvm_got-(.LPC41_6+8)
.LCPI41_7:
	.long	mono_aot_System_llvm_got-(.LPC41_7+8)
.LCPI41_8:
	.long	mono_aot_System_llvm_got-(.LPC41_8+8)
.Lfunc_end41:
	.size	System_Text_RegularExpressions_Regex_GetCachedCodeEntryInternal_System_Text_RegularExpressions_Regex_CachedCodeEntryKey_bool, .Lfunc_end41-System_Text_RegularExpressions_Regex_GetCachedCodeEntryInternal_System_Text_RegularExpressions_Regex_CachedCodeEntryKey_bool
.Lexception35:
	.fnend

	.hidden	System_Text_RegularExpressions_Regex_TryGetCacheValueSmall_System_Text_RegularExpressions_Regex_CachedCodeEntryKey_System_Text_RegularExpressions_Regex_CachedCodeEntry_
	.globl	System_Text_RegularExpressions_Regex_TryGetCacheValueSmall_System_Text_RegularExpressions_Regex_CachedCodeEntryKey_System_Text_RegularExpressions_Regex_CachedCodeEntry_
	.p2align	2
	.type	System_Text_RegularExpressions_Regex_TryGetCacheValueSmall_System_Text_RegularExpressions_Regex_CachedCodeEntryKey_System_Text_RegularExpressions_Regex_CachedCodeEntry_,%function
	.code	32
System_Text_RegularExpressions_Regex_TryGetCacheValueSmall_System_Text_RegularExpressions_Regex_CachedCodeEntryKey_System_Text_RegularExpressions_Regex_CachedCodeEntry_:
.Lfunc_begin42:
	.fnstart
	.save	{r4, r5, r6, r7, r9, r10, r11, lr}
	push	{r4, r5, r6, r7, r9, r10, r11, lr}
.Ltmp501:
.Ltmp502:
.Ltmp503:
.Ltmp504:
.Ltmp505:
.Ltmp506:
.Ltmp507:
.Ltmp508:
.Ltmp509:
	.pad	#8
	sub	sp, sp, #8
.Ltmp510:
	mov	r11, r2
	ldr	r2, .LCPI42_1
	mov	r7, r0
	ldr	r0, .LCPI42_2
.LPC42_1:
	add	r2, pc, r2
	mov	r6, r1
.LPC42_2:
	add	r0, pc, r0
	mov	r4, r3
	ldr	r1, [r2, #28]
	ldrb	r5, [r0, #1115]
	ldr	r0, [r1]
	cmp	r0, #0
	bne	.LBB42_11
	cmp	r5, #0
	beq	.LBB42_12
.LBB42_2:
	ldr	r0, [r2, #516]
	ldrb	r1, [r0, #25]
	cmp	r1, #0
	beq	.LBB42_13
.LBB42_3:
	ldr	r0, [r2, #504]
	mov	r3, #0
	ldr	r5, [r2, #8]
	ldr	r1, [r0]
	mov	r0, #0
	cmp	r1, #0
	ldrne	r3, [r1, #12]
	mov	r1, #1
	dmb	ish
	str	r3, [r4]
	strb	r1, [r5, r4, lsr #9]
	ldr	r9, [r4]
	cmp	r9, #0
	beq	.LBB42_9
	lsr	r10, r4, #9
.LBB42_5:
	ldr	r0, [r9, #16]
	mov	r3, r7
	ldr	r1, [r9, #20]
	ldr	r2, [r9, #24]
	stm	sp, {r6, r11}
	bl	p_76_plt_System_Text_RegularExpressions_Regex_CachedCodeEntryKey_op_Equality_System_Text_RegularExpressions_Regex_CachedCodeEntryKey_System_Text_RegularExpressions_Regex_CachedCodeEntryKey_llvm
	tst	r0, #255
	bne	.LBB42_10
	ldr	r0, [r4]
	cmp	r0, #0
	beq	.LBB42_14
	ldr	r0, [r0, #12]
	dmb	ish
	str	r0, [r4]
	mov	r0, #1
	strb	r0, [r10, r5]
	ldr	r0, .LCPI42_5
	ldr	r9, [r4]
.LPC42_5:
	add	r0, pc, r0
	ldr	r0, [r0, #28]
	ldr	r0, [r0]
	cmp	r0, #0
	blne	mono_aot_System_icall_cold_wrapper_265
	cmp	r9, #0
	bne	.LBB42_5
	mov	r0, #0
.LBB42_9:
	add	sp, sp, #8
	pop	{r4, r5, r6, r7, r9, r10, r11, pc}
.LBB42_10:
	mov	r0, #1
	add	sp, sp, #8
	pop	{r4, r5, r6, r7, r9, r10, r11, pc}
.LBB42_11:
	bl	mono_aot_System_icall_cold_wrapper_265
	ldr	r2, .LCPI42_3
.LPC42_3:
	add	r2, pc, r2
	cmp	r5, #0
	bne	.LBB42_2
.LBB42_12:
	movw	r0, #1115
	bl	mono_aot_System_init_method
	ldr	r2, .LCPI42_6
.LPC42_6:
	add	r2, pc, r2
	b	.LBB42_2
.LBB42_13:
	bl	p_17_plt__jit_icall_mono_generic_class_init_llvm
	ldr	r2, .LCPI42_4
.LPC42_4:
	add	r2, pc, r2
	b	.LBB42_3
.Ltmp511:
.LBB42_14:
	ldr	r0, .LCPI42_0
.LPC42_0:
	add	r1, pc, r0
	mov	r0, #225
	bl	p_8_plt__jit_icall_llvm_throw_corlib_exception_abs_trampoline_llvm
	.p2align	2
.LCPI42_0:
	.long	.Ltmp511-(.LPC42_0+8)
.LCPI42_1:
	.long	mono_aot_System_llvm_got-(.LPC42_1+8)
.LCPI42_2:
	.long	mono_inited-(.LPC42_2+8)
.LCPI42_3:
	.long	mono_aot_System_llvm_got-(.LPC42_3+8)
.LCPI42_4:
	.long	mono_aot_System_llvm_got-(.LPC42_4+8)
.LCPI42_5:
	.long	mono_aot_System_llvm_got-(.LPC42_5+8)
.LCPI42_6:
	.long	mono_aot_System_llvm_got-(.LPC42_6+8)
.Lfunc_end42:
	.size	System_Text_RegularExpressions_Regex_TryGetCacheValueSmall_System_Text_RegularExpressions_Regex_CachedCodeEntryKey_System_Text_RegularExpressions_Regex_CachedCodeEntry_, .Lfunc_end42-System_Text_RegularExpressions_Regex_TryGetCacheValueSmall_System_Text_RegularExpressions_Regex_CachedCodeEntryKey_System_Text_RegularExpressions_Regex_CachedCodeEntry_
.Lexception36:
	.fnend

	.hidden	System_Text_RegularExpressions_Regex_LookupCachedAndPromote_System_Text_RegularExpressions_Regex_CachedCodeEntryKey
	.globl	System_Text_RegularExpressions_Regex_LookupCachedAndPromote_System_Text_RegularExpressions_Regex_CachedCodeEntryKey
	.p2align	2
	.type	System_Text_RegularExpressions_Regex_LookupCachedAndPromote_System_Text_RegularExpressions_Regex_CachedCodeEntryKey,%function
	.code	32
System_Text_RegularExpressions_Regex_LookupCachedAndPromote_System_Text_RegularExpressions_Regex_CachedCodeEntryKey:
.Lfunc_begin43:
	.fnstart
	.save	{r4, r5, r6, r7, r9, r10, r11, lr}
	push	{r4, r5, r6, r7, r9, r10, r11, lr}
.Ltmp512:
.Ltmp513:
.Ltmp514:
.Ltmp515:
.Ltmp516:
.Ltmp517:
.Ltmp518:
.Ltmp519:
.Ltmp520:
	.pad	#16
	sub	sp, sp, #16
.Ltmp521:
	ldr	r10, .LCPI43_11
	mov	r7, r0
	ldr	r0, .LCPI43_12
	mov	r6, r1
.LPC43_11:
	add	r10, pc, r10
	mov	r5, r2
.LPC43_12:
	add	r0, pc, r0
	ldr	r1, [r10, #28]
	ldrb	r4, [r0, #1116]
	ldr	r0, [r1]
	cmp	r0, #0
	blne	mono_aot_System_icall_cold_wrapper_265
	cmp	r4, #0
	beq	.LBB43_32
.LBB43_1:
	ldr	r4, [r10, #516]
	mov	r0, #0
	str	r0, [sp, #12]
	ldrb	r0, [r4, #25]
	cmp	r0, #0
	beq	.LBB43_33
.LBB43_2:
	ldr	r9, [r10, #504]
	ldr	r2, [r9]
	cmp	r2, #0
	beq	.LBB43_6
	ldr	r0, [r2, #16]
	mov	r3, r7
	ldr	r1, [r2, #20]
	ldr	r2, [r2, #24]
	str	r6, [sp]
	str	r5, [sp, #4]
	bl	p_76_plt_System_Text_RegularExpressions_Regex_CachedCodeEntryKey_op_Equality_System_Text_RegularExpressions_Regex_CachedCodeEntryKey_System_Text_RegularExpressions_Regex_CachedCodeEntryKey_llvm
	ldrb	r1, [r4, #25]
	tst	r0, #255
	beq	.LBB43_17
	cmp	r1, #0
	beq	.LBB43_34
.LBB43_5:
	ldr	r0, [r9]
	add	sp, sp, #16
	pop	{r4, r5, r6, r7, r9, r10, r11, pc}
.LBB43_6:
	ldrb	r0, [r4, #25]
	cmp	r0, #0
	beq	.LBB43_18
.LBB43_7:
	ldr	r0, [r10, #508]
	ldr	r0, [r0]
	cmp	r0, #10
	bge	.LBB43_9
	add	r3, sp, #12
	mov	r0, r7
	mov	r1, r6
	mov	r2, r5
	bl	System_Text_RegularExpressions_Regex_TryGetCacheValueSmall_System_Text_RegularExpressions_Regex_CachedCodeEntryKey_System_Text_RegularExpressions_Regex_CachedCodeEntry_
	tst	r0, #255
	bne	.LBB43_12
	b	.LBB43_31
.LBB43_9:
	ldrb	r0, [r4, #25]
	cmp	r0, #0
	beq	.LBB43_37
.LBB43_10:
	ldr	r0, [r10, #492]
	ldr	r0, [r0]
	cmp	r0, #0
	beq	.LBB43_45
	add	r1, sp, #12
	str	r1, [sp]
	mov	r1, r7
	mov	r2, r6
	mov	r3, r5
	bl	p_78_plt_System_Collections_Generic_Dictionary_2_System_Text_RegularExpressions_Regex_CachedCodeEntryKey_System_Text_RegularExpressions_Regex_CachedCodeEntry_TryGetValue_System_Text_RegularExpressions_Regex_CachedCodeEntryKey_System_Text_RegularExpressions_Regex_CachedCodeEntry__llvm
	tst	r0, #255
	beq	.LBB43_31
.LBB43_12:
	ldrb	r0, [r4, #25]
	cmp	r0, #0
	beq	.LBB43_35
.LBB43_13:
	ldr	r5, [r10, #512]
	ldr	r1, [r5]
	ldr	r2, [sp, #12]
	ldr	r0, [sp, #12]
	cmp	r1, r2
	bne	.LBB43_19
	cmp	r0, #0
	beq	.LBB43_46
	ldr	r6, [r0, #8]
	ldrb	r0, [r4, #25]
	cmp	r0, #0
	beq	.LBB43_38
.LBB43_16:
	dmb	ish
	str	r6, [r5]
	b	.LBB43_23
.LBB43_17:
	cmp	r1, #0
	bne	.LBB43_7
.LBB43_18:
	mov	r0, r4
	bl	p_17_plt__jit_icall_mono_generic_class_init_llvm
	b	.LBB43_7
.LBB43_19:
	cmp	r0, #0
	beq	.LBB43_47
	ldr	r0, [r0, #12]
	ldr	r1, [sp, #12]
	cmp	r1, #0
	beq	.LBB43_48
	cmp	r0, #0
	beq	.LBB43_49
	ldr	r1, [r1, #8]
	dmb	ish
	ldr	r2, [r10, #8]
	str	r1, [r0, #8]!
	mov	r1, #1
	strb	r1, [r2, r0, lsr #9]
.LBB43_23:
	ldr	r0, [sp, #12]
	cmp	r0, #0
	beq	.LBB43_39
	ldr	r0, [r0, #8]
	ldr	r1, [sp, #12]
	cmp	r1, #0
	beq	.LBB43_40
	cmp	r0, #0
	beq	.LBB43_41
	ldr	r1, [r1, #12]
	dmb	ish
	ldr	r5, [r10, #8]
	str	r1, [r0, #12]!
	mov	r1, #1
	strb	r1, [r5, r0, lsr #9]
	ldrb	r0, [r4, #25]
	cmp	r0, #0
	beq	.LBB43_36
.LBB43_27:
	ldr	r0, [r9]
	ldr	r1, [sp, #12]
	cmp	r0, #0
	beq	.LBB43_42
	dmb	ish
	str	r1, [r0, #8]!
	lsr	r1, r0, #9
	mov	r0, #1
	strb	r0, [r1, r5]
	ldr	r1, [sp, #12]
	cmp	r1, #0
	beq	.LBB43_43
	ldr	r2, [r9]
	dmb	ish
	str	r2, [r1, #12]!
	lsr	r1, r1, #9
	strb	r0, [r1, r5]
	ldr	r0, [sp, #12]
	cmp	r0, #0
	beq	.LBB43_44
	mov	r1, #0
	str	r1, [r0, #8]
	ldr	r0, [sp, #12]
	dmb	ish
	str	r0, [r9]
.LBB43_31:
	ldr	r0, [sp, #12]
	add	sp, sp, #16
	pop	{r4, r5, r6, r7, r9, r10, r11, pc}
.LBB43_32:
	movw	r0, #1116
	bl	mono_aot_System_init_method
	b	.LBB43_1
.LBB43_33:
	mov	r0, r4
	bl	p_17_plt__jit_icall_mono_generic_class_init_llvm
	b	.LBB43_2
.LBB43_34:
	mov	r0, r4
	bl	p_17_plt__jit_icall_mono_generic_class_init_llvm
	b	.LBB43_5
.LBB43_35:
	mov	r0, r4
	bl	p_17_plt__jit_icall_mono_generic_class_init_llvm
	b	.LBB43_13
.LBB43_36:
	mov	r0, r4
	bl	p_17_plt__jit_icall_mono_generic_class_init_llvm
	b	.LBB43_27
.LBB43_37:
	mov	r0, r4
	bl	p_17_plt__jit_icall_mono_generic_class_init_llvm
	b	.LBB43_10
.LBB43_38:
	mov	r0, r4
	bl	p_17_plt__jit_icall_mono_generic_class_init_llvm
	b	.LBB43_16
.Ltmp522:
.LBB43_39:
	ldr	r0, .LCPI43_9
.LPC43_9:
	add	r1, pc, r0
	mov	r0, #225
	bl	p_8_plt__jit_icall_llvm_throw_corlib_exception_abs_trampoline_llvm
.Ltmp523:
.LBB43_40:
	ldr	r0, .LCPI43_8
.LPC43_8:
	add	r1, pc, r0
	mov	r0, #225
	bl	p_8_plt__jit_icall_llvm_throw_corlib_exception_abs_trampoline_llvm
.Ltmp524:
.LBB43_41:
	ldr	r0, .LCPI43_7
.LPC43_7:
	add	r1, pc, r0
	mov	r0, #225
	bl	p_8_plt__jit_icall_llvm_throw_corlib_exception_abs_trampoline_llvm
.Ltmp525:
.LBB43_42:
	ldr	r0, .LCPI43_6
.LPC43_6:
	add	r1, pc, r0
	mov	r0, #225
	bl	p_8_plt__jit_icall_llvm_throw_corlib_exception_abs_trampoline_llvm
.Ltmp526:
.LBB43_43:
	ldr	r0, .LCPI43_5
.LPC43_5:
	add	r1, pc, r0
	mov	r0, #225
	bl	p_8_plt__jit_icall_llvm_throw_corlib_exception_abs_trampoline_llvm
.Ltmp527:
.LBB43_44:
	ldr	r0, .LCPI43_4
.LPC43_4:
	add	r1, pc, r0
	mov	r0, #225
	bl	p_8_plt__jit_icall_llvm_throw_corlib_exception_abs_trampoline_llvm
.Ltmp528:
.LBB43_45:
	ldr	r0, .LCPI43_0
.LPC43_0:
	add	r1, pc, r0
	mov	r0, #225
	bl	p_8_plt__jit_icall_llvm_throw_corlib_exception_abs_trampoline_llvm
.Ltmp529:
.LBB43_46:
	ldr	r0, .LCPI43_10
.LPC43_10:
	add	r1, pc, r0
	mov	r0, #225
	bl	p_8_plt__jit_icall_llvm_throw_corlib_exception_abs_trampoline_llvm
.Ltmp530:
.LBB43_47:
	ldr	r0, .LCPI43_3
.LPC43_3:
	add	r1, pc, r0
	mov	r0, #225
	bl	p_8_plt__jit_icall_llvm_throw_corlib_exception_abs_trampoline_llvm
.Ltmp531:
.LBB43_48:
	ldr	r0, .LCPI43_2
.LPC43_2:
	add	r1, pc, r0
	mov	r0, #225
	bl	p_8_plt__jit_icall_llvm_throw_corlib_exception_abs_trampoline_llvm
.Ltmp532:
.LBB43_49:
	ldr	r0, .LCPI43_1
.LPC43_1:
	add	r1, pc, r0
	mov	r0, #225
	bl	p_8_plt__jit_icall_llvm_throw_corlib_exception_abs_trampoline_llvm
	.p2align	2
.LCPI43_0:
	.long	.Ltmp528-(.LPC43_0+8)
.LCPI43_1:
	.long	.Ltmp532-(.LPC43_1+8)
.LCPI43_2:
	.long	.Ltmp531-(.LPC43_2+8)
.LCPI43_3:
	.long	.Ltmp530-(.LPC43_3+8)
.LCPI43_4:
	.long	.Ltmp527-(.LPC43_4+8)
.LCPI43_5:
	.long	.Ltmp526-(.LPC43_5+8)
.LCPI43_6:
	.long	.Ltmp525-(.LPC43_6+8)
.LCPI43_7:
	.long	.Ltmp524-(.LPC43_7+8)
.LCPI43_8:
	.long	.Ltmp523-(.LPC43_8+8)
.LCPI43_9:
	.long	.Ltmp522-(.LPC43_9+8)
.LCPI43_10:
	.long	.Ltmp529-(.LPC43_10+8)
.LCPI43_11:
	.long	mono_aot_System_llvm_got-(.LPC43_11+8)
.LCPI43_12:
	.long	mono_inited-(.LPC43_12+8)
.Lfunc_end43:
	.size	System_Text_RegularExpressions_Regex_LookupCachedAndPromote_System_Text_RegularExpressions_Regex_CachedCodeEntryKey, .Lfunc_end43-System_Text_RegularExpressions_Regex_LookupCachedAndPromote_System_Text_RegularExpressions_Regex_CachedCodeEntryKey
.Lexception37:
	.fnend

	.hidden	System_Text_RegularExpressions_Regex_IsMatch_string_string
	.globl	System_Text_RegularExpressions_Regex_IsMatch_string_string
	.p2align	2
	.type	System_Text_RegularExpressions_Regex_IsMatch_string_string,%function
	.code	32
System_Text_RegularExpressions_Regex_IsMatch_string_string:
.Lfunc_begin44:
	.fnstart
	.save	{r4, r5, r6, r7, r11, lr}
	push	{r4, r5, r6, r7, r11, lr}
.Ltmp533:
.Ltmp534:
.Ltmp535:
.Ltmp536:
.Ltmp537:
.Ltmp538:
.Ltmp539:
	.pad	#8
	sub	sp, sp, #8
.Ltmp540:
	ldr	r6, .LCPI44_0
	mov	r5, r0
	ldr	r0, .LCPI44_1
	mov	r4, r1
.LPC44_0:
	add	r6, pc, r6
.LPC44_1:
	add	r0, pc, r0
	ldr	r1, [r6, #28]
	ldrb	r7, [r0, #1117]
	ldr	r0, [r1]
	cmp	r0, #0
	blne	mono_aot_System_icall_cold_wrapper_265
	cmp	r7, #0
	beq	.LBB44_3
.LBB44_1:
	ldr	r0, [r6, #516]
	ldrb	r1, [r0, #25]
	cmp	r1, #0
	beq	.LBB44_4
.LBB44_2:
	ldr	r0, [r6, #520]
	mov	r2, #0
	ldr	r1, [r0]
	ldr	r0, [r0, #4]
	str	r1, [sp]
	mov	r1, r4
	str	r0, [sp, #4]
	mov	r0, r5
	bl	System_Text_RegularExpressions_Regex_IsMatch_string_string_System_Text_RegularExpressions_RegexOptions_System_TimeSpan
	add	sp, sp, #8
	pop	{r4, r5, r6, r7, r11, pc}
.LBB44_3:
	movw	r0, #1117
	bl	mono_aot_System_init_method
	b	.LBB44_1
.LBB44_4:
	bl	p_17_plt__jit_icall_mono_generic_class_init_llvm
	b	.LBB44_2
	.p2align	2
.LCPI44_0:
	.long	mono_aot_System_llvm_got-(.LPC44_0+8)
.LCPI44_1:
	.long	mono_inited-(.LPC44_1+8)
.Lfunc_end44:
	.size	System_Text_RegularExpressions_Regex_IsMatch_string_string, .Lfunc_end44-System_Text_RegularExpressions_Regex_IsMatch_string_string
.Lexception38:
	.fnend

	.hidden	System_Text_RegularExpressions_Regex_IsMatch_string_string_System_Text_RegularExpressions_RegexOptions_System_TimeSpan
	.globl	System_Text_RegularExpressions_Regex_IsMatch_string_string_System_Text_RegularExpressions_RegexOptions_System_TimeSpan
	.p2align	2
	.type	System_Text_RegularExpressions_Regex_IsMatch_string_string_System_Text_RegularExpressions_RegexOptions_System_TimeSpan,%function
	.code	32
System_Text_RegularExpressions_Regex_IsMatch_string_string_System_Text_RegularExpressions_RegexOptions_System_TimeSpan:
.Lfunc_begin45:
	.fnstart
	.save	{r4, r5, r6, r7, r9, r10, r11, lr}
	push	{r4, r5, r6, r7, r9, r10, r11, lr}
.Ltmp541:
.Ltmp542:
.Ltmp543:
.Ltmp544:
.Ltmp545:
.Ltmp546:
.Ltmp547:
.Ltmp548:
.Ltmp549:
	.pad	#16
	sub	sp, sp, #16
.Ltmp550:
	ldr	r7, .LCPI45_0
	mov	r4, r0
	ldr	r0, .LCPI45_1
	mov	r6, r1
.LPC45_0:
	add	r7, pc, r7
	mov	r11, r2
.LPC45_1:
	add	r0, pc, r0
	ldr	r1, [r7, #28]
	ldrb	r5, [r0, #1118]
	ldr	r0, [r1]
	cmp	r0, #0
	blne	mono_aot_System_icall_cold_wrapper_265
	cmp	r5, #0
	beq	.LBB45_4
.LBB45_1:
	ldr	r7, [r7, #516]
	ldr	r9, [sp, #52]
	ldr	r10, [sp, #48]
	ldrb	r0, [r7, #25]
	cmp	r0, #0
	beq	.LBB45_5
.LBB45_2:
	mov	r0, r7
	mov	r1, #64
	bl	p_1_plt_wrapper_alloc_object_AllocSmall_intptr_intptr_llvm
	mov	r7, r0
	mov	r0, #1
	str	r0, [sp, #8]
	mov	r0, r7
	mov	r1, r6
	mov	r2, r11
	str	r10, [sp]
	str	r9, [sp, #4]
	bl	System_Text_RegularExpressions_Regex__ctor_string_System_Text_RegularExpressions_RegexOptions_System_TimeSpan_bool
	cmp	r4, #0
	beq	.LBB45_6
	mov	r0, r7
	bl	p_82_plt_System_Text_RegularExpressions_Regex_UseOptionR_llvm
	ldr	r1, [r4, #8]
	uxtb	r0, r0
	cmp	r0, #0
	mov	r5, #0
	str	r1, [sp, #4]
	mvn	r2, #0
	movne	r0, r1
	mov	r1, #1
	str	r0, [sp, #8]
	mov	r0, r7
	mov	r3, r4
	str	r5, [sp]
	bl	System_Text_RegularExpressions_Regex_Run_bool_int_string_int_int_int
	cmp	r0, #0
	movweq	r5, #1
	mov	r0, r5
	add	sp, sp, #16
	pop	{r4, r5, r6, r7, r9, r10, r11, pc}
.LBB45_4:
	movw	r0, #1118
	bl	mono_aot_System_init_method
	b	.LBB45_1
.LBB45_5:
	mov	r0, r7
	bl	p_17_plt__jit_icall_mono_generic_class_init_llvm
	b	.LBB45_2
.LBB45_6:
	ldr	r0, .LCPI45_2
	movw	r1, #15996
.LPC45_2:
	ldr	r0, [pc, r0]
	bl	p_12_plt__jit_icall_mono_helper_ldstr_llvm
	mov	r1, r0
	movw	r0, #124
	movt	r0, #512
	bl	p_13_plt__jit_icall_mono_create_corlib_exception_1_llvm
	bl	p_14_plt__jit_icall_mono_arch_throw_exception_llvm
	.p2align	2
.LCPI45_0:
	.long	mono_aot_System_llvm_got-(.LPC45_0+8)
.LCPI45_1:
	.long	mono_inited-(.LPC45_1+8)
.LCPI45_2:
	.long	mono_aot_System_llvm_got-(.LPC45_2+8)
.Lfunc_end45:
	.size	System_Text_RegularExpressions_Regex_IsMatch_string_string_System_Text_RegularExpressions_RegexOptions_System_TimeSpan, .Lfunc_end45-System_Text_RegularExpressions_Regex_IsMatch_string_string_System_Text_RegularExpressions_RegexOptions_System_TimeSpan
.Lexception39:
	.fnend

	.hidden	System_Text_RegularExpressions_Regex_IsMatch_string
	.globl	System_Text_RegularExpressions_Regex_IsMatch_string
	.p2align	2
	.type	System_Text_RegularExpressions_Regex_IsMatch_string,%function
	.code	32
System_Text_RegularExpressions_Regex_IsMatch_string:
.Lfunc_begin46:
	.fnstart
	.save	{r4, r5, r6, lr}
	push	{r4, r5, r6, lr}
.Ltmp551:
.Ltmp552:
.Ltmp553:
.Ltmp554:
.Ltmp555:
	.pad	#16
	sub	sp, sp, #16
.Ltmp556:
	mov	r5, r0
	ldr	r0, .LCPI46_0
	mov	r4, r1
.LPC46_0:
	add	r0, pc, r0
	ldr	r0, [r0, #28]
	ldr	r0, [r0]
	cmp	r0, #0
	blne	mono_aot_System_icall_cold_wrapper_265
	cmp	r4, #0
	beq	.LBB46_2
	mov	r0, r5
	bl	p_82_plt_System_Text_RegularExpressions_Regex_UseOptionR_llvm
	ldr	r1, [r4, #8]
	uxtb	r0, r0
	cmp	r0, #0
	mov	r6, #0
	str	r1, [sp, #4]
	mvn	r2, #0
	movne	r0, r1
	mov	r1, #1
	str	r0, [sp, #8]
	mov	r0, r5
	mov	r3, r4
	str	r6, [sp]
	bl	System_Text_RegularExpressions_Regex_Run_bool_int_string_int_int_int
	cmp	r0, #0
	movweq	r6, #1
	mov	r0, r6
	add	sp, sp, #16
	pop	{r4, r5, r6, pc}
.LBB46_2:
	ldr	r0, .LCPI46_1
	movw	r1, #15996
.LPC46_1:
	ldr	r0, [pc, r0]
	bl	p_12_plt__jit_icall_mono_helper_ldstr_llvm
	mov	r1, r0
	movw	r0, #124
	movt	r0, #512
	bl	p_13_plt__jit_icall_mono_create_corlib_exception_1_llvm
	bl	p_14_plt__jit_icall_mono_arch_throw_exception_llvm
	.p2align	2
.LCPI46_0:
	.long	mono_aot_System_llvm_got-(.LPC46_0+8)
.LCPI46_1:
	.long	mono_aot_System_llvm_got-(.LPC46_1+8)
.Lfunc_end46:
	.size	System_Text_RegularExpressions_Regex_IsMatch_string, .Lfunc_end46-System_Text_RegularExpressions_Regex_IsMatch_string
.Lexception40:
	.fnend

	.hidden	System_Text_RegularExpressions_Regex_IsMatch_string_int
	.globl	System_Text_RegularExpressions_Regex_IsMatch_string_int
	.p2align	2
	.type	System_Text_RegularExpressions_Regex_IsMatch_string_int,%function
	.code	32
System_Text_RegularExpressions_Regex_IsMatch_string_int:
.Lfunc_begin47:
	.fnstart
	.save	{r4, r5, r6, r7, r11, lr}
	push	{r4, r5, r6, r7, r11, lr}
.Ltmp557:
.Ltmp558:
.Ltmp559:
.Ltmp560:
.Ltmp561:
.Ltmp562:
.Ltmp563:
	.pad	#16
	sub	sp, sp, #16
.Ltmp564:
	mov	r5, r0
	ldr	r0, .LCPI47_0
	mov	r6, r2
	mov	r4, r1
.LPC47_0:
	add	r0, pc, r0
	ldr	r0, [r0, #28]
	ldr	r0, [r0]
	cmp	r0, #0
	blne	mono_aot_System_icall_cold_wrapper_265
	cmp	r4, #0
	beq	.LBB47_2
	ldr	r0, [r4, #8]
	mov	r7, #0
	str	r7, [sp]
	mov	r1, #1
	stmib	sp, {r0, r6}
	mov	r0, r5
	mvn	r2, #0
	mov	r3, r4
	bl	System_Text_RegularExpressions_Regex_Run_bool_int_string_int_int_int
	cmp	r0, #0
	movweq	r7, #1
	mov	r0, r7
	add	sp, sp, #16
	pop	{r4, r5, r6, r7, r11, pc}
.LBB47_2:
	ldr	r0, .LCPI47_1
	movw	r1, #15996
.LPC47_1:
	ldr	r0, [pc, r0]
	bl	p_12_plt__jit_icall_mono_helper_ldstr_llvm
	mov	r1, r0
	movw	r0, #124
	movt	r0, #512
	bl	p_13_plt__jit_icall_mono_create_corlib_exception_1_llvm
	bl	p_14_plt__jit_icall_mono_arch_throw_exception_llvm
	.p2align	2
.LCPI47_0:
	.long	mono_aot_System_llvm_got-(.LPC47_0+8)
.LCPI47_1:
	.long	mono_aot_System_llvm_got-(.LPC47_1+8)
.Lfunc_end47:
	.size	System_Text_RegularExpressions_Regex_IsMatch_string_int, .Lfunc_end47-System_Text_RegularExpressions_Regex_IsMatch_string_int
.Lexception41:
	.fnend

	.hidden	System_Text_RegularExpressions_Regex__cctor
	.globl	System_Text_RegularExpressions_Regex__cctor
	.p2align	3
	.type	System_Text_RegularExpressions_Regex__cctor,%function
	.code	32
System_Text_RegularExpressions_Regex__cctor:
.Lfunc_begin48:
	.fnstart
	.save	{r4, r5, r11, lr}
	push	{r4, r5, r11, lr}
.Ltmp565:
.Ltmp566:
.Ltmp567:
.Ltmp568:
.Ltmp569:
	.pad	#16
	sub	sp, sp, #16
.Ltmp570:
	ldr	r5, .LCPI48_1
	ldr	r0, .LCPI48_2
.LPC48_0:
	add	r5, pc, r5
.LPC48_1:
	add	r0, pc, r0
	ldr	r1, [r5, #28]
	ldrb	r4, [r0, #1130]
	ldr	r0, [r1]
	cmp	r0, #0
	blne	mono_aot_System_icall_cold_wrapper_265
	cmp	r4, #0
	beq	.LBB48_2
.LBB48_1:
	ldr	r1, [r5, #496]
	mov	r2, #15
	ldr	r0, [r5, #524]
	str	r2, [r1]
	mov	r1, #48
	bl	p_1_plt_wrapper_alloc_object_AllocSmall_intptr_intptr_llvm
	mov	r1, #15
	mov	r4, r0
	bl	p_85_plt_System_Collections_Generic_Dictionary_2_System_Text_RegularExpressions_Regex_CachedCodeEntryKey_System_Text_RegularExpressions_Regex_CachedCodeEntry__ctor_int_llvm
	vldr	d0, .LCPI48_0
	dmb	ish
	ldr	r0, [r5, #492]
	vmov	r2, r3, d0
	ldr	r1, [r5, #508]
	str	r4, [r0]
	mov	r0, #0
	str	r0, [r1]
	mov	r0, sp
	bl	p_86_plt_System_TimeSpan_FromMilliseconds_double_llvm
	add	r2, r5, #528
	ldm	r2, {r0, r1, r2}
	ldm	sp, {r3, r4}
	str	r4, [r0, #4]
	str	r3, [r0]
	ldr	r0, [r1]
	ldr	r1, [r1, #4]
	str	r0, [r2]
	add	r0, sp, #8
	str	r1, [r2, #4]
	bl	System_Text_RegularExpressions_Regex_InitDefaultMatchTimeout
	ldr	r0, [r5, #520]
	ldr	r1, [sp, #8]
	ldr	r2, [sp, #12]
	str	r2, [r0, #4]
	str	r1, [r0]
	add	sp, sp, #16
	pop	{r4, r5, r11, pc}
.LBB48_2:
	movw	r0, #1130
	bl	mono_aot_System_init_method
	b	.LBB48_1
	.p2align	3
.LCPI48_0:
	.long	4286578688
	.long	1105199103
.LCPI48_1:
	.long	mono_aot_System_llvm_got-(.LPC48_0+8)
.LCPI48_2:
	.long	mono_inited-(.LPC48_1+8)
.Lfunc_end48:
	.size	System_Text_RegularExpressions_Regex__cctor, .Lfunc_end48-System_Text_RegularExpressions_Regex__cctor
.Lexception42:
	.fnend

	.hidden	System_Text_RegularExpressions_Regex_ValidateMatchTimeout_System_TimeSpan
	.globl	System_Text_RegularExpressions_Regex_ValidateMatchTimeout_System_TimeSpan
	.p2align	2
	.type	System_Text_RegularExpressions_Regex_ValidateMatchTimeout_System_TimeSpan,%function
	.code	32
System_Text_RegularExpressions_Regex_ValidateMatchTimeout_System_TimeSpan:
.Lfunc_begin49:
	.fnstart
	.save	{r4, r5, r6, r7, r11, lr}
	push	{r4, r5, r6, r7, r11, lr}
.Ltmp571:
.Ltmp572:
.Ltmp573:
.Ltmp574:
.Ltmp575:
.Ltmp576:
.Ltmp577:
	ldr	r7, .LCPI49_0
	mov	r5, r0
	ldr	r0, .LCPI49_1
	mov	r4, r1
.LPC49_0:
	add	r7, pc, r7
.LPC49_1:
	add	r0, pc, r0
	ldr	r1, [r7, #28]
	ldrb	r6, [r0, #1131]
	ldr	r0, [r1]
	cmp	r0, #0
	blne	mono_aot_System_icall_cold_wrapper_265
	cmp	r6, #0
	beq	.LBB49_8
.LBB49_1:
	ldr	r6, [r7, #516]
	ldrb	r0, [r6, #25]
	cmp	r0, #0
	beq	.LBB49_9
.LBB49_2:
	ldr	r0, [r7, #536]
	ldr	r1, [r0]
	ldr	r0, [r0, #4]
	eor	r1, r1, r5
	eor	r0, r0, r4
	orrs	r0, r1, r0
	bne	.LBB49_4
	pop	{r4, r5, r6, r7, r11, pc}
.LBB49_4:
	ldr	r0, [r7, #540]
	ldr	r1, [r0]
	ldr	r0, [r0, #4]
	subs	r1, r1, r5
	sbcs	r0, r0, r4
	bge	.LBB49_7
	ldrb	r0, [r6, #25]
	cmp	r0, #0
	beq	.LBB49_10
.LBB49_6:
	ldr	r0, [r7, #528]
	ldr	r1, [r0]
	ldr	r0, [r0, #4]
	subs	r1, r1, r5
	sbcs	r0, r0, r4
	popge	{r4, r5, r6, r7, r11, pc}
.LBB49_7:
	ldr	r0, .LCPI49_2
	movw	r1, #16032
.LPC49_2:
	ldr	r0, [pc, r0]
	bl	p_12_plt__jit_icall_mono_helper_ldstr_llvm
	mov	r1, r0
	movw	r0, #125
	movt	r0, #512
	bl	p_13_plt__jit_icall_mono_create_corlib_exception_1_llvm
	bl	p_14_plt__jit_icall_mono_arch_throw_exception_llvm
.LBB49_8:
	movw	r0, #1131
	bl	mono_aot_System_init_method
	b	.LBB49_1
.LBB49_9:
	mov	r0, r6
	bl	p_17_plt__jit_icall_mono_generic_class_init_llvm
	b	.LBB49_2
.LBB49_10:
	mov	r0, r6
	bl	p_17_plt__jit_icall_mono_generic_class_init_llvm
	b	.LBB49_6
	.p2align	2
.LCPI49_0:
	.long	mono_aot_System_llvm_got-(.LPC49_0+8)
.LCPI49_1:
	.long	mono_inited-(.LPC49_1+8)
.LCPI49_2:
	.long	mono_aot_System_llvm_got-(.LPC49_2+8)
.Lfunc_end49:
	.size	System_Text_RegularExpressions_Regex_ValidateMatchTimeout_System_TimeSpan, .Lfunc_end49-System_Text_RegularExpressions_Regex_ValidateMatchTimeout_System_TimeSpan
.Lexception43:
	.fnend

	.hidden	System_Text_RegularExpressions_Regex_InitDefaultMatchTimeout
	.globl	System_Text_RegularExpressions_Regex_InitDefaultMatchTimeout
	.p2align	2
	.type	System_Text_RegularExpressions_Regex_InitDefaultMatchTimeout,%function
	.code	32
System_Text_RegularExpressions_Regex_InitDefaultMatchTimeout:
.Lfunc_begin50:
	.fnstart
	.save	{r4, r5, r6, r7, r11, lr}
	push	{r4, r5, r6, r7, r11, lr}
.Ltmp581:
.Ltmp582:
.Ltmp583:
.Ltmp584:
.Ltmp585:
.Ltmp586:
.Ltmp587:
	.pad	#8
	sub	sp, sp, #8
.Ltmp588:
	ldr	r6, .LCPI50_3
	mov	r4, r0
	ldr	r0, .LCPI50_4
.LPC50_3:
	add	r6, pc, r6
.LPC50_4:
	add	r0, pc, r0
	ldr	r1, [r6, #28]
	ldrb	r5, [r0, #1132]
	ldr	r0, [r1]
	cmp	r0, #0
	blne	mono_aot_System_icall_cold_wrapper_265
	cmp	r5, #0
	beq	.LBB50_10
.LBB50_1:
	bl	p_88_plt_System_AppDomain_get_CurrentDomain_llvm
	cmp	r0, #0
	beq	.LBB50_12
	ldr	r1, [r6, #544]
	bl	p_89_plt_wrapper_remoting_invoke_with_check_System_AppDomain_GetData_string_llvm
	mov	r5, r0
	cmp	r5, #0
	beq	.LBB50_7
	ldr	r2, [r5]
	ldr	r3, [r6, #548]
	ldr	r0, [r2]
	ldr	r1, [r0, #8]
	ldr	r1, [r1, #8]
	cmp	r1, r3
	bne	.LBB50_13
	ldrb	r2, [r2, #24]
	cmp	r2, #0
	bne	.LBB50_14
	ldr	r0, [r0]
	cmp	r0, r1
	bne	.LBB50_15
	ldr	r6, [r5, #8]
	ldr	r5, [r5, #12]
.Ltmp578:
	mov	r0, r6
	mov	r1, r5
	bl	System_Text_RegularExpressions_Regex_ValidateMatchTimeout_System_TimeSpan
.Ltmp579:
	b	.LBB50_9
.LBB50_7:
	ldr	r0, [r6, #516]
	ldrb	r1, [r0, #25]
	cmp	r1, #0
	beq	.LBB50_11
.LBB50_8:
	ldr	r0, [r6, #536]
	ldr	r6, [r0]
	ldr	r5, [r0, #4]
.LBB50_9:
	str	r6, [r4]
	str	r5, [r4, #4]
	ldrb	r0, [sp]
	ldrb	r0, [sp, #1]
	ldrb	r0, [sp, #2]
	ldrb	r0, [sp, #3]
	ldrb	r0, [sp, #7]
	ldrb	r0, [sp, #6]
	ldrb	r0, [sp, #5]
	ldrb	r0, [sp, #4]
	add	sp, sp, #8
	pop	{r4, r5, r6, r7, r11, pc}
.LBB50_10:
	movw	r0, #1132
	bl	mono_aot_System_init_method
	b	.LBB50_1
.LBB50_11:
	bl	p_17_plt__jit_icall_mono_generic_class_init_llvm
	b	.LBB50_8
.Ltmp589:
.LBB50_12:
	ldr	r0, .LCPI50_2
.LPC50_2:
	add	r1, pc, r0
	mov	r0, #225
	bl	p_8_plt__jit_icall_llvm_throw_corlib_exception_abs_trampoline_llvm
.LBB50_13:
	ldr	r4, .LCPI50_6
	movw	r1, #16114
.LPC50_6:
	ldr	r4, [pc, r4]
	mov	r0, r4
	bl	p_12_plt__jit_icall_mono_helper_ldstr_llvm
	mov	r6, r0
	mov	r0, r4
	movw	r1, #16058
	bl	p_12_plt__jit_icall_mono_helper_ldstr_llvm
	mov	r1, r0
	mov	r0, r6
	mov	r2, r5
	bl	p_90_plt_SR_Format_string_object_object_llvm
	mov	r1, r0
	movw	r0, #125
	movt	r0, #512
	add	r0, r0, #78
	bl	p_13_plt__jit_icall_mono_create_corlib_exception_1_llvm
	bl	p_14_plt__jit_icall_mono_arch_throw_exception_llvm
.Ltmp590:
.LBB50_14:
	ldr	r0, .LCPI50_0
.LPC50_0:
	add	r1, pc, r0
	mov	r0, #203
	bl	p_8_plt__jit_icall_llvm_throw_corlib_exception_abs_trampoline_llvm
.Ltmp591:
.LBB50_15:
	ldr	r0, .LCPI50_1
.LPC50_1:
	add	r1, pc, r0
	mov	r0, #203
	bl	p_8_plt__jit_icall_llvm_throw_corlib_exception_abs_trampoline_llvm
.LBB50_16:
.Ltmp580:
	ldr	r4, .LCPI50_5
	movw	r1, #16114
.LPC50_5:
	ldr	r4, [pc, r4]
	mov	r0, r4
	bl	p_12_plt__jit_icall_mono_helper_ldstr_llvm
	mov	r7, r0
	mov	r0, r4
	movw	r1, #16058
	bl	p_12_plt__jit_icall_mono_helper_ldstr_llvm
	mov	r4, r0
	movw	r0, #265
	bl	p_92_plt__jit_icall_mono_helper_newobj_mscorlib_llvm
	mov	r2, r0
	mov	r0, r7
	mov	r1, r4
	str	r5, [r2, #12]
	str	r6, [r2, #8]
	bl	p_90_plt_SR_Format_string_object_object_llvm
	mov	r1, r0
	movw	r0, #125
	movt	r0, #512
	bl	p_13_plt__jit_icall_mono_create_corlib_exception_1_llvm
	bl	p_14_plt__jit_icall_mono_arch_throw_exception_llvm
	.p2align	2
.LCPI50_0:
	.long	.Ltmp590-(.LPC50_0+8)
.LCPI50_1:
	.long	.Ltmp591-(.LPC50_1+8)
.LCPI50_2:
	.long	.Ltmp589-(.LPC50_2+8)
.LCPI50_3:
	.long	mono_aot_System_llvm_got-(.LPC50_3+8)
.LCPI50_4:
	.long	mono_inited-(.LPC50_4+8)
.LCPI50_5:
	.long	mono_aot_System_llvm_got-(.LPC50_5+8)
.LCPI50_6:
	.long	mono_aot_System_llvm_got-(.LPC50_6+8)
.Lfunc_end50:
	.size	System_Text_RegularExpressions_Regex_InitDefaultMatchTimeout, .Lfunc_end50-System_Text_RegularExpressions_Regex_InitDefaultMatchTimeout
.Lexception44:
	.fnend

	.hidden	System_Text_RegularExpressions_Regex__ctor_string_System_Text_RegularExpressions_RegexOptions_System_TimeSpan_bool
	.globl	System_Text_RegularExpressions_Regex__ctor_string_System_Text_RegularExpressions_RegexOptions_System_TimeSpan_bool
	.p2align	2
	.type	System_Text_RegularExpressions_Regex__ctor_string_System_Text_RegularExpressions_RegexOptions_System_TimeSpan_bool,%function
	.code	32
System_Text_RegularExpressions_Regex__ctor_string_System_Text_RegularExpressions_RegexOptions_System_TimeSpan_bool:
.Lfunc_begin51:
	.fnstart
	.save	{r4, r5, r6, r7, r9, r10, r11, lr}
	push	{r4, r5, r6, r7, r9, r10, r11, lr}
.Ltmp592:
.Ltmp593:
.Ltmp594:
.Ltmp595:
.Ltmp596:
.Ltmp597:
.Ltmp598:
.Ltmp599:
.Ltmp600:
	.pad	#32
	sub	sp, sp, #32
.Ltmp601:
	ldr	r7, .LCPI51_5
	mov	r10, r0
	ldr	r0, .LCPI51_6
	mov	r9, r1
.LPC51_5:
	add	r7, pc, r7
	mov	r6, r2
.LPC51_6:
	add	r0, pc, r0
	ldr	r1, [r7, #28]
	ldrb	r4, [r0, #1136]
	ldr	r0, [r1]
	cmp	r0, #0
	blne	mono_aot_System_icall_cold_wrapper_265
	cmp	r4, #0
	beq	.LBB51_30
.LBB51_1:
	mov	r0, #0
	cmp	r9, #0
	str	r0, [sp, #24]
	str	r0, [sp, #20]
	str	r0, [sp, #16]
	beq	.LBB51_33
	cmp	r6, #1024
	bhs	.LBB51_32
	tst	r6, #256
	movwne	r0, #64756
	movtne	r0, #65535
	andsne	r0, r6, r0
	bne	.LBB51_32
	ldr	r5, [sp, #68]
	ldr	r4, [sp, #64]
	mov	r1, r5
	mov	r0, r4
	bl	System_Text_RegularExpressions_Regex_ValidateMatchTimeout_System_TimeSpan
	cmp	r10, #0
	beq	.LBB51_34
	ldr	r11, [r7, #8]
	mov	r0, r10
	dmb	ish
	str	r9, [r0, #8]!
	mov	r1, #1
	tst	r6, #512
	strb	r1, [r11, r0, lsr #9]
	str	r5, [r0, #36]
	str	r4, [r0, #32]
	str	r6, [r0, #40]
	bne	.LBB51_8
	bl	p_100_plt_System_Globalization_CultureInfo_get_CurrentCulture_llvm
	cmp	r0, #0
	bne	.LBB51_10
.Ltmp602:
	ldr	r0, .LCPI51_3
.LPC51_3:
	add	r1, pc, r0
	mov	r0, #225
	bl	p_8_plt__jit_icall_llvm_throw_corlib_exception_abs_trampoline_llvm
.LBB51_8:
	ldr	r0, [r7, #552]
	ldrb	r1, [r0, #25]
	cmp	r1, #0
	beq	.LBB51_31
.LBB51_9:
	ldr	r0, [r7, #556]
	ldr	r0, [r0]
	dmb	ish
	cmp	r0, #0
	beq	.LBB51_35
.LBB51_10:
	ldr	r1, [r0]
	ldr	r1, [r1, #40]
	blx	r1
	str	r6, [sp, #16]
	mov	r2, #1
	dmb	ish
	str	r0, [sp, #20]
	add	r0, sp, #16
	orr	r1, r0, #4
	add	r0, r0, #8
	strb	r2, [r11, r1, lsr #9]
	dmb	ish
	ldr	r1, [r7, #504]
	str	r9, [sp, #24]
	strb	r2, [r11, r0, lsr #9]
	ldr	r6, [r1]
	ldr	r7, [sp, #16]
	ldr	r5, [sp, #20]
	cmp	r6, #0
	ldr	r4, [sp, #24]
	str	r1, [sp, #12]
	beq	.LBB51_13
	ldr	r0, [r6, #16]
	mov	r3, r7
	ldr	r1, [r6, #20]
	ldr	r2, [r6, #24]
	str	r5, [sp]
	str	r4, [sp, #4]
	bl	p_76_plt_System_Text_RegularExpressions_Regex_CachedCodeEntryKey_op_Equality_System_Text_RegularExpressions_Regex_CachedCodeEntryKey_System_Text_RegularExpressions_Regex_CachedCodeEntryKey_llvm
	tst	r0, #255
	beq	.LBB51_13
	cmp	r6, #0
	bne	.LBB51_15
	b	.LBB51_16
.LBB51_13:
	ldr	r0, .LCPI51_7
.LPC51_7:
	add	r0, pc, r0
	ldr	r0, [r0, #496]
	ldr	r0, [r0]
	cmp	r0, #0
	beq	.LBB51_16
	mov	r0, #0
	mov	r1, r7
	str	r0, [sp]
	mov	r0, r10
	mov	r2, r5
	mov	r3, r4
	bl	System_Text_RegularExpressions_Regex_GetCachedCodeEntryInternal_System_Text_RegularExpressions_Regex_CachedCodeEntryKey_bool
	mov	r6, r0
	cmp	r6, #0
	beq	.LBB51_16
.LBB51_15:
	ldr	r1, [r6, #32]
	mov	r0, r10
	dmb	ish
	str	r1, [r0, #16]!
	mov	r1, #1
	strb	r1, [r11, r0, lsr #9]
	ldr	r2, [r6, #36]
	dmb	ish
	str	r2, [r0, #4]
	add	r2, r0, #4
	strb	r1, [r11, r2, lsr #9]
	ldr	r2, [r6, #40]
	dmb	ish
	str	r2, [r0, #8]
	add	r2, r0, #8
	strb	r1, [r11, r2, lsr #9]
	ldr	r2, [r6, #56]
	str	r2, [r0, #36]
	ldr	r2, [r6, #28]
	dmb	ish
	str	r2, [r0, #20]
	add	r2, r0, #20
	strb	r1, [r11, r2, lsr #9]
	ldr	r2, [r6, #44]
	dmb	ish
	str	r2, [r0, #-4]
	sub	r2, r0, #4
	strb	r1, [r11, r2, lsr #9]
	ldr	r2, [r6, #48]
	dmb	ish
	str	r2, [r0, #12]
	add	r2, r0, #12
	strb	r1, [r11, r2, lsr #9]
	ldr	r2, [r6, #52]
	dmb	ish
	str	r2, [r0, #16]
	add	r2, r0, #16
	strb	r1, [r11, r2, lsr #9]
	strb	r1, [r0, #40]
	b	.LBB51_24
.LBB51_16:
	ldr	r1, [r10, #48]
	mov	r0, r9
	bl	System_Text_RegularExpressions_RegexParser_Parse_string_System_Text_RegularExpressions_RegexOptions
	ldr	r1, [r0, #20]
	dmb	ish
	str	r1, [r10, #20]
	add	r1, r10, #20
	mov	r4, #1
	strb	r4, [r11, r1, lsr #9]
	ldr	r1, [r0, #24]
	dmb	ish
	str	r1, [r10, #24]
	add	r1, r10, #24
	strb	r4, [r11, r1, lsr #9]
	bl	System_Text_RegularExpressions_RegexWriter_Write_System_Text_RegularExpressions_RegexTree
	dmb	ish
	str	r0, [r10, #36]
	add	r0, r10, #36
	strb	r4, [r11, r0, lsr #9]
	ldr	r0, [r10, #36]
	cmp	r0, #0
	beq	.LBB51_36
	ldr	r0, [r0, #16]
	mov	r1, r10
	dmb	ish
	str	r0, [r1, #16]!
	strb	r4, [r11, r1, lsr #9]
	ldr	r0, [r1, #20]
	cmp	r0, #0
	beq	.LBB51_37
	ldr	r0, [r0, #40]
	str	r0, [r10, #52]
	mov	r0, r10
	bl	System_Text_RegularExpressions_Regex_InitializeReferences
	ldr	r0, [sp, #72]
	mov	r6, #0
	cmp	r0, #0
	beq	.LBB51_24
	add	r9, sp, #12
	ldm	r9, {r0, r5, r7, r9}
	ldr	r4, [r0]
	cmp	r4, #0
	beq	.LBB51_22
	ldr	r0, [r4, #16]
	mov	r3, r5
	ldr	r1, [r4, #20]
	ldr	r2, [r4, #24]
	stm	sp, {r7, r9}
	bl	p_76_plt_System_Text_RegularExpressions_Regex_CachedCodeEntryKey_op_Equality_System_Text_RegularExpressions_Regex_CachedCodeEntryKey_System_Text_RegularExpressions_Regex_CachedCodeEntryKey_llvm
	tst	r0, #255
	beq	.LBB51_22
	mov	r6, r4
	b	.LBB51_24
.LBB51_22:
	ldr	r0, .LCPI51_8
.LPC51_8:
	add	r0, pc, r0
	ldr	r0, [r0, #496]
	ldr	r0, [r0]
	cmp	r0, #0
	beq	.LBB51_24
	mov	r0, #1
	mov	r1, r5
	str	r0, [sp]
	mov	r0, r10
	mov	r2, r7
	mov	r3, r9
	bl	System_Text_RegularExpressions_Regex_GetCachedCodeEntryInternal_System_Text_RegularExpressions_Regex_CachedCodeEntryKey_bool
	mov	r6, r0
.LBB51_24:
	mov	r0, r10
	bl	p_95_plt_System_Text_RegularExpressions_Regex_UseOptionC_llvm
	tst	r0, #255
	beq	.LBB51_26
	ldr	r0, [r10, #12]
	cmp	r0, #0
	beq	.LBB51_27
.LBB51_26:
	add	sp, sp, #32
	pop	{r4, r5, r6, r7, r9, r10, r11, pc}
.LBB51_27:
	ldr	r1, [r10, #36]
	mov	r0, r10
	ldr	r2, [r10, #48]
	bl	p_96_plt_System_Text_RegularExpressions_Regex_Compile_System_Text_RegularExpressions_RegexCode_System_Text_RegularExpressions_RegexOptions_llvm
	dmb	ish
	str	r0, [r10, #12]
	add	r0, r10, #12
	mov	r1, #1
	strb	r1, [r11, r0, lsr #9]
	ldr	r0, [sp, #72]
	cmp	r0, #0
	cmpne	r6, #0
	beq	.LBB51_29
	ldr	r0, [r10, #12]
	dmb	ish
	str	r0, [r6, #44]!
	mov	r1, #1
	lsr	r0, r6, #9
	strb	r1, [r0, r11]
	mov	r0, #0
	str	r0, [r6, #-16]
.LBB51_29:
	mov	r0, #0
	str	r0, [r10, #36]
	add	sp, sp, #32
	pop	{r4, r5, r6, r7, r9, r10, r11, pc}
.LBB51_30:
	mov	r0, #1136
	bl	mono_aot_System_init_method
	b	.LBB51_1
.LBB51_31:
	bl	p_17_plt__jit_icall_mono_generic_class_init_llvm
	b	.LBB51_9
.LBB51_32:
	ldr	r0, .LCPI51_10
	movw	r1, #16413
.LPC51_10:
	ldr	r0, [pc, r0]
	bl	p_12_plt__jit_icall_mono_helper_ldstr_llvm
	mov	r1, r0
	movw	r0, #125
	movt	r0, #512
	bl	p_13_plt__jit_icall_mono_create_corlib_exception_1_llvm
	bl	p_14_plt__jit_icall_mono_arch_throw_exception_llvm
.LBB51_33:
	ldr	r0, .LCPI51_9
	movw	r1, #16397
.LPC51_9:
	ldr	r0, [pc, r0]
	bl	p_12_plt__jit_icall_mono_helper_ldstr_llvm
	mov	r1, r0
	movw	r0, #125
	movt	r0, #512
	sub	r0, r0, #1
	bl	p_13_plt__jit_icall_mono_create_corlib_exception_1_llvm
	bl	p_14_plt__jit_icall_mono_arch_throw_exception_llvm
.Ltmp603:
.LBB51_34:
	ldr	r0, .LCPI51_4
.LPC51_4:
	add	r1, pc, r0
	mov	r0, #225
	bl	p_8_plt__jit_icall_llvm_throw_corlib_exception_abs_trampoline_llvm
.Ltmp604:
.LBB51_35:
	ldr	r0, .LCPI51_0
.LPC51_0:
	add	r1, pc, r0
	mov	r0, #225
	bl	p_8_plt__jit_icall_llvm_throw_corlib_exception_abs_trampoline_llvm
.Ltmp605:
.LBB51_36:
	ldr	r0, .LCPI51_2
.LPC51_2:
	add	r1, pc, r0
	mov	r0, #225
	bl	p_8_plt__jit_icall_llvm_throw_corlib_exception_abs_trampoline_llvm
.Ltmp606:
.LBB51_37:
	ldr	r0, .LCPI51_1
.LPC51_1:
	add	r1, pc, r0
	mov	r0, #225
	bl	p_8_plt__jit_icall_llvm_throw_corlib_exception_abs_trampoline_llvm
	.p2align	2
.LCPI51_0:
	.long	.Ltmp604-(.LPC51_0+8)
.LCPI51_1:
	.long	.Ltmp606-(.LPC51_1+8)
.LCPI51_2:
	.long	.Ltmp605-(.LPC51_2+8)
.LCPI51_3:
	.long	.Ltmp602-(.LPC51_3+8)
.LCPI51_4:
	.long	.Ltmp603-(.LPC51_4+8)
.LCPI51_5:
	.long	mono_aot_System_llvm_got-(.LPC51_5+8)
.LCPI51_6:
	.long	mono_inited-(.LPC51_6+8)
.LCPI51_7:
	.long	mono_aot_System_llvm_got-(.LPC51_7+8)
.LCPI51_8:
	.long	mono_aot_System_llvm_got-(.LPC51_8+8)
.LCPI51_9:
	.long	mono_aot_System_llvm_got-(.LPC51_9+8)
.LCPI51_10:
	.long	mono_aot_System_llvm_got-(.LPC51_10+8)
.Lfunc_end51:
	.size	System_Text_RegularExpressions_Regex__ctor_string_System_Text_RegularExpressions_RegexOptions_System_TimeSpan_bool, .Lfunc_end51-System_Text_RegularExpressions_Regex__ctor_string_System_Text_RegularExpressions_RegexOptions_System_TimeSpan_bool
.Lexception45:
	.fnend

	.hidden	System_Text_RegularExpressions_Regex_InitializeReferences
	.globl	System_Text_RegularExpressions_Regex_InitializeReferences
	.p2align	2
	.type	System_Text_RegularExpressions_Regex_InitializeReferences,%function
	.code	32
System_Text_RegularExpressions_Regex_InitializeReferences:
.Lfunc_begin52:
	.fnstart
	.save	{r4, r5, r6, r7, r11, lr}
	push	{r4, r5, r6, r7, r11, lr}
.Ltmp607:
.Ltmp608:
.Ltmp609:
.Ltmp610:
.Ltmp611:
.Ltmp612:
.Ltmp613:
	ldr	r5, .LCPI52_1
	mov	r4, r0
	ldr	r0, .LCPI52_2
.LPC52_1:
	add	r5, pc, r5
.LPC52_2:
	add	r0, pc, r0
	ldr	r1, [r5, #28]
	ldrb	r6, [r0, #1142]
	ldr	r0, [r1]
	cmp	r0, #0
	blne	mono_aot_System_icall_cold_wrapper_265
	cmp	r6, #0
	beq	.LBB52_4
	cmp	r4, #0
	beq	.LBB52_5
.LBB52_2:
	ldrb	r0, [r4, #56]
	cmp	r0, #0
	bne	.LBB52_6
	ldr	r0, [r5, #560]
	mov	r6, #1
	mov	r1, #20
	strb	r6, [r4, #56]
	bl	p_1_plt_wrapper_alloc_object_AllocSmall_intptr_intptr_llvm
	dmb	ish
	str	r0, [r4, #28]
	ldr	r0, [r5, #564]
	add	r1, r4, #28
	ldr	r7, [r5, #8]
	strb	r6, [r7, r1, lsr #9]
	bl	p_101_plt__jit_icall_ves_icall_object_new_specific_llvm
	mov	r1, #0
	mov	r5, r0
	bl	p_102_plt_System_WeakReference_1_System_Text_RegularExpressions_RegexReplacement__ctor_System_Text_RegularExpressions_RegexReplacement_llvm
	add	r0, r4, #32
	dmb	ish
	str	r5, [r4, #32]
	strb	r6, [r7, r0, lsr #9]
	pop	{r4, r5, r6, r7, r11, pc}
.LBB52_4:
	movw	r0, #1142
	bl	mono_aot_System_init_method
	cmp	r4, #0
	bne	.LBB52_2
.Ltmp614:
.LBB52_5:
	ldr	r0, .LCPI52_0
.LPC52_0:
	add	r1, pc, r0
	mov	r0, #225
	bl	p_8_plt__jit_icall_llvm_throw_corlib_exception_abs_trampoline_llvm
.LBB52_6:
	ldr	r0, .LCPI52_3
	movw	r1, #16437
.LPC52_3:
	ldr	r0, [pc, r0]
	bl	p_12_plt__jit_icall_mono_helper_ldstr_llvm
	mov	r1, r0
	movw	r0, #224
	movt	r0, #512
	bl	p_13_plt__jit_icall_mono_create_corlib_exception_1_llvm
	bl	p_14_plt__jit_icall_mono_arch_throw_exception_llvm
	.p2align	2
.LCPI52_0:
	.long	.Ltmp614-(.LPC52_0+8)
.LCPI52_1:
	.long	mono_aot_System_llvm_got-(.LPC52_1+8)
.LCPI52_2:
	.long	mono_inited-(.LPC52_2+8)
.LCPI52_3:
	.long	mono_aot_System_llvm_got-(.LPC52_3+8)
.Lfunc_end52:
	.size	System_Text_RegularExpressions_Regex_InitializeReferences, .Lfunc_end52-System_Text_RegularExpressions_Regex_InitializeReferences
.Lexception46:
	.fnend

	.hidden	System_Text_RegularExpressions_Regex_Run_bool_int_string_int_int_int
	.globl	System_Text_RegularExpressions_Regex_Run_bool_int_string_int_int_int
	.p2align	2
	.type	System_Text_RegularExpressions_Regex_Run_bool_int_string_int_int_int,%function
	.code	32
System_Text_RegularExpressions_Regex_Run_bool_int_string_int_int_int:
.Lfunc_begin53:
	.fnstart
	.save	{r4, r5, r6, r7, r9, r10, r11, lr}
	push	{r4, r5, r6, r7, r9, r10, r11, lr}
.Ltmp624:
.Ltmp625:
.Ltmp626:
.Ltmp627:
.Ltmp628:
.Ltmp629:
.Ltmp630:
.Ltmp631:
	.setfp	r11, sp, #24
	add	r11, sp, #24
.Ltmp632:
	.pad	#32
	sub	sp, sp, #32
	mov	r4, r2
	ldr	r2, .LCPI53_11
	mov	r5, r1
	ldr	r1, .LCPI53_12
.LPC53_11:
	add	r2, pc, r2
	str	r0, [r11, #-44]
.LPC53_12:
	add	r1, pc, r1
	mov	r10, r3
	ldr	r2, [r2, #28]
	ldrb	r7, [r1, #1143]
	ldr	r0, [r2]
	cmp	r0, #0
	blne	mono_aot_System_icall_cold_wrapper_265
	ldr	r6, [r11, #16]
	cmp	r7, #0
	beq	.LBB53_24
.LBB53_1:
	mov	r0, sp
	sub	r7, r0, #8
	mov	sp, r7
	mov	r1, #0
	cmp	r6, #0
	str	r1, [r0, #-8]
	str	r1, [r11, #-36]
	str	r1, [r11, #-40]
	blt	.LBB53_26
	cmp	r10, #0
	beq	.LBB53_27
	ldr	r0, [r10, #8]
	cmp	r0, r6
	blt	.LBB53_26
	ldr	r9, [r11, #12]
	cmp	r9, #0
	cmpge	r0, r9
	blt	.LBB53_28
	ldr	r0, [r11, #-44]
	cmp	r0, #0
	beq	.LBB53_30
	ldr	r0, [r0, #28]
	cmp	r0, #0
	beq	.LBB53_31
	bl	System_Text_RegularExpressions_ExclusiveReference_Get
	str	r0, [r11, #-40]
	ldr	r0, [r11, #-40]
	cmp	r0, #0
	bne	.LBB53_20
	ldr	r0, [r11, #-44]
	cmp	r0, #0
	beq	.LBB53_36
	ldr	r1, [r0, #12]
	ldr	r0, [r11, #-44]
	cmp	r1, #0
	beq	.LBB53_13
	cmp	r0, #0
	beq	.LBB53_37
	ldr	r0, [r0, #12]
	cmp	r0, #0
	beq	.LBB53_38
	ldr	r1, [r0]
	ldr	r1, [r1, #56]
	blx	r1
	b	.LBB53_19
.LBB53_13:
	cmp	r0, #0
	beq	.LBB53_39
	ldr	r0, [r0, #36]
	str	r0, [r11, #-52]
	ldr	r0, [r11, #-44]
	bl	p_106_plt_System_Text_RegularExpressions_Regex_UseOptionInvariant_llvm
	tst	r0, #255
	beq	.LBB53_17
	ldr	r2, .LCPI53_16
.LPC53_16:
	add	r2, pc, r2
	ldr	r0, [r2, #552]
	ldrb	r1, [r0, #25]
	cmp	r1, #0
	beq	.LBB53_25
.LBB53_16:
	ldr	r0, [r2, #556]
	ldr	r0, [r0]
	str	r0, [r11, #-56]
	dmb	ish
	b	.LBB53_18
.LBB53_17:
	bl	p_100_plt_System_Globalization_CultureInfo_get_CurrentCulture_llvm
	str	r0, [r11, #-56]
	ldr	r2, .LCPI53_15
.LPC53_15:
	add	r2, pc, r2
.LBB53_18:
	ldr	r0, [r2, #568]
	mov	r1, #100
	bl	p_1_plt_wrapper_alloc_object_AllocSmall_intptr_intptr_llvm
	dmb	ish
	mov	r2, r0
	ldr	r1, .LCPI53_18
	mov	r12, #1
	ldr	r3, [r11, #-52]
.LPC53_18:
	add	r1, pc, r1
	str	r3, [r2, #80]!
	ldr	r1, [r1, #8]
	strb	r12, [r1, r2, lsr #9]
	mov	r2, r0
	dmb	ish
	ldr	r3, [r11, #-56]
	str	r3, [r2, #84]!
	strb	r12, [r1, r2, lsr #9]
.LBB53_19:
	str	r0, [r11, #-40]
.LBB53_20:
	ldr	r0, [r11, #-40]
	ldr	r1, [r11, #-44]
	ldr	r2, [r11, #-44]
	cmp	r2, #0
	beq	.LBB53_32
	mov	lr, r6
	mov	r12, r5
	cmp	r0, #0
	beq	.LBB53_34
	ldr	r3, [r11, #8]
	ldr	r5, [r2, #40]
	add	r6, r9, r3
	ldr	r2, [r2, #44]
.Ltmp615:
	sub	sp, sp, #24
	stm	sp, {r6, lr}
	str	r2, [sp, #20]
	mov	r2, r10
	str	r4, [sp, #8]
	str	r12, [sp, #12]
	str	r5, [sp, #16]
	bl	System_Text_RegularExpressions_RegexRunner_Scan_System_Text_RegularExpressions_Regex_string_int_int_int_int_bool_System_TimeSpan
	add	sp, sp, #24
.Ltmp616:
	mov	r1, #0
	str	r0, [r11, #-36]
	mov	r0, #1
	str	r1, [r11, #-32]
	str	r0, [r7]
	b	.LBB53_40
.LBB53_24:
	movw	r0, #1143
	bl	mono_aot_System_init_method
	b	.LBB53_1
.LBB53_25:
	bl	p_17_plt__jit_icall_mono_generic_class_init_llvm
	ldr	r2, .LCPI53_17
.LPC53_17:
	add	r2, pc, r2
	b	.LBB53_16
.LBB53_26:
	ldr	r4, .LCPI53_13
	movw	r1, #15670
.LPC53_13:
	ldr	r4, [pc, r4]
	mov	r0, r4
	bl	p_12_plt__jit_icall_mono_helper_ldstr_llvm
	mov	r5, r0
	mov	r0, r4
	movw	r1, #15686
	b	.LBB53_29
.Ltmp633:
.LBB53_27:
	ldr	r0, .LCPI53_10
.LPC53_10:
	add	r1, pc, r0
	mov	r0, #225
	bl	p_8_plt__jit_icall_llvm_throw_corlib_exception_abs_trampoline_llvm
.LBB53_28:
	ldr	r4, .LCPI53_14
	movw	r1, #16533
.LPC53_14:
	ldr	r4, [pc, r4]
	mov	r0, r4
	bl	p_12_plt__jit_icall_mono_helper_ldstr_llvm
	mov	r5, r0
	mov	r0, r4
	movw	r1, #16547
.LBB53_29:
	bl	p_12_plt__jit_icall_mono_helper_ldstr_llvm
	mov	r2, r0
	movw	r0, #125
	movt	r0, #512
	mov	r1, r5
	bl	p_103_plt__jit_icall_mono_create_corlib_exception_2_llvm
	bl	p_14_plt__jit_icall_mono_arch_throw_exception_llvm
.Ltmp634:
.LBB53_30:
	ldr	r0, .LCPI53_9
.LPC53_9:
	add	r1, pc, r0
	mov	r0, #225
	bl	p_8_plt__jit_icall_llvm_throw_corlib_exception_abs_trampoline_llvm
.Ltmp635:
.LBB53_31:
	ldr	r0, .LCPI53_8
.LPC53_8:
	add	r1, pc, r0
	mov	r0, #225
	bl	p_8_plt__jit_icall_llvm_throw_corlib_exception_abs_trampoline_llvm
.Ltmp636:
.LBB53_32:
	ldr	r0, .LCPI53_3
.Ltmp619:
.LPC53_3:
	add	r1, pc, r0
	mov	r0, #225
	bl	p_8_plt__jit_icall_llvm_throw_corlib_exception_abs_trampoline_llvm
.Ltmp620:
.Ltmp637:
.LBB53_34:
	ldr	r0, .LCPI53_2
.Ltmp617:
.LPC53_2:
	add	r1, pc, r0
	mov	r0, #225
	bl	p_8_plt__jit_icall_llvm_throw_corlib_exception_abs_trampoline_llvm
.Ltmp618:
.Ltmp638:
.LBB53_36:
	ldr	r0, .LCPI53_7
.LPC53_7:
	add	r1, pc, r0
	mov	r0, #225
	bl	p_8_plt__jit_icall_llvm_throw_corlib_exception_abs_trampoline_llvm
.Ltmp639:
.LBB53_37:
	ldr	r0, .LCPI53_1
.LPC53_1:
	add	r1, pc, r0
	mov	r0, #225
	bl	p_8_plt__jit_icall_llvm_throw_corlib_exception_abs_trampoline_llvm
.Ltmp640:
.LBB53_38:
	ldr	r0, .LCPI53_0
.LPC53_0:
	add	r1, pc, r0
	mov	r0, #225
	bl	p_8_plt__jit_icall_llvm_throw_corlib_exception_abs_trampoline_llvm
.Ltmp641:
.LBB53_39:
	ldr	r0, .LCPI53_6
.LPC53_6:
	add	r1, pc, r0
	mov	r0, #225
	bl	p_8_plt__jit_icall_llvm_throw_corlib_exception_abs_trampoline_llvm
.LBB53_40:
	ldr	r0, [r11, #-44]
	cmp	r0, #0
	beq	.LBB53_46
	ldr	r0, [r0, #28]
	ldr	r1, [r11, #-40]
	cmp	r0, #0
	beq	.LBB53_47
	bl	System_Text_RegularExpressions_ExclusiveReference_Release_System_Text_RegularExpressions_RegexRunner
	ldr	r0, [r7]
	mov	r1, #0
	str	r1, [r7]
	cmp	r0, #1
	bne	.LBB53_48
	ldr	r0, [r11, #-32]
	cmp	r0, #0
	beq	.LBB53_45
.Ltmp622:
	bl	p_4_plt__jit_icall_ves_icall_thread_finish_async_abort_llvm
.Ltmp623:
.LBB53_45:
	ldr	r0, [r11, #-36]
	str	r0, [r11, #-48]
	ldr	r0, [r11, #-48]
	sub	sp, r11, #24
	pop	{r4, r5, r6, r7, r9, r10, r11, pc}
.Ltmp642:
.LBB53_46:
	ldr	r0, .LCPI53_5
.LPC53_5:
	add	r1, pc, r0
	mov	r0, #225
	bl	p_8_plt__jit_icall_llvm_throw_corlib_exception_abs_trampoline_llvm
.Ltmp643:
.LBB53_47:
	ldr	r0, .LCPI53_4
.LPC53_4:
	add	r1, pc, r0
	mov	r0, #225
	bl	p_8_plt__jit_icall_llvm_throw_corlib_exception_abs_trampoline_llvm
.LBB53_48:
	bl	p_7_plt__jit_icall_llvm_resume_unwind_trampoline_llvm
.LBB53_49:
.Ltmp621:
	b	.LBB53_40
	.p2align	2
.LCPI53_0:
	.long	.Ltmp640-(.LPC53_0+8)
.LCPI53_1:
	.long	.Ltmp639-(.LPC53_1+8)
.LCPI53_2:
	.long	.Ltmp637-(.LPC53_2+8)
.LCPI53_3:
	.long	.Ltmp636-(.LPC53_3+8)
.LCPI53_4:
	.long	.Ltmp643-(.LPC53_4+8)
.LCPI53_5:
	.long	.Ltmp642-(.LPC53_5+8)
.LCPI53_6:
	.long	.Ltmp641-(.LPC53_6+8)
.LCPI53_7:
	.long	.Ltmp638-(.LPC53_7+8)
.LCPI53_8:
	.long	.Ltmp635-(.LPC53_8+8)
.LCPI53_9:
	.long	.Ltmp634-(.LPC53_9+8)
.LCPI53_10:
	.long	.Ltmp633-(.LPC53_10+8)
.LCPI53_11:
	.long	mono_aot_System_llvm_got-(.LPC53_11+8)
.LCPI53_12:
	.long	mono_inited-(.LPC53_12+8)
.LCPI53_13:
	.long	mono_aot_System_llvm_got-(.LPC53_13+8)
.LCPI53_14:
	.long	mono_aot_System_llvm_got-(.LPC53_14+8)
.LCPI53_15:
	.long	mono_aot_System_llvm_got-(.LPC53_15+8)
.LCPI53_16:
	.long	mono_aot_System_llvm_got-(.LPC53_16+8)
.LCPI53_17:
	.long	mono_aot_System_llvm_got-(.LPC53_17+8)
.LCPI53_18:
	.long	mono_aot_System_llvm_got-(.LPC53_18+8)
.Lfunc_end53:
	.size	System_Text_RegularExpressions_Regex_Run_bool_int_string_int_int_int, .Lfunc_end53-System_Text_RegularExpressions_Regex_Run_bool_int_string_int_int_int
.Lexception47:
	.fnend

	.hidden	System_Text_RegularExpressions_Regex_CachedCodeEntryKey__ctor_System_Text_RegularExpressions_RegexOptions_string_string
	.globl	System_Text_RegularExpressions_Regex_CachedCodeEntryKey__ctor_System_Text_RegularExpressions_RegexOptions_string_string
	.p2align	2
	.type	System_Text_RegularExpressions_Regex_CachedCodeEntryKey__ctor_System_Text_RegularExpressions_RegexOptions_string_string,%function
	.code	32
System_Text_RegularExpressions_Regex_CachedCodeEntryKey__ctor_System_Text_RegularExpressions_RegexOptions_string_string:
.Lfunc_begin54:
	.fnstart
	cmp	r0, #0
	beq	.LBB54_2
	ldr	r12, .LCPI54_1
	str	r1, [r0]
	mov	r1, r0
.LPC54_1:
	add	r12, pc, r12
	dmb	ish
	str	r2, [r1, #4]!
	mov	r2, #1
	ldr	r12, [r12, #8]
	strb	r2, [r12, r1, lsr #9]
	dmb	ish
	str	r3, [r0, #8]!
	strb	r2, [r12, r0, lsr #9]
	bx	lr
.Ltmp644:
.LBB54_2:
	.save	{r11, lr}
	push	{r11, lr}
.Ltmp645:
.Ltmp646:
.Ltmp647:
	ldr	r0, .LCPI54_0
.LPC54_0:
	add	r1, pc, r0
	mov	r0, #225
	bl	p_8_plt__jit_icall_llvm_throw_corlib_exception_abs_trampoline_llvm
	.p2align	2
.LCPI54_0:
	.long	.Ltmp644-(.LPC54_0+8)
.LCPI54_1:
	.long	mono_aot_System_llvm_got-(.LPC54_1+8)
.Lfunc_end54:
	.size	System_Text_RegularExpressions_Regex_CachedCodeEntryKey__ctor_System_Text_RegularExpressions_RegexOptions_string_string, .Lfunc_end54-System_Text_RegularExpressions_Regex_CachedCodeEntryKey__ctor_System_Text_RegularExpressions_RegexOptions_string_string
.Lexception48:
	.fnend

	.hidden	System_Text_RegularExpressions_Regex_CachedCodeEntry__ctor_System_Text_RegularExpressions_Regex_CachedCodeEntryKey_System_Collections_Hashtable_string___System_Text_RegularExpressions_RegexCode_System_Collections_Hashtable_int_System_Text_RegularExpressions_ExclusiveReference_System_WeakReference_1_System_Text_RegularExpressions_RegexReplacement
	.globl	System_Text_RegularExpressions_Regex_CachedCodeEntry__ctor_System_Text_RegularExpressions_Regex_CachedCodeEntryKey_System_Collections_Hashtable_string___System_Text_RegularExpressions_RegexCode_System_Collections_Hashtable_int_System_Text_RegularExpressions_ExclusiveReference_System_WeakReference_1_System_Text_RegularExpressions_RegexReplacement
	.p2align	2
	.type	System_Text_RegularExpressions_Regex_CachedCodeEntry__ctor_System_Text_RegularExpressions_Regex_CachedCodeEntryKey_System_Collections_Hashtable_string___System_Text_RegularExpressions_RegexCode_System_Collections_Hashtable_int_System_Text_RegularExpressions_ExclusiveReference_System_WeakReference_1_System_Text_RegularExpressions_RegexReplacement,%function
	.code	32
System_Text_RegularExpressions_Regex_CachedCodeEntry__ctor_System_Text_RegularExpressions_Regex_CachedCodeEntryKey_System_Collections_Hashtable_string___System_Text_RegularExpressions_RegexCode_System_Collections_Hashtable_int_System_Text_RegularExpressions_ExclusiveReference_System_WeakReference_1_System_Text_RegularExpressions_RegexReplacement:
.Lfunc_begin55:
	.fnstart
	.save	{r4, r5, r6, r7, r9, r10, r11, lr}
	push	{r4, r5, r6, r7, r9, r10, r11, lr}
.Ltmp648:
.Ltmp649:
.Ltmp650:
.Ltmp651:
.Ltmp652:
.Ltmp653:
.Ltmp654:
.Ltmp655:
.Ltmp656:
	cmp	r0, #0
	beq	.LBB55_2
	ldr	r5, .LCPI55_1
	str	r1, [r0, #16]
.LPC55_1:
	add	r5, pc, r5
	ldr	r4, [sp, #32]
	ldr	r7, [sp, #36]
	ldr	r1, [r5, #8]
	mov	r5, r0
	str	r2, [r5, #20]!
	mov	r2, #1
	ldr	r6, [sp, #40]
	strb	r2, [r1, r5, lsr #9]
	mov	r5, r0
	str	r3, [r5, #24]!
	mov	r3, r0
	ldr	r10, [sp, #44]
	strb	r2, [r1, r5, lsr #9]
	dmb	ish
	str	r4, [r3, #36]!
	ldr	r9, [sp, #48]
	strb	r2, [r1, r3, lsr #9]
	mov	r3, r0
	dmb	ish
	str	r7, [r3, #40]!
	ldr	lr, [sp, #52]
	strb	r2, [r1, r3, lsr #9]
	mov	r3, r0
	dmb	ish
	str	r6, [r3, #28]!
	ldr	r12, [sp, #56]
	strb	r2, [r1, r3, lsr #9]
	mov	r3, r0
	dmb	ish
	str	r10, [r3, #32]!
	strb	r2, [r1, r3, lsr #9]
	mov	r3, r0
	str	r9, [r0, #56]
	dmb	ish
	str	lr, [r3, #48]!
	strb	r2, [r1, r3, lsr #9]
	dmb	ish
	str	r12, [r0, #52]!
	strb	r2, [r1, r0, lsr #9]
	pop	{r4, r5, r6, r7, r9, r10, r11, pc}
.Ltmp657:
.LBB55_2:
	ldr	r0, .LCPI55_0
.LPC55_0:
	add	r1, pc, r0
	mov	r0, #225
	bl	p_8_plt__jit_icall_llvm_throw_corlib_exception_abs_trampoline_llvm
	.p2align	2
.LCPI55_0:
	.long	.Ltmp657-(.LPC55_0+8)
.LCPI55_1:
	.long	mono_aot_System_llvm_got-(.LPC55_1+8)
.Lfunc_end55:
	.size	System_Text_RegularExpressions_Regex_CachedCodeEntry__ctor_System_Text_RegularExpressions_Regex_CachedCodeEntryKey_System_Collections_Hashtable_string___System_Text_RegularExpressions_RegexCode_System_Collections_Hashtable_int_System_Text_RegularExpressions_ExclusiveReference_System_WeakReference_1_System_Text_RegularExpressions_RegexReplacement, .Lfunc_end55-System_Text_RegularExpressions_Regex_CachedCodeEntry__ctor_System_Text_RegularExpressions_Regex_CachedCodeEntryKey_System_Collections_Hashtable_string___System_Text_RegularExpressions_RegexCode_System_Collections_Hashtable_int_System_Text_RegularExpressions_ExclusiveReference_System_WeakReference_1_System_Text_RegularExpressions_RegexReplacement
.Lexception49:
	.fnend

	.hidden	System_Text_RegularExpressions_RegexCharClass__ctor_bool_System_Collections_Generic_List_1_System_Text_RegularExpressions_RegexCharClass_SingleRange_System_Text_StringBuilder_System_Text_RegularExpressions_RegexCharClass
	.globl	System_Text_RegularExpressions_RegexCharClass__ctor_bool_System_Collections_Generic_List_1_System_Text_RegularExpressions_RegexCharClass_SingleRange_System_Text_StringBuilder_System_Text_RegularExpressions_RegexCharClass
	.p2align	2
	.type	System_Text_RegularExpressions_RegexCharClass__ctor_bool_System_Collections_Generic_List_1_System_Text_RegularExpressions_RegexCharClass_SingleRange_System_Text_StringBuilder_System_Text_RegularExpressions_RegexCharClass,%function
	.code	32
System_Text_RegularExpressions_RegexCharClass__ctor_bool_System_Collections_Generic_List_1_System_Text_RegularExpressions_RegexCharClass_SingleRange_System_Text_StringBuilder_System_Text_RegularExpressions_RegexCharClass:
.Lfunc_begin56:
	.fnstart
	.save	{r4, r5, r6, r7, r11, lr}
	push	{r4, r5, r6, r7, r11, lr}
.Ltmp658:
.Ltmp659:
.Ltmp660:
.Ltmp661:
.Ltmp662:
.Ltmp663:
.Ltmp664:
	mov	r4, r0
	ldr	r0, .LCPI56_1
	mov	r6, r3
	mov	r7, r2
.LPC56_1:
	add	r0, pc, r0
	mov	r5, r1
	ldrb	r0, [r0, #1159]
	cmp	r0, #0
	beq	.LBB56_3
	cmp	r4, #0
	beq	.LBB56_4
.LBB56_2:
	ldr	r1, .LCPI56_2
	mov	r2, r4
	dmb	ish
	str	r7, [r2, #8]!
.LPC56_2:
	add	r1, pc, r1
	mov	r3, #1
	ldr	r0, [sp, #24]
	ldr	r1, [r1, #8]
	strb	r3, [r1, r2, lsr #9]
	mov	r2, r4
	dmb	ish
	str	r6, [r2, #12]!
	strb	r3, [r1, r2, lsr #9]
	strb	r5, [r4, #21]
	strb	r3, [r4, #20]
	dmb	ish
	str	r0, [r4, #16]!
	strb	r3, [r1, r4, lsr #9]
	pop	{r4, r5, r6, r7, r11, pc}
.LBB56_3:
	movw	r0, #1159
	bl	mono_aot_System_init_method
	cmp	r4, #0
	bne	.LBB56_2
.Ltmp665:
.LBB56_4:
	ldr	r0, .LCPI56_0
.LPC56_0:
	add	r1, pc, r0
	mov	r0, #225
	bl	p_8_plt__jit_icall_llvm_throw_corlib_exception_abs_trampoline_llvm
	.p2align	2
.LCPI56_0:
	.long	.Ltmp665-(.LPC56_0+8)
.LCPI56_1:
	.long	mono_inited-(.LPC56_1+8)
.LCPI56_2:
	.long	mono_aot_System_llvm_got-(.LPC56_2+8)
.Lfunc_end56:
	.size	System_Text_RegularExpressions_RegexCharClass__ctor_bool_System_Collections_Generic_List_1_System_Text_RegularExpressions_RegexCharClass_SingleRange_System_Text_StringBuilder_System_Text_RegularExpressions_RegexCharClass, .Lfunc_end56-System_Text_RegularExpressions_RegexCharClass__ctor_bool_System_Collections_Generic_List_1_System_Text_RegularExpressions_RegexCharClass_SingleRange_System_Text_StringBuilder_System_Text_RegularExpressions_RegexCharClass
.Lexception50:
	.fnend

	.hidden	System_Text_RegularExpressions_RegexCharClass_IsEmpty_string
	.globl	System_Text_RegularExpressions_RegexCharClass_IsEmpty_string
	.p2align	2
	.type	System_Text_RegularExpressions_RegexCharClass_IsEmpty_string,%function
	.code	32
System_Text_RegularExpressions_RegexCharClass_IsEmpty_string:
.Lfunc_begin57:
	.fnstart
	.save	{r4, r5, r11, lr}
	push	{r4, r5, r11, lr}
.Ltmp666:
.Ltmp667:
.Ltmp668:
.Ltmp669:
.Ltmp670:
	mov	r4, r0
	ldr	r0, .LCPI57_2
	ldr	r1, .LCPI57_3
.LPC57_2:
	add	r0, pc, r0
.LPC57_3:
	add	r1, pc, r1
	ldr	r0, [r0, #28]
	ldrb	r5, [r1, #1176]
	ldr	r0, [r0]
	cmp	r0, #0
	blne	mono_aot_System_icall_cold_wrapper_265
	cmp	r5, #0
	beq	.LBB57_6
	cmp	r4, #0
	beq	.LBB57_7
.LBB57_2:
	ldr	r0, [r4, #8]
	cmp	r0, #2
	bls	.LBB57_8
	ldrh	r1, [r4, #16]
	mov	r0, #0
	cmp	r1, #0
	popne	{r4, r5, r11, pc}
	ldrh	r1, [r4, #12]
	cmp	r1, #0
	ldrheq	r1, [r4, #14]
	cmpeq	r1, #0
	beq	.LBB57_5
	pop	{r4, r5, r11, pc}
.LBB57_5:
	mov	r0, r4
	bl	p_109_plt_System_Text_RegularExpressions_RegexCharClass_IsSubtraction_string_llvm
	mov	r1, r0
	mov	r0, #0
	tst	r1, #255
	movweq	r0, #1
	pop	{r4, r5, r11, pc}
.LBB57_6:
	movw	r0, #1176
	bl	mono_aot_System_init_method
	cmp	r4, #0
	bne	.LBB57_2
.Ltmp671:
.LBB57_7:
	ldr	r0, .LCPI57_1
.LPC57_1:
	add	r1, pc, r0
	mov	r0, #225
	bl	p_8_plt__jit_icall_llvm_throw_corlib_exception_abs_trampoline_llvm
.Ltmp672:
.LBB57_8:
	ldr	r0, .LCPI57_0
.LPC57_0:
	add	r1, pc, r0
	mov	r0, #198
	bl	p_8_plt__jit_icall_llvm_throw_corlib_exception_abs_trampoline_llvm
	.p2align	2
.LCPI57_0:
	.long	.Ltmp672-(.LPC57_0+8)
.LCPI57_1:
	.long	.Ltmp671-(.LPC57_1+8)
.LCPI57_2:
	.long	mono_aot_System_llvm_got-(.LPC57_2+8)
.LCPI57_3:
	.long	mono_inited-(.LPC57_3+8)
.Lfunc_end57:
	.size	System_Text_RegularExpressions_RegexCharClass_IsEmpty_string, .Lfunc_end57-System_Text_RegularExpressions_RegexCharClass_IsEmpty_string
.Lexception51:
	.fnend

	.hidden	System_Text_RegularExpressions_RegexCharClass_IsSingleton_string
	.globl	System_Text_RegularExpressions_RegexCharClass_IsSingleton_string
	.p2align	2
	.type	System_Text_RegularExpressions_RegexCharClass_IsSingleton_string,%function
	.code	32
System_Text_RegularExpressions_RegexCharClass_IsSingleton_string:
.Lfunc_begin58:
	.fnstart
	.save	{r4, r5, r11, lr}
	push	{r4, r5, r11, lr}
.Ltmp673:
.Ltmp674:
.Ltmp675:
.Ltmp676:
.Ltmp677:
	mov	r4, r0
	ldr	r0, .LCPI58_5
	ldr	r1, .LCPI58_6
.LPC58_5:
	add	r0, pc, r0
.LPC58_6:
	add	r1, pc, r1
	ldr	r0, [r0, #28]
	ldrb	r5, [r1, #1177]
	ldr	r0, [r0]
	cmp	r0, #0
	blne	mono_aot_System_icall_cold_wrapper_265
	cmp	r5, #0
	beq	.LBB58_13
	cmp	r4, #0
	beq	.LBB58_14
.LBB58_2:
	ldr	r0, [r4, #8]
	cmp	r0, #0
	beq	.LBB58_15
	ldrh	r1, [r4, #12]
	mov	r5, #0
	cmp	r1, #0
	bne	.LBB58_6
	cmp	r0, #2
	bls	.LBB58_16
	ldrh	r0, [r4, #16]
	cmp	r0, #0
	ldrheq	r0, [r4, #14]
	cmpeq	r0, #2
	beq	.LBB58_7
.LBB58_6:
	mov	r0, r5
	pop	{r4, r5, r11, pc}
.LBB58_7:
	mov	r0, r4
	bl	p_109_plt_System_Text_RegularExpressions_RegexCharClass_IsSubtraction_string_llvm
	tst	r0, #255
	bne	.LBB58_6
	ldr	r0, [r4, #8]
	cmp	r0, #3
	bls	.LBB58_17
	ldrh	r1, [r4, #18]
	movw	r2, #65535
	cmp	r1, r2
	beq	.LBB58_12
	cmp	r0, #4
	bls	.LBB58_18
	ldrh	r0, [r4, #20]
	add	r1, r1, #1
	cmp	r1, r0
	bne	.LBB58_6
.LBB58_12:
	mov	r5, #1
	mov	r0, r5
	pop	{r4, r5, r11, pc}
.LBB58_13:
	movw	r0, #1177
	bl	mono_aot_System_init_method
	cmp	r4, #0
	bne	.LBB58_2
.Ltmp678:
.LBB58_14:
	ldr	r0, .LCPI58_4
.LPC58_4:
	add	r1, pc, r0
	mov	r0, #225
	bl	p_8_plt__jit_icall_llvm_throw_corlib_exception_abs_trampoline_llvm
.Ltmp679:
.LBB58_15:
	ldr	r0, .LCPI58_3
.LPC58_3:
	add	r1, pc, r0
	mov	r0, #198
	bl	p_8_plt__jit_icall_llvm_throw_corlib_exception_abs_trampoline_llvm
.Ltmp680:
.LBB58_16:
	ldr	r0, .LCPI58_2
.LPC58_2:
	add	r1, pc, r0
	mov	r0, #198
	bl	p_8_plt__jit_icall_llvm_throw_corlib_exception_abs_trampoline_llvm
.Ltmp681:
.LBB58_17:
	ldr	r0, .LCPI58_1
.LPC58_1:
	add	r1, pc, r0
	mov	r0, #198
	bl	p_8_plt__jit_icall_llvm_throw_corlib_exception_abs_trampoline_llvm
.Ltmp682:
.LBB58_18:
	ldr	r0, .LCPI58_0
.LPC58_0:
	add	r1, pc, r0
	mov	r0, #198
	bl	p_8_plt__jit_icall_llvm_throw_corlib_exception_abs_trampoline_llvm
	.p2align	2
.LCPI58_0:
	.long	.Ltmp682-(.LPC58_0+8)
.LCPI58_1:
	.long	.Ltmp681-(.LPC58_1+8)
.LCPI58_2:
	.long	.Ltmp680-(.LPC58_2+8)
.LCPI58_3:
	.long	.Ltmp679-(.LPC58_3+8)
.LCPI58_4:
	.long	.Ltmp678-(.LPC58_4+8)
.LCPI58_5:
	.long	mono_aot_System_llvm_got-(.LPC58_5+8)
.LCPI58_6:
	.long	mono_inited-(.LPC58_6+8)
.Lfunc_end58:
	.size	System_Text_RegularExpressions_RegexCharClass_IsSingleton_string, .Lfunc_end58-System_Text_RegularExpressions_RegexCharClass_IsSingleton_string
.Lexception52:
	.fnend

	.hidden	System_Text_RegularExpressions_RegexCharClass_IsSingletonInverse_string
	.globl	System_Text_RegularExpressions_RegexCharClass_IsSingletonInverse_string
	.p2align	2
	.type	System_Text_RegularExpressions_RegexCharClass_IsSingletonInverse_string,%function
	.code	32
System_Text_RegularExpressions_RegexCharClass_IsSingletonInverse_string:
.Lfunc_begin59:
	.fnstart
	.save	{r4, r5, r11, lr}
	push	{r4, r5, r11, lr}
.Ltmp683:
.Ltmp684:
.Ltmp685:
.Ltmp686:
.Ltmp687:
	mov	r4, r0
	ldr	r0, .LCPI59_5
	ldr	r1, .LCPI59_6
.LPC59_5:
	add	r0, pc, r0
.LPC59_6:
	add	r1, pc, r1
	ldr	r0, [r0, #28]
	ldrb	r5, [r1, #1178]
	ldr	r0, [r0]
	cmp	r0, #0
	blne	mono_aot_System_icall_cold_wrapper_265
	cmp	r5, #0
	beq	.LBB59_13
	cmp	r4, #0
	beq	.LBB59_14
.LBB59_2:
	ldr	r0, [r4, #8]
	cmp	r0, #0
	beq	.LBB59_15
	ldrh	r1, [r4, #12]
	mov	r5, #0
	cmp	r1, #1
	bne	.LBB59_6
	cmp	r0, #2
	bls	.LBB59_16
	ldrh	r0, [r4, #16]
	cmp	r0, #0
	ldrheq	r0, [r4, #14]
	cmpeq	r0, #2
	beq	.LBB59_7
.LBB59_6:
	mov	r0, r5
	pop	{r4, r5, r11, pc}
.LBB59_7:
	mov	r0, r4
	bl	p_109_plt_System_Text_RegularExpressions_RegexCharClass_IsSubtraction_string_llvm
	tst	r0, #255
	bne	.LBB59_6
	ldr	r0, [r4, #8]
	cmp	r0, #3
	bls	.LBB59_17
	ldrh	r1, [r4, #18]
	movw	r2, #65535
	cmp	r1, r2
	beq	.LBB59_12
	cmp	r0, #4
	bls	.LBB59_18
	ldrh	r0, [r4, #20]
	add	r1, r1, #1
	cmp	r1, r0
	bne	.LBB59_6
.LBB59_12:
	mov	r5, #1
	mov	r0, r5
	pop	{r4, r5, r11, pc}
.LBB59_13:
	movw	r0, #1178
	bl	mono_aot_System_init_method
	cmp	r4, #0
	bne	.LBB59_2
.Ltmp688:
.LBB59_14:
	ldr	r0, .LCPI59_4
.LPC59_4:
	add	r1, pc, r0
	mov	r0, #225
	bl	p_8_plt__jit_icall_llvm_throw_corlib_exception_abs_trampoline_llvm
.Ltmp689:
.LBB59_15:
	ldr	r0, .LCPI59_3
.LPC59_3:
	add	r1, pc, r0
	mov	r0, #198
	bl	p_8_plt__jit_icall_llvm_throw_corlib_exception_abs_trampoline_llvm
.Ltmp690:
.LBB59_16:
	ldr	r0, .LCPI59_2
.LPC59_2:
	add	r1, pc, r0
	mov	r0, #198
	bl	p_8_plt__jit_icall_llvm_throw_corlib_exception_abs_trampoline_llvm
.Ltmp691:
.LBB59_17:
	ldr	r0, .LCPI59_1
.LPC59_1:
	add	r1, pc, r0
	mov	r0, #198
	bl	p_8_plt__jit_icall_llvm_throw_corlib_exception_abs_trampoline_llvm
.Ltmp692:
.LBB59_18:
	ldr	r0, .LCPI59_0
.LPC59_0:
	add	r1, pc, r0
	mov	r0, #198
	bl	p_8_plt__jit_icall_llvm_throw_corlib_exception_abs_trampoline_llvm
	.p2align	2
.LCPI59_0:
	.long	.Ltmp692-(.LPC59_0+8)
.LCPI59_1:
	.long	.Ltmp691-(.LPC59_1+8)
.LCPI59_2:
	.long	.Ltmp690-(.LPC59_2+8)
.LCPI59_3:
	.long	.Ltmp689-(.LPC59_3+8)
.LCPI59_4:
	.long	.Ltmp688-(.LPC59_4+8)
.LCPI59_5:
	.long	mono_aot_System_llvm_got-(.LPC59_5+8)
.LCPI59_6:
	.long	mono_inited-(.LPC59_6+8)
.Lfunc_end59:
	.size	System_Text_RegularExpressions_RegexCharClass_IsSingletonInverse_string, .Lfunc_end59-System_Text_RegularExpressions_RegexCharClass_IsSingletonInverse_string
.Lexception53:
	.fnend

	.hidden	System_Text_RegularExpressions_RegexCharClass_IsWordChar_char
	.globl	System_Text_RegularExpressions_RegexCharClass_IsWordChar_char
	.p2align	2
	.type	System_Text_RegularExpressions_RegexCharClass_IsWordChar_char,%function
	.code	32
System_Text_RegularExpressions_RegexCharClass_IsWordChar_char:
.Lfunc_begin60:
	.fnstart
	.save	{r4, r5, r6, lr}
	push	{r4, r5, r6, lr}
.Ltmp693:
.Ltmp694:
.Ltmp695:
.Ltmp696:
.Ltmp697:
	ldr	r5, .LCPI60_0
	mov	r4, r0
	ldr	r0, .LCPI60_1
.LPC60_0:
	add	r5, pc, r5
.LPC60_1:
	add	r0, pc, r0
	ldr	r1, [r5, #28]
	ldrb	r6, [r0, #1182]
	ldr	r0, [r1]
	cmp	r0, #0
	blne	mono_aot_System_icall_cold_wrapper_265
	cmp	r6, #0
	beq	.LBB60_2
.LBB60_1:
	ldr	r0, [r5, #572]
	orr	r2, r4, #1
	movw	r3, #8205
	mov	r5, #0
	cmp	r2, r3
	ldr	r1, [r0]
	mov	r0, r4
	movweq	r5, #1
	bl	System_Text_RegularExpressions_RegexCharClass_CharInClass_char_string
	uxtb	r0, r0
	cmp	r0, #0
	movwne	r0, #1
	orr	r0, r5, r0
	pop	{r4, r5, r6, pc}
.LBB60_2:
	movw	r0, #1182
	bl	mono_aot_System_init_method
	b	.LBB60_1
	.p2align	2
.LCPI60_0:
	.long	mono_aot_System_llvm_got-(.LPC60_0+8)
.LCPI60_1:
	.long	mono_inited-(.LPC60_1+8)
.Lfunc_end60:
	.size	System_Text_RegularExpressions_RegexCharClass_IsWordChar_char, .Lfunc_end60-System_Text_RegularExpressions_RegexCharClass_IsWordChar_char
.Lexception54:
	.fnend

	.hidden	System_Text_RegularExpressions_RegexCharClass_CharInClass_char_string
	.globl	System_Text_RegularExpressions_RegexCharClass_CharInClass_char_string
	.p2align	2
	.type	System_Text_RegularExpressions_RegexCharClass_CharInClass_char_string,%function
	.code	32
System_Text_RegularExpressions_RegexCharClass_CharInClass_char_string:
.Lfunc_begin61:
	.fnstart
	.save	{r4, r5, r6, lr}
	push	{r4, r5, r6, lr}
.Ltmp698:
.Ltmp699:
.Ltmp700:
.Ltmp701:
.Ltmp702:
	mov	r5, r0
	ldr	r0, .LCPI61_0
	mov	r4, r1
	ldr	r1, .LCPI61_1
.LPC61_0:
	add	r0, pc, r0
.LPC61_1:
	add	r1, pc, r1
	ldr	r0, [r0, #28]
	ldrb	r6, [r1, #1183]
	ldr	r0, [r0]
	cmp	r0, #0
	blne	mono_aot_System_icall_cold_wrapper_265
	cmp	r6, #0
	beq	.LBB61_2
.LBB61_1:
	mov	r0, r5
	mov	r1, r4
	mov	r2, #0
	bl	System_Text_RegularExpressions_RegexCharClass_CharInClassRecursive_char_string_int
	pop	{r4, r5, r6, pc}
.LBB61_2:
	movw	r0, #1183
	bl	mono_aot_System_init_method
	b	.LBB61_1
	.p2align	2
.LCPI61_0:
	.long	mono_aot_System_llvm_got-(.LPC61_0+8)
.LCPI61_1:
	.long	mono_inited-(.LPC61_1+8)
.Lfunc_end61:
	.size	System_Text_RegularExpressions_RegexCharClass_CharInClass_char_string, .Lfunc_end61-System_Text_RegularExpressions_RegexCharClass_CharInClass_char_string
.Lexception55:
	.fnend

	.hidden	System_Text_RegularExpressions_RegexCharClass_CharInClassRecursive_char_string_int
	.globl	System_Text_RegularExpressions_RegexCharClass_CharInClassRecursive_char_string_int
	.p2align	2
	.type	System_Text_RegularExpressions_RegexCharClass_CharInClassRecursive_char_string_int,%function
	.code	32
System_Text_RegularExpressions_RegexCharClass_CharInClassRecursive_char_string_int:
.Lfunc_begin62:
	.fnstart
	.save	{r4, r5, r6, r7, r9, r10, r11, lr}
	push	{r4, r5, r6, r7, r9, r10, r11, lr}
.Ltmp703:
.Ltmp704:
.Ltmp705:
.Ltmp706:
.Ltmp707:
.Ltmp708:
.Ltmp709:
.Ltmp710:
.Ltmp711:
	.pad	#8
	sub	sp, sp, #8
.Ltmp712:
	mov	r9, r0
	ldr	r0, .LCPI62_4
	mov	r5, r1
	ldr	r1, .LCPI62_5
.LPC62_4:
	add	r0, pc, r0
	mov	r4, r2
.LPC62_5:
	add	r1, pc, r1
	ldr	r0, [r0, #28]
	ldrb	r6, [r1, #1184]
	ldr	r0, [r0]
	cmp	r0, #0
	blne	mono_aot_System_icall_cold_wrapper_265
	cmp	r6, #0
	beq	.LBB62_8
	cmp	r5, #0
	beq	.LBB62_9
.LBB62_2:
	ldr	r0, [r5, #8]
	add	r1, r4, #1
	cmp	r0, r1
	bls	.LBB62_10
	add	r2, r4, #2
	cmp	r0, r2
	bls	.LBB62_11
	add	r1, r5, r1, lsl #1
	mov	r10, #0
	ldrh	r7, [r1, #12]
	add	r1, r5, r2, lsl #1
	ldrh	r6, [r1, #12]
	add	r1, r4, r7
	add	r1, r1, r6
	add	r2, r1, #3
	cmp	r0, r2
	ble	.LBB62_6
	mov	r0, r9
	mov	r1, r5
	bl	System_Text_RegularExpressions_RegexCharClass_CharInClassRecursive_char_string_int
	uxtb	r10, r0
.LBB62_6:
	mov	r0, r9
	mov	r1, r5
	mov	r2, r4
	mov	r3, r7
	str	r6, [sp]
	bl	System_Text_RegularExpressions_RegexCharClass_CharInClassInternal_char_string_int_int_int
	ldr	r1, [r5, #8]
	cmp	r1, r4
	bls	.LBB62_12
	add	r1, r5, r4, lsl #1
	uxtb	r0, r0
	cmp	r0, #0
	mov	r3, #0
	ldrh	r1, [r1, #12]
	movweq	r3, #1
	mov	r2, #0
	cmp	r1, #1
	movne	r3, r0
	cmp	r3, #0
	movwne	r3, #1
	cmp	r10, #0
	movweq	r2, #1
	and	r0, r2, r3
	add	sp, sp, #8
	pop	{r4, r5, r6, r7, r9, r10, r11, pc}
.LBB62_8:
	mov	r0, #1184
	bl	mono_aot_System_init_method
	cmp	r5, #0
	bne	.LBB62_2
.Ltmp713:
.LBB62_9:
	ldr	r0, .LCPI62_3
.LPC62_3:
	add	r1, pc, r0
	mov	r0, #225
	bl	p_8_plt__jit_icall_llvm_throw_corlib_exception_abs_trampoline_llvm
.Ltmp714:
.LBB62_10:
	ldr	r0, .LCPI62_0
.LPC62_0:
	add	r1, pc, r0
	mov	r0, #198
	bl	p_8_plt__jit_icall_llvm_throw_corlib_exception_abs_trampoline_llvm
.Ltmp715:
.LBB62_11:
	ldr	r0, .LCPI62_1
.LPC62_1:
	add	r1, pc, r0
	mov	r0, #198
	bl	p_8_plt__jit_icall_llvm_throw_corlib_exception_abs_trampoline_llvm
.Ltmp716:
.LBB62_12:
	ldr	r0, .LCPI62_2
.LPC62_2:
	add	r1, pc, r0
	mov	r0, #198
	bl	p_8_plt__jit_icall_llvm_throw_corlib_exception_abs_trampoline_llvm
	.p2align	2
.LCPI62_0:
	.long	.Ltmp714-(.LPC62_0+8)
.LCPI62_1:
	.long	.Ltmp715-(.LPC62_1+8)
.LCPI62_2:
	.long	.Ltmp716-(.LPC62_2+8)
.LCPI62_3:
	.long	.Ltmp713-(.LPC62_3+8)
.LCPI62_4:
	.long	mono_aot_System_llvm_got-(.LPC62_4+8)
.LCPI62_5:
	.long	mono_inited-(.LPC62_5+8)
.Lfunc_end62:
	.size	System_Text_RegularExpressions_RegexCharClass_CharInClassRecursive_char_string_int, .Lfunc_end62-System_Text_RegularExpressions_RegexCharClass_CharInClassRecursive_char_string_int
.Lexception56:
	.fnend

	.hidden	System_Text_RegularExpressions_RegexCharClass_CharInClassInternal_char_string_int_int_int
	.globl	System_Text_RegularExpressions_RegexCharClass_CharInClassInternal_char_string_int_int_int
	.p2align	2
	.type	System_Text_RegularExpressions_RegexCharClass_CharInClassInternal_char_string_int_int_int,%function
	.code	32
System_Text_RegularExpressions_RegexCharClass_CharInClassInternal_char_string_int_int_int:
.Lfunc_begin63:
	.fnstart
	.save	{r4, r5, r6, r7, r9, r10, r11, lr}
	push	{r4, r5, r6, r7, r9, r10, r11, lr}
.Ltmp717:
.Ltmp718:
.Ltmp719:
.Ltmp720:
.Ltmp721:
.Ltmp722:
.Ltmp723:
.Ltmp724:
.Ltmp725:
	.pad	#8
	sub	sp, sp, #8
.Ltmp726:
	ldr	r11, .LCPI63_2
	mov	r7, r0
	ldr	r0, .LCPI63_3
	mov	r6, r1
.LPC63_2:
	add	r11, pc, r11
	mov	r10, r3
.LPC63_3:
	add	r0, pc, r0
	mov	r5, r2
	ldr	r1, [r11, #28]
	ldrb	r4, [r0, #1185]
	ldr	r0, [r1]
	cmp	r0, #0
	blne	mono_aot_System_icall_cold_wrapper_265
	cmp	r4, #0
	beq	.LBB63_15
.LBB63_1:
	str	r5, [sp, #4]
	add	r5, r5, #3
	cmp	r10, #0
	beq	.LBB63_10
	add	r4, r5, r10
.LBB63_3:
	mov	r9, r4
.LBB63_4:
	add	r0, r5, r9
	mov	r1, #2
	bl	p_113_plt__jit_icall___emul_op_idiv_llvm
	mov	r4, r0
	cmp	r6, #0
	beq	.LBB63_16
	ldr	r0, [r6, #8]
	cmp	r0, r4
	bls	.LBB63_17
	add	r0, r6, r4, lsl #1
	ldrh	r0, [r0, #12]
	cmp	r0, r7
	bgt	.LBB63_8
	ldr	r0, [r11, #28]
	add	r5, r4, #1
	ldr	r0, [r0]
	cmp	r0, #0
	blne	mono_aot_System_icall_cold_wrapper_265
	cmp	r5, r9
	bne	.LBB63_4
	b	.LBB63_9
.LBB63_8:
	ldr	r0, [r11, #28]
	ldr	r0, [r0]
	cmp	r0, #0
	blne	mono_aot_System_icall_cold_wrapper_265
	cmp	r5, r4
	bne	.LBB63_3
	b	.LBB63_10
.LBB63_9:
	mov	r5, r9
.LBB63_10:
	ldr	r0, [sp, #4]
	eor	r1, r5, r0
	mov	r2, r0
	mov	r0, #1
	tst	r1, #1
	beq	.LBB63_13
	ldr	r0, [sp, #40]
	cmp	r0, #0
	beq	.LBB63_14
	str	r0, [sp]
	mov	r0, r7
	mov	r1, r6
	mov	r3, r10
	bl	System_Text_RegularExpressions_RegexCharClass_CharInCategory_char_string_int_int_int
.LBB63_13:
	add	sp, sp, #8
	pop	{r4, r5, r6, r7, r9, r10, r11, pc}
.LBB63_14:
	mov	r0, #0
	add	sp, sp, #8
	pop	{r4, r5, r6, r7, r9, r10, r11, pc}
.LBB63_15:
	movw	r0, #1185
	bl	mono_aot_System_init_method
	b	.LBB63_1
.Ltmp727:
.LBB63_16:
	ldr	r0, .LCPI63_1
.LPC63_1:
	add	r1, pc, r0
	mov	r0, #225
	bl	p_8_plt__jit_icall_llvm_throw_corlib_exception_abs_trampoline_llvm
.Ltmp728:
.LBB63_17:
	ldr	r0, .LCPI63_0
.LPC63_0:
	add	r1, pc, r0
	mov	r0, #198
	bl	p_8_plt__jit_icall_llvm_throw_corlib_exception_abs_trampoline_llvm
	.p2align	2
.LCPI63_0:
	.long	.Ltmp728-(.LPC63_0+8)
.LCPI63_1:
	.long	.Ltmp727-(.LPC63_1+8)
.LCPI63_2:
	.long	mono_aot_System_llvm_got-(.LPC63_2+8)
.LCPI63_3:
	.long	mono_inited-(.LPC63_3+8)
.Lfunc_end63:
	.size	System_Text_RegularExpressions_RegexCharClass_CharInClassInternal_char_string_int_int_int, .Lfunc_end63-System_Text_RegularExpressions_RegexCharClass_CharInClassInternal_char_string_int_int_int
.Lexception57:
	.fnend

	.hidden	System_Text_RegularExpressions_RegexCharClass_CharInCategory_char_string_int_int_int
	.globl	System_Text_RegularExpressions_RegexCharClass_CharInCategory_char_string_int_int_int
	.p2align	2
	.type	System_Text_RegularExpressions_RegexCharClass_CharInCategory_char_string_int_int_int,%function
	.code	32
System_Text_RegularExpressions_RegexCharClass_CharInCategory_char_string_int_int_int:
.Lfunc_begin64:
	.fnstart
	.save	{r4, r5, r6, r7, r9, r10, r11, lr}
	push	{r4, r5, r6, r7, r9, r10, r11, lr}
.Ltmp729:
.Ltmp730:
.Ltmp731:
.Ltmp732:
.Ltmp733:
.Ltmp734:
.Ltmp735:
.Ltmp736:
.Ltmp737:
	.pad	#8
	sub	sp, sp, #8
.Ltmp738:
	ldr	r11, .LCPI64_2
	mov	r10, r0
	ldr	r0, .LCPI64_3
	mov	r4, r1
.LPC64_2:
	add	r11, pc, r11
	mov	r6, r3
.LPC64_3:
	add	r0, pc, r0
	mov	r7, r2
	ldr	r1, [r11, #28]
	ldrb	r5, [r0, #1186]
	ldr	r0, [r1]
	cmp	r0, #0
	blne	mono_aot_System_icall_cold_wrapper_265
	ldr	r9, [sp, #40]
	cmp	r5, #0
	beq	.LBB64_16
.LBB64_1:
	add	r0, r7, r6
	add	r5, r0, #3
	mov	r0, r10
	bl	p_115_plt_System_Globalization_CharUnicodeInfo_GetUnicodeCategory_char_llvm
	str	r5, [sp, #4]
	mov	r7, r0
	ldr	r0, [sp, #4]
	mov	r5, #0
	ldr	r1, [sp, #4]
	add	r6, r0, r9
	cmp	r1, r6
	bge	.LBB64_15
.LBB64_2:
	ldr	r0, [sp, #4]
	cmp	r4, #0
	beq	.LBB64_17
	ldr	r1, [r4, #8]
	cmp	r1, r0
	bls	.LBB64_18
	add	r0, r4, r0, lsl #1
	ldrsh	r0, [r0, #12]
	cmp	r0, #0
	beq	.LBB64_8
	cmp	r0, #1
	blt	.LBB64_9
	cmp	r0, #100
	bne	.LBB64_11
	mov	r0, r10
	bl	p_116_plt_char_IsWhiteSpace_char_llvm
	tst	r0, #255
	beq	.LBB64_13
	b	.LBB64_14
.LBB64_8:
	add	r3, sp, #4
	mov	r1, r7
	mov	r2, r4
	bl	System_Text_RegularExpressions_RegexCharClass_CharInCategoryGroup_char_System_Globalization_UnicodeCategory_string_int_
	tst	r0, #255
	beq	.LBB64_13
	b	.LBB64_14
.LBB64_9:
	cmn	r0, #100
	bne	.LBB64_12
	mov	r0, r10
	bl	p_116_plt_char_IsWhiteSpace_char_llvm
	tst	r0, #255
	bne	.LBB64_13
	b	.LBB64_14
.LBB64_11:
	sub	r0, r0, #1
	cmp	r7, r0
	bne	.LBB64_13
	b	.LBB64_14
.LBB64_12:
	mvn	r0, r0
	cmp	r7, r0
	bne	.LBB64_14
.LBB64_13:
	ldr	r0, [sp, #4]
	add	r0, r0, #1
	str	r0, [sp, #4]
	ldr	r0, [r11, #28]
	ldr	r9, [sp, #4]
	ldr	r0, [r0]
	cmp	r0, #0
	blne	mono_aot_System_icall_cold_wrapper_265
	cmp	r9, r6
	blt	.LBB64_2
	b	.LBB64_15
.LBB64_14:
	mov	r5, #1
.LBB64_15:
	mov	r0, r5
	add	sp, sp, #8
	pop	{r4, r5, r6, r7, r9, r10, r11, pc}
.LBB64_16:
	movw	r0, #1186
	bl	mono_aot_System_init_method
	b	.LBB64_1
.Ltmp739:
.LBB64_17:
	ldr	r0, .LCPI64_1
.LPC64_1:
	add	r1, pc, r0
	mov	r0, #225
	bl	p_8_plt__jit_icall_llvm_throw_corlib_exception_abs_trampoline_llvm
.Ltmp740:
.LBB64_18:
	ldr	r0, .LCPI64_0
.LPC64_0:
	add	r1, pc, r0
	mov	r0, #198
	bl	p_8_plt__jit_icall_llvm_throw_corlib_exception_abs_trampoline_llvm
	.p2align	2
.LCPI64_0:
	.long	.Ltmp740-(.LPC64_0+8)
.LCPI64_1:
	.long	.Ltmp739-(.LPC64_1+8)
.LCPI64_2:
	.long	mono_aot_System_llvm_got-(.LPC64_2+8)
.LCPI64_3:
	.long	mono_inited-(.LPC64_3+8)
.Lfunc_end64:
	.size	System_Text_RegularExpressions_RegexCharClass_CharInCategory_char_string_int_int_int, .Lfunc_end64-System_Text_RegularExpressions_RegexCharClass_CharInCategory_char_string_int_int_int
.Lexception58:
	.fnend

	.hidden	System_Text_RegularExpressions_RegexCharClass_CharInCategoryGroup_char_System_Globalization_UnicodeCategory_string_int_
	.globl	System_Text_RegularExpressions_RegexCharClass_CharInCategoryGroup_char_System_Globalization_UnicodeCategory_string_int_
	.p2align	2
	.type	System_Text_RegularExpressions_RegexCharClass_CharInCategoryGroup_char_System_Globalization_UnicodeCategory_string_int_,%function
	.code	32
System_Text_RegularExpressions_RegexCharClass_CharInCategoryGroup_char_System_Globalization_UnicodeCategory_string_int_:
.Lfunc_begin65:
	.fnstart
	.save	{r4, r5, r6, r7, r9, r10, r11, lr}
	push	{r4, r5, r6, r7, r9, r10, r11, lr}
.Ltmp741:
.Ltmp742:
.Ltmp743:
.Ltmp744:
.Ltmp745:
.Ltmp746:
.Ltmp747:
.Ltmp748:
.Ltmp749:
	.pad	#8
	sub	sp, sp, #8
.Ltmp750:
	ldr	r12, .LCPI65_4
	mov	r10, r2
	ldr	r0, .LCPI65_5
.LPC65_4:
	add	r12, pc, r12
.LPC65_5:
	add	r0, pc, r0
	ldr	r2, [r12, #28]
	ldrb	r4, [r0, #1187]
	ldr	r0, [r2]
	cmp	r0, #0
	bne	.LBB65_18
	cmp	r4, #0
	beq	.LBB65_19
.LBB65_2:
	ldr	r7, [r3]
	cmp	r10, #0
	add	r0, r7, #1
	str	r0, [r3]
	beq	.LBB65_22
	ldr	r2, [r10, #8]
	cmp	r2, r0
	bls	.LBB65_23
	add	r0, r10, r0, lsl #1
	ldrsh	r0, [r0, #12]
	cmp	r0, #1
	blt	.LBB65_6
	add	r2, r10, r7, lsl #1
	add	r6, r7, #2
	add	r4, r2, #4
	mov	r11, #0
	b	.LBB65_10
.LBB65_6:
	cmp	r0, #0
	beq	.LBB65_8
	add	r2, r10, r7, lsl #1
	add	r4, r7, #2
	add	r6, r2, #4
	mov	r11, #1
	b	.LBB65_14
.LBB65_8:
	mov	r11, #1
	b	.LBB65_17
.LBB65_9:
	str	r3, [sp, #4]
	mov	r9, r1
	bl	mono_aot_System_icall_cold_wrapper_265
	ldr	r12, .LCPI65_6
	mov	r1, r9
	ldr	r3, [sp, #4]
.LPC65_6:
	add	r12, pc, r12
	b	.LBB65_12
.LBB65_10:
	str	r6, [r3]
	ldr	r2, [r10, #8]
	cmp	r2, r6
	bls	.LBB65_20
	sub	r0, r0, #1
	ldr	r2, [r12, #28]
	eor	r0, r0, r1
	ldrsh	r5, [r4, #12]
	orrs	r0, r11, r0
	ldr	r0, [r2]
	moveq	r11, #1
	uxth	r7, r5
	cmp	r0, #0
	bne	.LBB65_9
.LBB65_12:
	add	r6, r6, #1
	add	r4, r4, #2
	cmp	r7, #0
	mov	r0, r5
	bne	.LBB65_10
	b	.LBB65_17
.LBB65_13:
	str	r3, [sp, #4]
	mov	r7, r1
	bl	mono_aot_System_icall_cold_wrapper_265
	ldr	r12, .LCPI65_7
	mov	r1, r7
	ldr	r3, [sp, #4]
.LPC65_7:
	add	r12, pc, r12
	b	.LBB65_16
.LBB65_14:
	str	r4, [r3]
	ldr	r2, [r10, #8]
	cmp	r2, r4
	bls	.LBB65_21
	mvn	r0, r0
	ldr	r2, [r12, #28]
	cmp	r0, r1
	mov	r0, r11
	ldrsh	r9, [r6, #12]
	moveq	r0, #0
	cmp	r11, #0
	movne	r11, r0
	ldr	r0, [r2]
	uxth	r5, r9
	cmp	r0, #0
	bne	.LBB65_13
.LBB65_16:
	add	r4, r4, #1
	add	r6, r6, #2
	cmp	r5, #0
	mov	r0, r9
	bne	.LBB65_14
.LBB65_17:
	mov	r0, r11
	add	sp, sp, #8
	pop	{r4, r5, r6, r7, r9, r10, r11, pc}
.LBB65_18:
	mov	r5, r3
	mov	r6, r1
	mov	r7, r12
	bl	mono_aot_System_icall_cold_wrapper_265
	mov	r12, r7
	mov	r1, r6
	mov	r3, r5
	cmp	r4, #0
	bne	.LBB65_2
.LBB65_19:
	movw	r0, #1187
	mov	r4, r3
	mov	r5, r1
	mov	r6, r12
	bl	mono_aot_System_init_method
	mov	r12, r6
	mov	r1, r5
	mov	r3, r4
	b	.LBB65_2
.Ltmp751:
.LBB65_20:
	ldr	r0, .LCPI65_1
.LPC65_1:
	add	r1, pc, r0
	mov	r0, #198
	bl	p_8_plt__jit_icall_llvm_throw_corlib_exception_abs_trampoline_llvm
.Ltmp752:
.LBB65_21:
	ldr	r0, .LCPI65_2
.LPC65_2:
	add	r1, pc, r0
	mov	r0, #198
	bl	p_8_plt__jit_icall_llvm_throw_corlib_exception_abs_trampoline_llvm
.Ltmp753:
.LBB65_22:
	ldr	r0, .LCPI65_3
.LPC65_3:
	add	r1, pc, r0
	mov	r0, #225
	bl	p_8_plt__jit_icall_llvm_throw_corlib_exception_abs_trampoline_llvm
.Ltmp754:
.LBB65_23:
	ldr	r0, .LCPI65_0
.LPC65_0:
	add	r1, pc, r0
	mov	r0, #198
	bl	p_8_plt__jit_icall_llvm_throw_corlib_exception_abs_trampoline_llvm
	.p2align	2
.LCPI65_0:
	.long	.Ltmp754-(.LPC65_0+8)
.LCPI65_1:
	.long	.Ltmp751-(.LPC65_1+8)
.LCPI65_2:
	.long	.Ltmp752-(.LPC65_2+8)
.LCPI65_3:
	.long	.Ltmp753-(.LPC65_3+8)
.LCPI65_4:
	.long	mono_aot_System_llvm_got-(.LPC65_4+8)
.LCPI65_5:
	.long	mono_inited-(.LPC65_5+8)
.LCPI65_6:
	.long	mono_aot_System_llvm_got-(.LPC65_6+8)
.LCPI65_7:
	.long	mono_aot_System_llvm_got-(.LPC65_7+8)
.Lfunc_end65:
	.size	System_Text_RegularExpressions_RegexCharClass_CharInCategoryGroup_char_System_Globalization_UnicodeCategory_string_int_, .Lfunc_end65-System_Text_RegularExpressions_RegexCharClass_CharInCategoryGroup_char_System_Globalization_UnicodeCategory_string_int_
.Lexception59:
	.fnend

	.hidden	System_Text_RegularExpressions_RegexCharClass_Parse_string
	.globl	System_Text_RegularExpressions_RegexCharClass_Parse_string
	.p2align	2
	.type	System_Text_RegularExpressions_RegexCharClass_Parse_string,%function
	.code	32
System_Text_RegularExpressions_RegexCharClass_Parse_string:
.Lfunc_begin66:
	.fnstart
	.save	{r4, r5, r11, lr}
	push	{r4, r5, r11, lr}
.Ltmp755:
.Ltmp756:
.Ltmp757:
.Ltmp758:
.Ltmp759:
	mov	r4, r0
	ldr	r0, .LCPI66_0
	ldr	r1, .LCPI66_1
.LPC66_0:
	add	r0, pc, r0
.LPC66_1:
	add	r1, pc, r1
	ldr	r0, [r0, #28]
	ldrb	r5, [r1, #1189]
	ldr	r0, [r0]
	cmp	r0, #0
	blne	mono_aot_System_icall_cold_wrapper_265
	cmp	r5, #0
	beq	.LBB66_2
.LBB66_1:
	mov	r0, r4
	mov	r1, #0
	bl	System_Text_RegularExpressions_RegexCharClass_ParseRecursive_string_int
	pop	{r4, r5, r11, pc}
.LBB66_2:
	movw	r0, #1189
	bl	mono_aot_System_init_method
	b	.LBB66_1
	.p2align	2
.LCPI66_0:
	.long	mono_aot_System_llvm_got-(.LPC66_0+8)
.LCPI66_1:
	.long	mono_inited-(.LPC66_1+8)
.Lfunc_end66:
	.size	System_Text_RegularExpressions_RegexCharClass_Parse_string, .Lfunc_end66-System_Text_RegularExpressions_RegexCharClass_Parse_string
.Lexception60:
	.fnend

	.hidden	System_Text_RegularExpressions_RegexCharClass_ParseRecursive_string_int
	.globl	System_Text_RegularExpressions_RegexCharClass_ParseRecursive_string_int
	.p2align	2
	.type	System_Text_RegularExpressions_RegexCharClass_ParseRecursive_string_int,%function
	.code	32
System_Text_RegularExpressions_RegexCharClass_ParseRecursive_string_int:
.Lfunc_begin67:
	.fnstart
	.save	{r4, r5, r6, r7, r9, r10, r11, lr}
	push	{r4, r5, r6, r7, r9, r10, r11, lr}
.Ltmp760:
.Ltmp761:
.Ltmp762:
.Ltmp763:
.Ltmp764:
.Ltmp765:
.Ltmp766:
.Ltmp767:
.Ltmp768:
	.pad	#16
	sub	sp, sp, #16
.Ltmp769:
	mov	r7, r1
	ldr	r1, .LCPI67_8
	mov	r10, r0
	ldr	r0, .LCPI67_9
.LPC67_8:
	add	r1, pc, r1
.LPC67_9:
	add	r0, pc, r0
	ldr	r1, [r1, #28]
	ldrb	r4, [r0, #1190]
	ldr	r0, [r1]
	cmp	r0, #0
	blne	mono_aot_System_icall_cold_wrapper_265
	cmp	r4, #0
	beq	.LBB67_20
	cmp	r10, #0
	beq	.LBB67_21
.LBB67_2:
	ldr	r1, [r10, #8]
	add	r4, r7, #1
	cmp	r1, r4
	bls	.LBB67_26
	add	r0, r7, #2
	cmp	r1, r0
	bls	.LBB67_27
	add	r0, r10, r0, lsl #1
	add	r1, r10, r4, lsl #1
	ldrh	r0, [r0, #12]
	str	r0, [sp, #8]
	ldrh	r5, [r1, #12]
	mov	r1, #24
	ldr	r0, .LCPI67_10
.LPC67_10:
	add	r0, pc, r0
	ldr	r0, [r0, #576]
	bl	p_1_plt_wrapper_alloc_object_AllocSmall_intptr_intptr_llvm
	mov	r1, r5
	mov	r6, r0
	bl	p_119_plt_System_Collections_Generic_List_1_System_Text_RegularExpressions_RegexCharClass_SingleRange__ctor_int_llvm
	add	r0, r7, #3
	ldr	r11, [r10, #8]
	add	r9, r0, r5
	str	r7, [sp, #12]
	cmp	r0, r9
	bge	.LBB67_16
	lsl	r0, r4, #1
	add	r4, r7, #4
	add	r0, r10, r0
	add	r5, r0, #4
.LBB67_6:
	sub	r0, r4, #1
	cmp	r11, r0
	bls	.LBB67_22
	ldrh	r0, [r5, #12]
	movw	r1, #65535
	cmp	r4, r9
	bge	.LBB67_10
	cmp	r11, r4
	bls	.LBB67_24
	ldrh	r1, [r5, #14]
	sub	r1, r1, #1
	uxth	r1, r1
.LBB67_10:
	ldr	r2, [r6, #8]
	ldr	r3, [r6, #16]
	ldr	r11, [r6, #20]
	cmp	r2, #0
	add	r7, r11, #1
	str	r7, [r6, #20]
	beq	.LBB67_23
	ldr	r7, [r2, #12]
	cmp	r3, r7
	bhs	.LBB67_14
	add	r7, r3, #1
	str	r7, [r6, #16]
	ldr	r7, [r2, #12]
	cmp	r7, r3
	bls	.LBB67_25
	add	r2, r2, r3, lsl #2
	strh	r1, [r2, #18]
	strh	r0, [r2, #16]
	b	.LBB67_15
.LBB67_14:
	orr	r1, r0, r1, lsl #16
	mov	r0, r6
	bl	p_120_plt_System_Collections_Generic_List_1_System_Text_RegularExpressions_RegexCharClass_SingleRange_AddWithResize_System_Text_RegularExpressions_RegexCharClass_SingleRange_llvm
.LBB67_15:
	ldr	r0, .LCPI67_11
	ldr	r11, [r10, #8]
.LPC67_11:
	add	r0, pc, r0
	ldr	r0, [r0, #28]
	ldr	r0, [r0]
	cmp	r0, #0
	blne	mono_aot_System_icall_cold_wrapper_265
	add	r0, r4, #2
	add	r1, r4, #1
	add	r5, r5, #4
	cmp	r1, r9
	mov	r4, r0
	blt	.LBB67_6
.LBB67_16:
	ldr	r4, [sp, #8]
	mov	r0, #0
	add	r1, r9, r4
	cmp	r11, r1
	ble	.LBB67_18
	mov	r0, r10
	bl	System_Text_RegularExpressions_RegexCharClass_ParseRecursive_string_int
	ldr	r11, [r10, #8]
.LBB67_18:
	str	r0, [sp, #4]
	ldr	r0, [sp, #12]
	cmp	r11, r0
	bls	.LBB67_28
	add	r0, r10, r0, lsl #1
	mov	r1, r9
	mov	r2, r4
	ldrh	r5, [r0, #12]
	mov	r0, r10
	bl	p_121_plt_string_Substring_int_int_llvm
	mov	r4, r0
	ldr	r0, .LCPI67_12
	mov	r1, #28
.LPC67_12:
	add	r0, pc, r0
	mov	r9, r0
	ldr	r0, [r9, #580]
	bl	p_1_plt_wrapper_alloc_object_AllocSmall_intptr_intptr_llvm
	mov	r1, r4
	mov	r7, r0
	bl	p_122_plt_System_Text_StringBuilder__ctor_string_llvm
	ldr	r0, [r9, #584]
	mov	r1, #24
	bl	p_1_plt_wrapper_alloc_object_AllocSmall_intptr_intptr_llvm
	cmp	r5, #1
	mov	r4, r0
	ldr	r0, [sp, #4]
	movwne	r5, #0
	str	r0, [sp]
	mov	r0, r4
	mov	r1, r5
	mov	r2, r6
	mov	r3, r7
	bl	System_Text_RegularExpressions_RegexCharClass__ctor_bool_System_Collections_Generic_List_1_System_Text_RegularExpressions_RegexCharClass_SingleRange_System_Text_StringBuilder_System_Text_RegularExpressions_RegexCharClass
	mov	r0, r4
	add	sp, sp, #16
	pop	{r4, r5, r6, r7, r9, r10, r11, pc}
.LBB67_20:
	movw	r0, #1190
	bl	mono_aot_System_init_method
	cmp	r10, #0
	bne	.LBB67_2
.Ltmp770:
.LBB67_21:
	ldr	r0, .LCPI67_7
.LPC67_7:
	add	r1, pc, r0
	mov	r0, #225
	bl	p_8_plt__jit_icall_llvm_throw_corlib_exception_abs_trampoline_llvm
.Ltmp771:
.LBB67_22:
	ldr	r0, .LCPI67_2
.LPC67_2:
	add	r1, pc, r0
	mov	r0, #198
	bl	p_8_plt__jit_icall_llvm_throw_corlib_exception_abs_trampoline_llvm
.Ltmp772:
.LBB67_23:
	ldr	r0, .LCPI67_6
.LPC67_6:
	add	r1, pc, r0
	mov	r0, #225
	bl	p_8_plt__jit_icall_llvm_throw_corlib_exception_abs_trampoline_llvm
.Ltmp773:
.LBB67_24:
	ldr	r0, .LCPI67_3
.LPC67_3:
	add	r1, pc, r0
	mov	r0, #198
	bl	p_8_plt__jit_icall_llvm_throw_corlib_exception_abs_trampoline_llvm
.Ltmp774:
.LBB67_25:
	ldr	r0, .LCPI67_4
.LPC67_4:
	add	r1, pc, r0
	mov	r0, #198
	bl	p_8_plt__jit_icall_llvm_throw_corlib_exception_abs_trampoline_llvm
.Ltmp775:
.LBB67_26:
	ldr	r0, .LCPI67_0
.LPC67_0:
	add	r1, pc, r0
	mov	r0, #198
	bl	p_8_plt__jit_icall_llvm_throw_corlib_exception_abs_trampoline_llvm
.Ltmp776:
.LBB67_27:
	ldr	r0, .LCPI67_1
.LPC67_1:
	add	r1, pc, r0
	mov	r0, #198
	bl	p_8_plt__jit_icall_llvm_throw_corlib_exception_abs_trampoline_llvm
.Ltmp777:
.LBB67_28:
	ldr	r0, .LCPI67_5
.LPC67_5:
	add	r1, pc, r0
	mov	r0, #198
	bl	p_8_plt__jit_icall_llvm_throw_corlib_exception_abs_trampoline_llvm
	.p2align	2
.LCPI67_0:
	.long	.Ltmp775-(.LPC67_0+8)
.LCPI67_1:
	.long	.Ltmp776-(.LPC67_1+8)
.LCPI67_2:
	.long	.Ltmp771-(.LPC67_2+8)
.LCPI67_3:
	.long	.Ltmp773-(.LPC67_3+8)
.LCPI67_4:
	.long	.Ltmp774-(.LPC67_4+8)
.LCPI67_5:
	.long	.Ltmp777-(.LPC67_5+8)
.LCPI67_6:
	.long	.Ltmp772-(.LPC67_6+8)
.LCPI67_7:
	.long	.Ltmp770-(.LPC67_7+8)
.LCPI67_8:
	.long	mono_aot_System_llvm_got-(.LPC67_8+8)
.LCPI67_9:
	.long	mono_inited-(.LPC67_9+8)
.LCPI67_10:
	.long	mono_aot_System_llvm_got-(.LPC67_10+8)
.LCPI67_11:
	.long	mono_aot_System_llvm_got-(.LPC67_11+8)
.LCPI67_12:
	.long	mono_aot_System_llvm_got-(.LPC67_12+8)
.Lfunc_end67:
	.size	System_Text_RegularExpressions_RegexCharClass_ParseRecursive_string_int, .Lfunc_end67-System_Text_RegularExpressions_RegexCharClass_ParseRecursive_string_int
.Lexception61:
	.fnend

	.hidden	System_Text_RegularExpressions_RegexCharClass_ToStringClass
	.globl	System_Text_RegularExpressions_RegexCharClass_ToStringClass
	.p2align	2
	.type	System_Text_RegularExpressions_RegexCharClass_ToStringClass,%function
	.code	32
System_Text_RegularExpressions_RegexCharClass_ToStringClass:
.Lfunc_begin68:
	.fnstart
	.save	{r4, r5, r6, r7, r9, r10, r11, lr}
	push	{r4, r5, r6, r7, r9, r10, r11, lr}
.Ltmp778:
.Ltmp779:
.Ltmp780:
.Ltmp781:
.Ltmp782:
.Ltmp783:
.Ltmp784:
.Ltmp785:
.Ltmp786:
	.pad	#8
	sub	sp, sp, #8
.Ltmp787:
	ldr	r10, .LCPI68_6
	mov	r4, r0
	mov	r1, #0
.LPC68_6:
	add	r10, pc, r10
	str	r1, [sp, #4]
	ldr	r0, [r10, #28]
	ldr	r0, [r0]
	cmp	r0, #0
	blne	mono_aot_System_icall_cold_wrapper_265
	cmp	r4, #0
	beq	.LBB68_17
	ldrb	r0, [r4, #20]
	cmp	r0, #0
	bne	.LBB68_3
	mov	r0, r4
	bl	p_132_plt_System_Text_RegularExpressions_RegexCharClass_Canonicalize_llvm
.LBB68_3:
	ldr	r0, [r4, #8]
	cmp	r0, #0
	beq	.LBB68_18
	ldr	r1, [r4, #12]
	cmp	r1, #0
	beq	.LBB68_19
	ldr	r0, [r0, #16]
	lsl	r6, r0, #1
	ldr	r0, [r1, #16]
	ldr	r1, [r1, #20]
	add	r1, r6, r1
	add	r0, r1, r0
	add	r0, r0, #3
	bl	p_124_plt_System_Text_StringBuilderCache_Acquire_int_llvm
	mov	r5, r0
	cmp	r5, #0
	beq	.LBB68_20
	ldrb	r1, [r4, #21]
	mov	r0, r5
	cmp	r1, #0
	movwne	r1, #1
	bl	p_125_plt_System_Text_StringBuilder_Append_char_llvm
	movw	r0, #65534
	and	r1, r6, r0
	mov	r0, r5
	bl	p_125_plt_System_Text_StringBuilder_Append_char_llvm
	ldr	r0, [r4, #12]
	cmp	r0, #0
	beq	.LBB68_21
	ldr	r1, [r0, #16]
	ldr	r0, [r0, #20]
	add	r0, r1, r0
	uxth	r1, r0
	mov	r0, r5
	bl	p_125_plt_System_Text_StringBuilder_Append_char_llvm
	ldr	r7, [r4, #8]
	cmp	r7, #0
	beq	.LBB68_13
	add	r9, sp, #4
	mov	r6, #0
	movw	r11, #65535
.LBB68_9:
	ldr	r0, [r7, #16]
	cmp	r6, r0
	bge	.LBB68_14
	mov	r0, r7
	mov	r1, r9
	mov	r2, r6
	bl	p_126_plt_System_Collections_Generic_List_1_System_Text_RegularExpressions_RegexCharClass_SingleRange_get_Item_int_llvm
	ldrh	r1, [sp, #4]
	mov	r0, r5
	bl	p_125_plt_System_Text_StringBuilder_Append_char_llvm
	ldrh	r0, [sp, #6]
	cmp	r0, r11
	beq	.LBB68_12
	add	r0, r0, #1
	uxth	r1, r0
	mov	r0, r5
	bl	p_125_plt_System_Text_StringBuilder_Append_char_llvm
.LBB68_12:
	ldr	r0, [r10, #28]
	ldr	r7, [r4, #8]
	ldr	r0, [r0]
	cmp	r0, #0
	blne	mono_aot_System_icall_cold_wrapper_265
	add	r6, r6, #1
	cmp	r7, #0
	bne	.LBB68_9
.Ltmp788:
.LBB68_13:
	ldr	r0, .LCPI68_0
.LPC68_0:
	add	r1, pc, r0
	mov	r0, #225
	bl	p_8_plt__jit_icall_llvm_throw_corlib_exception_abs_trampoline_llvm
.LBB68_14:
	ldr	r0, [r5, #16]
	ldr	r1, [r5, #20]
	add	r0, r1, r0
	movw	r1, #65533
	add	r0, r0, r1
	mov	r1, #1
	uxth	r2, r0
	mov	r0, r5
	bl	p_127_plt_System_Text_StringBuilder_set_Chars_int_char_llvm
	ldr	r1, [r4, #12]
	mov	r0, r5
	bl	p_128_plt_System_Text_StringBuilder_Append_System_Text_StringBuilder_llvm
	ldr	r0, [r4, #16]
	cmp	r0, #0
	beq	.LBB68_16
	bl	System_Text_RegularExpressions_RegexCharClass_ToStringClass
	mov	r1, r0
	mov	r0, r5
	bl	p_131_plt_System_Text_StringBuilder_Append_string_llvm
.LBB68_16:
	mov	r0, r5
	bl	p_129_plt_System_Text_StringBuilderCache_GetStringAndRelease_System_Text_StringBuilder_llvm
	add	sp, sp, #8
	pop	{r4, r5, r6, r7, r9, r10, r11, pc}
.Ltmp789:
.LBB68_17:
	ldr	r0, .LCPI68_5
.LPC68_5:
	add	r1, pc, r0
	mov	r0, #225
	bl	p_8_plt__jit_icall_llvm_throw_corlib_exception_abs_trampoline_llvm
.Ltmp790:
.LBB68_18:
	ldr	r0, .LCPI68_4
.LPC68_4:
	add	r1, pc, r0
	mov	r0, #225
	bl	p_8_plt__jit_icall_llvm_throw_corlib_exception_abs_trampoline_llvm
.Ltmp791:
.LBB68_19:
	ldr	r0, .LCPI68_3
.LPC68_3:
	add	r1, pc, r0
	mov	r0, #225
	bl	p_8_plt__jit_icall_llvm_throw_corlib_exception_abs_trampoline_llvm
.Ltmp792:
.LBB68_20:
	ldr	r0, .LCPI68_2
.LPC68_2:
	add	r1, pc, r0
	mov	r0, #225
	bl	p_8_plt__jit_icall_llvm_throw_corlib_exception_abs_trampoline_llvm
.Ltmp793:
.LBB68_21:
	ldr	r0, .LCPI68_1
.LPC68_1:
	add	r1, pc, r0
	mov	r0, #225
	bl	p_8_plt__jit_icall_llvm_throw_corlib_exception_abs_trampoline_llvm
	.p2align	2
.LCPI68_0:
	.long	.Ltmp788-(.LPC68_0+8)
.LCPI68_1:
	.long	.Ltmp793-(.LPC68_1+8)
.LCPI68_2:
	.long	.Ltmp792-(.LPC68_2+8)
.LCPI68_3:
	.long	.Ltmp791-(.LPC68_3+8)
.LCPI68_4:
	.long	.Ltmp790-(.LPC68_4+8)
.LCPI68_5:
	.long	.Ltmp789-(.LPC68_5+8)
.LCPI68_6:
	.long	mono_aot_System_llvm_got-(.LPC68_6+8)
.Lfunc_end68:
	.size	System_Text_RegularExpressions_RegexCharClass_ToStringClass, .Lfunc_end68-System_Text_RegularExpressions_RegexCharClass_ToStringClass
.Lexception62:
	.fnend

	.hidden	System_Text_RegularExpressions_RegexCharClass__cctor
	.globl	System_Text_RegularExpressions_RegexCharClass__cctor
	.p2align	2
	.type	System_Text_RegularExpressions_RegexCharClass__cctor,%function
	.code	32
System_Text_RegularExpressions_RegexCharClass__cctor:
.Lfunc_begin69:
	.fnstart
	.save	{r4, r5, r6, r7, r9, r10, r11, lr}
	push	{r4, r5, r6, r7, r9, r10, r11, lr}
.Ltmp794:
.Ltmp795:
.Ltmp796:
.Ltmp797:
.Ltmp798:
.Ltmp799:
.Ltmp800:
.Ltmp801:
.Ltmp802:
	.pad	#8
	sub	sp, sp, #8
.Ltmp803:
	ldr	r9, .LCPI69_2
	ldr	r0, .LCPI69_3
.LPC69_0:
	add	r9, pc, r9
.LPC69_1:
	add	r0, pc, r0
	ldr	r1, [r9, #28]
	ldrb	r4, [r0, #1196]
	mov	r0, #0
	str	r0, [sp, #4]
	ldr	r0, [r1]
	cmp	r0, #0
	blne	mono_aot_System_icall_cold_wrapper_265
	cmp	r4, #0
	beq	.LBB69_4
	b	.LBB69_3
	.p2align	2
.LCPI69_2:
	.long	mono_aot_System_llvm_got-(.LPC69_0+8)
	.p2align	2
.LCPI69_3:
	.long	mono_inited-(.LPC69_1+8)
.LBB69_3:
	ldr	r0, [r9, #592]
	dmb	ish
	ldr	r2, [r9, #600]
	ldr	r5, [r9, #588]
	ldr	r3, [r9, #608]
	str	r5, [r0]
	ldr	r1, [r9, #596]
	dmb	ish
	str	r1, [r2]
	ldr	r0, [r9, #604]
	dmb	ish
	ldr	r2, [r9, #616]
	str	r0, [r3]
	ldr	r3, [r9, #624]
	dmb	ish
	ldr	r1, [r9, #612]
	str	r1, [r2]
	ldr	r0, [r9, #620]
	dmb	ish
	ldr	r2, [r9, #632]
	str	r0, [r3]
	ldr	r3, [r9, #640]
	dmb	ish
	ldr	r1, [r9, #628]
	str	r1, [r2]
	ldr	r0, [r9, #636]
	dmb	ish
	ldr	r1, [r9, #572]
	str	r0, [r3]
	ldr	r3, [r9, #652]
	dmb	ish
	ldr	r2, [r9, #644]
	str	r2, [r1]
	ldr	r0, [r9, #648]
	dmb	ish
	ldr	r2, [r9, #660]
	str	r0, [r3]
	ldr	r7, [r9, #668]
	dmb	ish
	ldr	r0, [r9, #672]
	ldr	r1, [r9, #656]
	str	r1, [r2]
	mov	r1, #48
	ldr	r3, [r9, #664]
	dmb	ish
	str	r3, [r7]
	bl	p_1_plt_wrapper_alloc_object_AllocSmall_intptr_intptr_llvm
	mov	r1, #38
	mov	r4, r0
	bl	p_133_plt_System_Collections_Generic_Dictionary_2_string_string__ctor_int_llvm
	ldr	r1, [r9, #676]
	mov	r0, r4
	ldr	r2, [r9, #680]
	bl	p_134_plt_System_Collections_Generic_Dictionary_2_string_string_Add_string_string_llvm
	ldr	r1, [r9, #684]
	mov	r0, r4
	ldr	r2, [r9, #688]
	bl	p_134_plt_System_Collections_Generic_Dictionary_2_string_string_Add_string_string_llvm
	ldr	r1, [r9, #692]
	mov	r0, r4
	ldr	r2, [r9, #696]
	bl	p_134_plt_System_Collections_Generic_Dictionary_2_string_string_Add_string_string_llvm
	ldr	r1, [r9, #700]
	mov	r0, r4
	ldr	r2, [r9, #704]
	bl	p_134_plt_System_Collections_Generic_Dictionary_2_string_string_Add_string_string_llvm
	ldr	r1, [r9, #708]
	mov	r0, r4
	ldr	r2, [r9, #712]
	bl	p_134_plt_System_Collections_Generic_Dictionary_2_string_string_Add_string_string_llvm
	ldr	r1, [r9, #716]
	mov	r0, r4
	ldr	r2, [r9, #720]
	bl	p_134_plt_System_Collections_Generic_Dictionary_2_string_string_Add_string_string_llvm
	ldr	r1, [r9, #724]
	mov	r0, r4
	ldr	r2, [r9, #728]
	bl	p_134_plt_System_Collections_Generic_Dictionary_2_string_string_Add_string_string_llvm
	ldr	r1, [r9, #732]
	mov	r0, r4
	ldr	r2, [r9, #736]
	bl	p_134_plt_System_Collections_Generic_Dictionary_2_string_string_Add_string_string_llvm
	ldr	r1, [r9, #740]
	mov	r0, r4
	ldr	r2, [r9, #744]
	bl	p_134_plt_System_Collections_Generic_Dictionary_2_string_string_Add_string_string_llvm
	ldr	r1, [r9, #748]
	mov	r0, r4
	ldr	r2, [r9, #752]
	bl	p_134_plt_System_Collections_Generic_Dictionary_2_string_string_Add_string_string_llvm
	ldr	r1, [r9, #756]
	mov	r0, r4
	ldr	r2, [r9, #760]
	bl	p_134_plt_System_Collections_Generic_Dictionary_2_string_string_Add_string_string_llvm
	ldr	r1, [r9, #764]
	mov	r0, r4
	ldr	r2, [r9, #768]
	bl	p_134_plt_System_Collections_Generic_Dictionary_2_string_string_Add_string_string_llvm
	ldr	r2, [r9, #772]
	mov	r0, r4
	mov	r1, r5
	bl	p_134_plt_System_Collections_Generic_Dictionary_2_string_string_Add_string_string_llvm
	ldr	r1, [r9, #776]
	mov	r0, r4
	ldr	r2, [r9, #780]
	bl	p_134_plt_System_Collections_Generic_Dictionary_2_string_string_Add_string_string_llvm
	ldr	r1, [r9, #784]
	mov	r0, r4
	ldr	r2, [r9, #788]
	bl	p_134_plt_System_Collections_Generic_Dictionary_2_string_string_Add_string_string_llvm
	ldr	r1, [r9, #792]
	mov	r0, r4
	ldr	r2, [r9, #796]
	bl	p_134_plt_System_Collections_Generic_Dictionary_2_string_string_Add_string_string_llvm
	ldr	r1, [r9, #800]
	mov	r0, r4
	ldr	r2, [r9, #804]
	bl	p_134_plt_System_Collections_Generic_Dictionary_2_string_string_Add_string_string_llvm
	ldr	r1, [r9, #808]
	mov	r0, r4
	ldr	r2, [r9, #812]
	bl	p_134_plt_System_Collections_Generic_Dictionary_2_string_string_Add_string_string_llvm
	ldr	r1, [r9, #816]
	mov	r0, r4
	ldr	r2, [r9, #820]
	bl	p_134_plt_System_Collections_Generic_Dictionary_2_string_string_Add_string_string_llvm
	ldr	r1, [r9, #824]
	mov	r0, r4
	ldr	r2, [r9, #828]
	bl	p_134_plt_System_Collections_Generic_Dictionary_2_string_string_Add_string_string_llvm
	ldr	r1, [r9, #832]
	mov	r0, r4
	ldr	r2, [r9, #836]
	bl	p_134_plt_System_Collections_Generic_Dictionary_2_string_string_Add_string_string_llvm
	ldr	r1, [r9, #840]
	mov	r0, r4
	ldr	r2, [r9, #844]
	bl	p_134_plt_System_Collections_Generic_Dictionary_2_string_string_Add_string_string_llvm
	ldr	r1, [r9, #848]
	mov	r0, r4
	ldr	r2, [r9, #852]
	bl	p_134_plt_System_Collections_Generic_Dictionary_2_string_string_Add_string_string_llvm
	ldr	r1, [r9, #856]
	mov	r0, r4
	ldr	r2, [r9, #860]
	bl	p_134_plt_System_Collections_Generic_Dictionary_2_string_string_Add_string_string_llvm
	ldr	r1, [r9, #864]
	mov	r0, r4
	ldr	r2, [r9, #868]
	bl	p_134_plt_System_Collections_Generic_Dictionary_2_string_string_Add_string_string_llvm
	ldr	r1, [r9, #872]
	mov	r0, r4
	ldr	r2, [r9, #876]
	bl	p_134_plt_System_Collections_Generic_Dictionary_2_string_string_Add_string_string_llvm
	ldr	r1, [r9, #880]
	mov	r0, r4
	ldr	r2, [r9, #884]
	bl	p_134_plt_System_Collections_Generic_Dictionary_2_string_string_Add_string_string_llvm
	ldr	r1, [r9, #888]
	mov	r0, r4
	ldr	r2, [r9, #892]
	bl	p_134_plt_System_Collections_Generic_Dictionary_2_string_string_Add_string_string_llvm
	ldr	r1, [r9, #896]
	mov	r0, r4
	ldr	r2, [r9, #900]
	bl	p_134_plt_System_Collections_Generic_Dictionary_2_string_string_Add_string_string_llvm
	ldr	r1, [r9, #904]
	mov	r0, r4
	ldr	r2, [r9, #908]
	bl	p_134_plt_System_Collections_Generic_Dictionary_2_string_string_Add_string_string_llvm
	ldr	r1, [r9, #912]
	mov	r0, r4
	ldr	r2, [r9, #916]
	bl	p_134_plt_System_Collections_Generic_Dictionary_2_string_string_Add_string_string_llvm
	ldr	r1, [r9, #920]
	mov	r0, r4
	ldr	r2, [r9, #924]
	bl	p_134_plt_System_Collections_Generic_Dictionary_2_string_string_Add_string_string_llvm
	ldr	r1, [r9, #928]
	mov	r0, r4
	ldr	r2, [r9, #932]
	bl	p_134_plt_System_Collections_Generic_Dictionary_2_string_string_Add_string_string_llvm
	ldr	r1, [r9, #936]
	mov	r0, r4
	ldr	r2, [r9, #940]
	bl	p_134_plt_System_Collections_Generic_Dictionary_2_string_string_Add_string_string_llvm
	ldr	r1, [r9, #944]
	mov	r0, r4
	ldr	r2, [r9, #948]
	bl	p_134_plt_System_Collections_Generic_Dictionary_2_string_string_Add_string_string_llvm
	ldr	r1, [r9, #952]
	mov	r0, r4
	ldr	r2, [r9, #956]
	bl	p_134_plt_System_Collections_Generic_Dictionary_2_string_string_Add_string_string_llvm
	ldr	r1, [r9, #960]
	mov	r0, r4
	ldr	r2, [r9, #964]
	bl	p_134_plt_System_Collections_Generic_Dictionary_2_string_string_Add_string_string_llvm
	ldr	r1, [r9, #968]
	mov	r0, r4
	ldr	r2, [r9, #972]
	bl	p_134_plt_System_Collections_Generic_Dictionary_2_string_string_Add_string_string_llvm
	ldr	r1, [r9, #976]
	dmb	ish
	ldr	r0, [r9, #980]
	str	r4, [r1]
	mov	r1, #112
	bl	p_24_plt_wrapper_alloc_object_AllocVector_intptr_intptr_llvm
	ldr	r5, [r9, #984]
	mov	r4, r0
	mov	r1, #2
	mov	r0, r5
	bl	p_24_plt_wrapper_alloc_object_AllocVector_intptr_intptr_llvm
	mov	r6, r0
	ldr	r2, [r9, #988]
	ldr	r0, [r6]
	mov	r1, #0
	ldr	r3, [r0, #136]
	mov	r0, r6
	blx	r3
	ldr	r0, [r6]
	mov	r1, #1
	ldr	r2, [r9, #992]
	mov	r7, #1
	ldr	r3, [r0, #136]
	mov	r0, r6
	blx	r3
	ldr	r0, [r4]
	mov	r1, #0
	mov	r2, r6
	ldr	r3, [r0, #136]
	mov	r0, r4
	blx	r3
	mov	r0, r5
	mov	r1, #2
	bl	p_24_plt_wrapper_alloc_object_AllocVector_intptr_intptr_llvm
	mov	r6, r0
	ldr	r2, [r9, #996]
	ldr	r0, [r6]
	mov	r1, #0
	ldr	r3, [r0, #136]
	mov	r0, r6
	blx	r3
	ldr	r0, [r6]
	mov	r1, #1
	ldr	r2, [r9, #1000]
	ldr	r3, [r0, #136]
	mov	r0, r6
	blx	r3
	ldr	r0, [r4]
	mov	r1, #1
	mov	r2, r6
	ldr	r3, [r0, #136]
	mov	r0, r4
	blx	r3
	mov	r0, r5
	mov	r1, #2
	bl	p_24_plt_wrapper_alloc_object_AllocVector_intptr_intptr_llvm
	mov	r6, r0
	ldr	r2, [r9, #1004]
	ldr	r0, [r6]
	mov	r1, #0
	ldr	r3, [r0, #136]
	mov	r0, r6
	blx	r3
	ldr	r0, [r6]
	mov	r1, #1
	ldr	r2, [r9, #1008]
	ldr	r3, [r0, #136]
	mov	r0, r6
	blx	r3
	ldr	r0, [r4]
	mov	r1, #2
	mov	r2, r6
	ldr	r3, [r0, #136]
	mov	r0, r4
	blx	r3
	mov	r0, r5
	mov	r1, #2
	bl	p_24_plt_wrapper_alloc_object_AllocVector_intptr_intptr_llvm
	mov	r6, r0
	ldr	r2, [r9, #1012]
	ldr	r0, [r6]
	mov	r1, #0
	ldr	r3, [r0, #136]
	mov	r0, r6
	blx	r3
	ldr	r0, [r6]
	mov	r1, #1
	ldr	r2, [r9, #1016]
	ldr	r3, [r0, #136]
	mov	r0, r6
	blx	r3
	ldr	r0, [r4]
	mov	r1, #3
	mov	r2, r6
	ldr	r3, [r0, #136]
	mov	r0, r4
	blx	r3
	mov	r0, r5
	mov	r1, #2
	bl	p_24_plt_wrapper_alloc_object_AllocVector_intptr_intptr_llvm
	mov	r6, r0
	ldr	r2, [r9, #1020]
	ldr	r0, [r6]
	mov	r1, #0
	ldr	r3, [r0, #136]
	mov	r0, r6
	blx	r3
	ldr	r0, [r6]
	mov	r1, #1
	ldr	r2, [r9, #1024]
	ldr	r3, [r0, #136]
	mov	r0, r6
	blx	r3
	ldr	r0, [r4]
	mov	r1, #4
	mov	r2, r6
	ldr	r3, [r0, #136]
	mov	r0, r4
	blx	r3
	mov	r0, r5
	mov	r1, #2
	bl	p_24_plt_wrapper_alloc_object_AllocVector_intptr_intptr_llvm
	mov	r6, r0
	ldr	r2, [r9, #1028]
	ldr	r0, [r6]
	mov	r1, #0
	ldr	r3, [r0, #136]
	mov	r0, r6
	blx	r3
	ldr	r0, [r6]
	mov	r1, #1
	ldr	r2, [r9, #1032]
	ldr	r3, [r0, #136]
	mov	r0, r6
	blx	r3
	ldr	r0, [r4]
	mov	r1, #5
	mov	r2, r6
	ldr	r3, [r0, #136]
	mov	r0, r4
	blx	r3
	mov	r0, r5
	mov	r1, #2
	bl	p_24_plt_wrapper_alloc_object_AllocVector_intptr_intptr_llvm
	mov	r6, r0
	ldr	r2, [r9, #1036]
	ldr	r0, [r6]
	mov	r1, #0
	ldr	r3, [r0, #136]
	mov	r0, r6
	blx	r3
	ldr	r0, [r6]
	mov	r1, #1
	ldr	r2, [r9, #1040]
	ldr	r3, [r0, #136]
	mov	r0, r6
	blx	r3
	ldr	r0, [r4]
	mov	r1, #6
	mov	r2, r6
	ldr	r3, [r0, #136]
	mov	r0, r4
	blx	r3
	mov	r0, r5
	mov	r1, #2
	bl	p_24_plt_wrapper_alloc_object_AllocVector_intptr_intptr_llvm
	mov	r6, r0
	ldr	r2, [r9, #1044]
	ldr	r0, [r6]
	mov	r1, #0
	ldr	r3, [r0, #136]
	mov	r0, r6
	blx	r3
	ldr	r0, [r6]
	mov	r1, #1
	ldr	r2, [r9, #1048]
	ldr	r3, [r0, #136]
	mov	r0, r6
	blx	r3
	ldr	r0, [r4]
	mov	r1, #7
	mov	r2, r6
	ldr	r3, [r0, #136]
	mov	r0, r4
	blx	r3
	mov	r0, r5
	mov	r1, #2
	bl	p_24_plt_wrapper_alloc_object_AllocVector_intptr_intptr_llvm
	mov	r6, r0
	ldr	r2, [r9, #1052]
	ldr	r0, [r6]
	mov	r1, #0
	ldr	r3, [r0, #136]
	mov	r0, r6
	blx	r3
	ldr	r0, [r6]
	mov	r1, #1
	ldr	r2, [r9, #1056]
	ldr	r3, [r0, #136]
	mov	r0, r6
	blx	r3
	ldr	r0, [r4]
	mov	r1, #8
	mov	r2, r6
	ldr	r3, [r0, #136]
	mov	r0, r4
	blx	r3
	mov	r0, r5
	mov	r1, #2
	bl	p_24_plt_wrapper_alloc_object_AllocVector_intptr_intptr_llvm
	mov	r6, r0
	ldr	r2, [r9, #1060]
	ldr	r0, [r6]
	mov	r1, #0
	ldr	r3, [r0, #136]
	mov	r0, r6
	blx	r3
	ldr	r0, [r6]
	mov	r1, #1
	ldr	r2, [r9, #1064]
	ldr	r3, [r0, #136]
	mov	r0, r6
	blx	r3
	ldr	r0, [r4]
	mov	r1, #9
	mov	r2, r6
	ldr	r3, [r0, #136]
	mov	r0, r4
	blx	r3
	mov	r0, r5
	mov	r1, #2
	bl	p_24_plt_wrapper_alloc_object_AllocVector_intptr_intptr_llvm
	mov	r6, r0
	ldr	r2, [r9, #1068]
	ldr	r0, [r6]
	mov	r1, #0
	ldr	r3, [r0, #136]
	mov	r0, r6
	blx	r3
	ldr	r0, [r6]
	mov	r1, #1
	ldr	r2, [r9, #1072]
	ldr	r3, [r0, #136]
	mov	r0, r6
	blx	r3
	ldr	r0, [r4]
	mov	r1, #10
	mov	r2, r6
	ldr	r3, [r0, #136]
	mov	r0, r4
	blx	r3
	mov	r0, r5
	mov	r1, #2
	bl	p_24_plt_wrapper_alloc_object_AllocVector_intptr_intptr_llvm
	mov	r6, r0
	ldr	r2, [r9, #1076]
	ldr	r0, [r6]
	mov	r1, #0
	ldr	r3, [r0, #136]
	mov	r0, r6
	blx	r3
	ldr	r0, [r6]
	mov	r1, #1
	ldr	r2, [r9, #1080]
	ldr	r3, [r0, #136]
	mov	r0, r6
	blx	r3
	ldr	r0, [r4]
	mov	r1, #11
	mov	r2, r6
	ldr	r3, [r0, #136]
	mov	r0, r4
	blx	r3
	mov	r0, r5
	mov	r1, #2
	bl	p_24_plt_wrapper_alloc_object_AllocVector_intptr_intptr_llvm
	mov	r6, r0
	ldr	r2, [r9, #1084]
	ldr	r0, [r6]
	mov	r1, #0
	ldr	r3, [r0, #136]
	mov	r0, r6
	blx	r3
	ldr	r0, [r6]
	mov	r1, #1
	ldr	r2, [r9, #1088]
	ldr	r3, [r0, #136]
	mov	r0, r6
	blx	r3
	ldr	r0, [r4]
	mov	r1, #12
	mov	r2, r6
	ldr	r3, [r0, #136]
	mov	r0, r4
	blx	r3
	ldr	r0, [sp, #4]
	mov	r1, #2
	cmp	r0, #0
	mov	r0, r5
	strne	r7, [sp, #4]
	bl	p_24_plt_wrapper_alloc_object_AllocVector_intptr_intptr_llvm
	mov	r6, r0
	ldr	r2, [r9, #1092]
	ldr	r0, [r6]
	mov	r1, #0
	ldr	r3, [r0, #136]
	mov	r0, r6
	blx	r3
	ldr	r0, [r6]
	mov	r1, #1
	ldr	r2, [r9, #1096]
	mov	r10, #1
	ldr	r3, [r0, #136]
	mov	r0, r6
	blx	r3
	ldr	r0, [r4]
	mov	r1, #13
	mov	r2, r6
	ldr	r3, [r0, #136]
	mov	r0, r4
	blx	r3
	mov	r0, r5
	mov	r1, #2
	bl	p_24_plt_wrapper_alloc_object_AllocVector_intptr_intptr_llvm
	mov	r6, r0
	ldr	r2, [r9, #1100]
	ldr	r0, [r6]
	mov	r1, #0
	ldr	r3, [r0, #136]
	mov	r0, r6
	blx	r3
	ldr	r0, [r6]
	mov	r1, #1
	ldr	r2, [r9, #1104]
	ldr	r3, [r0, #136]
	mov	r0, r6
	blx	r3
	ldr	r0, [r4]
	mov	r1, #14
	mov	r2, r6
	ldr	r3, [r0, #136]
	mov	r0, r4
	blx	r3
	mov	r0, r5
	mov	r1, #2
	bl	p_24_plt_wrapper_alloc_object_AllocVector_intptr_intptr_llvm
	mov	r6, r0
	ldr	r2, [r9, #1108]
	ldr	r0, [r6]
	mov	r1, #0
	ldr	r3, [r0, #136]
	mov	r0, r6
	blx	r3
	ldr	r0, [r6]
	mov	r1, #1
	ldr	r2, [r9, #1112]
	ldr	r3, [r0, #136]
	mov	r0, r6
	blx	r3
	ldr	r0, [r4]
	mov	r1, #15
	mov	r2, r6
	ldr	r3, [r0, #136]
	mov	r0, r4
	blx	r3
	mov	r0, r5
	mov	r1, #2
	bl	p_24_plt_wrapper_alloc_object_AllocVector_intptr_intptr_llvm
	mov	r6, r0
	ldr	r2, [r9, #1116]
	ldr	r0, [r6]
	mov	r1, #0
	ldr	r3, [r0, #136]
	mov	r0, r6
	blx	r3
	ldr	r0, [r6]
	mov	r1, #1
	ldr	r2, [r9, #1120]
	ldr	r3, [r0, #136]
	mov	r0, r6
	blx	r3
	ldr	r0, [r4]
	mov	r1, #16
	mov	r2, r6
	ldr	r3, [r0, #136]
	mov	r0, r4
	blx	r3
	mov	r0, r5
	mov	r1, #2
	bl	p_24_plt_wrapper_alloc_object_AllocVector_intptr_intptr_llvm
	mov	r6, r0
	ldr	r2, [r9, #1124]
	ldr	r0, [r6]
	mov	r1, #0
	ldr	r3, [r0, #136]
	mov	r0, r6
	blx	r3
	ldr	r0, [r6]
	mov	r1, #1
	ldr	r2, [r9, #1128]
	ldr	r3, [r0, #136]
	mov	r0, r6
	blx	r3
	ldr	r0, [r4]
	mov	r1, #17
	mov	r2, r6
	ldr	r3, [r0, #136]
	mov	r0, r4
	blx	r3
	mov	r0, r5
	mov	r1, #2
	bl	p_24_plt_wrapper_alloc_object_AllocVector_intptr_intptr_llvm
	mov	r6, r0
	ldr	r2, [r9, #1132]
	ldr	r0, [r6]
	mov	r1, #0
	ldr	r3, [r0, #136]
	mov	r0, r6
	blx	r3
	ldr	r0, [r6]
	mov	r1, #1
	ldr	r2, [r9, #1136]
	ldr	r3, [r0, #136]
	mov	r0, r6
	blx	r3
	ldr	r0, [r4]
	mov	r1, #18
	mov	r2, r6
	ldr	r3, [r0, #136]
	mov	r0, r4
	blx	r3
	mov	r0, r5
	mov	r1, #2
	bl	p_24_plt_wrapper_alloc_object_AllocVector_intptr_intptr_llvm
	mov	r6, r0
	ldr	r2, [r9, #1140]
	ldr	r0, [r6]
	mov	r1, #0
	ldr	r3, [r0, #136]
	mov	r0, r6
	blx	r3
	ldr	r0, [r6]
	mov	r1, #1
	ldr	r2, [r9, #1144]
	ldr	r3, [r0, #136]
	mov	r0, r6
	blx	r3
	ldr	r0, [r4]
	mov	r1, #19
	mov	r2, r6
	ldr	r3, [r0, #136]
	mov	r0, r4
	blx	r3
	mov	r0, r5
	mov	r1, #2
	bl	p_24_plt_wrapper_alloc_object_AllocVector_intptr_intptr_llvm
	mov	r6, r0
	ldr	r2, [r9, #1148]
	ldr	r0, [r6]
	mov	r1, #0
	ldr	r3, [r0, #136]
	mov	r0, r6
	blx	r3
	ldr	r0, [r6]
	mov	r1, #1
	ldr	r2, [r9, #1152]
	ldr	r3, [r0, #136]
	mov	r0, r6
	blx	r3
	ldr	r0, [r4]
	mov	r1, #20
	mov	r2, r6
	ldr	r3, [r0, #136]
	mov	r0, r4
	blx	r3
	mov	r0, r5
	mov	r1, #2
	bl	p_24_plt_wrapper_alloc_object_AllocVector_intptr_intptr_llvm
	mov	r6, r0
	ldr	r2, [r9, #1156]
	ldr	r0, [r6]
	mov	r1, #0
	ldr	r3, [r0, #136]
	mov	r0, r6
	blx	r3
	ldr	r0, [r6]
	mov	r1, #1
	ldr	r2, [r9, #1160]
	ldr	r3, [r0, #136]
	mov	r0, r6
	blx	r3
	ldr	r0, [r4]
	mov	r1, #21
	mov	r2, r6
	ldr	r3, [r0, #136]
	mov	r0, r4
	blx	r3
	mov	r0, r5
	mov	r1, #2
	bl	p_24_plt_wrapper_alloc_object_AllocVector_intptr_intptr_llvm
	mov	r6, r0
	ldr	r2, [r9, #1164]
	ldr	r0, [r6]
	mov	r1, #0
	ldr	r3, [r0, #136]
	mov	r0, r6
	blx	r3
	ldr	r0, [r6]
	mov	r1, #1
	ldr	r2, [r9, #1168]
	ldr	r3, [r0, #136]
	mov	r0, r6
	blx	r3
	ldr	r0, [r4]
	mov	r1, #22
	mov	r2, r6
	ldr	r3, [r0, #136]
	mov	r0, r4
	blx	r3
	mov	r0, r5
	mov	r1, #2
	bl	p_24_plt_wrapper_alloc_object_AllocVector_intptr_intptr_llvm
	mov	r7, r0
	ldr	r2, [r9, #1172]
	ldr	r0, [r7]
	mov	r1, #0
	ldr	r3, [r0, #136]
	mov	r0, r7
	blx	r3
	ldr	r0, [r7]
	mov	r1, #1
	ldr	r6, [r9, #1176]
	ldr	r3, [r0, #136]
	mov	r0, r7
	mov	r2, r6
	blx	r3
	ldr	r0, [r4]
	mov	r1, #23
	mov	r2, r7
	ldr	r3, [r0, #136]
	mov	r0, r4
	blx	r3
	mov	r0, r5
	mov	r1, #2
	bl	p_24_plt_wrapper_alloc_object_AllocVector_intptr_intptr_llvm
	mov	r7, r0
	ldr	r2, [r9, #1180]
	ldr	r0, [r7]
	mov	r1, #0
	ldr	r3, [r0, #136]
	mov	r0, r7
	blx	r3
	ldr	r0, [r7]
	mov	r1, #1
	ldr	r2, [r9, #1184]
	ldr	r3, [r0, #136]
	mov	r0, r7
	blx	r3
	ldr	r0, [r4]
	mov	r1, #24
	mov	r2, r7
	ldr	r3, [r0, #136]
	mov	r0, r4
	blx	r3
	mov	r0, r5
	mov	r1, #2
	bl	p_24_plt_wrapper_alloc_object_AllocVector_intptr_intptr_llvm
	mov	r7, r0
	ldr	r2, [r9, #1188]
	ldr	r0, [r7]
	mov	r1, #0
	ldr	r3, [r0, #136]
	mov	r0, r7
	blx	r3
	ldr	r0, [r7]
	mov	r1, #1
	mov	r2, r6
	ldr	r3, [r0, #136]
	mov	r0, r7
	blx	r3
	ldr	r0, [r4]
	mov	r1, #25
	mov	r2, r7
	ldr	r3, [r0, #136]
	mov	r0, r4
	blx	r3
	mov	r0, r5
	mov	r1, #2
	bl	p_24_plt_wrapper_alloc_object_AllocVector_intptr_intptr_llvm
	mov	r6, r0
	ldr	r2, [r9, #1192]
	ldr	r0, [r6]
	mov	r1, #0
	ldr	r3, [r0, #136]
	mov	r0, r6
	blx	r3
	ldr	r0, [r6]
	mov	r1, #1
	ldr	r2, [r9, #1196]
	ldr	r3, [r0, #136]
	mov	r0, r6
	blx	r3
	ldr	r0, [r4]
	mov	r1, #26
	mov	r2, r6
	ldr	r3, [r0, #136]
	mov	r0, r4
	blx	r3
	mov	r0, r5
	mov	r1, #2
	bl	p_24_plt_wrapper_alloc_object_AllocVector_intptr_intptr_llvm
	mov	r6, r0
	ldr	r2, [r9, #1200]
	ldr	r0, [r6]
	mov	r1, #0
	ldr	r3, [r0, #136]
	mov	r0, r6
	blx	r3
	ldr	r0, [r6]
	mov	r1, #1
	ldr	r2, [r9, #1204]
	ldr	r3, [r0, #136]
	mov	r0, r6
	blx	r3
	ldr	r0, [r4]
	mov	r1, #27
	mov	r2, r6
	ldr	r3, [r0, #136]
	mov	r0, r4
	blx	r3
	mov	r0, r5
	mov	r1, #2
	bl	p_24_plt_wrapper_alloc_object_AllocVector_intptr_intptr_llvm
	mov	r6, r0
	ldr	r2, [r9, #1208]
	ldr	r0, [r6]
	mov	r1, #0
	ldr	r3, [r0, #136]
	mov	r0, r6
	blx	r3
	ldr	r0, [r6]
	mov	r1, #1
	ldr	r2, [r9, #1212]
	ldr	r3, [r0, #136]
	mov	r0, r6
	blx	r3
	ldr	r0, [r4]
	mov	r1, #28
	mov	r2, r6
	ldr	r3, [r0, #136]
	mov	r0, r4
	blx	r3
	mov	r0, r5
	mov	r1, #2
	bl	p_24_plt_wrapper_alloc_object_AllocVector_intptr_intptr_llvm
	mov	r6, r0
	ldr	r2, [r9, #1216]
	ldr	r0, [r6]
	mov	r1, #0
	ldr	r3, [r0, #136]
	mov	r0, r6
	blx	r3
	ldr	r0, [r6]
	mov	r1, #1
	ldr	r2, [r9, #1220]
	ldr	r3, [r0, #136]
	mov	r0, r6
	blx	r3
	ldr	r0, [r4]
	mov	r1, #29
	mov	r2, r6
	ldr	r3, [r0, #136]
	mov	r0, r4
	blx	r3
	mov	r0, r5
	mov	r1, #2
	bl	p_24_plt_wrapper_alloc_object_AllocVector_intptr_intptr_llvm
	mov	r6, r0
	ldr	r2, [r9, #1224]
	ldr	r0, [r6]
	mov	r1, #0
	ldr	r3, [r0, #136]
	mov	r0, r6
	blx	r3
	ldr	r0, [r6]
	mov	r1, #1
	ldr	r2, [r9, #1228]
	ldr	r3, [r0, #136]
	mov	r0, r6
	blx	r3
	ldr	r0, [r4]
	mov	r1, #30
	mov	r2, r6
	ldr	r3, [r0, #136]
	mov	r0, r4
	blx	r3
	mov	r0, r5
	mov	r1, #2
	bl	p_24_plt_wrapper_alloc_object_AllocVector_intptr_intptr_llvm
	mov	r6, r0
	ldr	r2, [r9, #1232]
	ldr	r0, [r6]
	mov	r1, #0
	ldr	r3, [r0, #136]
	mov	r0, r6
	blx	r3
	ldr	r0, [r6]
	mov	r1, #1
	ldr	r2, [r9, #1236]
	ldr	r3, [r0, #136]
	mov	r0, r6
	blx	r3
	ldr	r0, [r4]
	mov	r1, #31
	mov	r2, r6
	ldr	r3, [r0, #136]
	mov	r0, r4
	blx	r3
	mov	r0, r5
	mov	r1, #2
	bl	p_24_plt_wrapper_alloc_object_AllocVector_intptr_intptr_llvm
	mov	r6, r0
	ldr	r2, [r9, #1240]
	ldr	r0, [r6]
	mov	r1, #0
	ldr	r3, [r0, #136]
	mov	r0, r6
	blx	r3
	ldr	r0, [r6]
	mov	r1, #1
	ldr	r2, [r9, #1244]
	ldr	r3, [r0, #136]
	mov	r0, r6
	blx	r3
	ldr	r0, [r4]
	mov	r1, #32
	mov	r2, r6
	ldr	r3, [r0, #136]
	mov	r0, r4
	blx	r3
	mov	r0, r5
	mov	r1, #2
	bl	p_24_plt_wrapper_alloc_object_AllocVector_intptr_intptr_llvm
	mov	r6, r0
	ldr	r2, [r9, #1248]
	ldr	r0, [r6]
	mov	r1, #0
	ldr	r3, [r0, #136]
	mov	r0, r6
	blx	r3
	ldr	r0, [r6]
	mov	r1, #1
	ldr	r2, [r9, #1252]
	ldr	r3, [r0, #136]
	mov	r0, r6
	blx	r3
	ldr	r0, [r4]
	mov	r1, #33
	mov	r2, r6
	ldr	r3, [r0, #136]
	mov	r0, r4
	blx	r3
	mov	r0, r5
	mov	r1, #2
	bl	p_24_plt_wrapper_alloc_object_AllocVector_intptr_intptr_llvm
	mov	r6, r0
	ldr	r2, [r9, #1256]
	ldr	r0, [r6]
	mov	r1, #0
	ldr	r3, [r0, #136]
	mov	r0, r6
	blx	r3
	ldr	r0, [r6]
	mov	r1, #1
	ldr	r2, [r9, #1260]
	ldr	r3, [r0, #136]
	mov	r0, r6
	blx	r3
	ldr	r0, [r4]
	mov	r1, #34
	mov	r2, r6
	ldr	r3, [r0, #136]
	mov	r0, r4
	blx	r3
	mov	r0, r5
	mov	r1, #2
	bl	p_24_plt_wrapper_alloc_object_AllocVector_intptr_intptr_llvm
	mov	r6, r0
	ldr	r2, [r9, #1264]
	ldr	r0, [r6]
	mov	r1, #0
	ldr	r3, [r0, #136]
	mov	r0, r6
	blx	r3
	ldr	r0, [r6]
	mov	r1, #1
	ldr	r2, [r9, #1268]
	ldr	r3, [r0, #136]
	mov	r0, r6
	blx	r3
	ldr	r0, [r4]
	mov	r1, #35
	mov	r2, r6
	ldr	r3, [r0, #136]
	mov	r0, r4
	blx	r3
	mov	r0, r5
	mov	r1, #2
	bl	p_24_plt_wrapper_alloc_object_AllocVector_intptr_intptr_llvm
	mov	r6, r0
	ldr	r2, [r9, #1272]
	ldr	r0, [r6]
	mov	r1, #0
	ldr	r3, [r0, #136]
	mov	r0, r6
	blx	r3
	ldr	r0, [r6]
	mov	r1, #1
	ldr	r2, [r9, #1276]
	ldr	r3, [r0, #136]
	mov	r0, r6
	blx	r3
	ldr	r0, [r4]
	mov	r1, #36
	mov	r2, r6
	ldr	r3, [r0, #136]
	mov	r0, r4
	blx	r3
	mov	r0, r5
	mov	r1, #2
	bl	p_24_plt_wrapper_alloc_object_AllocVector_intptr_intptr_llvm
	mov	r6, r0
	ldr	r2, [r9, #1280]
	ldr	r0, [r6]
	mov	r1, #0
	ldr	r3, [r0, #136]
	mov	r0, r6
	blx	r3
	ldr	r0, [r6]
	mov	r1, #1
	ldr	r2, [r9, #1284]
	ldr	r3, [r0, #136]
	mov	r0, r6
	blx	r3
	ldr	r0, [r4]
	mov	r1, #37
	mov	r2, r6
	ldr	r3, [r0, #136]
	mov	r0, r4
	blx	r3
	mov	r0, r5
	mov	r1, #2
	bl	p_24_plt_wrapper_alloc_object_AllocVector_intptr_intptr_llvm
	mov	r7, r0
	ldr	r2, [r9, #1288]
	ldr	r0, [r7]
	mov	r1, #0
	ldr	r3, [r0, #136]
	mov	r0, r7
	blx	r3
	ldr	r0, [r7]
	mov	r1, #1
	ldr	r6, [r9, #1292]
	ldr	r3, [r0, #136]
	mov	r0, r7
	mov	r2, r6
	blx	r3
	ldr	r0, [r4]
	mov	r1, #38
	mov	r2, r7
	ldr	r3, [r0, #136]
	mov	r0, r4
	blx	r3
	mov	r0, r5
	mov	r1, #2
	bl	p_24_plt_wrapper_alloc_object_AllocVector_intptr_intptr_llvm
	mov	r7, r0
	ldr	r2, [r9, #1296]
	ldr	r0, [r7]
	mov	r1, #0
	ldr	r3, [r0, #136]
	mov	r0, r7
	blx	r3
	ldr	r0, [r7]
	mov	r1, #1
	ldr	r2, [r9, #1300]
	ldr	r3, [r0, #136]
	mov	r0, r7
	blx	r3
	ldr	r0, [r4]
	mov	r1, #39
	mov	r2, r7
	ldr	r3, [r0, #136]
	mov	r0, r4
	blx	r3
	mov	r0, r5
	mov	r1, #2
	bl	p_24_plt_wrapper_alloc_object_AllocVector_intptr_intptr_llvm
	mov	r7, r0
	ldr	r2, [r9, #1304]
	ldr	r0, [r7]
	mov	r1, #0
	ldr	r3, [r0, #136]
	mov	r0, r7
	blx	r3
	ldr	r0, [r7]
	mov	r1, #1
	mov	r2, r6
	ldr	r3, [r0, #136]
	mov	r0, r7
	blx	r3
	ldr	r0, [sp, #4]
	mov	r1, #40
	mov	r2, r7
	cmp	r0, #0
	strne	r10, [sp, #4]
	ldr	r0, [r4]
	ldr	r3, [r0, #136]
	mov	r0, r4
	blx	r3
	mov	r0, r5
	mov	r1, #2
	bl	p_24_plt_wrapper_alloc_object_AllocVector_intptr_intptr_llvm
	mov	r6, r0
	ldr	r2, [r9, #1308]
	ldr	r0, [r6]
	mov	r1, #0
	ldr	r3, [r0, #136]
	mov	r0, r6
	blx	r3
	ldr	r0, [r6]
	mov	r1, #1
	ldr	r2, [r9, #1312]
	mov	r7, #1
	ldr	r3, [r0, #136]
	mov	r0, r6
	blx	r3
	ldr	r0, [r4]
	mov	r1, #41
	mov	r2, r6
	ldr	r3, [r0, #136]
	mov	r0, r4
	blx	r3
	mov	r0, r5
	mov	r1, #2
	bl	p_24_plt_wrapper_alloc_object_AllocVector_intptr_intptr_llvm
	mov	r6, r0
	ldr	r2, [r9, #1316]
	ldr	r0, [r6]
	mov	r1, #0
	ldr	r3, [r0, #136]
	mov	r0, r6
	blx	r3
	ldr	r0, [r6]
	mov	r1, #1
	ldr	r2, [r9, #1320]
	ldr	r3, [r0, #136]
	mov	r0, r6
	blx	r3
	ldr	r0, [r4]
	mov	r1, #42
	mov	r2, r6
	ldr	r3, [r0, #136]
	mov	r0, r4
	blx	r3
	mov	r0, r5
	mov	r1, #2
	bl	p_24_plt_wrapper_alloc_object_AllocVector_intptr_intptr_llvm
	mov	r6, r0
	ldr	r2, [r9, #1324]
	ldr	r0, [r6]
	mov	r1, #0
	ldr	r3, [r0, #136]
	mov	r0, r6
	blx	r3
	ldr	r0, [r6]
	mov	r1, #1
	ldr	r2, [r9, #1328]
	ldr	r3, [r0, #136]
	mov	r0, r6
	blx	r3
	ldr	r0, [r4]
	mov	r1, #43
	mov	r2, r6
	ldr	r3, [r0, #136]
	mov	r0, r4
	blx	r3
	mov	r0, r5
	mov	r1, #2
	bl	p_24_plt_wrapper_alloc_object_AllocVector_intptr_intptr_llvm
	mov	r6, r0
	ldr	r2, [r9, #1332]
	ldr	r0, [r6]
	mov	r1, #0
	ldr	r3, [r0, #136]
	mov	r0, r6
	blx	r3
	ldr	r0, [r6]
	mov	r1, #1
	ldr	r2, [r9, #1336]
	ldr	r3, [r0, #136]
	mov	r0, r6
	blx	r3
	ldr	r0, [r4]
	mov	r1, #44
	mov	r2, r6
	ldr	r3, [r0, #136]
	mov	r0, r4
	blx	r3
	mov	r0, r5
	mov	r1, #2
	bl	p_24_plt_wrapper_alloc_object_AllocVector_intptr_intptr_llvm
	mov	r6, r0
	ldr	r2, [r9, #1340]
	ldr	r0, [r6]
	mov	r1, #0
	ldr	r3, [r0, #136]
	mov	r0, r6
	blx	r3
	ldr	r0, [r6]
	mov	r1, #1
	ldr	r2, [r9, #1344]
	ldr	r3, [r0, #136]
	mov	r0, r6
	blx	r3
	ldr	r0, [r4]
	mov	r1, #45
	mov	r2, r6
	ldr	r3, [r0, #136]
	mov	r0, r4
	blx	r3
	mov	r0, r5
	mov	r1, #2
	bl	p_24_plt_wrapper_alloc_object_AllocVector_intptr_intptr_llvm
	mov	r6, r0
	ldr	r2, [r9, #1348]
	ldr	r0, [r6]
	mov	r1, #0
	ldr	r3, [r0, #136]
	mov	r0, r6
	blx	r3
	ldr	r0, [r6]
	mov	r1, #1
	ldr	r2, [r9, #1352]
	ldr	r3, [r0, #136]
	mov	r0, r6
	blx	r3
	ldr	r0, [r4]
	mov	r1, #46
	mov	r2, r6
	ldr	r3, [r0, #136]
	mov	r0, r4
	blx	r3
	mov	r0, r5
	mov	r1, #2
	bl	p_24_plt_wrapper_alloc_object_AllocVector_intptr_intptr_llvm
	mov	r6, r0
	ldr	r2, [r9, #1356]
	ldr	r0, [r6]
	mov	r1, #0
	ldr	r3, [r0, #136]
	mov	r0, r6
	blx	r3
	ldr	r0, [r6]
	mov	r1, #1
	ldr	r2, [r9, #1360]
	ldr	r3, [r0, #136]
	mov	r0, r6
	blx	r3
	ldr	r0, [r4]
	mov	r1, #47
	mov	r2, r6
	ldr	r3, [r0, #136]
	mov	r0, r4
	blx	r3
	mov	r0, r5
	mov	r1, #2
	bl	p_24_plt_wrapper_alloc_object_AllocVector_intptr_intptr_llvm
	mov	r6, r0
	ldr	r2, [r9, #1364]
	ldr	r0, [r6]
	mov	r1, #0
	ldr	r3, [r0, #136]
	mov	r0, r6
	blx	r3
	ldr	r0, [r6]
	mov	r1, #1
	ldr	r2, [r9, #1368]
	ldr	r3, [r0, #136]
	mov	r0, r6
	blx	r3
	ldr	r0, [r4]
	mov	r1, #48
	mov	r2, r6
	ldr	r3, [r0, #136]
	mov	r0, r4
	blx	r3
	mov	r0, r5
	mov	r1, #2
	bl	p_24_plt_wrapper_alloc_object_AllocVector_intptr_intptr_llvm
	mov	r6, r0
	ldr	r2, [r9, #1372]
	ldr	r0, [r6]
	mov	r1, #0
	ldr	r3, [r0, #136]
	mov	r0, r6
	blx	r3
	ldr	r0, [r6]
	mov	r1, #1
	ldr	r2, [r9, #1376]
	ldr	r3, [r0, #136]
	mov	r0, r6
	blx	r3
	ldr	r0, [r4]
	mov	r1, #49
	mov	r2, r6
	ldr	r3, [r0, #136]
	mov	r0, r4
	blx	r3
	mov	r0, r5
	mov	r1, #2
	bl	p_24_plt_wrapper_alloc_object_AllocVector_intptr_intptr_llvm
	mov	r6, r0
	ldr	r2, [r9, #1380]
	ldr	r0, [r6]
	mov	r1, #0
	ldr	r3, [r0, #136]
	mov	r0, r6
	blx	r3
	ldr	r0, [r6]
	mov	r1, #1
	ldr	r2, [r9, #1384]
	ldr	r3, [r0, #136]
	mov	r0, r6
	blx	r3
	ldr	r0, [r4]
	mov	r1, #50
	mov	r2, r6
	ldr	r3, [r0, #136]
	mov	r0, r4
	blx	r3
	mov	r0, r5
	mov	r1, #2
	bl	p_24_plt_wrapper_alloc_object_AllocVector_intptr_intptr_llvm
	mov	r6, r0
	ldr	r2, [r9, #1388]
	ldr	r0, [r6]
	mov	r1, #0
	ldr	r3, [r0, #136]
	mov	r0, r6
	blx	r3
	ldr	r0, [r6]
	mov	r1, #1
	ldr	r2, [r9, #1392]
	ldr	r3, [r0, #136]
	mov	r0, r6
	blx	r3
	ldr	r0, [r4]
	mov	r1, #51
	mov	r2, r6
	ldr	r3, [r0, #136]
	mov	r0, r4
	blx	r3
	mov	r0, r5
	mov	r1, #2
	bl	p_24_plt_wrapper_alloc_object_AllocVector_intptr_intptr_llvm
	mov	r6, r0
	ldr	r2, [r9, #1396]
	ldr	r0, [r6]
	mov	r1, #0
	ldr	r3, [r0, #136]
	mov	r0, r6
	blx	r3
	ldr	r0, [r6]
	mov	r1, #1
	ldr	r2, [r9, #1400]
	ldr	r3, [r0, #136]
	mov	r0, r6
	blx	r3
	ldr	r0, [r4]
	mov	r1, #52
	mov	r2, r6
	ldr	r3, [r0, #136]
	mov	r0, r4
	blx	r3
	mov	r0, r5
	mov	r1, #2
	bl	p_24_plt_wrapper_alloc_object_AllocVector_intptr_intptr_llvm
	mov	r6, r0
	ldr	r2, [r9, #1404]
	ldr	r0, [r6]
	mov	r1, #0
	ldr	r3, [r0, #136]
	mov	r0, r6
	blx	r3
	ldr	r0, [r6]
	mov	r1, #1
	ldr	r2, [r9, #1408]
	ldr	r3, [r0, #136]
	mov	r0, r6
	blx	r3
	ldr	r0, [r4]
	mov	r1, #53
	mov	r2, r6
	ldr	r3, [r0, #136]
	mov	r0, r4
	blx	r3
	mov	r0, r5
	mov	r1, #2
	bl	p_24_plt_wrapper_alloc_object_AllocVector_intptr_intptr_llvm
	mov	r6, r0
	ldr	r2, [r9, #1412]
	ldr	r0, [r6]
	mov	r1, #0
	ldr	r3, [r0, #136]
	mov	r0, r6
	blx	r3
	ldr	r0, [r6]
	mov	r1, #1
	ldr	r2, [r9, #1416]
	ldr	r3, [r0, #136]
	mov	r0, r6
	blx	r3
	ldr	r0, [r4]
	mov	r1, #54
	mov	r2, r6
	ldr	r3, [r0, #136]
	mov	r0, r4
	blx	r3
	mov	r0, r5
	mov	r1, #2
	bl	p_24_plt_wrapper_alloc_object_AllocVector_intptr_intptr_llvm
	mov	r6, r0
	ldr	r2, [r9, #1420]
	ldr	r0, [r6]
	mov	r1, #0
	ldr	r3, [r0, #136]
	mov	r0, r6
	blx	r3
	ldr	r0, [r6]
	mov	r1, #1
	ldr	r2, [r9, #1424]
	ldr	r3, [r0, #136]
	mov	r0, r6
	blx	r3
	ldr	r0, [r4]
	mov	r1, #55
	mov	r2, r6
	ldr	r3, [r0, #136]
	mov	r0, r4
	blx	r3
	mov	r0, r5
	mov	r1, #2
	bl	p_24_plt_wrapper_alloc_object_AllocVector_intptr_intptr_llvm
	mov	r6, r0
	ldr	r2, [r9, #1428]
	ldr	r0, [r6]
	mov	r1, #0
	ldr	r3, [r0, #136]
	mov	r0, r6
	blx	r3
	ldr	r0, [r6]
	mov	r1, #1
	ldr	r2, [r9, #1432]
	ldr	r3, [r0, #136]
	mov	r0, r6
	blx	r3
	ldr	r0, [r4]
	mov	r1, #56
	mov	r2, r6
	ldr	r3, [r0, #136]
	mov	r0, r4
	blx	r3
	mov	r0, r5
	mov	r1, #2
	bl	p_24_plt_wrapper_alloc_object_AllocVector_intptr_intptr_llvm
	mov	r6, r0
	ldr	r2, [r9, #1436]
	ldr	r0, [r6]
	mov	r1, #0
	ldr	r3, [r0, #136]
	mov	r0, r6
	blx	r3
	ldr	r0, [r6]
	mov	r1, #1
	ldr	r2, [r9, #1440]
	ldr	r3, [r0, #136]
	mov	r0, r6
	blx	r3
	ldr	r0, [r4]
	mov	r1, #57
	mov	r2, r6
	ldr	r3, [r0, #136]
	mov	r0, r4
	blx	r3
	mov	r0, r5
	mov	r1, #2
	bl	p_24_plt_wrapper_alloc_object_AllocVector_intptr_intptr_llvm
	mov	r6, r0
	ldr	r2, [r9, #1444]
	ldr	r0, [r6]
	mov	r1, #0
	ldr	r3, [r0, #136]
	mov	r0, r6
	blx	r3
	ldr	r0, [r6]
	mov	r1, #1
	ldr	r2, [r9, #1448]
	ldr	r3, [r0, #136]
	mov	r0, r6
	blx	r3
	ldr	r0, [r4]
	mov	r1, #58
	mov	r2, r6
	ldr	r3, [r0, #136]
	mov	r0, r4
	blx	r3
	mov	r0, r5
	mov	r1, #2
	bl	p_24_plt_wrapper_alloc_object_AllocVector_intptr_intptr_llvm
	mov	r6, r0
	ldr	r2, [r9, #1452]
	ldr	r0, [r6]
	mov	r1, #0
	ldr	r3, [r0, #136]
	mov	r0, r6
	blx	r3
	ldr	r0, [r6]
	mov	r1, #1
	ldr	r2, [r9, #1456]
	ldr	r3, [r0, #136]
	mov	r0, r6
	blx	r3
	ldr	r0, [r4]
	mov	r1, #59
	mov	r2, r6
	ldr	r3, [r0, #136]
	mov	r0, r4
	blx	r3
	mov	r0, r5
	mov	r1, #2
	bl	p_24_plt_wrapper_alloc_object_AllocVector_intptr_intptr_llvm
	mov	r6, r0
	ldr	r2, [r9, #1460]
	ldr	r0, [r6]
	mov	r1, #0
	ldr	r3, [r0, #136]
	mov	r0, r6
	blx	r3
	ldr	r0, [r6]
	mov	r1, #1
	ldr	r2, [r9, #1464]
	ldr	r3, [r0, #136]
	mov	r0, r6
	blx	r3
	ldr	r0, [r4]
	mov	r1, #60
	mov	r2, r6
	ldr	r3, [r0, #136]
	mov	r0, r4
	blx	r3
	mov	r0, r5
	mov	r1, #2
	bl	p_24_plt_wrapper_alloc_object_AllocVector_intptr_intptr_llvm
	mov	r6, r0
	ldr	r2, [r9, #1468]
	ldr	r0, [r6]
	mov	r1, #0
	ldr	r3, [r0, #136]
	mov	r0, r6
	blx	r3
	ldr	r0, [r6]
	mov	r1, #1
	ldr	r2, [r9, #1472]
	ldr	r3, [r0, #136]
	mov	r0, r6
	blx	r3
	ldr	r0, [r4]
	mov	r1, #61
	mov	r2, r6
	ldr	r3, [r0, #136]
	mov	r0, r4
	blx	r3
	mov	r0, r5
	mov	r1, #2
	bl	p_24_plt_wrapper_alloc_object_AllocVector_intptr_intptr_llvm
	mov	r6, r0
	ldr	r2, [r9, #1476]
	ldr	r0, [r6]
	mov	r1, #0
	ldr	r3, [r0, #136]
	mov	r0, r6
	blx	r3
	ldr	r0, [r6]
	mov	r1, #1
	ldr	r2, [r9, #1480]
	ldr	r3, [r0, #136]
	mov	r0, r6
	blx	r3
	ldr	r0, [r4]
	mov	r1, #62
	mov	r2, r6
	ldr	r3, [r0, #136]
	mov	r0, r4
	blx	r3
	mov	r0, r5
	mov	r1, #2
	bl	p_24_plt_wrapper_alloc_object_AllocVector_intptr_intptr_llvm
	mov	r6, r0
	ldr	r2, [r9, #1484]
	ldr	r0, [r6]
	mov	r1, #0
	ldr	r3, [r0, #136]
	mov	r0, r6
	blx	r3
	ldr	r0, [r6]
	mov	r1, #1
	ldr	r2, [r9, #1488]
	ldr	r3, [r0, #136]
	mov	r0, r6
	blx	r3
	ldr	r0, [r4]
	mov	r1, #63
	mov	r2, r6
	ldr	r3, [r0, #136]
	mov	r0, r4
	blx	r3
	mov	r0, r5
	mov	r1, #2
	bl	p_24_plt_wrapper_alloc_object_AllocVector_intptr_intptr_llvm
	mov	r6, r0
	ldr	r2, [r9, #1492]
	ldr	r0, [r6]
	mov	r1, #0
	ldr	r3, [r0, #136]
	mov	r0, r6
	blx	r3
	ldr	r0, [r6]
	mov	r1, #1
	ldr	r2, [r9, #1496]
	ldr	r3, [r0, #136]
	mov	r0, r6
	blx	r3
	ldr	r0, [r4]
	mov	r1, #64
	mov	r2, r6
	ldr	r3, [r0, #136]
	mov	r0, r4
	blx	r3
	mov	r0, r5
	mov	r1, #2
	bl	p_24_plt_wrapper_alloc_object_AllocVector_intptr_intptr_llvm
	mov	r6, r0
	ldr	r2, [r9, #1500]
	ldr	r0, [r6]
	mov	r1, #0
	ldr	r3, [r0, #136]
	mov	r0, r6
	blx	r3
	ldr	r0, [r6]
	mov	r1, #1
	ldr	r2, [r9, #1504]
	ldr	r3, [r0, #136]
	mov	r0, r6
	blx	r3
	ldr	r0, [r4]
	mov	r1, #65
	mov	r2, r6
	ldr	r3, [r0, #136]
	mov	r0, r4
	blx	r3
	mov	r0, r5
	mov	r1, #2
	bl	p_24_plt_wrapper_alloc_object_AllocVector_intptr_intptr_llvm
	mov	r6, r0
	ldr	r2, [r9, #1508]
	ldr	r0, [r6]
	mov	r1, #0
	ldr	r3, [r0, #136]
	mov	r0, r6
	blx	r3
	ldr	r0, [r6]
	mov	r1, #1
	ldr	r2, [r9, #1512]
	ldr	r3, [r0, #136]
	mov	r0, r6
	blx	r3
	ldr	r0, [r4]
	mov	r1, #66
	mov	r2, r6
	ldr	r3, [r0, #136]
	mov	r0, r4
	blx	r3
	mov	r0, r5
	mov	r1, #2
	bl	p_24_plt_wrapper_alloc_object_AllocVector_intptr_intptr_llvm
	mov	r6, r0
	ldr	r2, [r9, #1516]
	ldr	r0, [r6]
	mov	r1, #0
	ldr	r3, [r0, #136]
	mov	r0, r6
	blx	r3
	ldr	r0, [r6]
	mov	r1, #1
	ldr	r2, [r9, #1520]
	ldr	r3, [r0, #136]
	mov	r0, r6
	blx	r3
	ldr	r0, [r4]
	mov	r1, #67
	mov	r2, r6
	ldr	r3, [r0, #136]
	mov	r0, r4
	blx	r3
	mov	r0, r5
	mov	r1, #2
	bl	p_24_plt_wrapper_alloc_object_AllocVector_intptr_intptr_llvm
	mov	r6, r0
	ldr	r2, [r9, #1524]
	ldr	r0, [r6]
	mov	r1, #0
	ldr	r3, [r0, #136]
	mov	r0, r6
	blx	r3
	ldr	r0, [sp, #4]
	mov	r1, #1
	ldr	r2, [r9, #1528]
	cmp	r0, #0
	strne	r7, [sp, #4]
	ldr	r0, [r6]
	ldr	r3, [r0, #136]
	mov	r0, r6
	blx	r3
	ldr	r0, [r4]
	mov	r1, #68
	mov	r2, r6
	ldr	r3, [r0, #136]
	mov	r0, r4
	blx	r3
	mov	r0, r5
	mov	r1, #2
	mov	r11, #2
	bl	p_24_plt_wrapper_alloc_object_AllocVector_intptr_intptr_llvm
	mov	r6, r0
	ldr	r2, [r9, #1532]
	ldr	r0, [r6]
	mov	r1, #0
	mov	r10, #0
	ldr	r3, [r0, #136]
	mov	r0, r6
	blx	r3
	ldr	r0, [r6]
	mov	r1, #1
	ldr	r2, [r9, #1536]
	ldr	r3, [r0, #136]
	mov	r0, r6
	blx	r3
	ldr	r0, [r4]
	mov	r1, #69
	mov	r2, r6
	ldr	r3, [r0, #136]
	mov	r0, r4
	blx	r3
	mov	r0, r5
	mov	r1, #2
	bl	p_24_plt_wrapper_alloc_object_AllocVector_intptr_intptr_llvm
	mov	r6, r0
	ldr	r2, [r9, #1540]
	ldr	r0, [r6]
	mov	r1, #0
	ldr	r3, [r0, #136]
	mov	r0, r6
	blx	r3
	ldr	r0, [r6]
	mov	r1, #1
	ldr	r2, [r9, #1544]
	ldr	r3, [r0, #136]
	mov	r0, r6
	blx	r3
	ldr	r0, [r4]
	mov	r1, #70
	mov	r2, r6
	ldr	r3, [r0, #136]
	mov	r0, r4
	blx	r3
	mov	r0, r5
	mov	r1, #2
	bl	p_24_plt_wrapper_alloc_object_AllocVector_intptr_intptr_llvm
	mov	r6, r0
	ldr	r2, [r9, #1548]
	ldr	r0, [r6]
	mov	r1, #0
	ldr	r3, [r0, #136]
	mov	r0, r6
	blx	r3
	ldr	r0, [r6]
	mov	r1, #1
	ldr	r2, [r9, #1552]
	ldr	r3, [r0, #136]
	mov	r0, r6
	blx	r3
	ldr	r0, [r4]
	mov	r1, #71
	mov	r2, r6
	ldr	r3, [r0, #136]
	mov	r0, r4
	blx	r3
	mov	r0, r5
	mov	r1, #2
	bl	p_24_plt_wrapper_alloc_object_AllocVector_intptr_intptr_llvm
	mov	r6, r0
	ldr	r2, [r9, #1556]
	ldr	r0, [r6]
	mov	r1, #0
	ldr	r3, [r0, #136]
	mov	r0, r6
	blx	r3
	ldr	r0, [r6]
	mov	r1, #1
	ldr	r2, [r9, #1560]
	ldr	r3, [r0, #136]
	mov	r0, r6
	blx	r3
	ldr	r0, [r4]
	mov	r1, #72
	mov	r2, r6
	ldr	r3, [r0, #136]
	mov	r0, r4
	blx	r3
	mov	r0, r5
	mov	r1, #2
	bl	p_24_plt_wrapper_alloc_object_AllocVector_intptr_intptr_llvm
	mov	r6, r0
	ldr	r2, [r9, #1564]
	ldr	r0, [r6]
	mov	r1, #0
	ldr	r3, [r0, #136]
	mov	r0, r6
	blx	r3
	ldr	r0, [r6]
	mov	r1, #1
	ldr	r2, [r9, #1568]
	ldr	r3, [r0, #136]
	mov	r0, r6
	blx	r3
	ldr	r0, [r4]
	mov	r1, #73
	mov	r2, r6
	ldr	r3, [r0, #136]
	mov	r0, r4
	blx	r3
	mov	r0, r5
	mov	r1, #2
	bl	p_24_plt_wrapper_alloc_object_AllocVector_intptr_intptr_llvm
	mov	r6, r0
	ldr	r2, [r9, #1572]
	ldr	r0, [r6]
	mov	r1, #0
	ldr	r3, [r0, #136]
	mov	r0, r6
	blx	r3
	ldr	r0, [r6]
	mov	r1, #1
	ldr	r2, [r9, #1576]
	ldr	r3, [r0, #136]
	mov	r0, r6
	blx	r3
	ldr	r0, [r4]
	mov	r1, #74
	mov	r2, r6
	ldr	r3, [r0, #136]
	mov	r0, r4
	blx	r3
	mov	r0, r5
	mov	r1, #2
	bl	p_24_plt_wrapper_alloc_object_AllocVector_intptr_intptr_llvm
	mov	r6, r0
	ldr	r2, [r9, #1580]
	ldr	r0, [r6]
	mov	r1, #0
	ldr	r3, [r0, #136]
	mov	r0, r6
	blx	r3
	ldr	r0, [r6]
	mov	r1, #1
	ldr	r2, [r9, #1584]
	ldr	r3, [r0, #136]
	mov	r0, r6
	blx	r3
	ldr	r0, [r4]
	mov	r1, #75
	mov	r2, r6
	ldr	r3, [r0, #136]
	mov	r0, r4
	blx	r3
	mov	r0, r5
	mov	r1, #2
	bl	p_24_plt_wrapper_alloc_object_AllocVector_intptr_intptr_llvm
	mov	r6, r0
	ldr	r2, [r9, #1588]
	ldr	r0, [r6]
	mov	r1, #0
	ldr	r3, [r0, #136]
	mov	r0, r6
	blx	r3
	ldr	r0, [r6]
	mov	r1, #1
	ldr	r2, [r9, #1592]
	ldr	r3, [r0, #136]
	mov	r0, r6
	blx	r3
	ldr	r0, [r4]
	mov	r1, #76
	mov	r2, r6
	ldr	r3, [r0, #136]
	mov	r0, r4
	blx	r3
	mov	r0, r5
	mov	r1, #2
	bl	p_24_plt_wrapper_alloc_object_AllocVector_intptr_intptr_llvm
	mov	r6, r0
	ldr	r2, [r9, #1596]
	ldr	r0, [r6]
	mov	r1, #0
	ldr	r3, [r0, #136]
	mov	r0, r6
	blx	r3
	ldr	r0, [r6]
	mov	r1, #1
	ldr	r2, [r9, #1600]
	ldr	r3, [r0, #136]
	mov	r0, r6
	blx	r3
	ldr	r0, [r4]
	mov	r1, #77
	mov	r2, r6
	ldr	r3, [r0, #136]
	mov	r0, r4
	blx	r3
	mov	r0, r5
	mov	r1, #2
	bl	p_24_plt_wrapper_alloc_object_AllocVector_intptr_intptr_llvm
	mov	r6, r0
	ldr	r2, [r9, #1604]
	ldr	r0, [r6]
	mov	r1, #0
	ldr	r3, [r0, #136]
	mov	r0, r6
	blx	r3
	ldr	r0, [r6]
	mov	r1, #1
	ldr	r2, [r9, #1608]
	ldr	r3, [r0, #136]
	mov	r0, r6
	blx	r3
	ldr	r0, [r4]
	mov	r1, #78
	mov	r2, r6
	ldr	r3, [r0, #136]
	mov	r0, r4
	blx	r3
	mov	r0, r5
	mov	r1, #2
	bl	p_24_plt_wrapper_alloc_object_AllocVector_intptr_intptr_llvm
	mov	r6, r0
	ldr	r2, [r9, #1612]
	ldr	r0, [r6]
	mov	r1, #0
	ldr	r3, [r0, #136]
	mov	r0, r6
	blx	r3
	ldr	r0, [r6]
	mov	r1, #1
	ldr	r2, [r9, #1616]
	ldr	r3, [r0, #136]
	mov	r0, r6
	blx	r3
	ldr	r0, [r4]
	mov	r1, #79
	mov	r2, r6
	ldr	r3, [r0, #136]
	mov	r0, r4
	blx	r3
	mov	r0, r5
	mov	r1, #2
	bl	p_24_plt_wrapper_alloc_object_AllocVector_intptr_intptr_llvm
	mov	r6, r0
	ldr	r2, [r9, #1620]
	ldr	r0, [r6]
	mov	r1, #0
	ldr	r3, [r0, #136]
	mov	r0, r6
	blx	r3
	ldr	r0, [r6]
	mov	r1, #1
	ldr	r2, [r9, #1624]
	ldr	r3, [r0, #136]
	mov	r0, r6
	blx	r3
	ldr	r0, [r4]
	mov	r1, #80
	mov	r2, r6
	ldr	r3, [r0, #136]
	mov	r0, r4
	blx	r3
	mov	r0, r5
	mov	r1, #2
	bl	p_24_plt_wrapper_alloc_object_AllocVector_intptr_intptr_llvm
	mov	r6, r0
	ldr	r2, [r9, #1628]
	ldr	r0, [r6]
	mov	r1, #0
	ldr	r3, [r0, #136]
	mov	r0, r6
	blx	r3
	ldr	r0, [r6]
	mov	r1, #1
	ldr	r2, [r9, #1632]
	ldr	r3, [r0, #136]
	mov	r0, r6
	blx	r3
	ldr	r0, [r4]
	mov	r1, #81
	mov	r2, r6
	ldr	r3, [r0, #136]
	mov	r0, r4
	blx	r3
	mov	r0, r5
	mov	r1, #2
	bl	p_24_plt_wrapper_alloc_object_AllocVector_intptr_intptr_llvm
	mov	r6, r0
	ldr	r2, [r9, #1636]
	ldr	r0, [r6]
	mov	r1, #0
	ldr	r3, [r0, #136]
	mov	r0, r6
	blx	r3
	ldr	r0, [r6]
	mov	r1, #1
	ldr	r2, [r9, #1640]
	ldr	r3, [r0, #136]
	mov	r0, r6
	blx	r3
	ldr	r0, [r4]
	mov	r1, #82
	mov	r2, r6
	ldr	r3, [r0, #136]
	mov	r0, r4
	blx	r3
	mov	r0, r5
	mov	r1, #2
	bl	p_24_plt_wrapper_alloc_object_AllocVector_intptr_intptr_llvm
	mov	r7, r0
	ldr	r2, [r9, #1644]
	ldr	r0, [r7]
	mov	r1, #0
	ldr	r3, [r0, #136]
	mov	r0, r7
	blx	r3
	ldr	r0, [r7]
	mov	r1, #1
	ldr	r6, [r9, #1648]
	ldr	r3, [r0, #136]
	mov	r0, r7
	mov	r2, r6
	blx	r3
	ldr	r0, [r4]
	mov	r1, #83
	mov	r2, r7
	ldr	r3, [r0, #136]
	mov	r0, r4
	blx	r3
	mov	r0, r5
	mov	r1, #2
	bl	p_24_plt_wrapper_alloc_object_AllocVector_intptr_intptr_llvm
	mov	r7, r0
	ldr	r2, [r9, #1652]
	ldr	r0, [r7]
	mov	r1, #0
	ldr	r3, [r0, #136]
	mov	r0, r7
	blx	r3
	ldr	r0, [r7]
	mov	r1, #1
	mov	r2, r6
	ldr	r3, [r0, #136]
	mov	r0, r7
	blx	r3
	ldr	r0, [r4]
	mov	r1, #84
	mov	r2, r7
	ldr	r3, [r0, #136]
	mov	r0, r4
	blx	r3
	mov	r0, r5
	mov	r1, #2
	bl	p_24_plt_wrapper_alloc_object_AllocVector_intptr_intptr_llvm
	mov	r6, r0
	ldr	r2, [r9, #1656]
	ldr	r0, [r6]
	mov	r1, #0
	ldr	r3, [r0, #136]
	mov	r0, r6
	blx	r3
	ldr	r0, [r6]
	mov	r1, #1
	ldr	r2, [r9, #1660]
	ldr	r3, [r0, #136]
	mov	r0, r6
	blx	r3
	ldr	r0, [r4]
	mov	r1, #85
	mov	r2, r6
	ldr	r3, [r0, #136]
	mov	r0, r4
	blx	r3
	mov	r0, r5
	mov	r1, #2
	bl	p_24_plt_wrapper_alloc_object_AllocVector_intptr_intptr_llvm
	mov	r6, r0
	ldr	r2, [r9, #1664]
	ldr	r0, [r6]
	mov	r1, #0
	ldr	r3, [r0, #136]
	mov	r0, r6
	blx	r3
	ldr	r0, [r6]
	mov	r1, #1
	ldr	r2, [r9, #1668]
	ldr	r3, [r0, #136]
	mov	r0, r6
	blx	r3
	ldr	r0, [r4]
	mov	r1, #86
	mov	r2, r6
	ldr	r3, [r0, #136]
	mov	r0, r4
	blx	r3
	mov	r0, r5
	mov	r1, #2
	bl	p_24_plt_wrapper_alloc_object_AllocVector_intptr_intptr_llvm
	mov	r6, r0
	ldr	r2, [r9, #1672]
	ldr	r0, [r6]
	mov	r1, #0
	ldr	r3, [r0, #136]
	mov	r0, r6
	blx	r3
	ldr	r0, [r6]
	mov	r1, #1
	ldr	r2, [r9, #1676]
	ldr	r3, [r0, #136]
	mov	r0, r6
	blx	r3
	ldr	r0, [r4]
	mov	r1, #87
	mov	r2, r6
	ldr	r3, [r0, #136]
	mov	r0, r4
	blx	r3
	mov	r0, r5
	mov	r1, #2
	bl	p_24_plt_wrapper_alloc_object_AllocVector_intptr_intptr_llvm
	mov	r6, r0
	ldr	r2, [r9, #1680]
	ldr	r0, [r6]
	mov	r1, #0
	ldr	r3, [r0, #136]
	mov	r0, r6
	blx	r3
	ldr	r0, [r6]
	mov	r1, #1
	ldr	r2, [r9, #1684]
	ldr	r3, [r0, #136]
	mov	r0, r6
	blx	r3
	ldr	r0, [r4]
	mov	r1, #88
	mov	r2, r6
	ldr	r3, [r0, #136]
	mov	r0, r4
	blx	r3
	mov	r0, r5
	mov	r1, #2
	bl	p_24_plt_wrapper_alloc_object_AllocVector_intptr_intptr_llvm
	mov	r6, r0
	ldr	r2, [r9, #1688]
	ldr	r0, [r6]
	mov	r1, #0
	ldr	r3, [r0, #136]
	mov	r0, r6
	blx	r3
	ldr	r0, [r6]
	mov	r1, #1
	ldr	r2, [r9, #1692]
	ldr	r3, [r0, #136]
	mov	r0, r6
	blx	r3
	ldr	r0, [r4]
	mov	r1, #89
	mov	r2, r6
	ldr	r3, [r0, #136]
	mov	r0, r4
	blx	r3
	mov	r0, r5
	mov	r1, #2
	bl	p_24_plt_wrapper_alloc_object_AllocVector_intptr_intptr_llvm
	mov	r6, r0
	ldr	r2, [r9, #1696]
	ldr	r0, [r6]
	mov	r1, #0
	ldr	r3, [r0, #136]
	mov	r0, r6
	blx	r3
	ldr	r0, [r6]
	mov	r1, #1
	ldr	r2, [r9, #1700]
	ldr	r3, [r0, #136]
	mov	r0, r6
	blx	r3
	ldr	r0, [r4]
	mov	r1, #90
	mov	r2, r6
	ldr	r3, [r0, #136]
	mov	r0, r4
	blx	r3
	mov	r0, r5
	mov	r1, #2
	bl	p_24_plt_wrapper_alloc_object_AllocVector_intptr_intptr_llvm
	mov	r6, r0
	ldr	r2, [r9, #1704]
	ldr	r0, [r6]
	mov	r1, #0
	ldr	r3, [r0, #136]
	mov	r0, r6
	blx	r3
	ldr	r0, [r6]
	mov	r1, #1
	ldr	r2, [r9, #1708]
	ldr	r3, [r0, #136]
	mov	r0, r6
	blx	r3
	ldr	r0, [r4]
	mov	r1, #91
	mov	r2, r6
	ldr	r3, [r0, #136]
	mov	r0, r4
	blx	r3
	mov	r0, r5
	mov	r1, #2
	bl	p_24_plt_wrapper_alloc_object_AllocVector_intptr_intptr_llvm
	mov	r6, r0
	ldr	r2, [r9, #1712]
	ldr	r0, [r6]
	mov	r1, #0
	ldr	r3, [r0, #136]
	mov	r0, r6
	blx	r3
	ldr	r0, [r6]
	mov	r1, #1
	ldr	r2, [r9, #1716]
	ldr	r3, [r0, #136]
	mov	r0, r6
	blx	r3
	ldr	r0, [r4]
	mov	r1, #92
	mov	r2, r6
	ldr	r3, [r0, #136]
	mov	r0, r4
	blx	r3
	mov	r0, r5
	mov	r1, #2
	bl	p_24_plt_wrapper_alloc_object_AllocVector_intptr_intptr_llvm
	mov	r6, r0
	ldr	r2, [r9, #1720]
	ldr	r0, [r6]
	mov	r1, #0
	ldr	r3, [r0, #136]
	mov	r0, r6
	blx	r3
	ldr	r0, [r6]
	mov	r1, #1
	ldr	r2, [r9, #1724]
	ldr	r3, [r0, #136]
	mov	r0, r6
	blx	r3
	ldr	r0, [r4]
	mov	r1, #93
	mov	r2, r6
	ldr	r3, [r0, #136]
	mov	r0, r4
	blx	r3
	mov	r0, r5
	mov	r1, #2
	bl	p_24_plt_wrapper_alloc_object_AllocVector_intptr_intptr_llvm
	mov	r6, r0
	ldr	r2, [r9, #1728]
	ldr	r0, [r6]
	mov	r1, #0
	ldr	r3, [r0, #136]
	mov	r0, r6
	blx	r3
	ldr	r0, [r6]
	mov	r1, #1
	ldr	r2, [r9, #1732]
	ldr	r3, [r0, #136]
	mov	r0, r6
	blx	r3
	ldr	r0, [r4]
	mov	r1, #94
	mov	r2, r6
	ldr	r3, [r0, #136]
	mov	r0, r4
	blx	r3
	mov	r0, r5
	mov	r1, #2
	bl	p_24_plt_wrapper_alloc_object_AllocVector_intptr_intptr_llvm
	mov	r6, r0
	ldr	r2, [r9, #1736]
	ldr	r0, [r6]
	mov	r1, #0
	ldr	r3, [r0, #136]
	mov	r0, r6
	blx	r3
	ldr	r0, [r6]
	mov	r1, #1
	ldr	r2, [r9, #1740]
	ldr	r3, [r0, #136]
	mov	r0, r6
	blx	r3
	ldr	r0, [r4]
	mov	r1, #95
	mov	r2, r6
	ldr	r3, [r0, #136]
	mov	r0, r4
	blx	r3
	mov	r0, r5
	mov	r1, #2
	bl	p_24_plt_wrapper_alloc_object_AllocVector_intptr_intptr_llvm
	mov	r6, r0
	ldr	r2, [r9, #1744]
	ldr	r0, [r6]
	mov	r1, #0
	ldr	r3, [r0, #136]
	mov	r0, r6
	blx	r3
	ldr	r0, [sp, #4]
	mov	r1, #1
	ldr	r2, [r9, #1748]
	cmp	r0, #0
	movne	r0, #1
	strne	r0, [sp, #4]
	ldr	r0, [r6]
	ldr	r3, [r0, #136]
	mov	r0, r6
	blx	r3
	ldr	r0, [r4]
	mov	r1, #96
	mov	r2, r6
	ldr	r3, [r0, #136]
	mov	r0, r4
	blx	r3
	mov	r0, r5
	mov	r1, #2
	bl	p_24_plt_wrapper_alloc_object_AllocVector_intptr_intptr_llvm
	mov	r6, r0
	ldr	r2, [r9, #1752]
	ldr	r0, [r6]
	mov	r1, #0
	ldr	r3, [r0, #136]
	mov	r0, r6
	blx	r3
	ldr	r0, [r6]
	mov	r1, #1
	ldr	r2, [r9, #1756]
	ldr	r3, [r0, #136]
	mov	r0, r6
	blx	r3
	ldr	r0, [r4]
	mov	r1, #97
	mov	r2, r6
	ldr	r3, [r0, #136]
	mov	r0, r4
	blx	r3
	mov	r0, r5
	mov	r1, #2
	bl	p_24_plt_wrapper_alloc_object_AllocVector_intptr_intptr_llvm
	mov	r6, r0
	ldr	r2, [r9, #1760]
	ldr	r0, [r6]
	mov	r1, #0
	ldr	r3, [r0, #136]
	mov	r0, r6
	blx	r3
	ldr	r0, [r6]
	mov	r1, #1
	ldr	r2, [r9, #1764]
	ldr	r3, [r0, #136]
	mov	r0, r6
	blx	r3
	ldr	r0, [r4]
	mov	r1, #98
	mov	r2, r6
	ldr	r3, [r0, #136]
	mov	r0, r4
	blx	r3
	mov	r0, r5
	mov	r1, #2
	bl	p_24_plt_wrapper_alloc_object_AllocVector_intptr_intptr_llvm
	mov	r6, r0
	ldr	r2, [r9, #1768]
	ldr	r0, [r6]
	mov	r1, #0
	ldr	r3, [r0, #136]
	mov	r0, r6
	blx	r3
